
<stdin>:	file format elf64-postrisc
architecture: postrisc
start address: 0x0000000000000000

Program Header:

Dynamic Section:

Sections:
Idx Name            Size     VMA              LMA              Type
  0                 00000000 0000000000000000 0000000000000000 
  1 .strtab         00003d95 0000000000000000 0000000000000000 
  2 .text           00006fd0 0000000000000000 0000000000000000 TEXT
  3 .rela.text      00002460 0000000000000000 0000000000000000 
  4 .rodata         00000090 0000000000000000 0000000000000000 DATA
  5 .rela.rodata    00000360 0000000000000000 0000000000000000 
  6 .text.unlikely. 00000030 0000000000000000 0000000000000000 TEXT
  7 .rodata.str1.1  00000429 0000000000000000 0000000000000000 DATA
  8 .data           00000008 0000000000000000 0000000000000000 DATA
  9 .bss            00000070 0000000000000000 0000000000000000 BSS
 10 .tbss           00000008 0000000000000000 0000000000000000 BSS
 11 .comment        00000019 0000000000000000 0000000000000000 
 12 .note.GNU-stack 00000000 0000000000000000 0000000000000000 
 13 .symtab         00005238 0000000000000000 0000000000000000 

SYMBOL TABLE:
0000000000000000 l    df *ABS*	0000000000000000 foo.temp.c
0000000000000000 l    d  .text	0000000000000000 .text
0000000000000343 l     O .rodata.str1.1	0000000000000008 .Lstr.98
0000000000000000 l     O .rodata.str1.1	0000000000000019 .L.str.1
0000000000000019 l     O .rodata.str1.1	0000000000000018 .L.str.2
0000000000000031 l     O .rodata.str1.1	0000000000000019 .L.str.3
000000000000004a l     O .rodata.str1.1	0000000000000019 .L.str.4
0000000000000063 l     O .rodata.str1.1	0000000000000019 .L.str.5
000000000000007c l     O .rodata.str1.1	0000000000000015 .L.str.6
0000000000000091 l     O .rodata.str1.1	0000000000000014 .L.str.7
00000000000000a5 l     O .rodata.str1.1	0000000000000015 .L.str.8
00000000000000ba l     O .rodata.str1.1	0000000000000015 .L.str.9
00000000000000cf l     O .rodata.str1.1	0000000000000015 .L.str.10
00000000000000e4 l     O .rodata.str1.1	0000000000000005 .L.str.11
00000000000000e9 l     O .rodata.str1.1	0000000000000005 .L.str.12
00000000000000ee l     O .rodata.str1.1	0000000000000007 .L.str.13
00000000000000f5 l     O .rodata.str1.1	0000000000000009 .L.str.14
00000000000000fe l     O .rodata.str1.1	000000000000000b .L.str.15
0000000000000109 l     O .rodata.str1.1	000000000000000e .L.str.16
0000000000000117 l     O .rodata.str1.1	0000000000000007 .L.str.17
0000000000000000 l     O .data	0000000000000008 uglbx
000000000000011e l     O .rodata.str1.1	0000000000000007 .L.str.18
0000000000000125 l     O .rodata.str1.1	0000000000000007 .L.str.19
000000000000034b l     O .rodata.str1.1	000000000000000c .Lstr.99
0000000000000357 l     O .rodata.str1.1	000000000000000c .Lstr.100
0000000000000363 l     O .rodata.str1.1	000000000000000c .Lstr.101
000000000000036f l     O .rodata.str1.1	000000000000000c .Lstr.102
000000000000037b l     O .rodata.str1.1	000000000000000c .Lstr.103
0000000000000387 l     O .rodata.str1.1	000000000000000c .Lstr.104
0000000000000393 l     O .rodata.str1.1	000000000000000c .Lstr.105
000000000000039f l     O .rodata.str1.1	000000000000000c .Lstr.106
00000000000003ab l     O .rodata.str1.1	000000000000000c .Lstr.107
00000000000003b7 l     O .rodata.str1.1	000000000000000c .Lstr.108
00000000000003c3 l     O .rodata.str1.1	000000000000000c .Lstr.109
00000000000003cf l     O .rodata.str1.1	000000000000000c .Lstr.110
00000000000003db l     O .rodata.str1.1	000000000000000d .Lstr.111
00000000000003e8 l     O .rodata.str1.1	000000000000000d .Lstr.112
00000000000003f5 l     O .rodata.str1.1	000000000000000d .Lstr.113
0000000000000402 l     O .rodata.str1.1	000000000000000d .Lstr.114
000000000000040f l     O .rodata.str1.1	000000000000000d .Lstr.115
000000000000041c l     O .rodata.str1.1	000000000000000d .Lstr.116
0000000000000000 l     O .bss	0000000000000002 f16_zero
0000000000000004 l     O .bss	0000000000000004 f32_zero
0000000000000008 l     O .bss	0000000000000008 f64_zero
0000000000000010 l     O .bss	0000000000000010 f128_zero
0000000000004b20 l     F .text	0000000000000010 test_static_function_pointer_target
0000000000000028 l     O .bss	0000000000000001 i8_zero
0000000000000029 l     O .bss	0000000000000001 u8_zero
000000000000002a l     O .bss	0000000000000002 i16_zero
000000000000002c l     O .bss	0000000000000002 u16_zero
0000000000000030 l     O .bss	0000000000000004 i32_zero
0000000000000034 l     O .bss	0000000000000004 u32_zero
0000000000000038 l     O .bss	0000000000000008 i64_zero
0000000000000040 l     O .bss	0000000000000008 u64_zero
0000000000000050 l     O .bss	0000000000000010 i128_zero
0000000000000060 l     O .bss	0000000000000010 u128_zero
00000000000064d0 l     F .text	0000000000000090 sn_write
0000000000000000 l       .rodata	0000000000000000 .LJTI665_0
000000000000012c l     O .rodata.str1.1	000000000000000c .L.str.38
000000000000016b l     O .rodata.str1.1	0000000000000011 .L.str.42
0000000000000149 l     O .rodata.str1.1	0000000000000011 .L.str.40
000000000000015a l     O .rodata.str1.1	0000000000000011 .L.str.41
0000000000000138 l     O .rodata.str1.1	0000000000000011 .L.str.39
000000000000017c l     O .rodata.str1.1	0000000000000011 .L.str.43
0000000000000018 l       .rodata	0000000000000000 .LJTI666_0
000000000000018d l     O .rodata.str1.1	000000000000000a .L.str.44
00000000000001be l     O .rodata.str1.1	000000000000000d .L.str.48
00000000000001a4 l     O .rodata.str1.1	000000000000000d .L.str.46
00000000000001b1 l     O .rodata.str1.1	000000000000000d .L.str.47
0000000000000197 l     O .rodata.str1.1	000000000000000d .L.str.45
00000000000001cb l     O .rodata.str1.1	000000000000000d .L.str.49
0000000000000030 l       .rodata	0000000000000000 .LJTI667_0
00000000000001d8 l     O .rodata.str1.1	000000000000000a .L.str.50
000000000000020a l     O .rodata.str1.1	000000000000000d .L.str.54
00000000000001ef l     O .rodata.str1.1	000000000000000d .L.str.52
00000000000001fc l     O .rodata.str1.1	000000000000000e .L.str.53
00000000000001e2 l     O .rodata.str1.1	000000000000000d .L.str.51
0000000000000217 l     O .rodata.str1.1	000000000000000d .L.str.55
0000000000000048 l       .rodata	0000000000000000 .LJTI668_0
0000000000000224 l     O .rodata.str1.1	000000000000000d .L.str.56
0000000000000267 l     O .rodata.str1.1	0000000000000012 .L.str.60
0000000000000243 l     O .rodata.str1.1	0000000000000012 .L.str.58
0000000000000255 l     O .rodata.str1.1	0000000000000012 .L.str.59
0000000000000231 l     O .rodata.str1.1	0000000000000012 .L.str.57
0000000000000279 l     O .rodata.str1.1	0000000000000012 .L.str.61
0000000000000060 l       .rodata	0000000000000000 .LJTI669_0
000000000000028b l     O .rodata.str1.1	000000000000000b .L.str.62
00000000000002c0 l     O .rodata.str1.1	000000000000000e .L.str.66
00000000000002a4 l     O .rodata.str1.1	000000000000000e .L.str.64
00000000000002b2 l     O .rodata.str1.1	000000000000000e .L.str.65
0000000000000296 l     O .rodata.str1.1	000000000000000e .L.str.63
00000000000002ce l     O .rodata.str1.1	000000000000000e .L.str.67
0000000000000078 l       .rodata	0000000000000000 .LJTI670_0
00000000000002dc l     O .rodata.str1.1	000000000000000b .L.str.68
0000000000000312 l     O .rodata.str1.1	000000000000000e .L.str.72
00000000000002f5 l     O .rodata.str1.1	000000000000000e .L.str.70
0000000000000303 l     O .rodata.str1.1	000000000000000f .L.str.71
00000000000002e7 l     O .rodata.str1.1	000000000000000e .L.str.69
0000000000000320 l     O .rodata.str1.1	000000000000000e .L.str.73
000000000000032e l     O .rodata.str1.1	000000000000000a .L.str.74
0000000000000338 l     O .rodata.str1.1	000000000000000b .L.str.75
0000000000000000 g     F .text	0000000000000010 test_i64_abs
0000000000000010 g     F .text	0000000000000010 test_i32_abs
0000000000000020 g     F .text	0000000000000010 test_i64_abs_difference
0000000000000030 g     F .text	0000000000000010 test_i32_abs_difference
0000000000000040 g     F .text	0000000000000010 test_aesenc
0000000000000050 g     F .text	0000000000000010 test_aesenclast
0000000000000060 g     F .text	0000000000000010 test_aesdec
0000000000000070 g     F .text	0000000000000010 test_aesdeclast
0000000000000080 g     F .text	0000000000000010 test_aesimc
0000000000000090 g     F .text	0000000000000020 test_aeskeygenassist
00000000000000b0 g     F .text	0000000000000010 test_ldi32
00000000000000c0 g     F .text	0000000000000020 test_ldi32_long
00000000000000e0 g     F .text	0000000000000010 test_ldi64
00000000000000f0 g     F .text	0000000000000020 test_ldi64_long
0000000000000110 g     F .text	0000000000000010 test_subfi_i64
0000000000000120 g     F .text	0000000000000010 test_subfi_i32
0000000000000130 g     F .text	0000000000000030 test_addil
0000000000000160 g     F .text	0000000000000020 test_andil
0000000000000180 g     F .text	0000000000000020 test_oril
00000000000001a0 g     F .text	0000000000000010 test_addadd
00000000000001b0 g     F .text	0000000000000010 test_addsub
00000000000001c0 g     F .text	0000000000000010 test_subsub
00000000000001d0 g     F .text	0000000000000010 test_mul_i32_i32
00000000000001e0 g     F .text	0000000000000010 test_mul_i32_imm
00000000000001f0 g     F .text	0000000000000020 test_mul_i32_imm_ext
0000000000000210 g     F .text	0000000000000010 test_mul_u32_imm
0000000000000220 g     F .text	0000000000000020 test_mul_u32_imm_ext
0000000000000240 g     F .text	0000000000000010 test_mul_i32_i64
0000000000000250 g     F .text	0000000000000010 test_mul_u32_u64
0000000000000260 g     F .text	0000000000000010 test_mul_i32_u64
0000000000000270 g     F .text	0000000000000010 test_mul_i32_i64_imm
0000000000000280 g     F .text	0000000000000020 test_mul_i32_i64_imm_ext
00000000000002a0 g     F .text	0000000000000010 test_mul_u32_u64_imm
00000000000002b0 g     F .text	0000000000000020 test_mul_u32_u64_imm_ext
00000000000002d0 g     F .text	0000000000000010 test_mul_i64_i64
00000000000002e0 g     F .text	0000000000000300 test_atomic_compare_exchange_i8
00000000000005e0 g     F .text	0000000000000300 test_atomic_compare_exchange_i16
00000000000008e0 g     F .text	0000000000000300 test_atomic_compare_exchange_i32
0000000000000be0 g     F .text	0000000000000300 test_atomic_compare_exchange_i64
0000000000000ee0 g     F .text	0000000000000300 test_atomic_compare_exchange_i128
00000000000011e0 g     F .text	0000000000000040 test_atomic_exchange_i8
0000000000001220 g     F .text	0000000000000040 test_atomic_exchange_i16
0000000000001260 g     F .text	0000000000000030 test_atomic_exchange_i32
0000000000001290 g     F .text	0000000000000030 test_atomic_exchange_i64
00000000000012c0 g     F .text	0000000000000030 test_atomic_exchange_i128
00000000000012f0 g     F .text	0000000000000010 test_fence_acquire
0000000000001300 g     F .text	0000000000000010 test_fence_release
0000000000001310 g     F .text	0000000000000010 test_fence_acq_rel
0000000000001320 g     F .text	0000000000000010 test_fence_seq_cst
0000000000001330 g     F .text	0000000000000010 test_compiler_fence
0000000000001340 g     F .text	0000000000000040 test_atomic_load_u8_u8
0000000000001380 g     F .text	0000000000000040 test_atomic_load_u8_u16
00000000000013c0 g     F .text	0000000000000040 test_atomic_load_u8_u32
0000000000001400 g     F .text	0000000000000040 test_atomic_load_u8_u64
0000000000001440 g     F .text	0000000000000040 test_atomic_load_u16_u16
0000000000001480 g     F .text	0000000000000040 test_atomic_load_u16_u32
00000000000014c0 g     F .text	0000000000000040 test_atomic_load_u16_u64
0000000000001500 g     F .text	0000000000000040 test_atomic_load_u32_u32
0000000000001540 g     F .text	0000000000000040 test_atomic_load_u32_u64
0000000000001580 g     F .text	0000000000000040 test_atomic_load_u64_u64
00000000000015c0 g     F .text	0000000000000040 test_atomic_load_u128_u128
0000000000001600 g     F .text	0000000000000140 test_atomic_load_op_i8
0000000000001740 g     F .text	0000000000000130 test_atomic_load_op_u8
0000000000001870 g     F .text	0000000000000140 test_atomic_load_op_i16
00000000000019b0 g     F .text	0000000000000130 test_atomic_load_op_u16
0000000000001ae0 g     F .text	0000000000000130 test_atomic_load_op_i32
0000000000001c10 g     F .text	0000000000000130 test_atomic_load_op_u32
0000000000001d40 g     F .text	0000000000000130 test_atomic_load_op_i64
0000000000001e70 g     F .text	0000000000000130 test_atomic_load_op_u64
0000000000001fa0 g     F .text	0000000000000130 test_atomic_load_op_i128
00000000000020d0 g     F .text	0000000000000130 test_atomic_load_op_u128
0000000000002200 g     F .text	0000000000000020 test_atomic_store_i8
0000000000002220 g     F .text	0000000000000020 test_atomic_store_i16
0000000000002240 g     F .text	0000000000000020 test_atomic_store_i32
0000000000002260 g     F .text	0000000000000020 test_atomic_store_i64
0000000000002280 g     F .text	0000000000000020 test_atomic_store_i128
00000000000022a0 g     F .text	0000000000000010 test_i32_inv
00000000000022b0 g     F .text	0000000000000010 test_i64_inv
00000000000022c0 g     F .text	0000000000000010 test_i128_inv
00000000000022d0 g     F .text	0000000000000010 test_i32_and
00000000000022e0 g     F .text	0000000000000010 test_i64_and
00000000000022f0 g     F .text	0000000000000010 test_i128_and
0000000000002300 g     F .text	0000000000000010 test_i32_andi
0000000000002310 g     F .text	0000000000000020 test_i32_andi_ext
0000000000002330 g     F .text	0000000000000010 test_i64_andi
0000000000002340 g     F .text	0000000000000020 test_i64_andi_ext
0000000000002360 g     F .text	0000000000000010 test_i128_andi
0000000000002370 g     F .text	0000000000000020 test_i128_andi_ext
0000000000002390 g     F .text	0000000000000010 test_i32_andn
00000000000023a0 g     F .text	0000000000000010 test_i64_andn
00000000000023b0 g     F .text	0000000000000010 test_i128_andn
00000000000023c0 g     F .text	0000000000000010 test_i32_andni
00000000000023d0 g     F .text	0000000000000020 test_i32_andni_ext
00000000000023f0 g     F .text	0000000000000010 test_i64_andni
0000000000002400 g     F .text	0000000000000020 test_i64_andni_ext
0000000000002420 g     F .text	0000000000000010 test_i128_andni
0000000000002430 g     F .text	0000000000000020 test_i128_andni_ext
0000000000002450 g     F .text	0000000000000010 test_i32_or
0000000000002460 g     F .text	0000000000000010 test_i64_or
0000000000002470 g     F .text	0000000000000010 test_i128_or
0000000000002480 g     F .text	0000000000000010 test_i32_ori
0000000000002490 g     F .text	0000000000000020 test_i32_ori_ext
00000000000024b0 g     F .text	0000000000000010 test_i64_ori
00000000000024c0 g     F .text	0000000000000020 test_i64_ori_ext
00000000000024e0 g     F .text	0000000000000010 test_i128_ori
00000000000024f0 g     F .text	0000000000000020 test_i128_ori_ext
0000000000002510 g     F .text	0000000000000010 test_i32_orn
0000000000002520 g     F .text	0000000000000010 test_i64_orn
0000000000002530 g     F .text	0000000000000010 test_i128_orn
0000000000002540 g     F .text	0000000000000010 test_i32_orni
0000000000002550 g     F .text	0000000000000020 test_i32_orni_ext
0000000000002570 g     F .text	0000000000000010 test_i64_orni
0000000000002580 g     F .text	0000000000000020 test_i64_orni_ext
00000000000025a0 g     F .text	0000000000000010 test_i128_orni
00000000000025b0 g     F .text	0000000000000020 test_i128_orni_ext
00000000000025d0 g     F .text	0000000000000010 test_i32_xor
00000000000025e0 g     F .text	0000000000000010 test_i64_xor
00000000000025f0 g     F .text	0000000000000010 test_i128_xor
0000000000002600 g     F .text	0000000000000010 test_i32_xori
0000000000002610 g     F .text	0000000000000020 test_i32_xori_ext
0000000000002630 g     F .text	0000000000000010 test_i64_xori
0000000000002640 g     F .text	0000000000000020 test_i64_xori_ext
0000000000002660 g     F .text	0000000000000010 test_i128_xori
0000000000002670 g     F .text	0000000000000020 test_i128_xori_ext
0000000000002690 g     F .text	0000000000000010 test_i1_and
00000000000026a0 g     F .text	0000000000000010 test_i1_or
00000000000026b0 g     F .text	0000000000000010 test_i1_xor
00000000000026c0 g     F .text	0000000000000010 test_i1_not
00000000000026d0 g     F .text	0000000000000020 test_i1_andn
00000000000026f0 g     F .text	0000000000000020 test_i1_orn
0000000000002710 g     F .text	0000000000000020 test_i1_nand
0000000000002730 g     F .text	0000000000000010 test_i1_to_i32
0000000000002740 g     F .text	0000000000000010 test_i1_to_i64
0000000000002750 g     F .text	0000000000000010 test_i1_inv
0000000000002760 g     F .text	0000000000000010 test_imm_to_i1
0000000000002770 g     F .text	0000000000000050 test_write_i1
0000000000000000         *UND*	0000000000000000 test_bool_true
0000000000000000         *UND*	0000000000000000 test_bool_false
0000000000000000         *UND*	0000000000000000 test_i8_true
0000000000000000         *UND*	0000000000000000 test_i8_false
0000000000000000         *UND*	0000000000000000 test_i16_true
0000000000000000         *UND*	0000000000000000 test_i16_false
0000000000000000         *UND*	0000000000000000 test_i32_true
0000000000000000         *UND*	0000000000000000 test_i32_false
0000000000000000         *UND*	0000000000000000 test_i64_true
0000000000000000         *UND*	0000000000000000 test_i64_false
00000000000027c0 g     F .text	0000000000000020 test_branch_i64_eqi
0000000000000000         *UND*	0000000000000000 puts
00000000000027e0 g     F .text	0000000000000020 test_branch_i64_nei
0000000000002800 g     F .text	0000000000000020 test_branch_i64_lti
0000000000002820 g     F .text	0000000000000020 test_branch_i64_lei
0000000000002840 g     F .text	0000000000000020 test_branch_i64_gti
0000000000002860 g     F .text	0000000000000020 test_branch_i64_gei
0000000000002880 g     F .text	0000000000000020 test_branch_ext_i64_eqi
00000000000028a0 g     F .text	0000000000000020 test_branch_ext_i64_nei
00000000000028c0 g     F .text	0000000000000020 test_branch_ext_i64_lti
00000000000028e0 g     F .text	0000000000000020 test_branch_ext_i64_lei
0000000000002900 g     F .text	0000000000000020 test_branch_ext_i64_gti
0000000000002920 g     F .text	0000000000000020 test_branch_ext_i64_gei
0000000000002940 g     F .text	0000000000000020 test_branch_i32_eqi
0000000000002960 g     F .text	0000000000000020 test_branch_i32_nei
0000000000002980 g     F .text	0000000000000020 test_branch_i32_lti
00000000000029a0 g     F .text	0000000000000020 test_branch_i32_lei
00000000000029c0 g     F .text	0000000000000020 test_branch_i32_gti
00000000000029e0 g     F .text	0000000000000020 test_branch_i32_gei
0000000000002a00 g     F .text	0000000000000020 test_branch_ext_i32_eqi
0000000000002a20 g     F .text	0000000000000020 test_branch_ext_i32_nei
0000000000002a40 g     F .text	0000000000000020 test_branch_ext_i32_lti
0000000000002a60 g     F .text	0000000000000020 test_branch_ext_i32_lei
0000000000002a80 g     F .text	0000000000000020 test_branch_ext_i32_gti
0000000000002aa0 g     F .text	0000000000000020 test_branch_ext_i32_gei
0000000000002ac0 g     F .text	0000000000000030 test_bit_1
0000000000000000         *UND*	0000000000000000 printf
0000000000002af0 g     F .text	0000000000000030 test_bit_2
0000000000002b20 g     F .text	0000000000000030 test_bit_3
0000000000002b50 g     F .text	0000000000000030 test_bit_4
0000000000002b80 g     F .text	0000000000000030 test_bit_5
0000000000002bb0 g     F .text	0000000000000030 test_bit_i32_1
0000000000002be0 g     F .text	0000000000000030 test_bit_i32_2
0000000000002c10 g     F .text	0000000000000030 test_bit_i32_3
0000000000002c40 g     F .text	0000000000000030 test_bit_i32_4
0000000000002c70 g     F .text	0000000000000030 test_bit_i32_5
0000000000002ca0 g     F .text	0000000000000080 test_ball
0000000000002d20 g     F .text	00000000000001b0 test_builtin_get_special_reg
0000000000000000         *UND*	0000000000000000 consume_sr64
0000000000000000         *UND*	0000000000000000 consume_sr128
0000000000002ed0 g     F .text	00000000000000e0 test_builtin_set_special_reg
0000000000002fb0 g     F .text	0000000000000020 test_i128_load_store
0000000000002fd0 g     F .text	0000000000000070 test_builtin_va
0000000000000000         *UND*	0000000000000000 test_builtin_va_consume_i32
0000000000000000         *UND*	0000000000000000 test_builtin_va_consume_f64
0000000000000000         *UND*	0000000000000000 test_builtin_va_consume_f128
0000000000003040 g     F .text	00000000000000a0 test_test_builtin_va
00000000000030e0 g     F .text	0000000000000090 test_builtin_vector_i8
0000000000003170 g     F .text	0000000000000090 test_builtin_vector_i16
0000000000003200 g     F .text	0000000000000090 test_builtin_vector_i32
0000000000003290 g     F .text	0000000000000090 test_builtin_vector_i64
0000000000003320 g     F .text	00000000000000a0 test_builtin_vector_mixed
00000000000033c0 g     F .text	0000000000000010 test_builtin_popcount
00000000000033d0 g     F .text	0000000000000010 test_builtin_popcountl
00000000000033e0 g     F .text	0000000000000010 test_builtin_ctz
00000000000033f0 g     F .text	0000000000000010 test_builtin_ctzl
0000000000003400 g     F .text	0000000000000010 test_builtin_clz
0000000000003410 g     F .text	0000000000000010 test_builtin_clzl
0000000000003420 g     F .text	0000000000000010 test_builtin_readcyclecounter
0000000000003430 g     F .text	0000000000000010 test_builtin_thread_pointer
0000000000003440 g     F .text	0000000000000010 test_builtin_set_thread_pointer
0000000000003450 g     F .text	0000000000000030 test_frame_buitin
0000000000003480 g     F .text	0000000000000010 test_builtin_stack_pointer
0000000000003490 g     F .text	0000000000000050 test_builtin_bitreverse
00000000000034e0 g     F .text	0000000000000010 test_builtin_halt
00000000000034f0 g     F .text	0000000000000010 test_builtin_undef
0000000000003500 g     F .text	0000000000000010 test_builtin_rfi
0000000000003510 g     F .text	0000000000000030 test_builtin_nop
0000000000003540 g     F .text	0000000000000010 test_builtin_tpa
0000000000003550 g     F .text	0000000000000020 test_builtin_random
0000000000003570 g     F .text	0000000000000070 test_builtin_cache
00000000000035e0 g     F .text	0000000000000020 test_clmul
0000000000003600 g     F .text	0000000000000020 test_bool_eq
0000000000003620 g     F .text	0000000000000010 test_bool_ne
0000000000003630 g     F .text	0000000000000020 test_bool_lt
0000000000003650 g     F .text	0000000000000020 test_bool_le
0000000000003670 g     F .text	0000000000000020 test_bool_gt
0000000000003690 g     F .text	0000000000000020 test_bool_ge
00000000000036b0 g     F .text	0000000000000010 test_ptr_eq
00000000000036c0 g     F .text	0000000000000010 test_ptr_ne
00000000000036d0 g     F .text	0000000000000010 test_ptr_lt
00000000000036e0 g     F .text	0000000000000010 test_ptr_le
00000000000036f0 g     F .text	0000000000000010 test_ptr_gt
0000000000003700 g     F .text	0000000000000010 test_ptr_ge
0000000000003710 g     F .text	0000000000000010 test_i64_eq
0000000000003720 g     F .text	0000000000000010 test_i64_ne
0000000000003730 g     F .text	0000000000000010 test_i64_lt
0000000000003740 g     F .text	0000000000000010 test_i64_le
0000000000003750 g     F .text	0000000000000010 test_i64_gt
0000000000003760 g     F .text	0000000000000010 test_i64_ge
0000000000003770 g     F .text	0000000000000010 test_u64_lt
0000000000003780 g     F .text	0000000000000010 test_u64_le
0000000000003790 g     F .text	0000000000000010 test_u64_gt
00000000000037a0 g     F .text	0000000000000010 test_u64_ge
00000000000037b0 g     F .text	0000000000000010 test_i64_eq_imm
00000000000037c0 g     F .text	0000000000000010 test_i64_ne_imm
00000000000037d0 g     F .text	0000000000000010 test_i64_lt_imm
00000000000037e0 g     F .text	0000000000000010 test_i64_gt_imm
00000000000037f0 g     F .text	0000000000000010 test_i64_le_imm
0000000000003800 g     F .text	0000000000000010 test_i64_ge_imm
0000000000003810 g     F .text	0000000000000010 test_u64_lt_imm
0000000000003820 g     F .text	0000000000000010 test_u64_gt_imm
0000000000003830 g     F .text	0000000000000010 test_u64_le_imm
0000000000003840 g     F .text	0000000000000010 test_u64_ge_imm
0000000000003850 g     F .text	0000000000000010 test_i32_eq
0000000000003860 g     F .text	0000000000000010 test_i32_ne
0000000000003870 g     F .text	0000000000000010 test_i32_lt
0000000000003880 g     F .text	0000000000000010 test_i32_le
0000000000003890 g     F .text	0000000000000010 test_i32_gt
00000000000038a0 g     F .text	0000000000000010 test_i32_ge
00000000000038b0 g     F .text	0000000000000010 test_u32_lt
00000000000038c0 g     F .text	0000000000000010 test_u32_le
00000000000038d0 g     F .text	0000000000000010 test_u32_gt
00000000000038e0 g     F .text	0000000000000010 test_u32_ge
00000000000038f0 g     F .text	0000000000000010 test_i32_eq_imm
0000000000003900 g     F .text	0000000000000010 test_i32_ne_imm
0000000000003910 g     F .text	0000000000000010 test_i32_lt_imm
0000000000003920 g     F .text	0000000000000010 test_i32_gt_imm
0000000000003930 g     F .text	0000000000000010 test_i32_le_imm
0000000000003940 g     F .text	0000000000000010 test_i32_ge_imm
0000000000003950 g     F .text	0000000000000010 test_u32_lt_imm
0000000000003960 g     F .text	0000000000000010 test_u32_gt_imm
0000000000003970 g     F .text	0000000000000010 test_u32_le_imm
0000000000003980 g     F .text	0000000000000010 test_u32_ge_imm
0000000000003990 g     F .text	0000000000000030 test_cpuid
00000000000039c0 g     F .text	0000000000000010 test_crc32c
00000000000039d0 g     F .text	0000000000000030 TestDebugRegisters
0000000000003a00 g     F .text	0000000000000020 test_fma_f16
0000000000003a20 g     F .text	0000000000000020 test_fma_f32
0000000000003a40 g     F .text	0000000000000020 test_fma_f64
0000000000003a60 g     F .text	0000000000000020 test_fma_f128
0000000000003a80 g     F .text	0000000000000020 test_fma_v8f16
0000000000003aa0 g     F .text	0000000000000020 test_fma_v4f32
0000000000003ac0 g     F .text	0000000000000020 test_fma_v2f64
0000000000003ae0 g     F .text	0000000000000020 ffff
0000000000003b00 g     F .text	0000000000000120 i64_test
0000000000000000         *UND*	0000000000000000 exit
0000000000003c20 g     F .text	0000000000000080 NeverReturn
0000000000000000         *UND*	0000000000000000 glbx
0000000000003ca0 g     F .text	0000000000000030 i64_add
0000000000003cd0 g     F .text	0000000000000040 i32_add
0000000000000000         *UND*	0000000000000000 glb
0000000000000000         *UND*	0000000000000000 cccc
0000000000003d10 g     F .text	0000000000000020 u32_add
0000000000000000         *UND*	0000000000000000 uglb
0000000000003d30 g     F .text	0000000000000040 float_test
0000000000003d70 g     F .text	0000000000000010 main
0000000000003d80 g     F .text	0000000000000020 test_fp_arithmetic_f16
0000000000003da0 g     F .text	0000000000000020 test_fp_arithmetic_f32
0000000000003dc0 g     F .text	0000000000000020 test_fp_arithmetic_f64
0000000000003de0 g     F .text	0000000000000020 test_fp_arithmetic_f128
0000000000003e00 g     F .text	0000000000000020 test_fp_bitcast_i16_to_f16
0000000000003e20 g     F .text	0000000000000020 test_fp_bitcast_f16_to_i16
0000000000003e40 g     F .text	0000000000000010 test_fp_bitcast_i32_to_f32
0000000000003e50 g     F .text	0000000000000010 test_fp_bitcast_f32_to_i32
0000000000003e60 g     F .text	0000000000000010 test_fp_bitcast_i64_to_f64
0000000000003e70 g     F .text	0000000000000010 test_fp_bitcast_f64_to_i64
0000000000003e80 g     F .text	0000000000000010 test_fp_bitcast_i128_to_f128
0000000000003e90 g     F .text	0000000000000010 test_fp_bitcast_f128_to_i128
0000000000003ea0 g     F .text	0000000000000020 test_fp_branch_f32_eq
0000000000003ec0 g     F .text	0000000000000020 test_fp_branch_f32_ne
0000000000003ee0 g     F .text	0000000000000020 test_fp_branch_f32_lt
0000000000003f00 g     F .text	0000000000000020 test_fp_branch_f32_le
0000000000003f20 g     F .text	0000000000000020 test_fp_branch_f32_gt
0000000000003f40 g     F .text	0000000000000020 test_fp_branch_f32_ge
0000000000003f60 g     F .text	0000000000000020 test_fp_branch_f64_eq
0000000000003f80 g     F .text	0000000000000020 test_fp_branch_f64_ne
0000000000003fa0 g     F .text	0000000000000020 test_fp_branch_f64_lt
0000000000003fc0 g     F .text	0000000000000020 test_fp_branch_f64_le
0000000000003fe0 g     F .text	0000000000000020 test_fp_branch_f64_gt
0000000000004000 g     F .text	0000000000000020 test_fp_branch_f64_ge
0000000000004020 g     F .text	0000000000000020 test_fp_branch_f128_eq
0000000000004040 g     F .text	0000000000000020 test_fp_branch_f128_ne
0000000000004060 g     F .text	0000000000000020 test_fp_branch_f128_lt
0000000000004080 g     F .text	0000000000000020 test_fp_branch_f128_le
00000000000040a0 g     F .text	0000000000000020 test_fp_branch_f128_gt
00000000000040c0 g     F .text	0000000000000020 test_fp_branch_f128_ge
00000000000040e0 g     F .text	0000000000000010 test_builtin_f32_isnan
00000000000040f0 g     F .text	0000000000000010 test_builtin_f32_copysign
0000000000004100 g     F .text	0000000000000010 test_builtin_f64_copysign
0000000000004110 g     F .text	0000000000000010 test_builtin_f128_copysign
0000000000004120 g     F .text	0000000000000010 test_compare_f16_eq
0000000000004130 g     F .text	0000000000000010 test_compare_f16_ne
0000000000004140 g     F .text	0000000000000010 test_compare_f16_lt
0000000000004150 g     F .text	0000000000000010 test_compare_f16_le
0000000000004160 g     F .text	0000000000000010 test_compare_f16_gt
0000000000004170 g     F .text	0000000000000010 test_compare_f16_ge
0000000000004180 g     F .text	0000000000000010 test_compare_f32_eq
0000000000004190 g     F .text	0000000000000010 test_compare_f32_ne
00000000000041a0 g     F .text	0000000000000010 test_compare_f32_lt
00000000000041b0 g     F .text	0000000000000010 test_compare_f32_le
00000000000041c0 g     F .text	0000000000000010 test_compare_f32_gt
00000000000041d0 g     F .text	0000000000000010 test_compare_f32_ge
00000000000041e0 g     F .text	0000000000000010 test_compare_f64_eq
00000000000041f0 g     F .text	0000000000000010 test_compare_f64_ne
0000000000004200 g     F .text	0000000000000010 test_compare_f64_lt
0000000000004210 g     F .text	0000000000000010 test_compare_f64_le
0000000000004220 g     F .text	0000000000000010 test_compare_f64_gt
0000000000004230 g     F .text	0000000000000010 test_compare_f64_ge
0000000000004240 g     F .text	0000000000000010 test_compare_f128_eq
0000000000004250 g     F .text	0000000000000010 test_compare_f128_ne
0000000000004260 g     F .text	0000000000000010 test_compare_f128_lt
0000000000004270 g     F .text	0000000000000010 test_compare_f128_le
0000000000004280 g     F .text	0000000000000010 test_compare_f128_gt
0000000000004290 g     F .text	0000000000000010 test_compare_f128_ge
00000000000042a0 g     F .text	0000000000000010 test_conv_f16_to_f32
00000000000042b0 g     F .text	0000000000000010 test_conv_f16_to_f64
00000000000042c0 g     F .text	0000000000000010 test_conv_f16_to_f128
00000000000042d0 g     F .text	0000000000000010 test_conv_f64_to_f128
00000000000042e0 g     F .text	0000000000000010 test_conv_f32_to_f64
00000000000042f0 g     F .text	0000000000000010 test_conv_f32_to_f128
0000000000004300 g     F .text	0000000000000010 test_conv_f32_to_f16
0000000000004310 g     F .text	0000000000000010 test_conv_f64_to_f16
0000000000004320 g     F .text	0000000000000010 test_conv_f64_to_f32
0000000000004330 g     F .text	0000000000000010 test_conv_f128_to_f16
0000000000004340 g     F .text	0000000000000010 test_conv_f128_to_f32
0000000000004350 g     F .text	0000000000000010 test_conv_f128_to_f64
0000000000004360 g     F .text	0000000000000010 test_conv_f16_to_i32
0000000000004370 g     F .text	0000000000000010 test_conv_f16_to_u32
0000000000004380 g     F .text	0000000000000010 test_conv_f16_to_i64
0000000000004390 g     F .text	0000000000000010 test_conv_f16_to_u64
00000000000043a0 g     F .text	0000000000000010 test_conv_f16_to_i128
00000000000043b0 g     F .text	0000000000000010 test_conv_f16_to_u128
00000000000043c0 g     F .text	0000000000000010 test_conv_i32_to_f16
00000000000043d0 g     F .text	0000000000000010 test_conv_u32_to_f16
00000000000043e0 g     F .text	0000000000000010 test_conv_i64_to_f16
00000000000043f0 g     F .text	0000000000000010 test_conv_u64_to_f16
0000000000004400 g     F .text	0000000000000010 test_conv_i128_to_f16
0000000000004410 g     F .text	0000000000000010 test_conv_u128_to_f16
0000000000004420 g     F .text	0000000000000010 test_conv_f32_to_i32
0000000000004430 g     F .text	0000000000000010 test_conv_f32_to_u32
0000000000004440 g     F .text	0000000000000010 test_conv_f32_to_i64
0000000000004450 g     F .text	0000000000000010 test_conv_f32_to_u64
0000000000004460 g     F .text	0000000000000010 test_conv_f32_to_i128
0000000000004470 g     F .text	0000000000000010 test_conv_f32_to_u128
0000000000004480 g     F .text	0000000000000010 test_conv_i32_to_f32
0000000000004490 g     F .text	0000000000000010 test_conv_u32_to_f32
00000000000044a0 g     F .text	0000000000000010 test_conv_i64_to_f32
00000000000044b0 g     F .text	0000000000000010 test_conv_u64_to_f32
00000000000044c0 g     F .text	0000000000000010 test_conv_i128_to_f32
00000000000044d0 g     F .text	0000000000000010 test_conv_u128_to_f32
00000000000044e0 g     F .text	0000000000000010 test_conv_f64_to_i32
00000000000044f0 g     F .text	0000000000000010 test_conv_f64_to_u32
0000000000004500 g     F .text	0000000000000010 test_conv_f64_to_i64
0000000000004510 g     F .text	0000000000000010 test_conv_f64_to_u64
0000000000004520 g     F .text	0000000000000010 test_conv_f64_to_i128
0000000000004530 g     F .text	0000000000000010 test_conv_f64_to_u128
0000000000004540 g     F .text	0000000000000010 test_conv_i32_to_f64
0000000000004550 g     F .text	0000000000000010 test_conv_u32_to_f64
0000000000004560 g     F .text	0000000000000010 test_conv_i64_to_f64
0000000000004570 g     F .text	0000000000000010 test_conv_u64_to_f64
0000000000004580 g     F .text	0000000000000010 test_conv_i128_to_f64
0000000000004590 g     F .text	0000000000000010 test_conv_u128_to_f64
00000000000045a0 g     F .text	0000000000000010 test_conv_f128_to_i32
00000000000045b0 g     F .text	0000000000000010 test_conv_f128_to_u32
00000000000045c0 g     F .text	0000000000000010 test_conv_f128_to_i64
00000000000045d0 g     F .text	0000000000000010 test_conv_f128_to_u64
00000000000045e0 g     F .text	0000000000000010 test_conv_f128_to_i128
00000000000045f0 g     F .text	0000000000000010 test_conv_f128_to_u128
0000000000004600 g     F .text	0000000000000010 test_conv_i32_to_f128
0000000000004610 g     F .text	0000000000000010 test_conv_u32_to_f128
0000000000004620 g     F .text	0000000000000010 test_conv_i64_to_f128
0000000000004630 g     F .text	0000000000000010 test_conv_u64_to_f128
0000000000004640 g     F .text	0000000000000010 test_conv_i128_to_f128
0000000000004650 g     F .text	0000000000000010 test_conv_u128_to_f128
0000000000004660 g     F .text	0000000000000010 test_fp_immediate_f16
0000000000004670 g     F .text	0000000000000020 test_fp_immediate_f32
0000000000004690 g     F .text	0000000000000020 test_fp_immediate_f64
00000000000046b0 g     F .text	0000000000000020 test_fp_immediate_f128
00000000000046d0 g     F .text	0000000000000020 test_fp_immediate_f128_int
00000000000046f0 g     F .text	0000000000000020 test_fp_immediate_f128_denorm
0000000000004710 g     F .text	0000000000000010 test_round_f32
0000000000004720 g     F .text	0000000000000010 test_floor_f32
0000000000004730 g     F .text	0000000000000010 test_ceil_f32
0000000000004740 g     F .text	0000000000000010 test_trunc_f32
0000000000004750 g     F .text	0000000000000010 test_nearbyint_f32
0000000000004760 g     F .text	0000000000000010 test_rint_f32
0000000000004770 g     F .text	0000000000000010 test_round_f64
0000000000004780 g     F .text	0000000000000010 test_floor_f64
0000000000004790 g     F .text	0000000000000010 test_ceil_f64
00000000000047a0 g     F .text	0000000000000010 test_trunc_f64
00000000000047b0 g     F .text	0000000000000010 test_nearbyint_f64
00000000000047c0 g     F .text	0000000000000010 test_rint_f64
00000000000047d0 g     F .text	0000000000000010 test_round_f128
00000000000047e0 g     F .text	0000000000000010 test_floor_f128
00000000000047f0 g     F .text	0000000000000010 test_ceil_f128
0000000000004800 g     F .text	0000000000000010 test_trunc_f128
0000000000004810 g     F .text	0000000000000010 test_nearbyint_f128
0000000000004820 g     F .text	0000000000000010 test_rint_f128
0000000000004830 g     F .text	0000000000000010 test_fneg_f32
0000000000004840 g     F .text	0000000000000010 test_fabs_f32
0000000000004850 g     F .text	0000000000000010 test_fnabs_f32
0000000000004860 g     F .text	0000000000000010 test_fabsd_f32
0000000000004870 g     F .text	0000000000000010 test_fnabsd_f32
0000000000004880 g     F .text	0000000000000010 test_fneg_f64
0000000000004890 g     F .text	0000000000000010 test_fabs_f64
00000000000048a0 g     F .text	0000000000000010 test_fnabs_f64
00000000000048b0 g     F .text	0000000000000010 test_fabsd_f64
00000000000048c0 g     F .text	0000000000000010 test_fnabsd_f64
00000000000048d0 g     F .text	0000000000000010 test_fneg_f128
00000000000048e0 g     F .text	0000000000000010 test_fabs_f128
00000000000048f0 g     F .text	0000000000000010 test_fnabs_f128
0000000000004900 g     F .text	0000000000000010 test_fabsd_f128
0000000000004910 g     F .text	0000000000000010 test_fnabsd_f128
0000000000004920 g     F .text	00000000000000a0 fp_store_zero_dummy_return
00000000000049c0 g     F .text	0000000000000020 test_store_based_f16_zero
00000000000049e0 g     F .text	0000000000000020 test_store_based_f32_zero
0000000000004a00 g     F .text	0000000000000020 test_store_based_f64_zero
0000000000004a20 g     F .text	0000000000000020 test_store_based_f128_zero
0000000000004a40 g     F .text	0000000000000020 test_function_pointer
0000000000004a60 g     F .text	0000000000000020 test_function_call
0000000000000000         *UND*	0000000000000000 ccc
0000000000004a80 g     F .text	0000000000000020 test_function
0000000000000000         *UND*	0000000000000000 xprintf
0000000000004aa0 g     F .text	0000000000000020 test_callmi
0000000000004ac0 g     F .text	0000000000000020 test_callmi_folding
0000000000004ae0 g     F .text	0000000000000020 test_callplt_folding
0000000000000000         *UND*	0000000000000000 gftable
0000000000004b00 g     F .text	0000000000000010 test_global_function_pointer_target
0000000000004b10 g     F .text	0000000000000010 test_static_function_pointer_materialize
0000000000004b30 g     F .text	0000000000000010 test_global_function_pointer_materialize
0000000000004b40 g     F .text	0000000000000010 test_extern_function_pointer_materialize
0000000000000000         *UND*	0000000000000000 test_extern_function_pointer_target
0000000000004b50 g     F .text	0000000000000010 test_fshr_u32
0000000000004b60 g     F .text	0000000000000010 test_fshr_u64
0000000000004b70 g     F .text	0000000000000010 test_fshr_u128
0000000000004b80 g     F .text	0000000000000010 test_rotate_u32
0000000000004b90 g     F .text	0000000000000010 test_rotate_u64
0000000000004ba0 g     F .text	0000000000000010 test_rotate_u128
0000000000004bb0 g     F .text	0000000000000030 test_global_data
0000000000000020 g     O .bss	0000000000000008 x_bss
0000000000000000         *UND*	0000000000000000 x_bss_extern
0000000000004be0 g     F .text	0000000000000010 test_global_i8_ptr
0000000000000000         *UND*	0000000000000000 global_i8
0000000000004bf0 g     F .text	0000000000000010 test_global_i8
0000000000004c00 g     F .text	0000000000000010 test_global_u8
0000000000000000         *UND*	0000000000000000 global_u8
0000000000004c10 g     F .text	0000000000000010 test_global_i16
0000000000000000         *UND*	0000000000000000 global_i16
0000000000004c20 g     F .text	0000000000000010 test_global_u16
0000000000000000         *UND*	0000000000000000 global_u16
0000000000004c30 g     F .text	0000000000000010 test_global_i8_to_i16
0000000000004c40 g     F .text	0000000000000010 test_global_u8_to_u16
0000000000004c50 g     F .text	0000000000000010 test_global_i32
0000000000000000         *UND*	0000000000000000 global_i32
0000000000004c60 g     F .text	0000000000000010 test_global_u32
0000000000000000         *UND*	0000000000000000 global_u32
0000000000004c70 g     F .text	0000000000000010 test_global_i8_to_i32
0000000000004c80 g     F .text	0000000000000010 test_global_u8_to_u32
0000000000004c90 g     F .text	0000000000000010 test_global_i16_to_i32
0000000000004ca0 g     F .text	0000000000000010 test_global_u16_to_u32
0000000000004cb0 g     F .text	0000000000000010 test_global_i8_to_i64
0000000000004cc0 g     F .text	0000000000000010 test_global_u8_to_u64
0000000000004cd0 g     F .text	0000000000000010 test_global_i16_to_i64
0000000000004ce0 g     F .text	0000000000000010 test_global_u16_to_u64
0000000000004cf0 g     F .text	0000000000000010 test_global_i32_to_i64
0000000000004d00 g     F .text	0000000000000010 test_global_u32_to_u64
0000000000004d10 g     F .text	0000000000000010 test_global_i64
0000000000000000         *UND*	0000000000000000 global_i64
0000000000004d20 g     F .text	0000000000000010 test_global_u64
0000000000000000         *UND*	0000000000000000 global_u64
0000000000004d30 g     F .text	0000000000000010 test_global_array_folding_i8
0000000000000000         *UND*	0000000000000000 global_array_i8
0000000000004d40 g     F .text	0000000000000010 test_global_array_folding_i16
0000000000000000         *UND*	0000000000000000 global_array_i16
0000000000004d50 g     F .text	0000000000000010 test_global_array_folding_i32
0000000000000000         *UND*	0000000000000000 global_array_i32
0000000000004d60 g     F .text	0000000000000010 test_global_array_folding_i64
0000000000000000         *UND*	0000000000000000 global_array_i64
0000000000004d70 g     F .text	0000000000000010 test_ldi128
0000000000004d80 g     F .text	0000000000000020 test_ldi128_long
0000000000004da0 g     F .text	0000000000000020 test_ldi128_verylong
0000000000004dc0 g     F .text	0000000000000020 test_subfi_i128
0000000000004de0 g     F .text	0000000000000030 test_addi_i128
0000000000004e10 g     F .text	0000000000000020 test_andi_i128
0000000000004e30 g     F .text	0000000000000020 test_ori_i128
0000000000004e50 g     F .text	0000000000000010 test_add_i128
0000000000004e60 g     F .text	0000000000000010 test_sub_i128
0000000000004e70 g     F .text	0000000000000010 test_immediate_i32
0000000000004e80 g     F .text	0000000000000010 test_immediate_u32
0000000000004e90 g     F .text	0000000000000020 test_immediate_i32_long
0000000000004eb0 g     F .text	0000000000000020 test_immediate_u32_long
0000000000004ed0 g     F .text	0000000000000010 test_immediate_i64
0000000000004ee0 g     F .text	0000000000000010 test_immediate_u64
0000000000004ef0 g     F .text	0000000000000020 test_immediate_i64_long
0000000000004f10 g     F .text	0000000000000020 test_immediate_u64_long
0000000000004f30 g     F .text	0000000000000020 test_immediate_size_max
0000000000004f50 g     F .text	0000000000000010 test_div_i32
0000000000004f60 g     F .text	0000000000000010 test_div_i64
0000000000004f70 g     F .text	0000000000000010 test_div_u32
0000000000004f80 g     F .text	0000000000000010 test_div_u64
0000000000004f90 g     F .text	0000000000000010 test_divi_i32
0000000000004fa0 g     F .text	0000000000000010 test_divi_i64
0000000000004fb0 g     F .text	0000000000000010 test_divi_u32
0000000000004fc0 g     F .text	0000000000000010 test_divi_u64
0000000000004fd0 g     F .text	0000000000000020 test_divi_ext_i32
0000000000004ff0 g     F .text	0000000000000020 test_divi_ext_i64
0000000000005010 g     F .text	0000000000000020 test_divi_ext_u32
0000000000005030 g     F .text	0000000000000020 test_divi_ext_u64
0000000000005050 g     F .text	0000000000000010 test_rem_i32
0000000000005060 g     F .text	0000000000000010 test_rem_i64
0000000000005070 g     F .text	0000000000000010 test_rem_u32
0000000000005080 g     F .text	0000000000000010 test_rem_u64
0000000000005090 g     F .text	0000000000000010 test_rem_imm_i32
00000000000050a0 g     F .text	0000000000000010 test_rem_imm_u32
00000000000050b0 g     F .text	0000000000000010 test_rem_imm_i64
00000000000050c0 g     F .text	0000000000000010 test_rem_imm_u64
00000000000050d0 g     F .text	0000000000000020 test_rem_imm_ext_i32
00000000000050f0 g     F .text	0000000000000020 test_rem_imm_ext_u32
0000000000005110 g     F .text	0000000000000020 test_rem_imm_ext_i64
0000000000005130 g     F .text	0000000000000020 test_rem_imm_ext_u64
0000000000005150 g     F .text	0000000000000010 test_load_based_u32
0000000000005160 g     F .text	0000000000000010 test_load_based_u16
0000000000005170 g     F .text	0000000000000010 test_load_based_u8
0000000000005180 g     F .text	0000000000000010 test_load_based_i32
0000000000005190 g     F .text	0000000000000010 test_load_based_i16
00000000000051a0 g     F .text	0000000000000010 test_load_based_i8
00000000000051b0 g     F .text	0000000000000020 test_base_index_u32_u32
00000000000051d0 g     F .text	0000000000000060 test_base_address
0000000000005230 g     F .text	0000000000000040 MemoryIndexed
0000000000005270 g     F .text	0000000000000010 test_base_index_i32
0000000000005280 g     F .text	0000000000000010 test_base_index_i32_offset
0000000000005290 g     F .text	0000000000000010 test_base_index_u32
00000000000052a0 g     F .text	0000000000000020 test_base_index_u32_offset
00000000000052c0 g     F .text	0000000000000010 test_base_index_i64
00000000000052d0 g     F .text	0000000000000020 test_base_index_i32_struct
00000000000052f0 g     F .text	0000000000000020 test_base_index_u32_struct
0000000000005310 g     F .text	0000000000000060 for_loop
0000000000005370 g     F .text	0000000000000060 for_loop_32
00000000000053d0 g     F .text	0000000000000010 test_i64_min_lt
00000000000053e0 g     F .text	0000000000000010 test_u64_min_lt
00000000000053f0 g     F .text	0000000000000010 test_i64_min_le
0000000000005400 g     F .text	0000000000000010 test_u64_min_le
0000000000005410 g     F .text	0000000000000010 test_i64_min_gt
0000000000005420 g     F .text	0000000000000010 test_u64_min_gt
0000000000005430 g     F .text	0000000000000010 test_i64_min_ge
0000000000005440 g     F .text	0000000000000010 test_u64_min_ge
0000000000005450 g     F .text	0000000000000010 test_i64_max_lt
0000000000005460 g     F .text	0000000000000010 test_u64_max_lt
0000000000005470 g     F .text	0000000000000010 test_i64_max_le
0000000000005480 g     F .text	0000000000000010 test_u64_max_le
0000000000005490 g     F .text	0000000000000010 test_i64_max_gt
00000000000054a0 g     F .text	0000000000000010 test_u64_max_gt
00000000000054b0 g     F .text	0000000000000010 test_i64_max_ge
00000000000054c0 g     F .text	0000000000000010 test_u64_max_ge
00000000000054d0 g     F .text	0000000000000010 test_i32_min_lt
00000000000054e0 g     F .text	0000000000000010 test_u32_min_lt
00000000000054f0 g     F .text	0000000000000010 test_i32_min_le
0000000000005500 g     F .text	0000000000000010 test_u32_min_le
0000000000005510 g     F .text	0000000000000010 test_i32_min_gt
0000000000005520 g     F .text	0000000000000010 test_u32_min_gt
0000000000005530 g     F .text	0000000000000010 test_i32_min_ge
0000000000005540 g     F .text	0000000000000010 test_u32_min_ge
0000000000005550 g     F .text	0000000000000010 test_i32_max_lt
0000000000005560 g     F .text	0000000000000010 test_u32_max_lt
0000000000005570 g     F .text	0000000000000010 test_i32_max_le
0000000000005580 g     F .text	0000000000000010 test_u32_max_le
0000000000005590 g     F .text	0000000000000010 test_i32_max_gt
00000000000055a0 g     F .text	0000000000000010 test_u32_max_gt
00000000000055b0 g     F .text	0000000000000010 test_i32_max_ge
00000000000055c0 g     F .text	0000000000000010 test_u32_max_ge
00000000000055d0 g     F .text	0000000000000010 test_i64_min_lt_imm
00000000000055e0 g     F .text	0000000000000010 test_u64_min_lt_imm
00000000000055f0 g     F .text	0000000000000010 test_i64_min_le_imm
0000000000005600 g     F .text	0000000000000010 test_u64_min_le_imm
0000000000005610 g     F .text	0000000000000010 test_i64_min_gt_imm
0000000000005620 g     F .text	0000000000000010 test_u64_min_gt_imm
0000000000005630 g     F .text	0000000000000010 test_i64_min_ge_imm
0000000000005640 g     F .text	0000000000000010 test_u64_min_ge_imm
0000000000005650 g     F .text	0000000000000020 test_i64_min_lt_imm_ext
0000000000005670 g     F .text	0000000000000020 test_u64_min_lt_imm_ext
0000000000005690 g     F .text	0000000000000020 test_i64_min_le_imm_ext
00000000000056b0 g     F .text	0000000000000020 test_u64_min_le_imm_ext
00000000000056d0 g     F .text	0000000000000020 test_i64_min_gt_imm_ext
00000000000056f0 g     F .text	0000000000000020 test_u64_min_gt_imm_ext
0000000000005710 g     F .text	0000000000000020 test_i64_min_ge_imm_ext
0000000000005730 g     F .text	0000000000000020 test_u64_min_ge_imm_ext
0000000000005750 g     F .text	0000000000000010 test_i64_max_lt_imm
0000000000005760 g     F .text	0000000000000010 test_u64_max_lt_imm
0000000000005770 g     F .text	0000000000000010 test_i64_max_le_imm
0000000000005780 g     F .text	0000000000000010 test_u64_max_le_imm
0000000000005790 g     F .text	0000000000000010 test_i64_max_gt_imm
00000000000057a0 g     F .text	0000000000000010 test_u64_max_gt_imm
00000000000057b0 g     F .text	0000000000000010 test_i64_max_ge_imm
00000000000057c0 g     F .text	0000000000000010 test_u64_max_ge_imm
00000000000057d0 g     F .text	0000000000000020 test_i64_max_lt_imm_ext
00000000000057f0 g     F .text	0000000000000020 test_u64_max_lt_imm_ext
0000000000005810 g     F .text	0000000000000020 test_i64_max_le_imm_ext
0000000000005830 g     F .text	0000000000000020 test_u64_max_le_imm_ext
0000000000005850 g     F .text	0000000000000020 test_i64_max_gt_imm_ext
0000000000005870 g     F .text	0000000000000020 test_u64_max_gt_imm_ext
0000000000005890 g     F .text	0000000000000020 test_i64_max_ge_imm_ext
00000000000058b0 g     F .text	0000000000000020 test_u64_max_ge_imm_ext
00000000000058d0 g     F .text	0000000000000080 test_mov2
0000000000000000         *UND*	0000000000000000 test_mov2_callback
0000000000005950 g     F .text	0000000000000000 test_naked
0000000000005950 g     F .text	0000000000000010 test_after_naked
0000000000005960 g     F .text	0000000000000050 test_nullification_i64_le
00000000000059b0 g     F .text	0000000000000050 test_nullification_i64_lt
0000000000005a00 g     F .text	0000000000000040 test_nulu_le_d
0000000000000000         *UND*	0000000000000000 left
0000000000000000         *UND*	0000000000000000 right
0000000000005a40 g     F .text	0000000000000040 test_nullify_bool
0000000000000000         *UND*	0000000000000000 left_bool
0000000000000000         *UND*	0000000000000000 right_bool
0000000000005a80 g     F .text	0000000000000040 test_nullify_bool_not
0000000000005ac0 g     F .text	0000000000000040 test_nullify_bool_and
0000000000005b00 g     F .text	0000000000000050 test_nullify_bool_or
0000000000005b50 g     F .text	0000000000000040 test_nullify_f128_eq
0000000000000000         *UND*	0000000000000000 left_f128
0000000000000000         *UND*	0000000000000000 right_f128
0000000000005b90 g     F .text	0000000000000040 test_nullify_f128_ne
0000000000005bd0 g     F .text	0000000000000040 test_nullify_f128_lt
0000000000005c10 g     F .text	0000000000000040 test_nullify_f128_le
0000000000005c50 g     F .text	0000000000000040 test_nullify_f128_gt
0000000000005c90 g     F .text	0000000000000040 test_nullify_f128_ge
0000000000005cd0 g     F .text	0000000000000040 test_nullify_f32_eq
0000000000000000         *UND*	0000000000000000 left_f32
0000000000000000         *UND*	0000000000000000 right_f32
0000000000005d10 g     F .text	0000000000000040 test_nullify_f32_ne
0000000000005d50 g     F .text	0000000000000040 test_nullify_f32_lt
0000000000005d90 g     F .text	0000000000000040 test_nullify_f32_le
0000000000005dd0 g     F .text	0000000000000040 test_nullify_f32_gt
0000000000005e10 g     F .text	0000000000000040 test_nullify_f32_ge
0000000000005e50 g     F .text	0000000000000040 test_nullify_f64_eq
0000000000000000         *UND*	0000000000000000 left_f64
0000000000000000         *UND*	0000000000000000 right_f64
0000000000005e90 g     F .text	0000000000000040 test_nullify_f64_ne
0000000000005ed0 g     F .text	0000000000000040 test_nullify_f64_lt
0000000000005f10 g     F .text	0000000000000040 test_nullify_f64_le
0000000000005f50 g     F .text	0000000000000040 test_nullify_f64_gt
0000000000005f90 g     F .text	0000000000000040 test_nullify_f64_ge
0000000000005fd0 g     F .text	0000000000000050 test_post_update
0000000000006020 g     F .text	0000000000000020 shift_right_and_load_i32
0000000000006040 g     F .text	0000000000000020 shift_right_and_load_u32
0000000000006060 g     F .text	0000000000000020 shift_right_and_load_i64
0000000000006080 g     F .text	0000000000000020 shift_right_and_load_u64
00000000000060a0 g     F .text	0000000000000010 test_sign_extend_32
00000000000060b0 g     F .text	0000000000000010 test_sign_extend_16
00000000000060c0 g     F .text	0000000000000010 test_sign_extend_8
00000000000060d0 g     F .text	0000000000000010 test_zero_extend_32
00000000000060e0 g     F .text	0000000000000010 test_zero_extend_16
00000000000060f0 g     F .text	0000000000000010 test_zero_extend_8
0000000000006100 g     F .text	0000000000000010 test_store_based_u32
0000000000006110 g     F .text	0000000000000010 test_store_based_u16
0000000000006120 g     F .text	0000000000000010 test_store_based_u8
0000000000006130 g     F .text	0000000000000010 test_store_based_i32
0000000000006140 g     F .text	0000000000000010 test_store_based_i16
0000000000006150 g     F .text	0000000000000010 test_store_based_i8
0000000000006160 g     F .text	0000000000000020 test_store_indexed_u32_u32
0000000000006180 g     F .text	0000000000000010 test_store_indexed_i32
0000000000006190 g     F .text	0000000000000010 test_store_indexed_i32_offset
00000000000061a0 g     F .text	0000000000000010 test_store_indexed_u32
00000000000061b0 g     F .text	0000000000000020 test_store_indexed_u32_offset
00000000000061d0 g     F .text	0000000000000010 test_store_indexed_i64
00000000000061e0 g     F .text	0000000000000020 test_store_indexed_i32_struct
0000000000006200 g     F .text	00000000000000f0 dummy_return
00000000000062f0 g     F .text	0000000000000020 test_store_based_i8_zero
0000000000006310 g     F .text	0000000000000020 test_store_based_u8_zero
0000000000006330 g     F .text	0000000000000020 test_store_based_i16_zero
0000000000006350 g     F .text	0000000000000020 test_store_based_u16_zero
0000000000006370 g     F .text	0000000000000020 test_store_based_i32_zero
0000000000006390 g     F .text	0000000000000020 test_store_based_u32_zero
00000000000063b0 g     F .text	0000000000000020 test_store_based_i64_zero
00000000000063d0 g     F .text	0000000000000020 test_store_based_u64_zero
00000000000063f0 g     F .text	0000000000000020 test_store_based_i128_zero
0000000000006410 g     F .text	0000000000000020 test_store_based_u128_zero
0000000000006430 g     F .text	00000000000000a0 test_struct_memset
0000000000000000         *UND*	0000000000000000 test_struct_memset_consumer
0000000000006560 g     F .text	00000000000000f0 test_switch_table_i64
0000000000006650 g     F .text	00000000000000f0 test_switch_table_i32
0000000000006740 g     F .text	00000000000000f0 test_switch_table_u32
0000000000006830 g     F .text	00000000000000f0 test_switch_table_nonzero_i64
0000000000006920 g     F .text	00000000000000f0 test_switch_table_nonzero_i32
0000000000006a10 g     F .text	00000000000000f0 test_switch_table_nonzero_u32
0000000000006b00 g     F .text	0000000000000010 test_syscall_2
0000000000006b10 g     F .text	0000000000000020 test_syscall
0000000000000000 g     F .text.unlikely.	0000000000000030 test_int
0000000000006b30 g     F .text	0000000000000020 test_call_global_tailcall
0000000000000000         *UND*	0000000000000000 tail_call
0000000000006b50 g     F .text	0000000000000020 test_ptr_tailcall
0000000000006b70 g     F .text	0000000000000020 test_call_global_ptr_table_tailcall
0000000000000000         *UND*	0000000000000000 global_ftable
0000000000006b90 g     F .text	0000000000000010 test_builtin_tlb_purge
0000000000006ba0 g     F .text	0000000000000020 test_local_tls
0000000000000000 g       .tbss	0000000000000008 x_tls
0000000000000000         *UND*	0000000000000000 __tls_get_addr
0000000000006bc0 g     F .text	0000000000000020 test_extern_tls
0000000000000000         *UND*	0000000000000000 x_tls_extern
0000000000006be0 g     F .text	0000000000000030 test_va_start
0000000000000000         *UND*	0000000000000000 test_va_list_callback
0000000000006c10 g     F .text	0000000000000080 test_va_start_end
0000000000000000         *UND*	0000000000000000 test_va_callback
0000000000006c90 g     F .text	0000000000000040 test_printf_valist
0000000000000000         *UND*	0000000000000000 test_printf_callback
0000000000006cd0 g     F .text	0000000000000040 test_vprintf_valist
0000000000000000         *UND*	0000000000000000 test_vprintf_callback
0000000000006d10 g     F .text	0000000000000040 test_vacopy
0000000000000000         *UND*	0000000000000000 test_valist_callback
0000000000006d50 g     F .text	0000000000000010 test_vector_bitcast_v2i64_to_v4i32
0000000000006d60 g     F .text	0000000000000010 test_vector_bitcast_v2i64_to_v8i16
0000000000006d70 g     F .text	0000000000000010 test_vector_bitcast_v2i64_to_v16i8
0000000000006d80 g     F .text	0000000000000010 test_vector_bitcast_v4i32_to_v2i64
0000000000006d90 g     F .text	0000000000000010 test_vector_bitcast_v4i32_to_v8i16
0000000000006da0 g     F .text	0000000000000010 test_vector_bitcast_v4i32_to_v16i8
0000000000006db0 g     F .text	0000000000000010 test_vector_bitcast_v8i16_to_v2i64
0000000000006dc0 g     F .text	0000000000000010 test_vector_bitcast_v8i16_to_v4i32
0000000000006dd0 g     F .text	0000000000000010 test_vector_bitcast_v8i16_to_v16i8
0000000000006de0 g     F .text	0000000000000010 test_vector_bitcast_v16i8_to_v2i64
0000000000006df0 g     F .text	0000000000000010 test_vector_bitcast_v16i8_to_v4i32
0000000000006e00 g     F .text	0000000000000010 test_vector_bitcast_v16i8_to_v8i16
0000000000006e10 g     F .text	0000000000000010 test_vector_bitcast_f128_to_v16i8
0000000000006e20 g     F .text	0000000000000010 test_vector_bitcast_f128_to_v8i16
0000000000006e30 g     F .text	0000000000000010 test_vector_bitcast_f128_to_v4i32
0000000000006e40 g     F .text	0000000000000010 test_vector_bitcast_f128_to_v2i64
0000000000006e50 g     F .text	0000000000000010 test_vector_bitcast_v16i8_to_f128
0000000000006e60 g     F .text	0000000000000010 test_vector_bitcast_v8i16_to_f128
0000000000006e70 g     F .text	0000000000000010 test_vector_bitcast_v4i32_to_f128
0000000000006e80 g     F .text	0000000000000010 test_vector_bitcast_v2i64_to_f128
0000000000006e90 g     F .text	0000000000000010 test_vector_bitcast_i128_to_v16i8
0000000000006ea0 g     F .text	0000000000000010 test_vector_bitcast_i128_to_v8i16
0000000000006eb0 g     F .text	0000000000000010 test_vector_bitcast_i128_to_v4i32
0000000000006ec0 g     F .text	0000000000000010 test_vector_bitcast_i128_to_v2i64
0000000000006ed0 g     F .text	0000000000000010 test_vector_bitcast_v16i8_to_i128
0000000000006ee0 g     F .text	0000000000000010 test_vector_bitcast_v8i16_to_i128
0000000000006ef0 g     F .text	0000000000000010 test_vector_bitcast_v4i32_to_i128
0000000000006f00 g     F .text	0000000000000010 test_vector_bitcast_v2i64_to_i128
0000000000006f10 g     F .text	00000000000000c0 test_stack_array
0000000000000000         *UND*	0000000000000000 stack_array_consumer

DYNAMIC SYMBOL TABLE:

Disassembly of section .text:

0000000000000000 <test_i64_abs>:
       0: 00 00 00 c1 40 60 04 fc 03 01 00 00 00 00 08 04      	! BUNDLE
	alloc	2
	absd	%r1, %r1, %gz
	ret.f	0


0000000000000010 <test_i32_abs>:
      10: 00 00 00 c1 40 70 04 fc 03 01 00 00 00 00 08 04      	! BUNDLE
	alloc	2
	absd.w	%r1, %r1, %gz
	ret.f	0


0000000000000020 <test_i64_abs_difference>:
      20: 00 00 80 c1 40 60 04 04 04 01 00 00 00 00 08 04      	! BUNDLE
	alloc	3
	absd	%r1, %r2, %r1
	ret.f	0


0000000000000030 <test_i32_abs_difference>:
      30: 00 00 80 c1 40 70 04 04 04 01 00 00 00 00 08 04      	! BUNDLE
	alloc	3
	absd.w	%r1, %r2, %r1
	ret.f	0


0000000000000040 <test_aesenc>:
      40: 00 00 80 c1 40 80 12 08 02 01 00 00 00 00 08 04      	! BUNDLE
	alloc	3
	aes.enc	%r1, %r1, %r2
	ret.f	0


0000000000000050 <test_aesenclast>:
      50: 00 00 80 c1 40 90 12 08 02 01 00 00 00 00 08 04      	! BUNDLE
	alloc	3
	aes.enc.last	%r1, %r1, %r2
	ret.f	0


0000000000000060 <test_aesdec>:
      60: 00 00 80 c1 40 a0 12 08 02 01 00 00 00 00 08 04      	! BUNDLE
	alloc	3
	aes.dec	%r1, %r1, %r2
	ret.f	0


0000000000000070 <test_aesdeclast>:
      70: 00 00 80 c1 40 b0 12 08 02 01 00 00 00 00 08 04      	! BUNDLE
	alloc	3
	aes.dec.last	%r1, %r1, %r2
	ret.f	0


0000000000000080 <test_aesimc>:
      80: 00 00 00 c1 40 c0 12 00 02 01 00 00 00 00 08 04      	! BUNDLE
	alloc	2
	aes.imc	%r1, %r1
	ret.f	0


0000000000000090 <test_aeskeygenassist>:
      90: 00 00 00 c1 40 d0 12 32 02 01 40 4b fe 0f 04 00      	! BUNDLE
	alloc	2
	aeskeygenassist	%r1, %r1, 100
	aeskeygenassist	%r1, %r1, -1

      a0: 00 00 00 80 40 00 00 00 00 00 01 00 00 00 00 04      	! BUNDLE
	ret.f	0
	nop	0
	nop	0


00000000000000b0 <test_ldi32>:
      b0: 00 00 00 c1 40 20 1b c6 0b 01 08 00 00 00 08 04      	! BUNDLE
	alloc	2
	ldi	%r1, 12345778
	ret.f	0


00000000000000c0 <test_ldi32_long>:
      c0: 01 00 00 c1 40 10 8b e6 ad 01 c8 00 00 00 00 00      	! BUNDLE
	alloc	2
	ldi.l	%r1, 987654321

      d0: 00 00 00 80 40 00 00 00 00 00 01 00 00 00 00 04      	! BUNDLE
	ret.f	0
	nop	0
	nop	0


00000000000000e0 <test_ldi64>:
      e0: 00 00 00 c1 40 20 1b c6 0b 01 08 00 00 00 08 04      	! BUNDLE
	alloc	2
	ldi	%r1, 12345778
	ret.f	0


00000000000000f0 <test_ldi64_long>:
      f0: 01 00 00 c1 40 50 71 17 b7 01 08 7d 69 d3 36 00      	! BUNDLE
	alloc	2
	ldi.l	%r1, 987654321123456789

     100: 00 00 00 80 40 00 00 00 00 00 01 00 00 00 00 04      	! BUNDLE
	ret.f	0
	nop	0
	nop	0


0000000000000110 <test_subfi_i64>:
     110: 00 00 00 c1 40 20 4d 00 02 01 0e 00 00 00 08 04      	! BUNDLE
	alloc	2
	subfi	%r1, %r1, 1234
	ret.f	0


0000000000000120 <test_subfi_i32>:
     120: 00 00 00 c1 40 20 4d 00 02 01 0f 00 00 00 08 04      	! BUNDLE
	alloc	2
	subfi.ws	%r1, %r1, 1234
	ret.f	0


0000000000000130 <test_addil>:
     130: 01 00 80 c1 40 50 f1 05 03 01 8c 59 97 36 6d 03      	! BUNDLE
	alloc	3
	addi.l	%r1, %r1, 123456789123456789

     140: be fe eb bf 00 a2 ff fa af 7f 40 06 20 08 04 00      	! BUNDLE
	ldi.l	%r2, 9200848539817279407
	or	%r1, %r1, %r2

     150: 00 00 00 80 40 00 00 00 00 00 01 00 00 00 00 04      	! BUNDLE
	ret.f	0
	nop	0
	nop	0


0000000000000160 <test_andil>:
     160: 01 00 00 c1 40 50 f1 05 03 01 8a 59 97 36 6d 03      	! BUNDLE
	alloc	2
	andi.l	%r1, %r1, 123456789123456789

     170: 00 00 00 80 40 00 00 00 00 00 01 00 00 00 00 04      	! BUNDLE
	ret.f	0
	nop	0
	nop	0


0000000000000180 <test_oril>:
     180: 01 00 00 c1 40 50 71 17 03 81 ca 96 be b4 69 1b      	! BUNDLE
	alloc	2
	ori.l	%r1, %r1, 987654321123456789

     190: 00 00 00 80 40 00 00 00 00 00 01 00 00 00 00 04      	! BUNDLE
	ret.f	0
	nop	0
	nop	0


00000000000001a0 <test_addadd>:
     1a0: 00 00 00 c2 40 80 18 04 04 81 00 00 00 00 08 04      	! BUNDLE
	alloc	4
	add.add	%r1, %r2, %r1, %r3
	ret.f	0


00000000000001b0 <test_addsub>:
     1b0: 00 00 00 c2 40 90 18 04 04 81 00 00 00 00 08 04      	! BUNDLE
	alloc	4
	add.sub	%r1, %r2, %r1, %r3
	ret.f	0


00000000000001c0 <test_subsub>:
     1c0: 00 00 00 c2 40 a0 18 08 02 81 00 00 00 00 08 04      	! BUNDLE
	alloc	4
	sub.sub	%r1, %r1, %r2, %r3
	ret.f	0


00000000000001d0 <test_mul_i32_i32>:
     1d0: 00 00 80 c1 40 40 00 04 04 01 00 00 00 00 08 04      	! BUNDLE
	alloc	3
	mul.ws	%r1, %r2, %r1
	ret.f	0


00000000000001e0 <test_mul_i32_imm>:
     1e0: 00 00 00 c1 40 d0 1c 18 02 01 11 00 00 00 08 04      	! BUNDLE
	alloc	2
	muli.ws	%r1, %r1, 98765
	ret.f	0


00000000000001f0 <test_mul_i32_imm_ext>:
     1f0: 01 00 00 c1 40 80 a7 30 02 01 d1 0b 00 00 00 00      	! BUNDLE
	alloc	2
	muli.ws.l	%r1, %r1, 98765432

     200: 00 00 00 80 40 00 00 00 00 00 01 00 00 00 00 04      	! BUNDLE
	ret.f	0
	nop	0
	nop	0


0000000000000210 <test_mul_u32_imm>:
     210: 00 00 00 c1 40 d0 1c 18 02 01 11 00 00 00 08 04      	! BUNDLE
	alloc	2
	muli.ws	%r1, %r1, 98765
	ret.f	0


0000000000000220 <test_mul_u32_imm_ext>:
     220: 01 00 00 c1 40 80 a7 30 02 01 d1 0b 00 00 00 00      	! BUNDLE
	alloc	2
	muli.ws.l	%r1, %r1, 98765432

     230: 00 00 00 80 40 00 00 00 00 00 01 00 00 00 00 04      	! BUNDLE
	ret.f	0
	nop	0
	nop	0


0000000000000240 <test_mul_i32_i64>:
     240: 00 00 80 c1 40 40 00 04 04 01 00 00 00 00 08 04      	! BUNDLE
	alloc	3
	mul.ws	%r1, %r2, %r1
	ret.f	0


0000000000000250 <test_mul_u32_u64>:
     250: 00 00 80 c1 40 50 00 04 04 01 00 00 00 00 08 04      	! BUNDLE
	alloc	3
	mul.wz	%r1, %r2, %r1
	ret.f	0


0000000000000260 <test_mul_i32_u64>:
     260: 00 00 80 c1 40 40 00 04 04 01 00 00 00 00 08 04      	! BUNDLE
	alloc	3
	mul.ws	%r1, %r2, %r1
	ret.f	0


0000000000000270 <test_mul_i32_i64_imm>:
     270: 00 00 00 c1 40 d0 1c 18 02 01 11 00 00 00 08 04      	! BUNDLE
	alloc	2
	muli.ws	%r1, %r1, 98765
	ret.f	0


0000000000000280 <test_mul_i32_i64_imm_ext>:
     280: 01 00 00 c1 40 80 a7 30 02 01 d1 0b 00 00 00 00      	! BUNDLE
	alloc	2
	muli.ws.l	%r1, %r1, 98765432

     290: 00 00 00 80 40 00 00 00 00 00 01 00 00 00 00 04      	! BUNDLE
	ret.f	0
	nop	0
	nop	0


00000000000002a0 <test_mul_u32_u64_imm>:
     2a0: 00 00 00 c1 40 d0 1c 18 02 81 11 00 00 00 08 04      	! BUNDLE
	alloc	2
	muli.wz	%r1, %r1, 98765
	ret.f	0


00000000000002b0 <test_mul_u32_u64_imm_ext>:
     2b0: 01 00 00 c1 40 80 a7 30 02 81 d1 0b 00 00 00 00      	! BUNDLE
	alloc	2
	muli.wz.l	%r1, %r1, 98765432

     2c0: 00 00 00 80 40 00 00 00 00 00 01 00 00 00 00 04      	! BUNDLE
	ret.f	0
	nop	0
	nop	0


00000000000002d0 <test_mul_i64_i64>:
     2d0: 00 00 80 c1 40 60 02 04 04 01 00 00 00 00 08 04      	! BUNDLE
	alloc	3
	mul	%r1, %r2, %r1
	ret.f	0


00000000000002e0 <test_atomic_compare_exchange_i8>:
     2e0: 40 00 80 03 41 c0 00 00 fc 7f 2c 00 00 10 18 a0      	! BUNDLE
	alloc.sp	7, 16
	st.w	%gz, %sp, 12
	ldz.b	%r6, %r2, 0

     2f0: 04 00 80 41 01 80 14 18 02 05 00 04 60 28 10 00      	! BUNDLE
	mov	%r5, %r3
	cas.b	%r5, %r1, %r6
	cmp.eq.w	%r4, %r5, %r6

     300: 00 02 30 43 21 00 00 00 04 05 29 03 00 f0 17 ac      	! BUNDLE
	nul.eq.w	%r5, %r6, 1, 0
	st.b	%r5, %r2, 0
	ldz.w	%r5, %sp, 12

     310: 08 00 84 02 01 c0 00 00 fc 04 2c 00 00 10 18 a0      	! BUNDLE
	add.ws	%r4, %r5, %r4
	st.w	%r4, %sp, 12
	ldz.b	%r6, %r2, 0

     320: 04 00 80 41 01 90 14 18 02 05 00 04 60 28 10 00      	! BUNDLE
	mov	%r5, %r3
	cas.b.a	%r5, %r1, %r6
	cmp.eq.w	%r4, %r5, %r6

     330: 00 02 30 43 21 00 00 00 04 05 29 03 00 f0 17 ac      	! BUNDLE
	nul.eq.w	%r5, %r6, 1, 0
	st.b	%r5, %r2, 0
	ldz.w	%r5, %sp, 12

     340: 08 00 84 02 01 c0 00 00 fc 04 2c 00 00 10 18 a0      	! BUNDLE
	add.ws	%r4, %r5, %r4
	st.w	%r4, %sp, 12
	ldz.b	%r6, %r2, 0

     350: 04 00 80 41 01 90 14 18 02 05 00 04 60 28 10 00      	! BUNDLE
	mov	%r5, %r3
	cas.b.a	%r5, %r1, %r6
	cmp.eq.w	%r4, %r5, %r6

     360: 00 02 30 43 21 00 00 00 04 05 29 03 00 f0 17 ac      	! BUNDLE
	nul.eq.w	%r5, %r6, 1, 0
	st.b	%r5, %r2, 0
	ldz.w	%r5, %sp, 12

     370: 08 00 84 02 01 c0 00 00 fc 04 2c 00 00 10 18 a0      	! BUNDLE
	add.ws	%r4, %r5, %r4
	st.w	%r4, %sp, 12
	ldz.b	%r6, %r2, 0

     380: 04 00 80 41 01 90 14 18 02 05 00 04 60 28 10 00      	! BUNDLE
	mov	%r5, %r3
	cas.b.a	%r5, %r1, %r6
	cmp.eq.w	%r4, %r5, %r6

     390: 00 02 30 43 21 00 00 00 04 05 29 03 00 f0 17 ac      	! BUNDLE
	nul.eq.w	%r5, %r6, 1, 0
	st.b	%r5, %r2, 0
	ldz.w	%r5, %sp, 12

     3a0: 08 00 84 02 01 c0 00 00 fc 04 2c 00 00 10 18 a0      	! BUNDLE
	add.ws	%r4, %r5, %r4
	st.w	%r4, %sp, 12
	ldz.b	%r6, %r2, 0

     3b0: 04 00 80 41 01 90 14 18 02 05 00 04 60 28 10 00      	! BUNDLE
	mov	%r5, %r3
	cas.b.a	%r5, %r1, %r6
	cmp.eq.w	%r4, %r5, %r6

     3c0: 00 02 30 43 21 00 00 00 04 05 29 03 00 f0 17 ac      	! BUNDLE
	nul.eq.w	%r5, %r6, 1, 0
	st.b	%r5, %r2, 0
	ldz.w	%r5, %sp, 12

     3d0: 08 00 84 02 01 c0 00 00 fc 04 2c 00 00 10 18 a0      	! BUNDLE
	add.ws	%r4, %r5, %r4
	st.w	%r4, %sp, 12
	ldz.b	%r6, %r2, 0

     3e0: 04 00 80 41 01 90 14 18 02 05 00 04 60 28 10 00      	! BUNDLE
	mov	%r5, %r3
	cas.b.a	%r5, %r1, %r6
	cmp.eq.w	%r4, %r5, %r6

     3f0: 00 02 30 43 21 00 00 00 04 05 29 03 00 f0 17 ac      	! BUNDLE
	nul.eq.w	%r5, %r6, 1, 0
	st.b	%r5, %r2, 0
	ldz.w	%r5, %sp, 12

     400: 08 00 84 02 01 c0 00 00 fc 04 2c 00 00 10 18 a0      	! BUNDLE
	add.ws	%r4, %r5, %r4
	st.w	%r4, %sp, 12
	ldz.b	%r6, %r2, 0

     410: 04 00 80 41 01 90 14 18 02 05 00 04 60 28 10 00      	! BUNDLE
	mov	%r5, %r3
	cas.b.a	%r5, %r1, %r6
	cmp.eq.w	%r4, %r5, %r6

     420: 00 02 30 43 21 00 00 00 04 05 29 03 00 f0 17 ac      	! BUNDLE
	nul.eq.w	%r5, %r6, 1, 0
	st.b	%r5, %r2, 0
	ldz.w	%r5, %sp, 12

     430: 08 00 84 02 01 c0 00 00 fc 04 2c 00 00 10 18 a0      	! BUNDLE
	add.ws	%r4, %r5, %r4
	st.w	%r4, %sp, 12
	ldz.b	%r6, %r2, 0

     440: 04 00 80 41 01 a0 14 18 02 05 00 04 60 28 10 00      	! BUNDLE
	mov	%r5, %r3
	cas.b.r	%r5, %r1, %r6
	cmp.eq.w	%r4, %r5, %r6

     450: 00 02 30 43 21 00 00 00 04 05 29 03 00 f0 17 ac      	! BUNDLE
	nul.eq.w	%r5, %r6, 1, 0
	st.b	%r5, %r2, 0
	ldz.w	%r5, %sp, 12

     460: 08 00 84 02 01 c0 00 00 fc 04 2c 00 00 10 18 a0      	! BUNDLE
	add.ws	%r4, %r5, %r4
	st.w	%r4, %sp, 12
	ldz.b	%r6, %r2, 0

     470: 04 00 80 41 01 b0 14 18 02 05 00 04 60 28 10 00      	! BUNDLE
	mov	%r5, %r3
	cas.b.ar	%r5, %r1, %r6
	cmp.eq.w	%r4, %r5, %r6

     480: 00 02 30 43 21 00 00 00 04 05 29 03 00 f0 17 ac      	! BUNDLE
	nul.eq.w	%r5, %r6, 1, 0
	st.b	%r5, %r2, 0
	ldz.w	%r5, %sp, 12

     490: 08 00 84 02 01 c0 00 00 fc 04 2c 00 00 10 18 a0      	! BUNDLE
	add.ws	%r4, %r5, %r4
	st.w	%r4, %sp, 12
	ldz.b	%r6, %r2, 0

     4a0: 04 00 80 41 01 b0 14 18 02 05 00 04 60 28 10 00      	! BUNDLE
	mov	%r5, %r3
	cas.b.ar	%r5, %r1, %r6
	cmp.eq.w	%r4, %r5, %r6

     4b0: 00 02 30 43 21 00 00 00 04 05 29 03 00 f0 17 ac      	! BUNDLE
	nul.eq.w	%r5, %r6, 1, 0
	st.b	%r5, %r2, 0
	ldz.w	%r5, %sp, 12

     4c0: 08 00 84 02 01 c0 00 00 fc 04 2c 00 00 10 18 a0      	! BUNDLE
	add.ws	%r4, %r5, %r4
	st.w	%r4, %sp, 12
	ldz.b	%r6, %r2, 0

     4d0: 04 00 80 41 01 b0 14 18 02 05 00 04 60 28 10 00      	! BUNDLE
	mov	%r5, %r3
	cas.b.ar	%r5, %r1, %r6
	cmp.eq.w	%r4, %r5, %r6

     4e0: 00 02 30 43 21 00 00 00 04 05 29 03 00 f0 17 ac      	! BUNDLE
	nul.eq.w	%r5, %r6, 1, 0
	st.b	%r5, %r2, 0
	ldz.w	%r5, %sp, 12

     4f0: 08 00 84 02 01 c0 00 00 fc 04 2c 00 00 10 18 a0      	! BUNDLE
	add.ws	%r4, %r5, %r4
	st.w	%r4, %sp, 12
	ldz.b	%r6, %r2, 0

     500: dc 04 00 00 00 10 00 00 06 05 00 52 60 08 14 00      	! BUNDLE
	fence.sc
	mov	%r5, %r3
	cas.b	%r5, %r1, %r6

     510: 40 00 86 02 01 00 08 c0 0c 85 00 00 00 10 14 a4      	! BUNDLE
	cmp.eq.w	%r4, %r5, %r6
	nul.eq.w	%r5, %r6, 1, 0
	st.b	%r5, %r2, 0

     520: 30 00 00 7f c1 2a 00 10 0a 04 00 03 00 f0 13 b0      	! BUNDLE
	ldz.w	%r5, %sp, 12
	add.ws	%r4, %r5, %r4
	st.w	%r4, %sp, 12

     530: 00 00 00 81 01 7a 13 00 00 00 40 00 00 18 14 00      	! BUNDLE
	ldz.b	%r6, %r2, 0
	fence.sc
	mov	%r5, %r3

     540: 20 05 86 40 01 00 01 18 0a 04 00 20 00 33 14 02      	! BUNDLE
	cas.b	%r5, %r1, %r6
	cmp.eq.w	%r4, %r5, %r6
	nul.eq.w	%r5, %r6, 1, 0

     550: 00 00 00 41 41 ca 00 00 fc 05 ab 00 40 28 10 00      	! BUNDLE
	st.b	%r5, %r2, 0
	ldz.w	%r5, %sp, 12
	add.ws	%r4, %r5, %r4

     560: 30 00 00 3f 01 0b 00 00 04 06 e8 4d 00 00 00 00      	! BUNDLE
	st.w	%r4, %sp, 12
	ldz.b	%r6, %r2, 0
	fence.sc

     570: 04 00 80 41 01 80 14 18 02 05 00 04 60 28 10 00      	! BUNDLE
	mov	%r5, %r3
	cas.b	%r5, %r1, %r6
	cmp.eq.w	%r4, %r5, %r6

     580: 00 02 30 43 21 00 00 00 04 05 29 03 00 f0 17 ac      	! BUNDLE
	nul.eq.w	%r5, %r6, 1, 0
	st.b	%r5, %r2, 0
	ldz.w	%r5, %sp, 12

     590: 08 00 84 02 01 c0 00 00 fc 04 2c 00 00 10 10 a0      	! BUNDLE
	add.ws	%r4, %r5, %r4
	st.w	%r4, %sp, 12
	ldz.b	%r4, %r2, 0

     5a0: dc 04 00 00 00 80 14 10 02 03 00 04 40 18 04 00      	! BUNDLE
	fence.sc
	cas.b	%r3, %r1, %r4
	cmp.eq.w	%r1, %r3, %r4

     5b0: 00 02 30 c2 20 00 00 00 04 03 29 03 00 f0 0b ac      	! BUNDLE
	nul.eq.w	%r3, %r4, 1, 0
	st.b	%r3, %r2, 0
	ldz.w	%r2, %sp, 12

     5c0: 08 00 01 41 00 c0 00 00 fc 01 2c 03 00 f0 07 ac      	! BUNDLE
	add.ws	%r1, %r2, %r1
	st.w	%r1, %sp, 12
	ldz.w	%r1, %sp, 12

     5d0: 40 00 00 80 40 00 00 00 00 00 01 00 00 00 00 04      	! BUNDLE
	ret.f	16
	nop	0
	nop	0


00000000000005e0 <test_atomic_compare_exchange_i16>:
     5e0: 40 00 80 03 41 c0 00 00 fc 7f 2c 00 00 10 18 a6      	! BUNDLE
	alloc.sp	7, 16
	st.w	%gz, %sp, 12
	ldz.h	%r6, %r2, 0

     5f0: 04 00 80 41 01 80 19 18 02 05 00 04 60 28 10 00      	! BUNDLE
	mov	%r5, %r3
	cas.h	%r5, %r1, %r6
	cmp.eq.w	%r4, %r5, %r6

     600: 00 02 30 43 21 00 00 00 04 85 2a 03 00 f0 17 ac      	! BUNDLE
	nul.eq.w	%r5, %r6, 1, 0
	st.h	%r5, %r2, 0
	ldz.w	%r5, %sp, 12

     610: 08 00 84 02 01 c0 00 00 fc 04 2c 00 00 10 18 a6      	! BUNDLE
	add.ws	%r4, %r5, %r4
	st.w	%r4, %sp, 12
	ldz.h	%r6, %r2, 0

     620: 04 00 80 41 01 90 19 18 02 05 00 04 60 28 10 00      	! BUNDLE
	mov	%r5, %r3
	cas.h.a	%r5, %r1, %r6
	cmp.eq.w	%r4, %r5, %r6

     630: 00 02 30 43 21 00 00 00 04 85 2a 03 00 f0 17 ac      	! BUNDLE
	nul.eq.w	%r5, %r6, 1, 0
	st.h	%r5, %r2, 0
	ldz.w	%r5, %sp, 12

     640: 08 00 84 02 01 c0 00 00 fc 04 2c 00 00 10 18 a6      	! BUNDLE
	add.ws	%r4, %r5, %r4
	st.w	%r4, %sp, 12
	ldz.h	%r6, %r2, 0

     650: 04 00 80 41 01 90 19 18 02 05 00 04 60 28 10 00      	! BUNDLE
	mov	%r5, %r3
	cas.h.a	%r5, %r1, %r6
	cmp.eq.w	%r4, %r5, %r6

     660: 00 02 30 43 21 00 00 00 04 85 2a 03 00 f0 17 ac      	! BUNDLE
	nul.eq.w	%r5, %r6, 1, 0
	st.h	%r5, %r2, 0
	ldz.w	%r5, %sp, 12

     670: 08 00 84 02 01 c0 00 00 fc 04 2c 00 00 10 18 a6      	! BUNDLE
	add.ws	%r4, %r5, %r4
	st.w	%r4, %sp, 12
	ldz.h	%r6, %r2, 0

     680: 04 00 80 41 01 90 19 18 02 05 00 04 60 28 10 00      	! BUNDLE
	mov	%r5, %r3
	cas.h.a	%r5, %r1, %r6
	cmp.eq.w	%r4, %r5, %r6

     690: 00 02 30 43 21 00 00 00 04 85 2a 03 00 f0 17 ac      	! BUNDLE
	nul.eq.w	%r5, %r6, 1, 0
	st.h	%r5, %r2, 0
	ldz.w	%r5, %sp, 12

     6a0: 08 00 84 02 01 c0 00 00 fc 04 2c 00 00 10 18 a6      	! BUNDLE
	add.ws	%r4, %r5, %r4
	st.w	%r4, %sp, 12
	ldz.h	%r6, %r2, 0

     6b0: 04 00 80 41 01 90 19 18 02 05 00 04 60 28 10 00      	! BUNDLE
	mov	%r5, %r3
	cas.h.a	%r5, %r1, %r6
	cmp.eq.w	%r4, %r5, %r6

     6c0: 00 02 30 43 21 00 00 00 04 85 2a 03 00 f0 17 ac      	! BUNDLE
	nul.eq.w	%r5, %r6, 1, 0
	st.h	%r5, %r2, 0
	ldz.w	%r5, %sp, 12

     6d0: 08 00 84 02 01 c0 00 00 fc 04 2c 00 00 10 18 a6      	! BUNDLE
	add.ws	%r4, %r5, %r4
	st.w	%r4, %sp, 12
	ldz.h	%r6, %r2, 0

     6e0: 04 00 80 41 01 90 19 18 02 05 00 04 60 28 10 00      	! BUNDLE
	mov	%r5, %r3
	cas.h.a	%r5, %r1, %r6
	cmp.eq.w	%r4, %r5, %r6

     6f0: 00 02 30 43 21 00 00 00 04 85 2a 03 00 f0 17 ac      	! BUNDLE
	nul.eq.w	%r5, %r6, 1, 0
	st.h	%r5, %r2, 0
	ldz.w	%r5, %sp, 12

     700: 08 00 84 02 01 c0 00 00 fc 04 2c 00 00 10 18 a6      	! BUNDLE
	add.ws	%r4, %r5, %r4
	st.w	%r4, %sp, 12
	ldz.h	%r6, %r2, 0

     710: 04 00 80 41 01 90 19 18 02 05 00 04 60 28 10 00      	! BUNDLE
	mov	%r5, %r3
	cas.h.a	%r5, %r1, %r6
	cmp.eq.w	%r4, %r5, %r6

     720: 00 02 30 43 21 00 00 00 04 85 2a 03 00 f0 17 ac      	! BUNDLE
	nul.eq.w	%r5, %r6, 1, 0
	st.h	%r5, %r2, 0
	ldz.w	%r5, %sp, 12

     730: 08 00 84 02 01 c0 00 00 fc 04 2c 00 00 10 18 a6      	! BUNDLE
	add.ws	%r4, %r5, %r4
	st.w	%r4, %sp, 12
	ldz.h	%r6, %r2, 0

     740: 04 00 80 41 01 a0 19 18 02 05 00 04 60 28 10 00      	! BUNDLE
	mov	%r5, %r3
	cas.h.r	%r5, %r1, %r6
	cmp.eq.w	%r4, %r5, %r6

     750: 00 02 30 43 21 00 00 00 04 85 2a 03 00 f0 17 ac      	! BUNDLE
	nul.eq.w	%r5, %r6, 1, 0
	st.h	%r5, %r2, 0
	ldz.w	%r5, %sp, 12

     760: 08 00 84 02 01 c0 00 00 fc 04 2c 00 00 10 18 a6      	! BUNDLE
	add.ws	%r4, %r5, %r4
	st.w	%r4, %sp, 12
	ldz.h	%r6, %r2, 0

     770: 04 00 80 41 01 b0 19 18 02 05 00 04 60 28 10 00      	! BUNDLE
	mov	%r5, %r3
	cas.h.ar	%r5, %r1, %r6
	cmp.eq.w	%r4, %r5, %r6

     780: 00 02 30 43 21 00 00 00 04 85 2a 03 00 f0 17 ac      	! BUNDLE
	nul.eq.w	%r5, %r6, 1, 0
	st.h	%r5, %r2, 0
	ldz.w	%r5, %sp, 12

     790: 08 00 84 02 01 c0 00 00 fc 04 2c 00 00 10 18 a6      	! BUNDLE
	add.ws	%r4, %r5, %r4
	st.w	%r4, %sp, 12
	ldz.h	%r6, %r2, 0

     7a0: 04 00 80 41 01 b0 19 18 02 05 00 04 60 28 10 00      	! BUNDLE
	mov	%r5, %r3
	cas.h.ar	%r5, %r1, %r6
	cmp.eq.w	%r4, %r5, %r6

     7b0: 00 02 30 43 21 00 00 00 04 85 2a 03 00 f0 17 ac      	! BUNDLE
	nul.eq.w	%r5, %r6, 1, 0
	st.h	%r5, %r2, 0
	ldz.w	%r5, %sp, 12

     7c0: 08 00 84 02 01 c0 00 00 fc 04 2c 00 00 10 18 a6      	! BUNDLE
	add.ws	%r4, %r5, %r4
	st.w	%r4, %sp, 12
	ldz.h	%r6, %r2, 0

     7d0: 04 00 80 41 01 b0 19 18 02 05 00 04 60 28 10 00      	! BUNDLE
	mov	%r5, %r3
	cas.h.ar	%r5, %r1, %r6
	cmp.eq.w	%r4, %r5, %r6

     7e0: 00 02 30 43 21 00 00 00 04 85 2a 03 00 f0 17 ac      	! BUNDLE
	nul.eq.w	%r5, %r6, 1, 0
	st.h	%r5, %r2, 0
	ldz.w	%r5, %sp, 12

     7f0: 08 00 84 02 01 c0 00 00 fc 04 2c 00 00 10 18 a6      	! BUNDLE
	add.ws	%r4, %r5, %r4
	st.w	%r4, %sp, 12
	ldz.h	%r6, %r2, 0

     800: dc 04 00 00 00 10 00 00 06 05 00 66 60 08 14 00      	! BUNDLE
	fence.sc
	mov	%r5, %r3
	cas.h	%r5, %r1, %r6

     810: 40 00 86 02 01 00 08 c0 0c 85 00 00 00 10 14 aa      	! BUNDLE
	cmp.eq.w	%r4, %r5, %r6
	nul.eq.w	%r5, %r6, 1, 0
	st.h	%r5, %r2, 0

     820: 30 00 00 7f c1 2a 00 10 0a 04 00 03 00 f0 13 b0      	! BUNDLE
	ldz.w	%r5, %sp, 12
	add.ws	%r4, %r5, %r4
	st.w	%r4, %sp, 12

     830: 00 00 00 81 61 7a 13 00 00 00 40 00 00 18 14 00      	! BUNDLE
	ldz.h	%r6, %r2, 0
	fence.sc
	mov	%r5, %r3

     840: 60 06 86 40 01 00 01 18 0a 04 00 20 00 33 14 02      	! BUNDLE
	cas.h	%r5, %r1, %r6
	cmp.eq.w	%r4, %r5, %r6
	nul.eq.w	%r5, %r6, 1, 0

     850: 00 00 00 41 a1 ca 00 00 fc 05 ab 00 40 28 10 00      	! BUNDLE
	st.h	%r5, %r2, 0
	ldz.w	%r5, %sp, 12
	add.ws	%r4, %r5, %r4

     860: 30 00 00 3f 01 0b 00 00 04 86 e9 4d 00 00 00 00      	! BUNDLE
	st.w	%r4, %sp, 12
	ldz.h	%r6, %r2, 0
	fence.sc

     870: 04 00 80 41 01 80 19 18 02 05 00 04 60 28 10 00      	! BUNDLE
	mov	%r5, %r3
	cas.h	%r5, %r1, %r6
	cmp.eq.w	%r4, %r5, %r6

     880: 00 02 30 43 21 00 00 00 04 85 2a 03 00 f0 17 ac      	! BUNDLE
	nul.eq.w	%r5, %r6, 1, 0
	st.h	%r5, %r2, 0
	ldz.w	%r5, %sp, 12

     890: 08 00 84 02 01 c0 00 00 fc 04 2c 00 00 10 10 a6      	! BUNDLE
	add.ws	%r4, %r5, %r4
	st.w	%r4, %sp, 12
	ldz.h	%r4, %r2, 0

     8a0: dc 04 00 00 00 80 19 10 02 03 00 04 40 18 04 00      	! BUNDLE
	fence.sc
	cas.h	%r3, %r1, %r4
	cmp.eq.w	%r1, %r3, %r4

     8b0: 00 02 30 c2 20 00 00 00 04 83 2a 03 00 f0 0b ac      	! BUNDLE
	nul.eq.w	%r3, %r4, 1, 0
	st.h	%r3, %r2, 0
	ldz.w	%r2, %sp, 12

     8c0: 08 00 01 41 00 c0 00 00 fc 01 2c 03 00 f0 07 ac      	! BUNDLE
	add.ws	%r1, %r2, %r1
	st.w	%r1, %sp, 12
	ldz.w	%r1, %sp, 12

     8d0: 40 00 00 80 40 00 00 00 00 00 01 00 00 00 00 04      	! BUNDLE
	ret.f	16
	nop	0
	nop	0


00000000000008e0 <test_atomic_compare_exchange_i32>:
     8e0: 40 00 80 03 41 c0 00 00 fc 7f 2c 00 00 10 18 ac      	! BUNDLE
	alloc.sp	7, 16
	st.w	%gz, %sp, 12
	ldz.w	%r6, %r2, 0

     8f0: 04 00 80 41 01 80 1e 18 02 05 00 04 60 28 10 00      	! BUNDLE
	mov	%r5, %r3
	cas.w	%r5, %r1, %r6
	cmp.eq.w	%r4, %r5, %r6

     900: 00 02 30 43 21 00 00 00 04 05 2c 03 00 f0 17 ac      	! BUNDLE
	nul.eq.w	%r5, %r6, 1, 0
	st.w	%r5, %r2, 0
	ldz.w	%r5, %sp, 12

     910: 08 00 84 02 01 c0 00 00 fc 04 2c 00 00 10 18 ac      	! BUNDLE
	add.ws	%r4, %r5, %r4
	st.w	%r4, %sp, 12
	ldz.w	%r6, %r2, 0

     920: 04 00 80 41 01 90 1e 18 02 05 00 04 60 28 10 00      	! BUNDLE
	mov	%r5, %r3
	cas.w.a	%r5, %r1, %r6
	cmp.eq.w	%r4, %r5, %r6

     930: 00 02 30 43 21 00 00 00 04 05 2c 03 00 f0 17 ac      	! BUNDLE
	nul.eq.w	%r5, %r6, 1, 0
	st.w	%r5, %r2, 0
	ldz.w	%r5, %sp, 12

     940: 08 00 84 02 01 c0 00 00 fc 04 2c 00 00 10 18 ac      	! BUNDLE
	add.ws	%r4, %r5, %r4
	st.w	%r4, %sp, 12
	ldz.w	%r6, %r2, 0

     950: 04 00 80 41 01 90 1e 18 02 05 00 04 60 28 10 00      	! BUNDLE
	mov	%r5, %r3
	cas.w.a	%r5, %r1, %r6
	cmp.eq.w	%r4, %r5, %r6

     960: 00 02 30 43 21 00 00 00 04 05 2c 03 00 f0 17 ac      	! BUNDLE
	nul.eq.w	%r5, %r6, 1, 0
	st.w	%r5, %r2, 0
	ldz.w	%r5, %sp, 12

     970: 08 00 84 02 01 c0 00 00 fc 04 2c 00 00 10 18 ac      	! BUNDLE
	add.ws	%r4, %r5, %r4
	st.w	%r4, %sp, 12
	ldz.w	%r6, %r2, 0

     980: 04 00 80 41 01 90 1e 18 02 05 00 04 60 28 10 00      	! BUNDLE
	mov	%r5, %r3
	cas.w.a	%r5, %r1, %r6
	cmp.eq.w	%r4, %r5, %r6

     990: 00 02 30 43 21 00 00 00 04 05 2c 03 00 f0 17 ac      	! BUNDLE
	nul.eq.w	%r5, %r6, 1, 0
	st.w	%r5, %r2, 0
	ldz.w	%r5, %sp, 12

     9a0: 08 00 84 02 01 c0 00 00 fc 04 2c 00 00 10 18 ac      	! BUNDLE
	add.ws	%r4, %r5, %r4
	st.w	%r4, %sp, 12
	ldz.w	%r6, %r2, 0

     9b0: 04 00 80 41 01 90 1e 18 02 05 00 04 60 28 10 00      	! BUNDLE
	mov	%r5, %r3
	cas.w.a	%r5, %r1, %r6
	cmp.eq.w	%r4, %r5, %r6

     9c0: 00 02 30 43 21 00 00 00 04 05 2c 03 00 f0 17 ac      	! BUNDLE
	nul.eq.w	%r5, %r6, 1, 0
	st.w	%r5, %r2, 0
	ldz.w	%r5, %sp, 12

     9d0: 08 00 84 02 01 c0 00 00 fc 04 2c 00 00 10 18 ac      	! BUNDLE
	add.ws	%r4, %r5, %r4
	st.w	%r4, %sp, 12
	ldz.w	%r6, %r2, 0

     9e0: 04 00 80 41 01 90 1e 18 02 05 00 04 60 28 10 00      	! BUNDLE
	mov	%r5, %r3
	cas.w.a	%r5, %r1, %r6
	cmp.eq.w	%r4, %r5, %r6

     9f0: 00 02 30 43 21 00 00 00 04 05 2c 03 00 f0 17 ac      	! BUNDLE
	nul.eq.w	%r5, %r6, 1, 0
	st.w	%r5, %r2, 0
	ldz.w	%r5, %sp, 12

     a00: 08 00 84 02 01 c0 00 00 fc 04 2c 00 00 10 18 ac      	! BUNDLE
	add.ws	%r4, %r5, %r4
	st.w	%r4, %sp, 12
	ldz.w	%r6, %r2, 0

     a10: 04 00 80 41 01 90 1e 18 02 05 00 04 60 28 10 00      	! BUNDLE
	mov	%r5, %r3
	cas.w.a	%r5, %r1, %r6
	cmp.eq.w	%r4, %r5, %r6

     a20: 00 02 30 43 21 00 00 00 04 05 2c 03 00 f0 17 ac      	! BUNDLE
	nul.eq.w	%r5, %r6, 1, 0
	st.w	%r5, %r2, 0
	ldz.w	%r5, %sp, 12

     a30: 08 00 84 02 01 c0 00 00 fc 04 2c 00 00 10 18 ac      	! BUNDLE
	add.ws	%r4, %r5, %r4
	st.w	%r4, %sp, 12
	ldz.w	%r6, %r2, 0

     a40: 04 00 80 41 01 a0 1e 18 02 05 00 04 60 28 10 00      	! BUNDLE
	mov	%r5, %r3
	cas.w.r	%r5, %r1, %r6
	cmp.eq.w	%r4, %r5, %r6

     a50: 00 02 30 43 21 00 00 00 04 05 2c 03 00 f0 17 ac      	! BUNDLE
	nul.eq.w	%r5, %r6, 1, 0
	st.w	%r5, %r2, 0
	ldz.w	%r5, %sp, 12

     a60: 08 00 84 02 01 c0 00 00 fc 04 2c 00 00 10 18 ac      	! BUNDLE
	add.ws	%r4, %r5, %r4
	st.w	%r4, %sp, 12
	ldz.w	%r6, %r2, 0

     a70: 04 00 80 41 01 b0 1e 18 02 05 00 04 60 28 10 00      	! BUNDLE
	mov	%r5, %r3
	cas.w.ar	%r5, %r1, %r6
	cmp.eq.w	%r4, %r5, %r6

     a80: 00 02 30 43 21 00 00 00 04 05 2c 03 00 f0 17 ac      	! BUNDLE
	nul.eq.w	%r5, %r6, 1, 0
	st.w	%r5, %r2, 0
	ldz.w	%r5, %sp, 12

     a90: 08 00 84 02 01 c0 00 00 fc 04 2c 00 00 10 18 ac      	! BUNDLE
	add.ws	%r4, %r5, %r4
	st.w	%r4, %sp, 12
	ldz.w	%r6, %r2, 0

     aa0: 04 00 80 41 01 b0 1e 18 02 05 00 04 60 28 10 00      	! BUNDLE
	mov	%r5, %r3
	cas.w.ar	%r5, %r1, %r6
	cmp.eq.w	%r4, %r5, %r6

     ab0: 00 02 30 43 21 00 00 00 04 05 2c 03 00 f0 17 ac      	! BUNDLE
	nul.eq.w	%r5, %r6, 1, 0
	st.w	%r5, %r2, 0
	ldz.w	%r5, %sp, 12

     ac0: 08 00 84 02 01 c0 00 00 fc 04 2c 00 00 10 18 ac      	! BUNDLE
	add.ws	%r4, %r5, %r4
	st.w	%r4, %sp, 12
	ldz.w	%r6, %r2, 0

     ad0: 04 00 80 41 01 b0 1e 18 02 05 00 04 60 28 10 00      	! BUNDLE
	mov	%r5, %r3
	cas.w.ar	%r5, %r1, %r6
	cmp.eq.w	%r4, %r5, %r6

     ae0: 00 02 30 43 21 00 00 00 04 05 2c 03 00 f0 17 ac      	! BUNDLE
	nul.eq.w	%r5, %r6, 1, 0
	st.w	%r5, %r2, 0
	ldz.w	%r5, %sp, 12

     af0: 08 00 84 02 01 c0 00 00 fc 04 2c 00 00 10 18 ac      	! BUNDLE
	add.ws	%r4, %r5, %r4
	st.w	%r4, %sp, 12
	ldz.w	%r6, %r2, 0

     b00: dc 04 00 00 00 10 00 00 06 05 00 7a 60 08 14 00      	! BUNDLE
	fence.sc
	mov	%r5, %r3
	cas.w	%r5, %r1, %r6

     b10: 40 00 86 02 01 00 08 c0 0c 85 00 00 00 10 14 b0      	! BUNDLE
	cmp.eq.w	%r4, %r5, %r6
	nul.eq.w	%r5, %r6, 1, 0
	st.w	%r5, %r2, 0

     b20: 30 00 00 7f c1 2a 00 10 0a 04 00 03 00 f0 13 b0      	! BUNDLE
	ldz.w	%r5, %sp, 12
	add.ws	%r4, %r5, %r4
	st.w	%r4, %sp, 12

     b30: 00 00 00 81 c1 7a 13 00 00 00 40 00 00 18 14 00      	! BUNDLE
	ldz.w	%r6, %r2, 0
	fence.sc
	mov	%r5, %r3

     b40: a0 07 86 40 01 00 01 18 0a 04 00 20 00 33 14 02      	! BUNDLE
	cas.w	%r5, %r1, %r6
	cmp.eq.w	%r4, %r5, %r6
	nul.eq.w	%r5, %r6, 1, 0

     b50: 00 00 00 41 01 cb 00 00 fc 05 ab 00 40 28 10 00      	! BUNDLE
	st.w	%r5, %r2, 0
	ldz.w	%r5, %sp, 12
	add.ws	%r4, %r5, %r4

     b60: 30 00 00 3f 01 0b 00 00 04 06 eb 4d 00 00 00 00      	! BUNDLE
	st.w	%r4, %sp, 12
	ldz.w	%r6, %r2, 0
	fence.sc

     b70: 04 00 80 41 01 80 1e 18 02 05 00 04 60 28 10 00      	! BUNDLE
	mov	%r5, %r3
	cas.w	%r5, %r1, %r6
	cmp.eq.w	%r4, %r5, %r6

     b80: 00 02 30 43 21 00 00 00 04 05 2c 03 00 f0 17 ac      	! BUNDLE
	nul.eq.w	%r5, %r6, 1, 0
	st.w	%r5, %r2, 0
	ldz.w	%r5, %sp, 12

     b90: 08 00 84 02 01 c0 00 00 fc 04 2c 00 00 10 10 ac      	! BUNDLE
	add.ws	%r4, %r5, %r4
	st.w	%r4, %sp, 12
	ldz.w	%r4, %r2, 0

     ba0: dc 04 00 00 00 80 1e 10 02 03 00 04 40 18 04 00      	! BUNDLE
	fence.sc
	cas.w	%r3, %r1, %r4
	cmp.eq.w	%r1, %r3, %r4

     bb0: 00 02 30 c2 20 00 00 00 04 03 2c 03 00 f0 0b ac      	! BUNDLE
	nul.eq.w	%r3, %r4, 1, 0
	st.w	%r3, %r2, 0
	ldz.w	%r2, %sp, 12

     bc0: 08 00 01 41 00 c0 00 00 fc 01 2c 03 00 f0 07 ac      	! BUNDLE
	add.ws	%r1, %r2, %r1
	st.w	%r1, %sp, 12
	ldz.w	%r1, %sp, 12

     bd0: 40 00 00 80 40 00 00 00 00 00 01 00 00 00 00 04      	! BUNDLE
	ret.f	16
	nop	0
	nop	0


0000000000000be0 <test_atomic_compare_exchange_i64>:
     be0: 40 00 80 03 41 c0 00 00 fc 7f 2c 00 00 10 18 b2      	! BUNDLE
	alloc.sp	7, 16
	st.w	%gz, %sp, 12
	ldz.d	%r6, %r2, 0

     bf0: 04 00 80 41 01 80 23 18 02 05 00 02 60 28 10 00      	! BUNDLE
	mov	%r5, %r3
	cas.d	%r5, %r1, %r6
	cmp.eq.d	%r4, %r5, %r6

     c00: 00 02 00 43 21 00 00 00 04 85 2d 03 00 f0 17 ac      	! BUNDLE
	nul.eq.d	%r5, %r6, 1, 0
	st.d	%r5, %r2, 0
	ldz.w	%r5, %sp, 12

     c10: 08 00 84 02 01 c0 00 00 fc 04 2c 00 00 10 18 b2      	! BUNDLE
	add.ws	%r4, %r5, %r4
	st.w	%r4, %sp, 12
	ldz.d	%r6, %r2, 0

     c20: 04 00 80 41 01 90 23 18 02 05 00 02 60 28 10 00      	! BUNDLE
	mov	%r5, %r3
	cas.d.a	%r5, %r1, %r6
	cmp.eq.d	%r4, %r5, %r6

     c30: 00 02 00 43 21 00 00 00 04 85 2d 03 00 f0 17 ac      	! BUNDLE
	nul.eq.d	%r5, %r6, 1, 0
	st.d	%r5, %r2, 0
	ldz.w	%r5, %sp, 12

     c40: 08 00 84 02 01 c0 00 00 fc 04 2c 00 00 10 18 b2      	! BUNDLE
	add.ws	%r4, %r5, %r4
	st.w	%r4, %sp, 12
	ldz.d	%r6, %r2, 0

     c50: 04 00 80 41 01 90 23 18 02 05 00 02 60 28 10 00      	! BUNDLE
	mov	%r5, %r3
	cas.d.a	%r5, %r1, %r6
	cmp.eq.d	%r4, %r5, %r6

     c60: 00 02 00 43 21 00 00 00 04 85 2d 03 00 f0 17 ac      	! BUNDLE
	nul.eq.d	%r5, %r6, 1, 0
	st.d	%r5, %r2, 0
	ldz.w	%r5, %sp, 12

     c70: 08 00 84 02 01 c0 00 00 fc 04 2c 00 00 10 18 b2      	! BUNDLE
	add.ws	%r4, %r5, %r4
	st.w	%r4, %sp, 12
	ldz.d	%r6, %r2, 0

     c80: 04 00 80 41 01 90 23 18 02 05 00 02 60 28 10 00      	! BUNDLE
	mov	%r5, %r3
	cas.d.a	%r5, %r1, %r6
	cmp.eq.d	%r4, %r5, %r6

     c90: 00 02 00 43 21 00 00 00 04 85 2d 03 00 f0 17 ac      	! BUNDLE
	nul.eq.d	%r5, %r6, 1, 0
	st.d	%r5, %r2, 0
	ldz.w	%r5, %sp, 12

     ca0: 08 00 84 02 01 c0 00 00 fc 04 2c 00 00 10 18 b2      	! BUNDLE
	add.ws	%r4, %r5, %r4
	st.w	%r4, %sp, 12
	ldz.d	%r6, %r2, 0

     cb0: 04 00 80 41 01 90 23 18 02 05 00 02 60 28 10 00      	! BUNDLE
	mov	%r5, %r3
	cas.d.a	%r5, %r1, %r6
	cmp.eq.d	%r4, %r5, %r6

     cc0: 00 02 00 43 21 00 00 00 04 85 2d 03 00 f0 17 ac      	! BUNDLE
	nul.eq.d	%r5, %r6, 1, 0
	st.d	%r5, %r2, 0
	ldz.w	%r5, %sp, 12

     cd0: 08 00 84 02 01 c0 00 00 fc 04 2c 00 00 10 18 b2      	! BUNDLE
	add.ws	%r4, %r5, %r4
	st.w	%r4, %sp, 12
	ldz.d	%r6, %r2, 0

     ce0: 04 00 80 41 01 90 23 18 02 05 00 02 60 28 10 00      	! BUNDLE
	mov	%r5, %r3
	cas.d.a	%r5, %r1, %r6
	cmp.eq.d	%r4, %r5, %r6

     cf0: 00 02 00 43 21 00 00 00 04 85 2d 03 00 f0 17 ac      	! BUNDLE
	nul.eq.d	%r5, %r6, 1, 0
	st.d	%r5, %r2, 0
	ldz.w	%r5, %sp, 12

     d00: 08 00 84 02 01 c0 00 00 fc 04 2c 00 00 10 18 b2      	! BUNDLE
	add.ws	%r4, %r5, %r4
	st.w	%r4, %sp, 12
	ldz.d	%r6, %r2, 0

     d10: 04 00 80 41 01 90 23 18 02 05 00 02 60 28 10 00      	! BUNDLE
	mov	%r5, %r3
	cas.d.a	%r5, %r1, %r6
	cmp.eq.d	%r4, %r5, %r6

     d20: 00 02 00 43 21 00 00 00 04 85 2d 03 00 f0 17 ac      	! BUNDLE
	nul.eq.d	%r5, %r6, 1, 0
	st.d	%r5, %r2, 0
	ldz.w	%r5, %sp, 12

     d30: 08 00 84 02 01 c0 00 00 fc 04 2c 00 00 10 18 b2      	! BUNDLE
	add.ws	%r4, %r5, %r4
	st.w	%r4, %sp, 12
	ldz.d	%r6, %r2, 0

     d40: 04 00 80 41 01 a0 23 18 02 05 00 02 60 28 10 00      	! BUNDLE
	mov	%r5, %r3
	cas.d.r	%r5, %r1, %r6
	cmp.eq.d	%r4, %r5, %r6

     d50: 00 02 00 43 21 00 00 00 04 85 2d 03 00 f0 17 ac      	! BUNDLE
	nul.eq.d	%r5, %r6, 1, 0
	st.d	%r5, %r2, 0
	ldz.w	%r5, %sp, 12

     d60: 08 00 84 02 01 c0 00 00 fc 04 2c 00 00 10 18 b2      	! BUNDLE
	add.ws	%r4, %r5, %r4
	st.w	%r4, %sp, 12
	ldz.d	%r6, %r2, 0

     d70: 04 00 80 41 01 b0 23 18 02 05 00 02 60 28 10 00      	! BUNDLE
	mov	%r5, %r3
	cas.d.ar	%r5, %r1, %r6
	cmp.eq.d	%r4, %r5, %r6

     d80: 00 02 00 43 21 00 00 00 04 85 2d 03 00 f0 17 ac      	! BUNDLE
	nul.eq.d	%r5, %r6, 1, 0
	st.d	%r5, %r2, 0
	ldz.w	%r5, %sp, 12

     d90: 08 00 84 02 01 c0 00 00 fc 04 2c 00 00 10 18 b2      	! BUNDLE
	add.ws	%r4, %r5, %r4
	st.w	%r4, %sp, 12
	ldz.d	%r6, %r2, 0

     da0: 04 00 80 41 01 b0 23 18 02 05 00 02 60 28 10 00      	! BUNDLE
	mov	%r5, %r3
	cas.d.ar	%r5, %r1, %r6
	cmp.eq.d	%r4, %r5, %r6

     db0: 00 02 00 43 21 00 00 00 04 85 2d 03 00 f0 17 ac      	! BUNDLE
	nul.eq.d	%r5, %r6, 1, 0
	st.d	%r5, %r2, 0
	ldz.w	%r5, %sp, 12

     dc0: 08 00 84 02 01 c0 00 00 fc 04 2c 00 00 10 18 b2      	! BUNDLE
	add.ws	%r4, %r5, %r4
	st.w	%r4, %sp, 12
	ldz.d	%r6, %r2, 0

     dd0: 04 00 80 41 01 b0 23 18 02 05 00 02 60 28 10 00      	! BUNDLE
	mov	%r5, %r3
	cas.d.ar	%r5, %r1, %r6
	cmp.eq.d	%r4, %r5, %r6

     de0: 00 02 00 43 21 00 00 00 04 85 2d 03 00 f0 17 ac      	! BUNDLE
	nul.eq.d	%r5, %r6, 1, 0
	st.d	%r5, %r2, 0
	ldz.w	%r5, %sp, 12

     df0: 08 00 84 02 01 c0 00 00 fc 04 2c 00 00 10 18 b2      	! BUNDLE
	add.ws	%r4, %r5, %r4
	st.w	%r4, %sp, 12
	ldz.d	%r6, %r2, 0

     e00: dc 04 00 00 00 10 00 00 06 05 00 8e 60 08 14 00      	! BUNDLE
	fence.sc
	mov	%r5, %r3
	cas.d	%r5, %r1, %r6

     e10: 20 00 86 02 01 00 08 00 0c 85 00 00 00 10 14 b6      	! BUNDLE
	cmp.eq.d	%r4, %r5, %r6
	nul.eq.d	%r5, %r6, 1, 0
	st.d	%r5, %r2, 0

     e20: 30 00 00 7f c1 2a 00 10 0a 04 00 03 00 f0 13 b0      	! BUNDLE
	ldz.w	%r5, %sp, 12
	add.ws	%r4, %r5, %r4
	st.w	%r4, %sp, 12

     e30: 00 00 00 81 21 7b 13 00 00 00 40 00 00 18 14 00      	! BUNDLE
	ldz.d	%r6, %r2, 0
	fence.sc
	mov	%r5, %r3

     e40: e0 08 86 40 01 80 00 18 0a 04 00 20 00 30 14 02      	! BUNDLE
	cas.d	%r5, %r1, %r6
	cmp.eq.d	%r4, %r5, %r6
	nul.eq.d	%r5, %r6, 1, 0

     e50: 00 00 00 41 61 cb 00 00 fc 05 ab 00 40 28 10 00      	! BUNDLE
	st.d	%r5, %r2, 0
	ldz.w	%r5, %sp, 12
	add.ws	%r4, %r5, %r4

     e60: 30 00 00 3f 01 0b 00 00 04 86 ec 4d 00 00 00 00      	! BUNDLE
	st.w	%r4, %sp, 12
	ldz.d	%r6, %r2, 0
	fence.sc

     e70: 04 00 80 41 01 80 23 18 02 05 00 02 60 28 10 00      	! BUNDLE
	mov	%r5, %r3
	cas.d	%r5, %r1, %r6
	cmp.eq.d	%r4, %r5, %r6

     e80: 00 02 00 43 21 00 00 00 04 85 2d 03 00 f0 17 ac      	! BUNDLE
	nul.eq.d	%r5, %r6, 1, 0
	st.d	%r5, %r2, 0
	ldz.w	%r5, %sp, 12

     e90: 08 00 84 02 01 c0 00 00 fc 04 2c 00 00 10 10 b2      	! BUNDLE
	add.ws	%r4, %r5, %r4
	st.w	%r4, %sp, 12
	ldz.d	%r4, %r2, 0

     ea0: dc 04 00 00 00 80 23 10 02 03 00 02 40 18 04 00      	! BUNDLE
	fence.sc
	cas.d	%r3, %r1, %r4
	cmp.eq.d	%r1, %r3, %r4

     eb0: 00 02 00 c2 20 00 00 00 04 83 2d 03 00 f0 0b ac      	! BUNDLE
	nul.eq.d	%r3, %r4, 1, 0
	st.d	%r3, %r2, 0
	ldz.w	%r2, %sp, 12

     ec0: 08 00 01 41 00 c0 00 00 fc 01 2c 03 00 f0 07 ac      	! BUNDLE
	add.ws	%r1, %r2, %r1
	st.w	%r1, %sp, 12
	ldz.w	%r1, %sp, 12

     ed0: 40 00 00 80 40 00 00 00 00 00 01 00 00 00 00 04      	! BUNDLE
	ret.f	16
	nop	0
	nop	0


0000000000000ee0 <test_atomic_compare_exchange_i128>:
     ee0: 40 00 00 03 41 c0 00 00 fc 7f 2c 00 00 10 10 b8      	! BUNDLE
	alloc.sp	6, 16
	st.w	%gz, %sp, 12
	ld.q	%r4, %r2, 0

     ef0: 04 00 80 41 01 80 28 10 02 05 80 18 40 28 10 00      	! BUNDLE
	mov	%r5, %r3
	cas.q	%r5, %r1, %r4
	cmp.eq.q	%r4, %r5, %r4

     f00: 00 02 78 00 21 00 00 00 04 85 2e 03 00 f0 17 ac      	! BUNDLE
	nul.bsi	%r4, 0, 1, 0
	st.q	%r5, %r2, 0
	ldz.w	%r5, %sp, 12

     f10: 08 00 84 02 01 c0 00 00 fc 04 2c 00 00 10 10 b8      	! BUNDLE
	add.ws	%r4, %r5, %r4
	st.w	%r4, %sp, 12
	ld.q	%r4, %r2, 0

     f20: 04 00 80 41 01 90 28 10 02 05 80 18 40 28 10 00      	! BUNDLE
	mov	%r5, %r3
	cas.q.a	%r5, %r1, %r4
	cmp.eq.q	%r4, %r5, %r4

     f30: 00 02 78 00 21 00 00 00 04 85 2e 03 00 f0 17 ac      	! BUNDLE
	nul.bsi	%r4, 0, 1, 0
	st.q	%r5, %r2, 0
	ldz.w	%r5, %sp, 12

     f40: 08 00 84 02 01 c0 00 00 fc 04 2c 00 00 10 10 b8      	! BUNDLE
	add.ws	%r4, %r5, %r4
	st.w	%r4, %sp, 12
	ld.q	%r4, %r2, 0

     f50: 04 00 80 41 01 90 28 10 02 05 80 18 40 28 10 00      	! BUNDLE
	mov	%r5, %r3
	cas.q.a	%r5, %r1, %r4
	cmp.eq.q	%r4, %r5, %r4

     f60: 00 02 78 00 21 00 00 00 04 85 2e 03 00 f0 17 ac      	! BUNDLE
	nul.bsi	%r4, 0, 1, 0
	st.q	%r5, %r2, 0
	ldz.w	%r5, %sp, 12

     f70: 08 00 84 02 01 c0 00 00 fc 04 2c 00 00 10 10 b8      	! BUNDLE
	add.ws	%r4, %r5, %r4
	st.w	%r4, %sp, 12
	ld.q	%r4, %r2, 0

     f80: 04 00 80 41 01 90 28 10 02 05 80 18 40 28 10 00      	! BUNDLE
	mov	%r5, %r3
	cas.q.a	%r5, %r1, %r4
	cmp.eq.q	%r4, %r5, %r4

     f90: 00 02 78 00 21 00 00 00 04 85 2e 03 00 f0 17 ac      	! BUNDLE
	nul.bsi	%r4, 0, 1, 0
	st.q	%r5, %r2, 0
	ldz.w	%r5, %sp, 12

     fa0: 08 00 84 02 01 c0 00 00 fc 04 2c 00 00 10 10 b8      	! BUNDLE
	add.ws	%r4, %r5, %r4
	st.w	%r4, %sp, 12
	ld.q	%r4, %r2, 0

     fb0: 04 00 80 41 01 90 28 10 02 05 80 18 40 28 10 00      	! BUNDLE
	mov	%r5, %r3
	cas.q.a	%r5, %r1, %r4
	cmp.eq.q	%r4, %r5, %r4

     fc0: 00 02 78 00 21 00 00 00 04 85 2e 03 00 f0 17 ac      	! BUNDLE
	nul.bsi	%r4, 0, 1, 0
	st.q	%r5, %r2, 0
	ldz.w	%r5, %sp, 12

     fd0: 08 00 84 02 01 c0 00 00 fc 04 2c 00 00 10 10 b8      	! BUNDLE
	add.ws	%r4, %r5, %r4
	st.w	%r4, %sp, 12
	ld.q	%r4, %r2, 0

     fe0: 04 00 80 41 01 90 28 10 02 05 80 18 40 28 10 00      	! BUNDLE
	mov	%r5, %r3
	cas.q.a	%r5, %r1, %r4
	cmp.eq.q	%r4, %r5, %r4

     ff0: 00 02 78 00 21 00 00 00 04 85 2e 03 00 f0 17 ac      	! BUNDLE
	nul.bsi	%r4, 0, 1, 0
	st.q	%r5, %r2, 0
	ldz.w	%r5, %sp, 12

    1000: 08 00 84 02 01 c0 00 00 fc 04 2c 00 00 10 10 b8      	! BUNDLE
	add.ws	%r4, %r5, %r4
	st.w	%r4, %sp, 12
	ld.q	%r4, %r2, 0

    1010: 04 00 80 41 01 90 28 10 02 05 80 18 40 28 10 00      	! BUNDLE
	mov	%r5, %r3
	cas.q.a	%r5, %r1, %r4
	cmp.eq.q	%r4, %r5, %r4

    1020: 00 02 78 00 21 00 00 00 04 85 2e 03 00 f0 17 ac      	! BUNDLE
	nul.bsi	%r4, 0, 1, 0
	st.q	%r5, %r2, 0
	ldz.w	%r5, %sp, 12

    1030: 08 00 84 02 01 c0 00 00 fc 04 2c 00 00 10 10 b8      	! BUNDLE
	add.ws	%r4, %r5, %r4
	st.w	%r4, %sp, 12
	ld.q	%r4, %r2, 0

    1040: 04 00 80 41 01 a0 28 10 02 05 80 18 40 28 10 00      	! BUNDLE
	mov	%r5, %r3
	cas.q.r	%r5, %r1, %r4
	cmp.eq.q	%r4, %r5, %r4

    1050: 00 02 78 00 21 00 00 00 04 85 2e 03 00 f0 17 ac      	! BUNDLE
	nul.bsi	%r4, 0, 1, 0
	st.q	%r5, %r2, 0
	ldz.w	%r5, %sp, 12

    1060: 08 00 84 02 01 c0 00 00 fc 04 2c 00 00 10 10 b8      	! BUNDLE
	add.ws	%r4, %r5, %r4
	st.w	%r4, %sp, 12
	ld.q	%r4, %r2, 0

    1070: 04 00 80 41 01 b0 28 10 02 05 80 18 40 28 10 00      	! BUNDLE
	mov	%r5, %r3
	cas.q.ar	%r5, %r1, %r4
	cmp.eq.q	%r4, %r5, %r4

    1080: 00 02 78 00 21 00 00 00 04 85 2e 03 00 f0 17 ac      	! BUNDLE
	nul.bsi	%r4, 0, 1, 0
	st.q	%r5, %r2, 0
	ldz.w	%r5, %sp, 12

    1090: 08 00 84 02 01 c0 00 00 fc 04 2c 00 00 10 10 b8      	! BUNDLE
	add.ws	%r4, %r5, %r4
	st.w	%r4, %sp, 12
	ld.q	%r4, %r2, 0

    10a0: 04 00 80 41 01 b0 28 10 02 05 80 18 40 28 10 00      	! BUNDLE
	mov	%r5, %r3
	cas.q.ar	%r5, %r1, %r4
	cmp.eq.q	%r4, %r5, %r4

    10b0: 00 02 78 00 21 00 00 00 04 85 2e 03 00 f0 17 ac      	! BUNDLE
	nul.bsi	%r4, 0, 1, 0
	st.q	%r5, %r2, 0
	ldz.w	%r5, %sp, 12

    10c0: 08 00 84 02 01 c0 00 00 fc 04 2c 00 00 10 10 b8      	! BUNDLE
	add.ws	%r4, %r5, %r4
	st.w	%r4, %sp, 12
	ld.q	%r4, %r2, 0

    10d0: 04 00 80 41 01 b0 28 10 02 05 80 18 40 28 10 00      	! BUNDLE
	mov	%r5, %r3
	cas.q.ar	%r5, %r1, %r4
	cmp.eq.q	%r4, %r5, %r4

    10e0: 00 02 78 00 21 00 00 00 04 85 2e 03 00 f0 17 ac      	! BUNDLE
	nul.bsi	%r4, 0, 1, 0
	st.q	%r5, %r2, 0
	ldz.w	%r5, %sp, 12

    10f0: 08 00 84 02 01 c0 00 00 fc 04 2c 00 00 10 10 b8      	! BUNDLE
	add.ws	%r4, %r5, %r4
	st.w	%r4, %sp, 12
	ld.q	%r4, %r2, 0

    1100: dc 04 00 00 00 10 00 00 06 05 00 a2 40 08 14 00      	! BUNDLE
	fence.sc
	mov	%r5, %r3
	cas.q	%r5, %r1, %r4

    1110: 88 01 84 02 01 00 08 e0 01 84 00 00 00 10 14 ba      	! BUNDLE
	cmp.eq.q	%r4, %r5, %r4
	nul.bsi	%r4, 0, 1, 0
	st.q	%r5, %r2, 0

    1120: 30 00 00 7f c1 2a 00 10 0a 04 00 03 00 f0 13 b0      	! BUNDLE
	ldz.w	%r5, %sp, 12
	add.ws	%r4, %r5, %r4
	st.w	%r4, %sp, 12

    1130: 00 00 00 01 81 7b 13 00 00 00 40 00 00 18 14 00      	! BUNDLE
	ld.q	%r4, %r2, 0
	fence.sc
	mov	%r5, %r3

    1140: 20 0a 84 40 01 20 06 10 0a 04 00 20 80 07 10 02      	! BUNDLE
	cas.q	%r5, %r1, %r4
	cmp.eq.q	%r4, %r5, %r4
	nul.bsi	%r4, 0, 1, 0

    1150: 00 00 00 41 a1 cb 00 00 fc 05 ab 00 40 28 10 00      	! BUNDLE
	st.q	%r5, %r2, 0
	ldz.w	%r5, %sp, 12
	add.ws	%r4, %r5, %r4

    1160: 30 00 00 3f 01 0b 00 00 04 04 ee 4d 00 00 00 00      	! BUNDLE
	st.w	%r4, %sp, 12
	ld.q	%r4, %r2, 0
	fence.sc

    1170: 04 00 80 41 01 80 28 10 02 05 80 18 40 28 10 00      	! BUNDLE
	mov	%r5, %r3
	cas.q	%r5, %r1, %r4
	cmp.eq.q	%r4, %r5, %r4

    1180: 00 02 78 00 21 00 00 00 04 85 2e 03 00 f0 17 ac      	! BUNDLE
	nul.bsi	%r4, 0, 1, 0
	st.q	%r5, %r2, 0
	ldz.w	%r5, %sp, 12

    1190: 08 00 84 02 01 c0 00 00 fc 04 2c 00 00 10 10 b8      	! BUNDLE
	add.ws	%r4, %r5, %r4
	st.w	%r4, %sp, 12
	ld.q	%r4, %r2, 0

    11a0: dc 04 00 00 00 80 28 10 02 03 80 18 40 18 04 00      	! BUNDLE
	fence.sc
	cas.q	%r3, %r1, %r4
	cmp.eq.q	%r1, %r3, %r4

    11b0: 00 02 78 40 20 00 00 00 04 83 2e 03 00 f0 0b ac      	! BUNDLE
	nul.bsi	%r1, 0, 1, 0
	st.q	%r3, %r2, 0
	ldz.w	%r2, %sp, 12

    11c0: 08 00 01 41 00 c0 00 00 fc 01 2c 03 00 f0 07 ac      	! BUNDLE
	add.ws	%r1, %r2, %r1
	st.w	%r1, %sp, 12
	ldz.w	%r1, %sp, 12

    11d0: 40 00 00 80 40 00 00 00 00 00 01 00 00 00 00 04      	! BUNDLE
	ret.f	16
	nop	0
	nop	0


00000000000011e0 <test_atomic_exchange_i8>:
    11e0: 00 00 80 c1 40 40 14 04 04 01 40 51 10 10 04 00      	! BUNDLE
	alloc	3
	swap.b	%r1, %r2, %r1
	swap.b.a	%r1, %r2, %r1

    11f0: 14 05 01 41 00 60 14 04 04 01 c0 51 10 10 04 00      	! BUNDLE
	swap.b.a	%r1, %r2, %r1
	swap.b.r	%r1, %r2, %r1
	swap.b.ar	%r1, %r2, %r1

    1200: dc 04 00 00 00 40 14 04 04 01 80 05 87 0b 04 02      	! BUNDLE
	fence.sc
	swap.b	%r1, %r2, %r1
	slsrai	%r1, %r1, 56, 56

    1210: 00 00 00 80 40 00 00 00 00 00 01 00 00 00 00 04      	! BUNDLE
	ret.f	0
	nop	0
	nop	0


0000000000001220 <test_atomic_exchange_i16>:
    1220: 00 00 80 c1 40 40 19 04 04 01 40 65 10 10 04 00      	! BUNDLE
	alloc	3
	swap.h	%r1, %r2, %r1
	swap.h.a	%r1, %r2, %r1

    1230: 54 06 01 41 00 60 19 04 04 01 c0 65 10 10 04 00      	! BUNDLE
	swap.h.a	%r1, %r2, %r1
	swap.h.r	%r1, %r2, %r1
	swap.h.ar	%r1, %r2, %r1

    1240: dc 04 00 00 00 40 19 04 04 01 80 05 06 0b 04 02      	! BUNDLE
	fence.sc
	swap.h	%r1, %r2, %r1
	slsrai	%r1, %r1, 48, 48

    1250: 00 00 00 80 40 00 00 00 00 00 01 00 00 00 00 04      	! BUNDLE
	ret.f	0
	nop	0
	nop	0


0000000000001260 <test_atomic_exchange_i32>:
    1260: 00 00 80 c1 40 40 1e 04 04 01 40 79 10 10 04 00      	! BUNDLE
	alloc	3
	swap.w	%r1, %r2, %r1
	swap.w.a	%r1, %r2, %r1

    1270: 94 07 01 41 00 60 1e 04 04 01 c0 79 10 10 04 00      	! BUNDLE
	swap.w.a	%r1, %r2, %r1
	swap.w.r	%r1, %r2, %r1
	swap.w.ar	%r1, %r2, %r1

    1280: dc 04 00 00 00 40 1e 04 04 01 00 00 00 00 08 04      	! BUNDLE
	fence.sc
	swap.w	%r1, %r2, %r1
	ret.f	0


0000000000001290 <test_atomic_exchange_i64>:
    1290: 00 00 80 c1 40 40 23 04 04 01 40 8d 10 10 04 00      	! BUNDLE
	alloc	3
	swap.d	%r1, %r2, %r1
	swap.d.a	%r1, %r2, %r1

    12a0: d4 08 01 41 00 60 23 04 04 01 c0 8d 10 10 04 00      	! BUNDLE
	swap.d.a	%r1, %r2, %r1
	swap.d.r	%r1, %r2, %r1
	swap.d.ar	%r1, %r2, %r1

    12b0: dc 04 00 00 00 40 23 04 04 01 00 00 00 00 08 04      	! BUNDLE
	fence.sc
	swap.d	%r1, %r2, %r1
	ret.f	0


00000000000012c0 <test_atomic_exchange_i128>:
    12c0: 00 00 80 c1 40 40 28 04 04 01 40 a1 10 10 04 00      	! BUNDLE
	alloc	3
	swap.q	%r1, %r2, %r1
	swap.q.a	%r1, %r2, %r1

    12d0: 14 0a 01 41 00 60 28 04 04 01 c0 a1 10 10 04 00      	! BUNDLE
	swap.q.a	%r1, %r2, %r1
	swap.q.r	%r1, %r2, %r1
	swap.q.ar	%r1, %r2, %r1

    12e0: dc 04 00 00 00 40 28 04 04 01 00 00 00 00 08 04      	! BUNDLE
	fence.sc
	swap.q	%r1, %r2, %r1
	ret.f	0


00000000000012f0 <test_fence_acquire>:
    12f0: 00 00 80 c0 40 40 13 00 00 00 00 00 00 00 08 04      	! BUNDLE
	alloc	1
	fence.a
	ret.f	0


0000000000001300 <test_fence_release>:
    1300: 00 00 80 c0 40 50 13 00 00 00 00 00 00 00 08 04      	! BUNDLE
	alloc	1
	fence.r
	ret.f	0


0000000000001310 <test_fence_acq_rel>:
    1310: 00 00 80 c0 40 60 13 00 00 00 00 00 00 00 08 04      	! BUNDLE
	alloc	1
	fence.ar
	ret.f	0


0000000000001320 <test_fence_seq_cst>:
    1320: 00 00 80 c0 40 70 13 00 00 00 00 00 00 00 08 04      	! BUNDLE
	alloc	1
	fence.sc
	ret.f	0


0000000000001330 <test_compiler_fence>:
    1330: 00 00 80 c0 40 00 00 00 00 02 01 00 00 00 00 04      	! BUNDLE
	alloc	1
	ret.f	0
	nop	0


0000000000001340 <test_atomic_load_u8_u8>:
    1340: 00 00 80 c2 40 00 14 00 02 01 40 50 00 10 08 00      	! BUNDLE
	alloc	5
	lda.b	%r1, %r1
	lda.b.a	%r2, %r2

    1350: 04 05 80 c1 00 70 13 00 00 00 00 50 00 20 10 00      	! BUNDLE
	lda.b.a	%r3, %r3
	fence.sc
	lda.b	%r4, %r4

    1360: 68 00 01 41 00 80 01 0c 02 01 40 06 40 08 04 00      	! BUNDLE
	xor	%r1, %r2, %r1
	and	%r1, %r1, %r3
	or	%r1, %r1, %r4

    1370: d0 04 00 00 00 00 00 00 00 02 01 00 00 00 00 04      	! BUNDLE
	fence.a
	ret.f	0
	nop	0


0000000000001380 <test_atomic_load_u8_u16>:
    1380: 00 00 80 c2 40 00 14 00 02 01 40 50 00 10 08 00      	! BUNDLE
	alloc	5
	lda.b	%r1, %r1
	lda.b.a	%r2, %r2

    1390: 04 05 80 c1 00 70 13 00 00 00 00 50 00 20 10 00      	! BUNDLE
	lda.b.a	%r3, %r3
	fence.sc
	lda.b	%r4, %r4

    13a0: 68 00 01 41 00 80 01 0c 02 01 40 06 40 08 04 00      	! BUNDLE
	xor	%r1, %r2, %r1
	and	%r1, %r1, %r3
	or	%r1, %r1, %r4

    13b0: d0 04 00 00 00 00 00 00 00 02 01 00 00 00 00 04      	! BUNDLE
	fence.a
	ret.f	0
	nop	0


00000000000013c0 <test_atomic_load_u8_u32>:
    13c0: 00 00 80 c2 40 00 14 00 02 01 40 50 00 10 08 00      	! BUNDLE
	alloc	5
	lda.b	%r1, %r1
	lda.b.a	%r2, %r2

    13d0: 04 05 80 c1 00 70 13 00 00 00 00 50 00 20 10 00      	! BUNDLE
	lda.b.a	%r3, %r3
	fence.sc
	lda.b	%r4, %r4

    13e0: 68 00 01 41 00 80 01 0c 02 01 40 06 40 08 04 00      	! BUNDLE
	xor	%r1, %r2, %r1
	and	%r1, %r1, %r3
	or	%r1, %r1, %r4

    13f0: d0 04 00 00 00 00 00 00 00 02 01 00 00 00 00 04      	! BUNDLE
	fence.a
	ret.f	0
	nop	0


0000000000001400 <test_atomic_load_u8_u64>:
    1400: 00 00 80 c2 40 00 14 00 02 01 40 50 00 10 08 00      	! BUNDLE
	alloc	5
	lda.b	%r1, %r1
	lda.b.a	%r2, %r2

    1410: 04 05 80 c1 00 70 13 00 00 00 00 50 00 20 10 00      	! BUNDLE
	lda.b.a	%r3, %r3
	fence.sc
	lda.b	%r4, %r4

    1420: 68 00 01 41 00 80 01 0c 02 01 40 06 40 08 04 00      	! BUNDLE
	xor	%r1, %r2, %r1
	and	%r1, %r1, %r3
	or	%r1, %r1, %r4

    1430: 14 01 80 40 00 40 13 00 00 00 00 00 00 00 08 04      	! BUNDLE
	srli.w	%r1, %r1, 0
	fence.a
	ret.f	0


0000000000001440 <test_atomic_load_u16_u16>:
    1440: 00 00 80 c2 40 00 19 00 02 01 40 64 00 10 08 00      	! BUNDLE
	alloc	5
	lda.h	%r1, %r1
	lda.h.a	%r2, %r2

    1450: 44 06 80 c1 00 70 13 00 00 00 00 64 00 20 10 00      	! BUNDLE
	lda.h.a	%r3, %r3
	fence.sc
	lda.h	%r4, %r4

    1460: 68 00 01 41 00 80 01 0c 02 01 40 06 40 08 04 00      	! BUNDLE
	xor	%r1, %r2, %r1
	and	%r1, %r1, %r3
	or	%r1, %r1, %r4

    1470: d0 04 00 00 00 00 00 00 00 02 01 00 00 00 00 04      	! BUNDLE
	fence.a
	ret.f	0
	nop	0


0000000000001480 <test_atomic_load_u16_u32>:
    1480: 00 00 80 c2 40 00 19 00 02 01 40 64 00 10 08 00      	! BUNDLE
	alloc	5
	lda.h	%r1, %r1
	lda.h.a	%r2, %r2

    1490: 44 06 80 c1 00 70 13 00 00 00 00 64 00 20 10 00      	! BUNDLE
	lda.h.a	%r3, %r3
	fence.sc
	lda.h	%r4, %r4

    14a0: 68 00 01 41 00 80 01 0c 02 01 40 06 40 08 04 00      	! BUNDLE
	xor	%r1, %r2, %r1
	and	%r1, %r1, %r3
	or	%r1, %r1, %r4

    14b0: d0 04 00 00 00 00 00 00 00 02 01 00 00 00 00 04      	! BUNDLE
	fence.a
	ret.f	0
	nop	0


00000000000014c0 <test_atomic_load_u16_u64>:
    14c0: 00 00 80 c2 40 00 19 00 02 01 40 64 00 10 08 00      	! BUNDLE
	alloc	5
	lda.h	%r1, %r1
	lda.h.a	%r2, %r2

    14d0: 44 06 80 c1 00 70 13 00 00 00 00 64 00 20 10 00      	! BUNDLE
	lda.h.a	%r3, %r3
	fence.sc
	lda.h	%r4, %r4

    14e0: 68 00 01 41 00 80 01 0c 02 01 40 06 40 08 04 00      	! BUNDLE
	xor	%r1, %r2, %r1
	and	%r1, %r1, %r3
	or	%r1, %r1, %r4

    14f0: 14 01 80 40 00 40 13 00 00 00 00 00 00 00 08 04      	! BUNDLE
	srli.w	%r1, %r1, 0
	fence.a
	ret.f	0


0000000000001500 <test_atomic_load_u32_u32>:
    1500: 00 00 80 c2 40 00 1e 00 02 01 40 78 00 10 08 00      	! BUNDLE
	alloc	5
	lda.w	%r1, %r1
	lda.w.a	%r2, %r2

    1510: 84 07 80 c1 00 70 13 00 00 00 00 78 00 20 10 00      	! BUNDLE
	lda.w.a	%r3, %r3
	fence.sc
	lda.w	%r4, %r4

    1520: 68 00 01 41 00 80 01 0c 02 01 40 06 40 08 04 00      	! BUNDLE
	xor	%r1, %r2, %r1
	and	%r1, %r1, %r3
	or	%r1, %r1, %r4

    1530: d0 04 00 00 00 00 00 00 00 02 01 00 00 00 00 04      	! BUNDLE
	fence.a
	ret.f	0
	nop	0


0000000000001540 <test_atomic_load_u32_u64>:
    1540: 00 00 80 c2 40 00 1e 00 02 01 40 78 00 10 08 00      	! BUNDLE
	alloc	5
	lda.w	%r1, %r1
	lda.w.a	%r2, %r2

    1550: 84 07 80 c1 00 70 13 00 00 00 00 78 00 20 10 00      	! BUNDLE
	lda.w.a	%r3, %r3
	fence.sc
	lda.w	%r4, %r4

    1560: 68 00 01 41 00 80 01 0c 02 01 40 06 40 08 04 00      	! BUNDLE
	xor	%r1, %r2, %r1
	and	%r1, %r1, %r3
	or	%r1, %r1, %r4

    1570: 14 01 80 40 00 40 13 00 00 00 00 00 00 00 08 04      	! BUNDLE
	srli.w	%r1, %r1, 0
	fence.a
	ret.f	0


0000000000001580 <test_atomic_load_u64_u64>:
    1580: 00 00 80 c2 40 00 23 00 02 01 40 8c 00 10 08 00      	! BUNDLE
	alloc	5
	lda.d	%r1, %r1
	lda.d.a	%r2, %r2

    1590: c4 08 80 c1 00 70 13 00 00 00 00 8c 00 20 10 00      	! BUNDLE
	lda.d.a	%r3, %r3
	fence.sc
	lda.d	%r4, %r4

    15a0: 68 00 01 41 00 80 01 0c 02 01 40 06 40 08 04 00      	! BUNDLE
	xor	%r1, %r2, %r1
	and	%r1, %r1, %r3
	or	%r1, %r1, %r4

    15b0: d0 04 00 00 00 00 00 00 00 02 01 00 00 00 00 04      	! BUNDLE
	fence.a
	ret.f	0
	nop	0


00000000000015c0 <test_atomic_load_u128_u128>:
    15c0: 00 00 80 c2 40 00 28 00 02 01 40 a0 00 10 08 00      	! BUNDLE
	alloc	5
	lda.q	%r1, %r1
	lda.q.a	%r2, %r2

    15d0: 04 0a 80 c1 00 70 13 00 00 00 00 a0 00 20 10 00      	! BUNDLE
	lda.q.a	%r3, %r3
	fence.sc
	lda.q	%r4, %r4

    15e0: 68 00 01 41 00 80 01 0c 02 01 40 06 40 08 04 00      	! BUNDLE
	xor	%r1, %r2, %r1
	and	%r1, %r1, %r3
	or	%r1, %r1, %r4

    15f0: d0 04 00 00 00 00 00 00 00 02 01 00 00 00 00 04      	! BUNDLE
	fence.a
	ret.f	0
	nop	0


0000000000001600 <test_atomic_load_op_i8>:
    1600: 00 00 80 c1 40 c0 14 04 04 01 c0 00 10 f8 07 00      	! BUNDLE
	alloc	3
	ld.add.b	%r1, %r2, %r1
	sub.ws	%r1, %gz, %r1

    1610: 30 05 01 41 00 00 15 04 04 01 00 55 10 10 04 00      	! BUNDLE
	ld.add.b	%r1, %r2, %r1
	ld.and.b	%r1, %r2, %r1
	ld.or.b	%r1, %r2, %r1

    1620: 60 05 01 41 00 c0 15 04 04 01 00 58 10 10 04 00      	! BUNDLE
	ld.xor.b	%r1, %r2, %r1
	ld.smin.b	%r1, %r2, %r1
	ld.smax.b	%r1, %r2, %r1

    1630: 34 05 01 41 00 30 00 04 fe 01 40 53 10 10 04 00      	! BUNDLE
	ld.add.b.a	%r1, %r2, %r1
	sub.ws	%r1, %gz, %r1
	ld.add.b.a	%r1, %r2, %r1

    1640: 44 05 01 41 00 50 15 04 04 01 40 56 10 10 04 00      	! BUNDLE
	ld.and.b.a	%r1, %r2, %r1
	ld.or.b.a	%r1, %r2, %r1
	ld.xor.b.a	%r1, %r2, %r1

    1650: 74 05 01 41 00 10 16 04 04 01 40 53 10 10 04 00      	! BUNDLE
	ld.smin.b.a	%r1, %r2, %r1
	ld.smax.b.a	%r1, %r2, %r1
	ld.add.b.a	%r1, %r2, %r1

    1660: 0c 00 81 7f 00 d0 14 04 04 01 40 54 10 10 04 00      	! BUNDLE
	sub.ws	%r1, %gz, %r1
	ld.add.b.a	%r1, %r2, %r1
	ld.and.b.a	%r1, %r2, %r1

    1670: 54 05 01 41 00 90 15 04 04 01 40 57 10 10 04 00      	! BUNDLE
	ld.or.b.a	%r1, %r2, %r1
	ld.xor.b.a	%r1, %r2, %r1
	ld.smin.b.a	%r1, %r2, %r1

    1680: 84 05 01 41 00 e0 14 04 04 01 c0 00 10 f8 07 00      	! BUNDLE
	ld.smax.b.a	%r1, %r2, %r1
	ld.add.b.r	%r1, %r2, %r1
	sub.ws	%r1, %gz, %r1

    1690: 38 05 01 41 00 20 15 04 04 01 80 55 10 10 04 00      	! BUNDLE
	ld.add.b.r	%r1, %r2, %r1
	ld.and.b.r	%r1, %r2, %r1
	ld.or.b.r	%r1, %r2, %r1

    16a0: 68 05 01 41 00 e0 15 04 04 01 80 58 10 10 04 00      	! BUNDLE
	ld.xor.b.r	%r1, %r2, %r1
	ld.smin.b.r	%r1, %r2, %r1
	ld.smax.b.r	%r1, %r2, %r1

    16b0: 3c 05 01 41 00 30 00 04 fe 01 c0 53 10 10 04 00      	! BUNDLE
	ld.add.b.ar	%r1, %r2, %r1
	sub.ws	%r1, %gz, %r1
	ld.add.b.ar	%r1, %r2, %r1

    16c0: 4c 05 01 41 00 70 15 04 04 01 c0 56 10 10 04 00      	! BUNDLE
	ld.and.b.ar	%r1, %r2, %r1
	ld.or.b.ar	%r1, %r2, %r1
	ld.xor.b.ar	%r1, %r2, %r1

    16d0: 7c 05 01 41 00 30 16 04 04 01 c0 4d 00 00 00 00      	! BUNDLE
	ld.smin.b.ar	%r1, %r2, %r1
	ld.smax.b.ar	%r1, %r2, %r1
	fence.sc

    16e0: 30 05 01 41 00 70 13 00 00 00 c0 00 10 f8 07 00      	! BUNDLE
	ld.add.b	%r1, %r2, %r1
	fence.sc
	sub.ws	%r1, %gz, %r1

    16f0: 30 05 01 41 00 70 13 00 00 00 00 54 10 10 04 00      	! BUNDLE
	ld.add.b	%r1, %r2, %r1
	fence.sc
	ld.and.b	%r1, %r2, %r1

    1700: dc 04 00 00 00 40 15 04 04 01 c0 4d 00 00 00 00      	! BUNDLE
	fence.sc
	ld.or.b	%r1, %r2, %r1
	fence.sc

    1710: 60 05 01 41 00 70 13 00 00 00 00 57 10 10 04 00      	! BUNDLE
	ld.xor.b	%r1, %r2, %r1
	fence.sc
	ld.smin.b	%r1, %r2, %r1

    1720: dc 04 00 00 00 00 16 04 04 01 80 05 87 0b 04 02      	! BUNDLE
	fence.sc
	ld.smax.b	%r1, %r2, %r1
	slsrai	%r1, %r1, 56, 56

    1730: 00 00 00 80 40 00 00 00 00 00 01 00 00 00 00 04      	! BUNDLE
	ret.f	0
	nop	0
	nop	0


0000000000001740 <test_atomic_load_op_u8>:
    1740: 00 00 80 c1 40 c0 14 04 04 01 c0 00 10 f8 07 00      	! BUNDLE
	alloc	3
	ld.add.b	%r1, %r2, %r1
	sub.ws	%r1, %gz, %r1

    1750: 30 05 01 41 00 00 15 04 04 01 00 55 10 10 04 00      	! BUNDLE
	ld.add.b	%r1, %r2, %r1
	ld.and.b	%r1, %r2, %r1
	ld.or.b	%r1, %r2, %r1

    1760: 60 05 01 41 00 40 16 04 04 01 00 5a 10 10 04 00      	! BUNDLE
	ld.xor.b	%r1, %r2, %r1
	ld.umin.b	%r1, %r2, %r1
	ld.umax.b	%r1, %r2, %r1

    1770: 34 05 01 41 00 30 00 04 fe 01 40 53 10 10 04 00      	! BUNDLE
	ld.add.b.a	%r1, %r2, %r1
	sub.ws	%r1, %gz, %r1
	ld.add.b.a	%r1, %r2, %r1

    1780: 44 05 01 41 00 50 15 04 04 01 40 56 10 10 04 00      	! BUNDLE
	ld.and.b.a	%r1, %r2, %r1
	ld.or.b.a	%r1, %r2, %r1
	ld.xor.b.a	%r1, %r2, %r1

    1790: 94 05 01 41 00 90 16 04 04 01 40 53 10 10 04 00      	! BUNDLE
	ld.umin.b.a	%r1, %r2, %r1
	ld.umax.b.a	%r1, %r2, %r1
	ld.add.b.a	%r1, %r2, %r1

    17a0: 0c 00 81 7f 00 d0 14 04 04 01 40 54 10 10 04 00      	! BUNDLE
	sub.ws	%r1, %gz, %r1
	ld.add.b.a	%r1, %r2, %r1
	ld.and.b.a	%r1, %r2, %r1

    17b0: 54 05 01 41 00 90 15 04 04 01 40 59 10 10 04 00      	! BUNDLE
	ld.or.b.a	%r1, %r2, %r1
	ld.xor.b.a	%r1, %r2, %r1
	ld.umin.b.a	%r1, %r2, %r1

    17c0: a4 05 01 41 00 e0 14 04 04 01 c0 00 10 f8 07 00      	! BUNDLE
	ld.umax.b.a	%r1, %r2, %r1
	ld.add.b.r	%r1, %r2, %r1
	sub.ws	%r1, %gz, %r1

    17d0: 38 05 01 41 00 20 15 04 04 01 80 55 10 10 04 00      	! BUNDLE
	ld.add.b.r	%r1, %r2, %r1
	ld.and.b.r	%r1, %r2, %r1
	ld.or.b.r	%r1, %r2, %r1

    17e0: 68 05 01 41 00 60 16 04 04 01 80 5a 10 10 04 00      	! BUNDLE
	ld.xor.b.r	%r1, %r2, %r1
	ld.umin.b.r	%r1, %r2, %r1
	ld.umax.b.r	%r1, %r2, %r1

    17f0: 3c 05 01 41 00 30 00 04 fe 01 c0 53 10 10 04 00      	! BUNDLE
	ld.add.b.ar	%r1, %r2, %r1
	sub.ws	%r1, %gz, %r1
	ld.add.b.ar	%r1, %r2, %r1

    1800: 4c 05 01 41 00 70 15 04 04 01 c0 56 10 10 04 00      	! BUNDLE
	ld.and.b.ar	%r1, %r2, %r1
	ld.or.b.ar	%r1, %r2, %r1
	ld.xor.b.ar	%r1, %r2, %r1

    1810: 9c 05 01 41 00 b0 16 04 04 01 c0 4d 00 00 00 00      	! BUNDLE
	ld.umin.b.ar	%r1, %r2, %r1
	ld.umax.b.ar	%r1, %r2, %r1
	fence.sc

    1820: 30 05 01 41 00 70 13 00 00 00 c0 00 10 f8 07 00      	! BUNDLE
	ld.add.b	%r1, %r2, %r1
	fence.sc
	sub.ws	%r1, %gz, %r1

    1830: 30 05 01 41 00 70 13 00 00 00 00 54 10 10 04 00      	! BUNDLE
	ld.add.b	%r1, %r2, %r1
	fence.sc
	ld.and.b	%r1, %r2, %r1

    1840: dc 04 00 00 00 40 15 04 04 01 c0 4d 00 00 00 00      	! BUNDLE
	fence.sc
	ld.or.b	%r1, %r2, %r1
	fence.sc

    1850: 60 05 01 41 00 70 13 00 00 00 00 59 10 10 04 00      	! BUNDLE
	ld.xor.b	%r1, %r2, %r1
	fence.sc
	ld.umin.b	%r1, %r2, %r1

    1860: dc 04 00 00 00 80 16 04 04 01 00 00 00 00 08 04      	! BUNDLE
	fence.sc
	ld.umax.b	%r1, %r2, %r1
	ret.f	0


0000000000001870 <test_atomic_load_op_i16>:
    1870: 00 00 80 c1 40 c0 19 04 04 01 c0 00 10 f8 07 00      	! BUNDLE
	alloc	3
	ld.add.h	%r1, %r2, %r1
	sub.ws	%r1, %gz, %r1

    1880: 70 06 01 41 00 00 1a 04 04 01 00 69 10 10 04 00      	! BUNDLE
	ld.add.h	%r1, %r2, %r1
	ld.and.h	%r1, %r2, %r1
	ld.or.h	%r1, %r2, %r1

    1890: a0 06 01 41 00 c0 1a 04 04 01 00 6c 10 10 04 00      	! BUNDLE
	ld.xor.h	%r1, %r2, %r1
	ld.smin.h	%r1, %r2, %r1
	ld.smax.h	%r1, %r2, %r1

    18a0: 74 06 01 41 00 30 00 04 fe 01 40 67 10 10 04 00      	! BUNDLE
	ld.add.h.a	%r1, %r2, %r1
	sub.ws	%r1, %gz, %r1
	ld.add.h.a	%r1, %r2, %r1

    18b0: 84 06 01 41 00 50 1a 04 04 01 40 6a 10 10 04 00      	! BUNDLE
	ld.and.h.a	%r1, %r2, %r1
	ld.or.h.a	%r1, %r2, %r1
	ld.xor.h.a	%r1, %r2, %r1

    18c0: b4 06 01 41 00 10 1b 04 04 01 40 67 10 10 04 00      	! BUNDLE
	ld.smin.h.a	%r1, %r2, %r1
	ld.smax.h.a	%r1, %r2, %r1
	ld.add.h.a	%r1, %r2, %r1

    18d0: 0c 00 81 7f 00 d0 19 04 04 01 40 68 10 10 04 00      	! BUNDLE
	sub.ws	%r1, %gz, %r1
	ld.add.h.a	%r1, %r2, %r1
	ld.and.h.a	%r1, %r2, %r1

    18e0: 94 06 01 41 00 90 1a 04 04 01 40 6b 10 10 04 00      	! BUNDLE
	ld.or.h.a	%r1, %r2, %r1
	ld.xor.h.a	%r1, %r2, %r1
	ld.smin.h.a	%r1, %r2, %r1

    18f0: c4 06 01 41 00 e0 19 04 04 01 c0 00 10 f8 07 00      	! BUNDLE
	ld.smax.h.a	%r1, %r2, %r1
	ld.add.h.r	%r1, %r2, %r1
	sub.ws	%r1, %gz, %r1

    1900: 78 06 01 41 00 20 1a 04 04 01 80 69 10 10 04 00      	! BUNDLE
	ld.add.h.r	%r1, %r2, %r1
	ld.and.h.r	%r1, %r2, %r1
	ld.or.h.r	%r1, %r2, %r1

    1910: a8 06 01 41 00 e0 1a 04 04 01 80 6c 10 10 04 00      	! BUNDLE
	ld.xor.h.r	%r1, %r2, %r1
	ld.smin.h.r	%r1, %r2, %r1
	ld.smax.h.r	%r1, %r2, %r1

    1920: 7c 06 01 41 00 30 00 04 fe 01 c0 67 10 10 04 00      	! BUNDLE
	ld.add.h.ar	%r1, %r2, %r1
	sub.ws	%r1, %gz, %r1
	ld.add.h.ar	%r1, %r2, %r1

    1930: 8c 06 01 41 00 70 1a 04 04 01 c0 6a 10 10 04 00      	! BUNDLE
	ld.and.h.ar	%r1, %r2, %r1
	ld.or.h.ar	%r1, %r2, %r1
	ld.xor.h.ar	%r1, %r2, %r1

    1940: bc 06 01 41 00 30 1b 04 04 01 c0 4d 00 00 00 00      	! BUNDLE
	ld.smin.h.ar	%r1, %r2, %r1
	ld.smax.h.ar	%r1, %r2, %r1
	fence.sc

    1950: 70 06 01 41 00 70 13 00 00 00 c0 00 10 f8 07 00      	! BUNDLE
	ld.add.h	%r1, %r2, %r1
	fence.sc
	sub.ws	%r1, %gz, %r1

    1960: 70 06 01 41 00 70 13 00 00 00 00 68 10 10 04 00      	! BUNDLE
	ld.add.h	%r1, %r2, %r1
	fence.sc
	ld.and.h	%r1, %r2, %r1

    1970: dc 04 00 00 00 40 1a 04 04 01 c0 4d 00 00 00 00      	! BUNDLE
	fence.sc
	ld.or.h	%r1, %r2, %r1
	fence.sc

    1980: a0 06 01 41 00 70 13 00 00 00 00 6b 10 10 04 00      	! BUNDLE
	ld.xor.h	%r1, %r2, %r1
	fence.sc
	ld.smin.h	%r1, %r2, %r1

    1990: dc 04 00 00 00 00 1b 04 04 01 80 05 06 0b 04 02      	! BUNDLE
	fence.sc
	ld.smax.h	%r1, %r2, %r1
	slsrai	%r1, %r1, 48, 48

    19a0: 00 00 00 80 40 00 00 00 00 00 01 00 00 00 00 04      	! BUNDLE
	ret.f	0
	nop	0
	nop	0


00000000000019b0 <test_atomic_load_op_u16>:
    19b0: 00 00 80 c1 40 c0 19 04 04 01 c0 00 10 f8 07 00      	! BUNDLE
	alloc	3
	ld.add.h	%r1, %r2, %r1
	sub.ws	%r1, %gz, %r1

    19c0: 70 06 01 41 00 00 1a 04 04 01 00 69 10 10 04 00      	! BUNDLE
	ld.add.h	%r1, %r2, %r1
	ld.and.h	%r1, %r2, %r1
	ld.or.h	%r1, %r2, %r1

    19d0: a0 06 01 41 00 40 1b 04 04 01 00 6e 10 10 04 00      	! BUNDLE
	ld.xor.h	%r1, %r2, %r1
	ld.umin.h	%r1, %r2, %r1
	ld.umax.h	%r1, %r2, %r1

    19e0: 74 06 01 41 00 30 00 04 fe 01 40 67 10 10 04 00      	! BUNDLE
	ld.add.h.a	%r1, %r2, %r1
	sub.ws	%r1, %gz, %r1
	ld.add.h.a	%r1, %r2, %r1

    19f0: 84 06 01 41 00 50 1a 04 04 01 40 6a 10 10 04 00      	! BUNDLE
	ld.and.h.a	%r1, %r2, %r1
	ld.or.h.a	%r1, %r2, %r1
	ld.xor.h.a	%r1, %r2, %r1

    1a00: d4 06 01 41 00 90 1b 04 04 01 40 67 10 10 04 00      	! BUNDLE
	ld.umin.h.a	%r1, %r2, %r1
	ld.umax.h.a	%r1, %r2, %r1
	ld.add.h.a	%r1, %r2, %r1

    1a10: 0c 00 81 7f 00 d0 19 04 04 01 40 68 10 10 04 00      	! BUNDLE
	sub.ws	%r1, %gz, %r1
	ld.add.h.a	%r1, %r2, %r1
	ld.and.h.a	%r1, %r2, %r1

    1a20: 94 06 01 41 00 90 1a 04 04 01 40 6d 10 10 04 00      	! BUNDLE
	ld.or.h.a	%r1, %r2, %r1
	ld.xor.h.a	%r1, %r2, %r1
	ld.umin.h.a	%r1, %r2, %r1

    1a30: e4 06 01 41 00 e0 19 04 04 01 c0 00 10 f8 07 00      	! BUNDLE
	ld.umax.h.a	%r1, %r2, %r1
	ld.add.h.r	%r1, %r2, %r1
	sub.ws	%r1, %gz, %r1

    1a40: 78 06 01 41 00 20 1a 04 04 01 80 69 10 10 04 00      	! BUNDLE
	ld.add.h.r	%r1, %r2, %r1
	ld.and.h.r	%r1, %r2, %r1
	ld.or.h.r	%r1, %r2, %r1

    1a50: a8 06 01 41 00 60 1b 04 04 01 80 6e 10 10 04 00      	! BUNDLE
	ld.xor.h.r	%r1, %r2, %r1
	ld.umin.h.r	%r1, %r2, %r1
	ld.umax.h.r	%r1, %r2, %r1

    1a60: 7c 06 01 41 00 30 00 04 fe 01 c0 67 10 10 04 00      	! BUNDLE
	ld.add.h.ar	%r1, %r2, %r1
	sub.ws	%r1, %gz, %r1
	ld.add.h.ar	%r1, %r2, %r1

    1a70: 8c 06 01 41 00 70 1a 04 04 01 c0 6a 10 10 04 00      	! BUNDLE
	ld.and.h.ar	%r1, %r2, %r1
	ld.or.h.ar	%r1, %r2, %r1
	ld.xor.h.ar	%r1, %r2, %r1

    1a80: dc 06 01 41 00 b0 1b 04 04 01 c0 4d 00 00 00 00      	! BUNDLE
	ld.umin.h.ar	%r1, %r2, %r1
	ld.umax.h.ar	%r1, %r2, %r1
	fence.sc

    1a90: 70 06 01 41 00 70 13 00 00 00 c0 00 10 f8 07 00      	! BUNDLE
	ld.add.h	%r1, %r2, %r1
	fence.sc
	sub.ws	%r1, %gz, %r1

    1aa0: 70 06 01 41 00 70 13 00 00 00 00 68 10 10 04 00      	! BUNDLE
	ld.add.h	%r1, %r2, %r1
	fence.sc
	ld.and.h	%r1, %r2, %r1

    1ab0: dc 04 00 00 00 40 1a 04 04 01 c0 4d 00 00 00 00      	! BUNDLE
	fence.sc
	ld.or.h	%r1, %r2, %r1
	fence.sc

    1ac0: a0 06 01 41 00 70 13 00 00 00 00 6d 10 10 04 00      	! BUNDLE
	ld.xor.h	%r1, %r2, %r1
	fence.sc
	ld.umin.h	%r1, %r2, %r1

    1ad0: dc 04 00 00 00 80 1b 04 04 01 00 00 00 00 08 04      	! BUNDLE
	fence.sc
	ld.umax.h	%r1, %r2, %r1
	ret.f	0


0000000000001ae0 <test_atomic_load_op_i32>:
    1ae0: 00 00 80 c1 40 c0 1e 04 04 01 c0 00 10 f8 07 00      	! BUNDLE
	alloc	3
	ld.add.w	%r1, %r2, %r1
	sub.ws	%r1, %gz, %r1

    1af0: b0 07 01 41 00 00 1f 04 04 01 00 7d 10 10 04 00      	! BUNDLE
	ld.add.w	%r1, %r2, %r1
	ld.and.w	%r1, %r2, %r1
	ld.or.w	%r1, %r2, %r1

    1b00: e0 07 01 41 00 c0 1f 04 04 01 00 80 10 10 04 00      	! BUNDLE
	ld.xor.w	%r1, %r2, %r1
	ld.smin.w	%r1, %r2, %r1
	ld.smax.w	%r1, %r2, %r1

    1b10: b4 07 01 41 00 30 00 04 fe 01 40 7b 10 10 04 00      	! BUNDLE
	ld.add.w.a	%r1, %r2, %r1
	sub.ws	%r1, %gz, %r1
	ld.add.w.a	%r1, %r2, %r1

    1b20: c4 07 01 41 00 50 1f 04 04 01 40 7e 10 10 04 00      	! BUNDLE
	ld.and.w.a	%r1, %r2, %r1
	ld.or.w.a	%r1, %r2, %r1
	ld.xor.w.a	%r1, %r2, %r1

    1b30: f4 07 01 41 00 10 20 04 04 01 40 7b 10 10 04 00      	! BUNDLE
	ld.smin.w.a	%r1, %r2, %r1
	ld.smax.w.a	%r1, %r2, %r1
	ld.add.w.a	%r1, %r2, %r1

    1b40: 0c 00 81 7f 00 d0 1e 04 04 01 40 7c 10 10 04 00      	! BUNDLE
	sub.ws	%r1, %gz, %r1
	ld.add.w.a	%r1, %r2, %r1
	ld.and.w.a	%r1, %r2, %r1

    1b50: d4 07 01 41 00 90 1f 04 04 01 40 7f 10 10 04 00      	! BUNDLE
	ld.or.w.a	%r1, %r2, %r1
	ld.xor.w.a	%r1, %r2, %r1
	ld.smin.w.a	%r1, %r2, %r1

    1b60: 04 08 01 41 00 e0 1e 04 04 01 c0 00 10 f8 07 00      	! BUNDLE
	ld.smax.w.a	%r1, %r2, %r1
	ld.add.w.r	%r1, %r2, %r1
	sub.ws	%r1, %gz, %r1

    1b70: b8 07 01 41 00 20 1f 04 04 01 80 7d 10 10 04 00      	! BUNDLE
	ld.add.w.r	%r1, %r2, %r1
	ld.and.w.r	%r1, %r2, %r1
	ld.or.w.r	%r1, %r2, %r1

    1b80: e8 07 01 41 00 e0 1f 04 04 01 80 80 10 10 04 00      	! BUNDLE
	ld.xor.w.r	%r1, %r2, %r1
	ld.smin.w.r	%r1, %r2, %r1
	ld.smax.w.r	%r1, %r2, %r1

    1b90: bc 07 01 41 00 30 00 04 fe 01 c0 7b 10 10 04 00      	! BUNDLE
	ld.add.w.ar	%r1, %r2, %r1
	sub.ws	%r1, %gz, %r1
	ld.add.w.ar	%r1, %r2, %r1

    1ba0: cc 07 01 41 00 70 1f 04 04 01 c0 7e 10 10 04 00      	! BUNDLE
	ld.and.w.ar	%r1, %r2, %r1
	ld.or.w.ar	%r1, %r2, %r1
	ld.xor.w.ar	%r1, %r2, %r1

    1bb0: fc 07 01 41 00 30 20 04 04 01 c0 4d 00 00 00 00      	! BUNDLE
	ld.smin.w.ar	%r1, %r2, %r1
	ld.smax.w.ar	%r1, %r2, %r1
	fence.sc

    1bc0: b0 07 01 41 00 70 13 00 00 00 c0 00 10 f8 07 00      	! BUNDLE
	ld.add.w	%r1, %r2, %r1
	fence.sc
	sub.ws	%r1, %gz, %r1

    1bd0: b0 07 01 41 00 70 13 00 00 00 00 7c 10 10 04 00      	! BUNDLE
	ld.add.w	%r1, %r2, %r1
	fence.sc
	ld.and.w	%r1, %r2, %r1

    1be0: dc 04 00 00 00 40 1f 04 04 01 c0 4d 00 00 00 00      	! BUNDLE
	fence.sc
	ld.or.w	%r1, %r2, %r1
	fence.sc

    1bf0: e0 07 01 41 00 70 13 00 00 00 00 7f 10 10 04 00      	! BUNDLE
	ld.xor.w	%r1, %r2, %r1
	fence.sc
	ld.smin.w	%r1, %r2, %r1

    1c00: dc 04 00 00 00 00 20 04 04 01 00 00 00 00 08 04      	! BUNDLE
	fence.sc
	ld.smax.w	%r1, %r2, %r1
	ret.f	0


0000000000001c10 <test_atomic_load_op_u32>:
    1c10: 00 00 80 c1 40 c0 1e 04 04 01 c0 00 10 f8 07 00      	! BUNDLE
	alloc	3
	ld.add.w	%r1, %r2, %r1
	sub.ws	%r1, %gz, %r1

    1c20: b0 07 01 41 00 00 1f 04 04 01 00 7d 10 10 04 00      	! BUNDLE
	ld.add.w	%r1, %r2, %r1
	ld.and.w	%r1, %r2, %r1
	ld.or.w	%r1, %r2, %r1

    1c30: e0 07 01 41 00 40 20 04 04 01 00 82 10 10 04 00      	! BUNDLE
	ld.xor.w	%r1, %r2, %r1
	ld.umin.w	%r1, %r2, %r1
	ld.umax.w	%r1, %r2, %r1

    1c40: b4 07 01 41 00 30 00 04 fe 01 40 7b 10 10 04 00      	! BUNDLE
	ld.add.w.a	%r1, %r2, %r1
	sub.ws	%r1, %gz, %r1
	ld.add.w.a	%r1, %r2, %r1

    1c50: c4 07 01 41 00 50 1f 04 04 01 40 7e 10 10 04 00      	! BUNDLE
	ld.and.w.a	%r1, %r2, %r1
	ld.or.w.a	%r1, %r2, %r1
	ld.xor.w.a	%r1, %r2, %r1

    1c60: 14 08 01 41 00 90 20 04 04 01 40 7b 10 10 04 00      	! BUNDLE
	ld.umin.w.a	%r1, %r2, %r1
	ld.umax.w.a	%r1, %r2, %r1
	ld.add.w.a	%r1, %r2, %r1

    1c70: 0c 00 81 7f 00 d0 1e 04 04 01 40 7c 10 10 04 00      	! BUNDLE
	sub.ws	%r1, %gz, %r1
	ld.add.w.a	%r1, %r2, %r1
	ld.and.w.a	%r1, %r2, %r1

    1c80: d4 07 01 41 00 90 1f 04 04 01 40 81 10 10 04 00      	! BUNDLE
	ld.or.w.a	%r1, %r2, %r1
	ld.xor.w.a	%r1, %r2, %r1
	ld.umin.w.a	%r1, %r2, %r1

    1c90: 24 08 01 41 00 e0 1e 04 04 01 c0 00 10 f8 07 00      	! BUNDLE
	ld.umax.w.a	%r1, %r2, %r1
	ld.add.w.r	%r1, %r2, %r1
	sub.ws	%r1, %gz, %r1

    1ca0: b8 07 01 41 00 20 1f 04 04 01 80 7d 10 10 04 00      	! BUNDLE
	ld.add.w.r	%r1, %r2, %r1
	ld.and.w.r	%r1, %r2, %r1
	ld.or.w.r	%r1, %r2, %r1

    1cb0: e8 07 01 41 00 60 20 04 04 01 80 82 10 10 04 00      	! BUNDLE
	ld.xor.w.r	%r1, %r2, %r1
	ld.umin.w.r	%r1, %r2, %r1
	ld.umax.w.r	%r1, %r2, %r1

    1cc0: bc 07 01 41 00 30 00 04 fe 01 c0 7b 10 10 04 00      	! BUNDLE
	ld.add.w.ar	%r1, %r2, %r1
	sub.ws	%r1, %gz, %r1
	ld.add.w.ar	%r1, %r2, %r1

    1cd0: cc 07 01 41 00 70 1f 04 04 01 c0 7e 10 10 04 00      	! BUNDLE
	ld.and.w.ar	%r1, %r2, %r1
	ld.or.w.ar	%r1, %r2, %r1
	ld.xor.w.ar	%r1, %r2, %r1

    1ce0: 1c 08 01 41 00 b0 20 04 04 01 c0 4d 00 00 00 00      	! BUNDLE
	ld.umin.w.ar	%r1, %r2, %r1
	ld.umax.w.ar	%r1, %r2, %r1
	fence.sc

    1cf0: b0 07 01 41 00 70 13 00 00 00 c0 00 10 f8 07 00      	! BUNDLE
	ld.add.w	%r1, %r2, %r1
	fence.sc
	sub.ws	%r1, %gz, %r1

    1d00: b0 07 01 41 00 70 13 00 00 00 00 7c 10 10 04 00      	! BUNDLE
	ld.add.w	%r1, %r2, %r1
	fence.sc
	ld.and.w	%r1, %r2, %r1

    1d10: dc 04 00 00 00 40 1f 04 04 01 c0 4d 00 00 00 00      	! BUNDLE
	fence.sc
	ld.or.w	%r1, %r2, %r1
	fence.sc

    1d20: e0 07 01 41 00 70 13 00 00 00 00 81 10 10 04 00      	! BUNDLE
	ld.xor.w	%r1, %r2, %r1
	fence.sc
	ld.umin.w	%r1, %r2, %r1

    1d30: dc 04 00 00 00 80 20 04 04 01 00 00 00 00 08 04      	! BUNDLE
	fence.sc
	ld.umax.w	%r1, %r2, %r1
	ret.f	0


0000000000001d40 <test_atomic_load_op_i64>:
    1d40: 00 00 80 c1 40 c0 23 04 04 01 40 08 10 f8 07 00      	! BUNDLE
	alloc	3
	ld.add.d	%r1, %r2, %r1
	sub	%r1, %gz, %r1

    1d50: f0 08 01 41 00 00 24 04 04 01 00 91 10 10 04 00      	! BUNDLE
	ld.add.d	%r1, %r2, %r1
	ld.and.d	%r1, %r2, %r1
	ld.or.d	%r1, %r2, %r1

    1d60: 20 09 01 41 00 c0 24 04 04 01 00 94 10 10 04 00      	! BUNDLE
	ld.xor.d	%r1, %r2, %r1
	ld.smin.d	%r1, %r2, %r1
	ld.smax.d	%r1, %r2, %r1

    1d70: f4 08 01 41 00 10 02 04 fe 01 40 8f 10 10 04 00      	! BUNDLE
	ld.add.d.a	%r1, %r2, %r1
	sub	%r1, %gz, %r1
	ld.add.d.a	%r1, %r2, %r1

    1d80: 04 09 01 41 00 50 24 04 04 01 40 92 10 10 04 00      	! BUNDLE
	ld.and.d.a	%r1, %r2, %r1
	ld.or.d.a	%r1, %r2, %r1
	ld.xor.d.a	%r1, %r2, %r1

    1d90: 34 09 01 41 00 10 25 04 04 01 40 8f 10 10 04 00      	! BUNDLE
	ld.smin.d.a	%r1, %r2, %r1
	ld.smax.d.a	%r1, %r2, %r1
	ld.add.d.a	%r1, %r2, %r1

    1da0: 84 00 81 7f 00 d0 23 04 04 01 40 90 10 10 04 00      	! BUNDLE
	sub	%r1, %gz, %r1
	ld.add.d.a	%r1, %r2, %r1
	ld.and.d.a	%r1, %r2, %r1

    1db0: 14 09 01 41 00 90 24 04 04 01 40 93 10 10 04 00      	! BUNDLE
	ld.or.d.a	%r1, %r2, %r1
	ld.xor.d.a	%r1, %r2, %r1
	ld.smin.d.a	%r1, %r2, %r1

    1dc0: 44 09 01 41 00 e0 23 04 04 01 40 08 10 f8 07 00      	! BUNDLE
	ld.smax.d.a	%r1, %r2, %r1
	ld.add.d.r	%r1, %r2, %r1
	sub	%r1, %gz, %r1

    1dd0: f8 08 01 41 00 20 24 04 04 01 80 91 10 10 04 00      	! BUNDLE
	ld.add.d.r	%r1, %r2, %r1
	ld.and.d.r	%r1, %r2, %r1
	ld.or.d.r	%r1, %r2, %r1

    1de0: 28 09 01 41 00 e0 24 04 04 01 80 94 10 10 04 00      	! BUNDLE
	ld.xor.d.r	%r1, %r2, %r1
	ld.smin.d.r	%r1, %r2, %r1
	ld.smax.d.r	%r1, %r2, %r1

    1df0: fc 08 01 41 00 10 02 04 fe 01 c0 8f 10 10 04 00      	! BUNDLE
	ld.add.d.ar	%r1, %r2, %r1
	sub	%r1, %gz, %r1
	ld.add.d.ar	%r1, %r2, %r1

    1e00: 0c 09 01 41 00 70 24 04 04 01 c0 92 10 10 04 00      	! BUNDLE
	ld.and.d.ar	%r1, %r2, %r1
	ld.or.d.ar	%r1, %r2, %r1
	ld.xor.d.ar	%r1, %r2, %r1

    1e10: 3c 09 01 41 00 30 25 04 04 01 c0 4d 00 00 00 00      	! BUNDLE
	ld.smin.d.ar	%r1, %r2, %r1
	ld.smax.d.ar	%r1, %r2, %r1
	fence.sc

    1e20: f0 08 01 41 00 70 13 00 00 00 40 08 10 f8 07 00      	! BUNDLE
	ld.add.d	%r1, %r2, %r1
	fence.sc
	sub	%r1, %gz, %r1

    1e30: f0 08 01 41 00 70 13 00 00 00 00 90 10 10 04 00      	! BUNDLE
	ld.add.d	%r1, %r2, %r1
	fence.sc
	ld.and.d	%r1, %r2, %r1

    1e40: dc 04 00 00 00 40 24 04 04 01 c0 4d 00 00 00 00      	! BUNDLE
	fence.sc
	ld.or.d	%r1, %r2, %r1
	fence.sc

    1e50: 20 09 01 41 00 70 13 00 00 00 00 93 10 10 04 00      	! BUNDLE
	ld.xor.d	%r1, %r2, %r1
	fence.sc
	ld.smin.d	%r1, %r2, %r1

    1e60: dc 04 00 00 00 00 25 04 04 01 00 00 00 00 08 04      	! BUNDLE
	fence.sc
	ld.smax.d	%r1, %r2, %r1
	ret.f	0


0000000000001e70 <test_atomic_load_op_u64>:
    1e70: 00 00 80 c1 40 c0 23 04 04 01 40 08 10 f8 07 00      	! BUNDLE
	alloc	3
	ld.add.d	%r1, %r2, %r1
	sub	%r1, %gz, %r1

    1e80: f0 08 01 41 00 00 24 04 04 01 00 91 10 10 04 00      	! BUNDLE
	ld.add.d	%r1, %r2, %r1
	ld.and.d	%r1, %r2, %r1
	ld.or.d	%r1, %r2, %r1

    1e90: 20 09 01 41 00 40 25 04 04 01 00 96 10 10 04 00      	! BUNDLE
	ld.xor.d	%r1, %r2, %r1
	ld.umin.d	%r1, %r2, %r1
	ld.umax.d	%r1, %r2, %r1

    1ea0: f4 08 01 41 00 10 02 04 fe 01 40 8f 10 10 04 00      	! BUNDLE
	ld.add.d.a	%r1, %r2, %r1
	sub	%r1, %gz, %r1
	ld.add.d.a	%r1, %r2, %r1

    1eb0: 04 09 01 41 00 50 24 04 04 01 40 92 10 10 04 00      	! BUNDLE
	ld.and.d.a	%r1, %r2, %r1
	ld.or.d.a	%r1, %r2, %r1
	ld.xor.d.a	%r1, %r2, %r1

    1ec0: 54 09 01 41 00 90 25 04 04 01 40 8f 10 10 04 00      	! BUNDLE
	ld.umin.d.a	%r1, %r2, %r1
	ld.umax.d.a	%r1, %r2, %r1
	ld.add.d.a	%r1, %r2, %r1

    1ed0: 84 00 81 7f 00 d0 23 04 04 01 40 90 10 10 04 00      	! BUNDLE
	sub	%r1, %gz, %r1
	ld.add.d.a	%r1, %r2, %r1
	ld.and.d.a	%r1, %r2, %r1

    1ee0: 14 09 01 41 00 90 24 04 04 01 40 95 10 10 04 00      	! BUNDLE
	ld.or.d.a	%r1, %r2, %r1
	ld.xor.d.a	%r1, %r2, %r1
	ld.umin.d.a	%r1, %r2, %r1

    1ef0: 64 09 01 41 00 e0 23 04 04 01 40 08 10 f8 07 00      	! BUNDLE
	ld.umax.d.a	%r1, %r2, %r1
	ld.add.d.r	%r1, %r2, %r1
	sub	%r1, %gz, %r1

    1f00: f8 08 01 41 00 20 24 04 04 01 80 91 10 10 04 00      	! BUNDLE
	ld.add.d.r	%r1, %r2, %r1
	ld.and.d.r	%r1, %r2, %r1
	ld.or.d.r	%r1, %r2, %r1

    1f10: 28 09 01 41 00 60 25 04 04 01 80 96 10 10 04 00      	! BUNDLE
	ld.xor.d.r	%r1, %r2, %r1
	ld.umin.d.r	%r1, %r2, %r1
	ld.umax.d.r	%r1, %r2, %r1

    1f20: fc 08 01 41 00 10 02 04 fe 01 c0 8f 10 10 04 00      	! BUNDLE
	ld.add.d.ar	%r1, %r2, %r1
	sub	%r1, %gz, %r1
	ld.add.d.ar	%r1, %r2, %r1

    1f30: 0c 09 01 41 00 70 24 04 04 01 c0 92 10 10 04 00      	! BUNDLE
	ld.and.d.ar	%r1, %r2, %r1
	ld.or.d.ar	%r1, %r2, %r1
	ld.xor.d.ar	%r1, %r2, %r1

    1f40: 5c 09 01 41 00 b0 25 04 04 01 c0 4d 00 00 00 00      	! BUNDLE
	ld.umin.d.ar	%r1, %r2, %r1
	ld.umax.d.ar	%r1, %r2, %r1
	fence.sc

    1f50: f0 08 01 41 00 70 13 00 00 00 40 08 10 f8 07 00      	! BUNDLE
	ld.add.d	%r1, %r2, %r1
	fence.sc
	sub	%r1, %gz, %r1

    1f60: f0 08 01 41 00 70 13 00 00 00 00 90 10 10 04 00      	! BUNDLE
	ld.add.d	%r1, %r2, %r1
	fence.sc
	ld.and.d	%r1, %r2, %r1

    1f70: dc 04 00 00 00 40 24 04 04 01 c0 4d 00 00 00 00      	! BUNDLE
	fence.sc
	ld.or.d	%r1, %r2, %r1
	fence.sc

    1f80: 20 09 01 41 00 70 13 00 00 00 00 95 10 10 04 00      	! BUNDLE
	ld.xor.d	%r1, %r2, %r1
	fence.sc
	ld.umin.d	%r1, %r2, %r1

    1f90: dc 04 00 00 00 80 25 04 04 01 00 00 00 00 08 04      	! BUNDLE
	fence.sc
	ld.umax.d	%r1, %r2, %r1
	ret.f	0


0000000000001fa0 <test_atomic_load_op_i128>:
    1fa0: 00 00 80 c1 40 c0 28 04 04 01 40 18 10 f8 07 00      	! BUNDLE
	alloc	3
	ld.add.q	%r1, %r2, %r1
	sub.q	%r1, %gz, %r1

    1fb0: 30 0a 01 41 00 00 29 04 04 01 00 a5 10 10 04 00      	! BUNDLE
	ld.add.q	%r1, %r2, %r1
	ld.and.q	%r1, %r2, %r1
	ld.or.q	%r1, %r2, %r1

    1fc0: 60 0a 01 41 00 c0 29 04 04 01 00 a8 10 10 04 00      	! BUNDLE
	ld.xor.q	%r1, %r2, %r1
	ld.smin.q	%r1, %r2, %r1
	ld.smax.q	%r1, %r2, %r1

    1fd0: 34 0a 01 41 00 10 06 04 fe 01 40 a3 10 10 04 00      	! BUNDLE
	ld.add.q.a	%r1, %r2, %r1
	sub.q	%r1, %gz, %r1
	ld.add.q.a	%r1, %r2, %r1

    1fe0: 44 0a 01 41 00 50 29 04 04 01 40 a6 10 10 04 00      	! BUNDLE
	ld.and.q.a	%r1, %r2, %r1
	ld.or.q.a	%r1, %r2, %r1
	ld.xor.q.a	%r1, %r2, %r1

    1ff0: 74 0a 01 41 00 10 2a 04 04 01 40 a3 10 10 04 00      	! BUNDLE
	ld.smin.q.a	%r1, %r2, %r1
	ld.smax.q.a	%r1, %r2, %r1
	ld.add.q.a	%r1, %r2, %r1

    2000: 84 01 81 7f 00 d0 28 04 04 01 40 a4 10 10 04 00      	! BUNDLE
	sub.q	%r1, %gz, %r1
	ld.add.q.a	%r1, %r2, %r1
	ld.and.q.a	%r1, %r2, %r1

    2010: 54 0a 01 41 00 90 29 04 04 01 40 a7 10 10 04 00      	! BUNDLE
	ld.or.q.a	%r1, %r2, %r1
	ld.xor.q.a	%r1, %r2, %r1
	ld.smin.q.a	%r1, %r2, %r1

    2020: 84 0a 01 41 00 e0 28 04 04 01 40 18 10 f8 07 00      	! BUNDLE
	ld.smax.q.a	%r1, %r2, %r1
	ld.add.q.r	%r1, %r2, %r1
	sub.q	%r1, %gz, %r1

    2030: 38 0a 01 41 00 20 29 04 04 01 80 a5 10 10 04 00      	! BUNDLE
	ld.add.q.r	%r1, %r2, %r1
	ld.and.q.r	%r1, %r2, %r1
	ld.or.q.r	%r1, %r2, %r1

    2040: 68 0a 01 41 00 e0 29 04 04 01 80 a8 10 10 04 00      	! BUNDLE
	ld.xor.q.r	%r1, %r2, %r1
	ld.smin.q.r	%r1, %r2, %r1
	ld.smax.q.r	%r1, %r2, %r1

    2050: 3c 0a 01 41 00 10 06 04 fe 01 c0 a3 10 10 04 00      	! BUNDLE
	ld.add.q.ar	%r1, %r2, %r1
	sub.q	%r1, %gz, %r1
	ld.add.q.ar	%r1, %r2, %r1

    2060: 4c 0a 01 41 00 70 29 04 04 01 c0 a6 10 10 04 00      	! BUNDLE
	ld.and.q.ar	%r1, %r2, %r1
	ld.or.q.ar	%r1, %r2, %r1
	ld.xor.q.ar	%r1, %r2, %r1

    2070: 7c 0a 01 41 00 30 2a 04 04 01 c0 4d 00 00 00 00      	! BUNDLE
	ld.smin.q.ar	%r1, %r2, %r1
	ld.smax.q.ar	%r1, %r2, %r1
	fence.sc

    2080: 30 0a 01 41 00 70 13 00 00 00 40 18 10 f8 07 00      	! BUNDLE
	ld.add.q	%r1, %r2, %r1
	fence.sc
	sub.q	%r1, %gz, %r1

    2090: 30 0a 01 41 00 70 13 00 00 00 00 a4 10 10 04 00      	! BUNDLE
	ld.add.q	%r1, %r2, %r1
	fence.sc
	ld.and.q	%r1, %r2, %r1

    20a0: dc 04 00 00 00 40 29 04 04 01 c0 4d 00 00 00 00      	! BUNDLE
	fence.sc
	ld.or.q	%r1, %r2, %r1
	fence.sc

    20b0: 60 0a 01 41 00 70 13 00 00 00 00 a7 10 10 04 00      	! BUNDLE
	ld.xor.q	%r1, %r2, %r1
	fence.sc
	ld.smin.q	%r1, %r2, %r1

    20c0: dc 04 00 00 00 00 2a 04 04 01 00 00 00 00 08 04      	! BUNDLE
	fence.sc
	ld.smax.q	%r1, %r2, %r1
	ret.f	0


00000000000020d0 <test_atomic_load_op_u128>:
    20d0: 00 00 80 c1 40 c0 28 04 04 01 40 18 10 f8 07 00      	! BUNDLE
	alloc	3
	ld.add.q	%r1, %r2, %r1
	sub.q	%r1, %gz, %r1

    20e0: 30 0a 01 41 00 00 29 04 04 01 00 a5 10 10 04 00      	! BUNDLE
	ld.add.q	%r1, %r2, %r1
	ld.and.q	%r1, %r2, %r1
	ld.or.q	%r1, %r2, %r1

    20f0: 60 0a 01 41 00 40 2a 04 04 01 00 aa 10 10 04 00      	! BUNDLE
	ld.xor.q	%r1, %r2, %r1
	ld.umin.q	%r1, %r2, %r1
	ld.umax.q	%r1, %r2, %r1

    2100: 34 0a 01 41 00 10 06 04 fe 01 40 a3 10 10 04 00      	! BUNDLE
	ld.add.q.a	%r1, %r2, %r1
	sub.q	%r1, %gz, %r1
	ld.add.q.a	%r1, %r2, %r1

    2110: 44 0a 01 41 00 50 29 04 04 01 40 a6 10 10 04 00      	! BUNDLE
	ld.and.q.a	%r1, %r2, %r1
	ld.or.q.a	%r1, %r2, %r1
	ld.xor.q.a	%r1, %r2, %r1

    2120: 94 0a 01 41 00 90 2a 04 04 01 40 a3 10 10 04 00      	! BUNDLE
	ld.umin.q.a	%r1, %r2, %r1
	ld.umax.q.a	%r1, %r2, %r1
	ld.add.q.a	%r1, %r2, %r1

    2130: 84 01 81 7f 00 d0 28 04 04 01 40 a4 10 10 04 00      	! BUNDLE
	sub.q	%r1, %gz, %r1
	ld.add.q.a	%r1, %r2, %r1
	ld.and.q.a	%r1, %r2, %r1

    2140: 54 0a 01 41 00 90 29 04 04 01 40 a9 10 10 04 00      	! BUNDLE
	ld.or.q.a	%r1, %r2, %r1
	ld.xor.q.a	%r1, %r2, %r1
	ld.umin.q.a	%r1, %r2, %r1

    2150: a4 0a 01 41 00 e0 28 04 04 01 40 18 10 f8 07 00      	! BUNDLE
	ld.umax.q.a	%r1, %r2, %r1
	ld.add.q.r	%r1, %r2, %r1
	sub.q	%r1, %gz, %r1

    2160: 38 0a 01 41 00 20 29 04 04 01 80 a5 10 10 04 00      	! BUNDLE
	ld.add.q.r	%r1, %r2, %r1
	ld.and.q.r	%r1, %r2, %r1
	ld.or.q.r	%r1, %r2, %r1

    2170: 68 0a 01 41 00 60 2a 04 04 01 80 aa 10 10 04 00      	! BUNDLE
	ld.xor.q.r	%r1, %r2, %r1
	ld.umin.q.r	%r1, %r2, %r1
	ld.umax.q.r	%r1, %r2, %r1

    2180: 3c 0a 01 41 00 10 06 04 fe 01 c0 a3 10 10 04 00      	! BUNDLE
	ld.add.q.ar	%r1, %r2, %r1
	sub.q	%r1, %gz, %r1
	ld.add.q.ar	%r1, %r2, %r1

    2190: 4c 0a 01 41 00 70 29 04 04 01 c0 a6 10 10 04 00      	! BUNDLE
	ld.and.q.ar	%r1, %r2, %r1
	ld.or.q.ar	%r1, %r2, %r1
	ld.xor.q.ar	%r1, %r2, %r1

    21a0: 9c 0a 01 41 00 b0 2a 04 04 01 c0 4d 00 00 00 00      	! BUNDLE
	ld.umin.q.ar	%r1, %r2, %r1
	ld.umax.q.ar	%r1, %r2, %r1
	fence.sc

    21b0: 30 0a 01 41 00 70 13 00 00 00 40 18 10 f8 07 00      	! BUNDLE
	ld.add.q	%r1, %r2, %r1
	fence.sc
	sub.q	%r1, %gz, %r1

    21c0: 30 0a 01 41 00 70 13 00 00 00 00 a4 10 10 04 00      	! BUNDLE
	ld.add.q	%r1, %r2, %r1
	fence.sc
	ld.and.q	%r1, %r2, %r1

    21d0: dc 04 00 00 00 40 29 04 04 01 c0 4d 00 00 00 00      	! BUNDLE
	fence.sc
	ld.or.q	%r1, %r2, %r1
	fence.sc

    21e0: 60 0a 01 41 00 70 13 00 00 00 00 a9 10 10 04 00      	! BUNDLE
	ld.xor.q	%r1, %r2, %r1
	fence.sc
	ld.umin.q	%r1, %r2, %r1

    21f0: dc 04 00 00 00 80 2a 04 04 01 00 00 00 00 08 04      	! BUNDLE
	fence.sc
	ld.umax.q	%r1, %r2, %r1
	ret.f	0


0000000000002200 <test_atomic_store_i8>:
    2200: 00 00 80 c2 40 20 14 00 02 04 c0 50 00 10 10 00      	! BUNDLE
	alloc	5
	sta.b	%r4, %r1
	sta.b.r	%r4, %r2

    2210: dc 04 00 00 00 20 14 00 06 04 00 00 00 00 08 04      	! BUNDLE
	fence.sc
	sta.b	%r4, %r3
	ret.f	0


0000000000002220 <test_atomic_store_i16>:
    2220: 00 00 80 c2 40 20 19 00 02 04 c0 64 00 10 10 00      	! BUNDLE
	alloc	5
	sta.h	%r4, %r1
	sta.h.r	%r4, %r2

    2230: dc 04 00 00 00 20 19 00 06 04 00 00 00 00 08 04      	! BUNDLE
	fence.sc
	sta.h	%r4, %r3
	ret.f	0


0000000000002240 <test_atomic_store_i32>:
    2240: 00 00 80 c2 40 20 1e 00 02 04 c0 78 00 10 10 00      	! BUNDLE
	alloc	5
	sta.w	%r4, %r1
	sta.w.r	%r4, %r2

    2250: dc 04 00 00 00 20 1e 00 06 04 00 00 00 00 08 04      	! BUNDLE
	fence.sc
	sta.w	%r4, %r3
	ret.f	0


0000000000002260 <test_atomic_store_i64>:
    2260: 00 00 80 c2 40 20 23 00 02 04 c0 8c 00 10 10 00      	! BUNDLE
	alloc	5
	sta.d	%r4, %r1
	sta.d.r	%r4, %r2

    2270: dc 04 00 00 00 20 23 00 06 04 00 00 00 00 08 04      	! BUNDLE
	fence.sc
	sta.d	%r4, %r3
	ret.f	0


0000000000002280 <test_atomic_store_i128>:
    2280: 00 00 80 c2 40 20 28 00 02 04 c0 a0 00 10 10 00      	! BUNDLE
	alloc	5
	sta.q	%r4, %r1
	sta.q.r	%r4, %r2

    2290: dc 04 00 00 00 20 28 00 06 04 00 00 00 00 08 04      	! BUNDLE
	fence.sc
	sta.q	%r4, %r3
	ret.f	0


00000000000022a0 <test_i32_inv>:
    22a0: 00 00 00 c1 40 f0 ff ff 03 01 0b 00 00 00 08 04      	! BUNDLE
	alloc	2
	xori	%r1, %r1, -1
	ret.f	0


00000000000022b0 <test_i64_inv>:
    22b0: 00 00 00 c1 40 f0 ff ff 03 01 0b 00 00 00 08 04      	! BUNDLE
	alloc	2
	xori	%r1, %r1, -1
	ret.f	0


00000000000022c0 <test_i128_inv>:
    22c0: 00 00 00 c1 40 f0 ff ff 03 01 0b 00 00 00 08 04      	! BUNDLE
	alloc	2
	xori	%r1, %r1, -1
	ret.f	0


00000000000022d0 <test_i32_and>:
    22d0: 00 00 80 c1 40 80 01 04 04 01 00 00 00 00 08 04      	! BUNDLE
	alloc	3
	and	%r1, %r2, %r1
	ret.f	0


00000000000022e0 <test_i64_and>:
    22e0: 00 00 80 c1 40 80 01 04 04 01 00 00 00 00 08 04      	! BUNDLE
	alloc	3
	and	%r1, %r2, %r1
	ret.f	0


00000000000022f0 <test_i128_and>:
    22f0: 00 00 80 c1 40 80 01 04 04 01 00 00 00 00 08 04      	! BUNDLE
	alloc	3
	and	%r1, %r2, %r1
	ret.f	0


0000000000002300 <test_i32_andi>:
    2300: 00 00 00 c1 40 90 03 03 02 01 0a 00 00 00 08 04      	! BUNDLE
	alloc	2
	andi	%r1, %r1, 12345
	ret.f	0


0000000000002310 <test_i32_andi_ext>:
    2310: 01 00 00 c1 40 50 d1 bc 03 01 8a 0e 00 00 00 00      	! BUNDLE
	alloc	2
	andi.l	%r1, %r1, 123456789

    2320: 00 00 00 80 40 00 00 00 00 00 01 00 00 00 00 04      	! BUNDLE
	ret.f	0
	nop	0
	nop	0


0000000000002330 <test_i64_andi>:
    2330: 00 00 00 c1 40 90 03 03 02 01 0a 00 00 00 08 04      	! BUNDLE
	alloc	2
	andi	%r1, %r1, 12345
	ret.f	0


0000000000002340 <test_i64_andi_ext>:
    2340: 01 00 00 c1 40 50 d1 bc 03 01 8a 0e 00 00 00 00      	! BUNDLE
	alloc	2
	andi.l	%r1, %r1, 123456789

    2350: 00 00 00 80 40 00 00 00 00 00 01 00 00 00 00 04      	! BUNDLE
	ret.f	0
	nop	0
	nop	0


0000000000002360 <test_i128_andi>:
    2360: 00 00 00 c1 40 90 03 03 02 01 0a 00 00 00 08 04      	! BUNDLE
	alloc	2
	andi	%r1, %r1, 12345
	ret.f	0


0000000000002370 <test_i128_andi_ext>:
    2370: 01 00 00 c1 40 50 d1 bc 03 01 8a 0e 00 00 00 00      	! BUNDLE
	alloc	2
	andi.l	%r1, %r1, 123456789

    2380: 00 00 00 80 40 00 00 00 00 00 01 00 00 00 00 04      	! BUNDLE
	ret.f	0
	nop	0
	nop	0


0000000000002390 <test_i32_andn>:
    2390: 00 00 80 c1 40 b0 01 08 02 01 00 00 00 00 08 04      	! BUNDLE
	alloc	3
	andn	%r1, %r1, %r2
	ret.f	0


00000000000023a0 <test_i64_andn>:
    23a0: 00 00 80 c1 40 b0 01 08 02 01 00 00 00 00 08 04      	! BUNDLE
	alloc	3
	andn	%r1, %r1, %r2
	ret.f	0


00000000000023b0 <test_i128_andn>:
    23b0: 00 00 80 c1 40 b0 01 08 02 01 00 00 00 00 08 04      	! BUNDLE
	alloc	3
	andn	%r1, %r1, %r2
	ret.f	0


00000000000023c0 <test_i32_andni>:
    23c0: 00 00 00 c1 40 90 03 03 02 01 09 00 00 00 08 04      	! BUNDLE
	alloc	2
	andni	%r1, %r1, 12345
	ret.f	0


00000000000023d0 <test_i32_andni_ext>:
    23d0: 01 00 00 c1 40 50 d1 bc 03 01 89 0e 00 00 00 00      	! BUNDLE
	alloc	2
	andni.l	%r1, %r1, 123456789

    23e0: 00 00 00 80 40 00 00 00 00 00 01 00 00 00 00 04      	! BUNDLE
	ret.f	0
	nop	0
	nop	0


00000000000023f0 <test_i64_andni>:
    23f0: 00 00 00 c1 40 90 03 03 02 01 09 00 00 00 08 04      	! BUNDLE
	alloc	2
	andni	%r1, %r1, 12345
	ret.f	0


0000000000002400 <test_i64_andni_ext>:
    2400: 01 00 00 c1 40 50 d1 bc 03 01 89 0e 00 00 00 00      	! BUNDLE
	alloc	2
	andni.l	%r1, %r1, 123456789

    2410: 00 00 00 80 40 00 00 00 00 00 01 00 00 00 00 04      	! BUNDLE
	ret.f	0
	nop	0
	nop	0


0000000000002420 <test_i128_andni>:
    2420: 00 00 00 c1 40 90 03 03 02 01 09 00 00 00 08 04      	! BUNDLE
	alloc	2
	andni	%r1, %r1, 12345
	ret.f	0


0000000000002430 <test_i128_andni_ext>:
    2430: 01 00 00 c1 40 50 d1 bc 03 01 89 0e 00 00 00 00      	! BUNDLE
	alloc	2
	andni.l	%r1, %r1, 123456789

    2440: 00 00 00 80 40 00 00 00 00 00 01 00 00 00 00 04      	! BUNDLE
	ret.f	0
	nop	0
	nop	0


0000000000002450 <test_i32_or>:
    2450: 00 00 80 c1 40 90 01 04 04 01 00 00 00 00 08 04      	! BUNDLE
	alloc	3
	or	%r1, %r2, %r1
	ret.f	0


0000000000002460 <test_i64_or>:
    2460: 00 00 80 c1 40 90 01 04 04 01 00 00 00 00 08 04      	! BUNDLE
	alloc	3
	or	%r1, %r2, %r1
	ret.f	0


0000000000002470 <test_i128_or>:
    2470: 00 00 80 c1 40 90 01 04 04 01 00 00 00 00 08 04      	! BUNDLE
	alloc	3
	or	%r1, %r2, %r1
	ret.f	0


0000000000002480 <test_i32_ori>:
    2480: 00 00 00 c1 40 90 03 03 02 81 0a 00 00 00 08 04      	! BUNDLE
	alloc	2
	ori	%r1, %r1, 12345
	ret.f	0


0000000000002490 <test_i32_ori_ext>:
    2490: 01 00 00 c1 40 50 d1 bc 03 81 8a 0e 00 00 00 00      	! BUNDLE
	alloc	2
	ori.l	%r1, %r1, 123456789

    24a0: 00 00 00 80 40 00 00 00 00 00 01 00 00 00 00 04      	! BUNDLE
	ret.f	0
	nop	0
	nop	0


00000000000024b0 <test_i64_ori>:
    24b0: 00 00 00 c1 40 90 03 03 02 81 0a 00 00 00 08 04      	! BUNDLE
	alloc	2
	ori	%r1, %r1, 12345
	ret.f	0


00000000000024c0 <test_i64_ori_ext>:
    24c0: 01 00 00 c1 40 50 d1 bc 03 81 8a 0e 00 00 00 00      	! BUNDLE
	alloc	2
	ori.l	%r1, %r1, 123456789

    24d0: 00 00 00 80 40 00 00 00 00 00 01 00 00 00 00 04      	! BUNDLE
	ret.f	0
	nop	0
	nop	0


00000000000024e0 <test_i128_ori>:
    24e0: 00 00 00 c1 40 90 03 03 02 81 0a 00 00 00 08 04      	! BUNDLE
	alloc	2
	ori	%r1, %r1, 12345
	ret.f	0


00000000000024f0 <test_i128_ori_ext>:
    24f0: 01 00 00 c1 40 50 d1 bc 03 81 8a 0e 00 00 00 00      	! BUNDLE
	alloc	2
	ori.l	%r1, %r1, 123456789

    2500: 00 00 00 80 40 00 00 00 00 00 01 00 00 00 00 04      	! BUNDLE
	ret.f	0
	nop	0
	nop	0


0000000000002510 <test_i32_orn>:
    2510: 00 00 80 c1 40 f0 01 08 02 01 00 00 00 00 08 04      	! BUNDLE
	alloc	3
	orn	%r1, %r1, %r2
	ret.f	0


0000000000002520 <test_i64_orn>:
    2520: 00 00 80 c1 40 f0 01 08 02 01 00 00 00 00 08 04      	! BUNDLE
	alloc	3
	orn	%r1, %r1, %r2
	ret.f	0


0000000000002530 <test_i128_orn>:
    2530: 00 00 80 c1 40 f0 01 08 02 01 00 00 00 00 08 04      	! BUNDLE
	alloc	3
	orn	%r1, %r1, %r2
	ret.f	0


0000000000002540 <test_i32_orni>:
    2540: 00 00 00 c1 40 90 03 03 02 81 09 00 00 00 08 04      	! BUNDLE
	alloc	2
	orni	%r1, %r1, 12345
	ret.f	0


0000000000002550 <test_i32_orni_ext>:
    2550: 01 00 00 c1 40 50 d1 bc 03 81 89 0e 00 00 00 00      	! BUNDLE
	alloc	2
	orni.l	%r1, %r1, 123456789

    2560: 00 00 00 80 40 00 00 00 00 00 01 00 00 00 00 04      	! BUNDLE
	ret.f	0
	nop	0
	nop	0


0000000000002570 <test_i64_orni>:
    2570: 00 00 00 c1 40 90 03 03 02 81 09 00 00 00 08 04      	! BUNDLE
	alloc	2
	orni	%r1, %r1, 12345
	ret.f	0


0000000000002580 <test_i64_orni_ext>:
    2580: 01 00 00 c1 40 50 d1 bc 03 81 89 0e 00 00 00 00      	! BUNDLE
	alloc	2
	orni.l	%r1, %r1, 123456789

    2590: 00 00 00 80 40 00 00 00 00 00 01 00 00 00 00 04      	! BUNDLE
	ret.f	0
	nop	0
	nop	0


00000000000025a0 <test_i128_orni>:
    25a0: 00 00 00 c1 40 90 03 03 02 81 09 00 00 00 08 04      	! BUNDLE
	alloc	2
	orni	%r1, %r1, 12345
	ret.f	0


00000000000025b0 <test_i128_orni_ext>:
    25b0: 01 00 00 c1 40 50 d1 bc 03 81 89 0e 00 00 00 00      	! BUNDLE
	alloc	2
	orni.l	%r1, %r1, 123456789

    25c0: 00 00 00 80 40 00 00 00 00 00 01 00 00 00 00 04      	! BUNDLE
	ret.f	0
	nop	0
	nop	0


00000000000025d0 <test_i32_xor>:
    25d0: 00 00 80 c1 40 a0 01 04 04 01 00 00 00 00 08 04      	! BUNDLE
	alloc	3
	xor	%r1, %r2, %r1
	ret.f	0


00000000000025e0 <test_i64_xor>:
    25e0: 00 00 80 c1 40 a0 01 04 04 01 00 00 00 00 08 04      	! BUNDLE
	alloc	3
	xor	%r1, %r2, %r1
	ret.f	0


00000000000025f0 <test_i128_xor>:
    25f0: 00 00 80 c1 40 a0 01 04 04 01 00 00 00 00 08 04      	! BUNDLE
	alloc	3
	xor	%r1, %r2, %r1
	ret.f	0


0000000000002600 <test_i32_xori>:
    2600: 00 00 00 c1 40 90 03 03 02 01 0b 00 00 00 08 04      	! BUNDLE
	alloc	2
	xori	%r1, %r1, 12345
	ret.f	0


0000000000002610 <test_i32_xori_ext>:
    2610: 01 00 00 c1 40 50 d1 bc 03 01 8b 0e 00 00 00 00      	! BUNDLE
	alloc	2
	xori.l	%r1, %r1, 123456789

    2620: 00 00 00 80 40 00 00 00 00 00 01 00 00 00 00 04      	! BUNDLE
	ret.f	0
	nop	0
	nop	0


0000000000002630 <test_i64_xori>:
    2630: 00 00 00 c1 40 90 03 03 02 01 0b 00 00 00 08 04      	! BUNDLE
	alloc	2
	xori	%r1, %r1, 12345
	ret.f	0


0000000000002640 <test_i64_xori_ext>:
    2640: 01 00 00 c1 40 50 d1 bc 03 01 8b 0e 00 00 00 00      	! BUNDLE
	alloc	2
	xori.l	%r1, %r1, 123456789

    2650: 00 00 00 80 40 00 00 00 00 00 01 00 00 00 00 04      	! BUNDLE
	ret.f	0
	nop	0
	nop	0


0000000000002660 <test_i128_xori>:
    2660: 00 00 00 c1 40 90 03 03 02 01 0b 00 00 00 08 04      	! BUNDLE
	alloc	2
	xori	%r1, %r1, 12345
	ret.f	0


0000000000002670 <test_i128_xori_ext>:
    2670: 01 00 00 c1 40 50 d1 bc 03 01 8b 0e 00 00 00 00      	! BUNDLE
	alloc	2
	xori.l	%r1, %r1, 123456789

    2680: 00 00 00 80 40 00 00 00 00 00 01 00 00 00 00 04      	! BUNDLE
	ret.f	0
	nop	0
	nop	0


0000000000002690 <test_i1_and>:
    2690: 00 00 80 c1 40 80 01 08 02 01 00 00 00 00 08 04      	! BUNDLE
	alloc	3
	and	%r1, %r1, %r2
	ret.f	0


00000000000026a0 <test_i1_or>:
    26a0: 00 00 80 c1 40 90 01 08 02 01 00 00 00 00 08 04      	! BUNDLE
	alloc	3
	or	%r1, %r1, %r2
	ret.f	0


00000000000026b0 <test_i1_xor>:
    26b0: 00 00 80 c1 40 a0 01 08 02 01 00 00 00 00 08 04      	! BUNDLE
	alloc	3
	xor	%r1, %r1, %r2
	ret.f	0


00000000000026c0 <test_i1_not>:
    26c0: 00 00 00 c1 40 10 00 00 02 01 0b 00 00 00 08 04      	! BUNDLE
	alloc	2
	xori	%r1, %r1, 1
	ret.f	0


00000000000026d0 <test_i1_andn>:
    26d0: 00 00 80 c1 40 10 00 00 02 01 0b 06 10 10 04 00      	! BUNDLE
	alloc	3
	xori	%r1, %r1, 1
	and	%r1, %r2, %r1

    26e0: 00 00 00 80 40 00 00 00 00 00 01 00 00 00 00 04      	! BUNDLE
	ret.f	0
	nop	0
	nop	0


00000000000026f0 <test_i1_orn>:
    26f0: 00 00 80 c1 40 10 00 00 02 01 4b 06 10 10 04 00      	! BUNDLE
	alloc	3
	xori	%r1, %r1, 1
	or	%r1, %r2, %r1

    2700: 00 00 00 80 40 00 00 00 00 00 01 00 00 00 00 04      	! BUNDLE
	ret.f	0
	nop	0
	nop	0


0000000000002710 <test_i1_nand>:
    2710: 00 00 80 c1 40 80 01 08 02 01 40 00 00 08 04 2c      	! BUNDLE
	alloc	3
	and	%r1, %r1, %r2
	xori	%r1, %r1, 1

    2720: 00 00 00 80 40 00 00 00 00 00 01 00 00 00 00 04      	! BUNDLE
	ret.f	0
	nop	0
	nop	0


0000000000002730 <test_i1_to_i32>:
    2730: 00 00 00 c1 40 00 00 00 00 02 01 00 00 00 00 04      	! BUNDLE
	alloc	2
	ret.f	0
	nop	0


0000000000002740 <test_i1_to_i64>:
    2740: 00 00 00 c1 40 00 00 00 00 02 01 00 00 00 00 04      	! BUNDLE
	alloc	2
	ret.f	0
	nop	0


0000000000002750 <test_i1_inv>:
    2750: 00 00 00 c1 40 10 00 00 00 01 08 00 00 00 08 04      	! BUNDLE
	alloc	2
	ldi	%r1, 1
	ret.f	0


0000000000002760 <test_imm_to_i1>:
    2760: 00 00 00 c1 40 10 00 00 00 01 08 00 00 00 08 04      	! BUNDLE
	alloc	2
	ldi	%r1, 1
	ret.f	0


0000000000002770 <test_write_i1>:
    2770: 00 00 00 c1 40 10 00 00 00 01 08 00 00 00 04 c4      	! BUNDLE
	alloc	2
	ldi	%r1, 1
	st.b.r	%r1, 0

		0000000000002770:  R_POSTRISC_C_PCREL_FWD	test_bool_true
    2780: 00 00 00 c0 5f 0c 00 00 00 01 31 00 00 00 fc c5      	! BUNDLE
	st.b.r	%gz, 0
	st.b.r	%r1, 0
	st.b.r	%gz, 0

		0000000000002780:  R_POSTRISC_A_PCREL_FWD	test_bool_false
		0000000000002780:  R_POSTRISC_B_PCREL_FWD	test_i8_true
		0000000000002780:  R_POSTRISC_C_PCREL_FWD	test_i8_false
    2790: 00 00 00 40 a0 0c 00 00 00 ff 32 00 00 00 04 d0      	! BUNDLE
	st.h.r	%r1, 0
	st.h.r	%gz, 0
	st.w.r	%r1, 0

		0000000000002790:  R_POSTRISC_A_PCREL_FWD	test_i16_true
		0000000000002790:  R_POSTRISC_B_PCREL_FWD	test_i16_false
		0000000000002790:  R_POSTRISC_C_PCREL_FWD	test_i32_true
    27a0: 00 00 00 c0 1f 0d 00 00 00 81 35 00 00 00 fc d7      	! BUNDLE
	st.w.r	%gz, 0
	st.d.r	%r1, 0
	st.d.r	%gz, 0

		00000000000027a0:  R_POSTRISC_A_PCREL_FWD	test_i32_false
		00000000000027a0:  R_POSTRISC_B_PCREL_FWD	test_i64_true
		00000000000027a0:  R_POSTRISC_C_PCREL_FWD	test_i64_false
    27b0: 00 00 00 80 40 00 00 00 00 00 01 00 00 00 00 04      	! BUNDLE
	ret.f	0
	nop	0
	nop	0


00000000000027c0 <test_branch_i64_eqi>:
    27c0: 00 00 00 c2 40 70 17 c0 42 81 00 00 00 00 0c dc      	! BUNDLE
	alloc	4
	nuli.ne.d	%r1, 534, 2, 0
	ca.rf	%r3, 0

		00000000000027c0:  R_POSTRISC_C_PCREL_FWD	.Lstr.98
    27d0: 00 00 00 80 80 04 00 00 00 02 01 00 00 00 00 04      	! BUNDLE
	call.r	%r2, 0
	ret.f	0
	nop	0

		00000000000027d0:  R_POSTRISC_A_JUMP	puts

00000000000027e0 <test_branch_i64_nei>:
    27e0: 00 00 00 c2 40 60 17 c0 42 81 00 00 00 00 0c dc      	! BUNDLE
	alloc	4
	nuli.eq.d	%r1, 534, 2, 0
	ca.rf	%r3, 0

		00000000000027e0:  R_POSTRISC_C_PCREL_FWD	.Lstr.98
    27f0: 00 00 00 80 80 04 00 00 00 02 01 00 00 00 00 04      	! BUNDLE
	call.r	%r2, 0
	ret.f	0
	nop	0

		00000000000027f0:  R_POSTRISC_A_JUMP	puts

0000000000002800 <test_branch_i64_lti>:
    2800: 00 00 00 c2 40 80 07 c2 42 81 00 00 00 00 0c dc      	! BUNDLE
	alloc	4
	nulsi.lt.d	%r1, 534, 0, 2
	ca.rf	%r3, 0

		0000000000002800:  R_POSTRISC_C_PCREL_FWD	.Lstr.98
    2810: 00 00 00 80 80 04 00 00 00 02 01 00 00 00 00 04      	! BUNDLE
	call.r	%r2, 0
	ret.f	0
	nop	0

		0000000000002810:  R_POSTRISC_A_JUMP	puts

0000000000002820 <test_branch_i64_lei>:
    2820: 00 00 00 c2 40 80 07 e2 42 81 00 00 00 00 0c dc      	! BUNDLE
	alloc	4
	nulsi.lt.d	%r1, 535, 0, 2
	ca.rf	%r3, 0

		0000000000002820:  R_POSTRISC_C_PCREL_FWD	.Lstr.98
    2830: 00 00 00 80 80 04 00 00 00 02 01 00 00 00 00 04      	! BUNDLE
	call.r	%r2, 0
	ret.f	0
	nop	0

		0000000000002830:  R_POSTRISC_A_JUMP	puts

0000000000002840 <test_branch_i64_gti>:
    2840: 00 00 00 c2 40 80 17 e0 42 81 00 00 00 00 0c dc      	! BUNDLE
	alloc	4
	nulsi.lt.d	%r1, 535, 2, 0
	ca.rf	%r3, 0

		0000000000002840:  R_POSTRISC_C_PCREL_FWD	.Lstr.98
    2850: 00 00 00 80 80 04 00 00 00 02 01 00 00 00 00 04      	! BUNDLE
	call.r	%r2, 0
	ret.f	0
	nop	0

		0000000000002850:  R_POSTRISC_A_JUMP	puts

0000000000002860 <test_branch_i64_gei>:
    2860: 00 00 00 c2 40 80 17 c0 42 81 00 00 00 00 0c dc      	! BUNDLE
	alloc	4
	nulsi.lt.d	%r1, 534, 2, 0
	ca.rf	%r3, 0

		0000000000002860:  R_POSTRISC_C_PCREL_FWD	.Lstr.98
    2870: 00 00 00 80 80 04 00 00 00 02 01 00 00 00 00 04      	! BUNDLE
	call.r	%r2, 0
	ret.f	0
	nop	0

		0000000000002870:  R_POSTRISC_A_JUMP	puts

0000000000002880 <test_branch_ext_i64_eqi>:
    2880: 01 00 00 c2 40 70 17 c0 29 81 00 00 60 bc 00 00      	! BUNDLE
	alloc	4
	nuli.ne.d.l	%r1, 12345678, 2, 0

    2890: 00 00 00 c0 c0 0d 00 00 00 02 12 00 00 00 08 04      	! BUNDLE
	ca.rf	%r3, 0
	call.r	%r2, 0
	ret.f	0

		0000000000002890:  R_POSTRISC_A_PCREL_FWD	.Lstr.98
		0000000000002890:  R_POSTRISC_B_JUMP	puts

00000000000028a0 <test_branch_ext_i64_nei>:
    28a0: 01 00 00 c2 40 60 17 c0 29 81 00 00 60 bc 00 00      	! BUNDLE
	alloc	4
	nuli.eq.d.l	%r1, 12345678, 2, 0

    28b0: 00 00 00 c0 c0 0d 00 00 00 02 12 00 00 00 08 04      	! BUNDLE
	ca.rf	%r3, 0
	call.r	%r2, 0
	ret.f	0

		00000000000028b0:  R_POSTRISC_A_PCREL_FWD	.Lstr.98
		00000000000028b0:  R_POSTRISC_B_JUMP	puts

00000000000028c0 <test_branch_ext_i64_lti>:
    28c0: 01 00 00 c2 40 80 07 c2 29 81 00 00 60 bc 00 00      	! BUNDLE
	alloc	4
	nulsi.lt.d.l	%r1, 12345678, 0, 2

    28d0: 00 00 00 c0 c0 0d 00 00 00 02 12 00 00 00 08 04      	! BUNDLE
	ca.rf	%r3, 0
	call.r	%r2, 0
	ret.f	0

		00000000000028d0:  R_POSTRISC_A_PCREL_FWD	.Lstr.98
		00000000000028d0:  R_POSTRISC_B_JUMP	puts

00000000000028e0 <test_branch_ext_i64_lei>:
    28e0: 01 00 00 c2 40 80 07 e2 29 81 00 00 60 bc 00 00      	! BUNDLE
	alloc	4
	nulsi.lt.d.l	%r1, 12345679, 0, 2

    28f0: 00 00 00 c0 c0 0d 00 00 00 02 12 00 00 00 08 04      	! BUNDLE
	ca.rf	%r3, 0
	call.r	%r2, 0
	ret.f	0

		00000000000028f0:  R_POSTRISC_A_PCREL_FWD	.Lstr.98
		00000000000028f0:  R_POSTRISC_B_JUMP	puts

0000000000002900 <test_branch_ext_i64_gti>:
    2900: 01 00 00 c2 40 80 17 e0 29 81 00 00 60 bc 00 00      	! BUNDLE
	alloc	4
	nulsi.lt.d.l	%r1, 12345679, 2, 0

    2910: 00 00 00 c0 c0 0d 00 00 00 02 12 00 00 00 08 04      	! BUNDLE
	ca.rf	%r3, 0
	call.r	%r2, 0
	ret.f	0

		0000000000002910:  R_POSTRISC_A_PCREL_FWD	.Lstr.98
		0000000000002910:  R_POSTRISC_B_JUMP	puts

0000000000002920 <test_branch_ext_i64_gei>:
    2920: 01 00 00 c2 40 80 17 c0 29 81 00 00 60 bc 00 00      	! BUNDLE
	alloc	4
	nulsi.lt.d.l	%r1, 12345678, 2, 0

    2930: 00 00 00 c0 c0 0d 00 00 00 02 12 00 00 00 08 04      	! BUNDLE
	ca.rf	%r3, 0
	call.r	%r2, 0
	ret.f	0

		0000000000002930:  R_POSTRISC_A_PCREL_FWD	.Lstr.98
		0000000000002930:  R_POSTRISC_B_JUMP	puts

0000000000002940 <test_branch_i32_eqi>:
    2940: 00 00 00 c2 40 10 17 c0 42 81 00 00 00 00 0c dc      	! BUNDLE
	alloc	4
	nuli.ne.w	%r1, 534, 2, 0
	ca.rf	%r3, 0

		0000000000002940:  R_POSTRISC_C_PCREL_FWD	.Lstr.98
    2950: 00 00 00 80 80 04 00 00 00 02 01 00 00 00 00 04      	! BUNDLE
	call.r	%r2, 0
	ret.f	0
	nop	0

		0000000000002950:  R_POSTRISC_A_JUMP	puts

0000000000002960 <test_branch_i32_nei>:
    2960: 00 00 00 c2 40 00 17 c0 42 81 00 00 00 00 0c dc      	! BUNDLE
	alloc	4
	nuli.eq.w	%r1, 534, 2, 0
	ca.rf	%r3, 0

		0000000000002960:  R_POSTRISC_C_PCREL_FWD	.Lstr.98
    2970: 00 00 00 80 80 04 00 00 00 02 01 00 00 00 00 04      	! BUNDLE
	call.r	%r2, 0
	ret.f	0
	nop	0

		0000000000002970:  R_POSTRISC_A_JUMP	puts

0000000000002980 <test_branch_i32_lti>:
    2980: 00 00 00 c2 40 20 07 c2 42 81 00 00 00 00 0c dc      	! BUNDLE
	alloc	4
	nulsi.lt.w	%r1, 534, 0, 2
	ca.rf	%r3, 0

		0000000000002980:  R_POSTRISC_C_PCREL_FWD	.Lstr.98
    2990: 00 00 00 80 80 04 00 00 00 02 01 00 00 00 00 04      	! BUNDLE
	call.r	%r2, 0
	ret.f	0
	nop	0

		0000000000002990:  R_POSTRISC_A_JUMP	puts

00000000000029a0 <test_branch_i32_lei>:
    29a0: 00 00 00 c2 40 20 07 e2 42 81 00 00 00 00 0c dc      	! BUNDLE
	alloc	4
	nulsi.lt.w	%r1, 535, 0, 2
	ca.rf	%r3, 0

		00000000000029a0:  R_POSTRISC_C_PCREL_FWD	.Lstr.98
    29b0: 00 00 00 80 80 04 00 00 00 02 01 00 00 00 00 04      	! BUNDLE
	call.r	%r2, 0
	ret.f	0
	nop	0

		00000000000029b0:  R_POSTRISC_A_JUMP	puts

00000000000029c0 <test_branch_i32_gti>:
    29c0: 00 00 00 c2 40 20 17 e0 42 81 00 00 00 00 0c dc      	! BUNDLE
	alloc	4
	nulsi.lt.w	%r1, 535, 2, 0
	ca.rf	%r3, 0

		00000000000029c0:  R_POSTRISC_C_PCREL_FWD	.Lstr.98
    29d0: 00 00 00 80 80 04 00 00 00 02 01 00 00 00 00 04      	! BUNDLE
	call.r	%r2, 0
	ret.f	0
	nop	0

		00000000000029d0:  R_POSTRISC_A_JUMP	puts

00000000000029e0 <test_branch_i32_gei>:
    29e0: 00 00 00 c2 40 20 17 c0 42 81 00 00 00 00 0c dc      	! BUNDLE
	alloc	4
	nulsi.lt.w	%r1, 534, 2, 0
	ca.rf	%r3, 0

		00000000000029e0:  R_POSTRISC_C_PCREL_FWD	.Lstr.98
    29f0: 00 00 00 80 80 04 00 00 00 02 01 00 00 00 00 04      	! BUNDLE
	call.r	%r2, 0
	ret.f	0
	nop	0

		00000000000029f0:  R_POSTRISC_A_JUMP	puts

0000000000002a00 <test_branch_ext_i32_eqi>:
    2a00: 01 00 00 c2 40 10 17 c0 29 81 00 00 60 bc 00 00      	! BUNDLE
	alloc	4
	nuli.ne.w.l	%r1, 12345678, 2, 0

    2a10: 00 00 00 c0 c0 0d 00 00 00 02 12 00 00 00 08 04      	! BUNDLE
	ca.rf	%r3, 0
	call.r	%r2, 0
	ret.f	0

		0000000000002a10:  R_POSTRISC_A_PCREL_FWD	.Lstr.98
		0000000000002a10:  R_POSTRISC_B_JUMP	puts

0000000000002a20 <test_branch_ext_i32_nei>:
    2a20: 01 00 00 c2 40 00 17 c0 29 81 00 00 60 bc 00 00      	! BUNDLE
	alloc	4
	nuli.eq.w.l	%r1, 12345678, 2, 0

    2a30: 00 00 00 c0 c0 0d 00 00 00 02 12 00 00 00 08 04      	! BUNDLE
	ca.rf	%r3, 0
	call.r	%r2, 0
	ret.f	0

		0000000000002a30:  R_POSTRISC_A_PCREL_FWD	.Lstr.98
		0000000000002a30:  R_POSTRISC_B_JUMP	puts

0000000000002a40 <test_branch_ext_i32_lti>:
    2a40: 01 00 00 c2 40 20 07 c2 29 81 00 00 60 bc 00 00      	! BUNDLE
	alloc	4
	nulsi.lt.w.l	%r1, 12345678, 0, 2

    2a50: 00 00 00 c0 c0 0d 00 00 00 02 12 00 00 00 08 04      	! BUNDLE
	ca.rf	%r3, 0
	call.r	%r2, 0
	ret.f	0

		0000000000002a50:  R_POSTRISC_A_PCREL_FWD	.Lstr.98
		0000000000002a50:  R_POSTRISC_B_JUMP	puts

0000000000002a60 <test_branch_ext_i32_lei>:
    2a60: 01 00 00 c2 40 20 07 e2 29 81 00 00 60 bc 00 00      	! BUNDLE
	alloc	4
	nulsi.lt.w.l	%r1, 12345679, 0, 2

    2a70: 00 00 00 c0 c0 0d 00 00 00 02 12 00 00 00 08 04      	! BUNDLE
	ca.rf	%r3, 0
	call.r	%r2, 0
	ret.f	0

		0000000000002a70:  R_POSTRISC_A_PCREL_FWD	.Lstr.98
		0000000000002a70:  R_POSTRISC_B_JUMP	puts

0000000000002a80 <test_branch_ext_i32_gti>:
    2a80: 01 00 00 c2 40 20 17 e0 29 81 00 00 60 bc 00 00      	! BUNDLE
	alloc	4
	nulsi.lt.w.l	%r1, 12345679, 2, 0

    2a90: 00 00 00 c0 c0 0d 00 00 00 02 12 00 00 00 08 04      	! BUNDLE
	ca.rf	%r3, 0
	call.r	%r2, 0
	ret.f	0

		0000000000002a90:  R_POSTRISC_A_PCREL_FWD	.Lstr.98
		0000000000002a90:  R_POSTRISC_B_JUMP	puts

0000000000002aa0 <test_branch_ext_i32_gei>:
    2aa0: 01 00 00 c2 40 20 17 c0 29 81 00 00 60 bc 00 00      	! BUNDLE
	alloc	4
	nulsi.lt.w.l	%r1, 12345678, 2, 0

    2ab0: 00 00 00 c0 c0 0d 00 00 00 02 12 00 00 00 08 04      	! BUNDLE
	ca.rf	%r3, 0
	call.r	%r2, 0
	ret.f	0

		0000000000002ab0:  R_POSTRISC_A_PCREL_FWD	.Lstr.98
		0000000000002ab0:  R_POSTRISC_B_JUMP	puts

0000000000002ac0 <test_bit_1>:
    2ac0: 40 00 80 02 41 00 20 c0 05 81 00 02 00 f0 0b b6      	! BUNDLE
	alloc.sp	5, 16
	nul.bs	%r1, %r2, 4, 0
	st.d	%r2, %sp, 8

    2ad0: 00 00 00 00 c1 0d 00 00 fc 81 2d 00 00 00 0c 48      	! BUNDLE
	ca.rf	%r4, 0
	st.d	%r1, %sp, 0
	call.r	%r3, 0

		0000000000002ad0:  R_POSTRISC_A_PCREL_FWD	.L.str.1
		0000000000002ad0:  R_POSTRISC_C_JUMP	printf
    2ae0: 40 00 00 80 40 00 00 00 00 00 01 00 00 00 00 04      	! BUNDLE
	ret.f	16
	nop	0
	nop	0


0000000000002af0 <test_bit_2>:
    2af0: 40 00 80 02 41 00 20 80 05 81 00 02 00 f0 0b b6      	! BUNDLE
	alloc.sp	5, 16
	nul.bc	%r1, %r2, 4, 0
	st.d	%r2, %sp, 8

    2b00: 00 00 00 00 c1 0d 00 00 fc 81 2d 00 00 00 0c 48      	! BUNDLE
	ca.rf	%r4, 0
	st.d	%r1, %sp, 0
	call.r	%r3, 0

		0000000000002b00:  R_POSTRISC_A_PCREL_FWD	.L.str.2
		0000000000002b00:  R_POSTRISC_C_JUMP	printf
    2b10: 40 00 00 80 40 00 00 00 00 00 01 00 00 00 00 04      	! BUNDLE
	ret.f	16
	nop	0
	nop	0


0000000000002b20 <test_bit_3>:
    2b20: 40 00 80 02 41 00 20 c0 05 81 00 02 00 f0 0b b6      	! BUNDLE
	alloc.sp	5, 16
	nul.bs	%r1, %r2, 4, 0
	st.d	%r2, %sp, 8

    2b30: 00 00 00 00 c1 0d 00 00 fc 81 2d 00 00 00 0c 48      	! BUNDLE
	ca.rf	%r4, 0
	st.d	%r1, %sp, 0
	call.r	%r3, 0

		0000000000002b30:  R_POSTRISC_A_PCREL_FWD	.L.str.3
		0000000000002b30:  R_POSTRISC_C_JUMP	printf
    2b40: 40 00 00 80 40 00 00 00 00 00 01 00 00 00 00 04      	! BUNDLE
	ret.f	16
	nop	0
	nop	0


0000000000002b50 <test_bit_4>:
    2b50: 40 00 80 02 41 00 20 a0 1f 81 00 02 00 f0 0b b6      	! BUNDLE
	alloc.sp	5, 16
	nul.bci	%r1, 15, 4, 0
	st.d	%r2, %sp, 8

    2b60: 00 00 00 00 c1 0d 00 00 fc 81 2d 00 00 00 0c 48      	! BUNDLE
	ca.rf	%r4, 0
	st.d	%r1, %sp, 0
	call.r	%r3, 0

		0000000000002b60:  R_POSTRISC_A_PCREL_FWD	.L.str.4
		0000000000002b60:  R_POSTRISC_C_JUMP	printf
    2b70: 40 00 00 80 40 00 00 00 00 00 01 00 00 00 00 04      	! BUNDLE
	ret.f	16
	nop	0
	nop	0


0000000000002b80 <test_bit_5>:
    2b80: 40 00 80 02 41 00 20 e0 1d 81 00 02 00 f0 0b b6      	! BUNDLE
	alloc.sp	5, 16
	nul.bsi	%r1, 14, 4, 0
	st.d	%r2, %sp, 8

    2b90: 00 00 00 00 c1 0d 00 00 fc 81 2d 00 00 00 0c 48      	! BUNDLE
	ca.rf	%r4, 0
	st.d	%r1, %sp, 0
	call.r	%r3, 0

		0000000000002b90:  R_POSTRISC_A_PCREL_FWD	.L.str.5
		0000000000002b90:  R_POSTRISC_C_JUMP	printf
    2ba0: 40 00 00 80 40 00 00 00 00 00 01 00 00 00 00 04      	! BUNDLE
	ret.f	16
	nop	0
	nop	0


0000000000002bb0 <test_bit_i32_1>:
    2bb0: 40 00 80 02 41 00 20 c0 05 81 00 01 00 f0 0b b0      	! BUNDLE
	alloc.sp	5, 16
	nul.bs	%r1, %r2, 4, 0
	st.w	%r2, %sp, 4

    2bc0: 00 00 00 00 c1 0d 00 00 fc 01 2c 00 00 00 0c 48      	! BUNDLE
	ca.rf	%r4, 0
	st.w	%r1, %sp, 0
	call.r	%r3, 0

		0000000000002bc0:  R_POSTRISC_A_PCREL_FWD	.L.str.6
		0000000000002bc0:  R_POSTRISC_C_JUMP	printf
    2bd0: 40 00 00 80 40 00 00 00 00 00 01 00 00 00 00 04      	! BUNDLE
	ret.f	16
	nop	0
	nop	0


0000000000002be0 <test_bit_i32_2>:
    2be0: 40 00 80 02 41 00 20 80 05 81 00 01 00 f0 0b b0      	! BUNDLE
	alloc.sp	5, 16
	nul.bc	%r1, %r2, 4, 0
	st.w	%r2, %sp, 4

    2bf0: 00 00 00 00 c1 0d 00 00 fc 01 2c 00 00 00 0c 48      	! BUNDLE
	ca.rf	%r4, 0
	st.w	%r1, %sp, 0
	call.r	%r3, 0

		0000000000002bf0:  R_POSTRISC_A_PCREL_FWD	.L.str.7
		0000000000002bf0:  R_POSTRISC_C_JUMP	printf
    2c00: 40 00 00 80 40 00 00 00 00 00 01 00 00 00 00 04      	! BUNDLE
	ret.f	16
	nop	0
	nop	0


0000000000002c10 <test_bit_i32_3>:
    2c10: 40 00 80 02 41 00 20 c0 05 81 00 01 00 f0 0b b0      	! BUNDLE
	alloc.sp	5, 16
	nul.bs	%r1, %r2, 4, 0
	st.w	%r2, %sp, 4

    2c20: 00 00 00 00 c1 0d 00 00 fc 01 2c 00 00 00 0c 48      	! BUNDLE
	ca.rf	%r4, 0
	st.w	%r1, %sp, 0
	call.r	%r3, 0

		0000000000002c20:  R_POSTRISC_A_PCREL_FWD	.L.str.8
		0000000000002c20:  R_POSTRISC_C_JUMP	printf
    2c30: 40 00 00 80 40 00 00 00 00 00 01 00 00 00 00 04      	! BUNDLE
	ret.f	16
	nop	0
	nop	0


0000000000002c40 <test_bit_i32_4>:
    2c40: 40 00 80 02 41 00 20 a0 1f 81 00 01 00 f0 0b b0      	! BUNDLE
	alloc.sp	5, 16
	nul.bci	%r1, 15, 4, 0
	st.w	%r2, %sp, 4

    2c50: 00 00 00 00 c1 0d 00 00 fc 01 2c 00 00 00 0c 48      	! BUNDLE
	ca.rf	%r4, 0
	st.w	%r1, %sp, 0
	call.r	%r3, 0

		0000000000002c50:  R_POSTRISC_A_PCREL_FWD	.L.str.9
		0000000000002c50:  R_POSTRISC_C_JUMP	printf
    2c60: 40 00 00 80 40 00 00 00 00 00 01 00 00 00 00 04      	! BUNDLE
	ret.f	16
	nop	0
	nop	0


0000000000002c70 <test_bit_i32_5>:
    2c70: 40 00 80 02 41 00 20 e0 1d 81 00 01 00 f0 0b b0      	! BUNDLE
	alloc.sp	5, 16
	nul.bsi	%r1, 14, 4, 0
	st.w	%r2, %sp, 4

    2c80: 00 00 00 00 c1 0d 00 00 fc 01 2c 00 00 00 0c 48      	! BUNDLE
	ca.rf	%r4, 0
	st.w	%r1, %sp, 0
	call.r	%r3, 0

		0000000000002c80:  R_POSTRISC_A_PCREL_FWD	.L.str.10
		0000000000002c80:  R_POSTRISC_C_JUMP	printf
    2c90: 40 00 00 80 40 00 00 00 00 00 01 00 00 00 00 04      	! BUNDLE
	ret.f	16
	nop	0
	nop	0


0000000000002ca0 <test_ball>:
    2ca0: 40 00 80 02 41 10 00 00 02 02 00 9f 00 e8 07 02      	! BUNDLE
	alloc.sp	5, 16
	mov	%r2, %r1
	nulm.all	%r1, 2000, 4, 0

    2cb0: 40 1f 00 41 00 03 00 00 00 04 37 00 00 f0 07 b6      	! BUNDLE
	addi	%r1, %r2, 2000
	ca.rf	%r4, 0
	st.d	%r1, %sp, 0

		0000000000002cb0:  R_POSTRISC_B_PCREL_FWD	.L.str.11
    2cc0: 00 00 00 c0 80 d4 27 00 e0 82 00 e2 04 08 04 30      	! BUNDLE
	call.r	%r3, 0
	nulm.notall	%r2, 1792, 4, 0
	addi	%r1, %r1, 5000

		0000000000002cc0:  R_POSTRISC_A_JUMP	printf
    2cd0: 00 00 00 00 c1 0d 00 00 fc 81 2d 00 00 00 0c 48      	! BUNDLE
	ca.rf	%r4, 0
	st.d	%r1, %sp, 0
	call.r	%r3, 0

		0000000000002cd0:  R_POSTRISC_A_PCREL_FWD	.L.str.11
		0000000000002cd0:  R_POSTRISC_C_JUMP	printf
    2ce0: f8 09 00 b0 20 80 bb 00 02 01 0c 00 00 00 10 dc      	! BUNDLE
	nulm.none	%r2, 1536, 4, 0
	addi	%r1, %r1, 3000
	ca.rf	%r4, 0

		0000000000002ce0:  R_POSTRISC_C_PCREL_FWD	.L.str.11
    2cf0: 00 00 00 7f 60 0b 00 00 00 03 d2 9f 00 e0 08 02      	! BUNDLE
	st.d	%r1, %sp, 0
	call.r	%r3, 0
	nulm.any	%r2, 448, 4, 0

		0000000000002cf0:  R_POSTRISC_B_JUMP	printf
    2d00: 80 3e 80 40 00 03 00 00 00 04 37 00 00 f0 07 b6      	! BUNDLE
	addi	%r1, %r1, 4000
	ca.rf	%r4, 0
	st.d	%r1, %sp, 0

		0000000000002d00:  R_POSTRISC_B_PCREL_FWD	.L.str.11
    2d10: 00 00 00 c0 80 04 01 00 00 02 01 00 00 00 00 04      	! BUNDLE
	call.r	%r3, 0
	ret.f	16
	nop	0

		0000000000002d10:  R_POSTRISC_A_JUMP	printf

0000000000002d20 <test_builtin_get_special_reg>:
    2d20: 00 00 80 c1 40 50 10 00 00 02 00 00 00 00 04 48      	! BUNDLE
	alloc	3
	mf.spr	%r2, %ip
	call.r	%r1, 0

		0000000000002d20:  R_POSTRISC_C_JUMP	consume_sr64
    2d30: 14 04 01 80 00 00 00 00 00 01 52 41 20 00 08 00      	! BUNDLE
	mf.spr	%r2, %eip
	call.r	%r1, 0
	mf.spr	%r2, %fpcr

		0000000000002d30:  R_POSTRISC_B_JUMP	consume_sr64
    2d40: 00 00 00 40 80 54 10 0c 00 02 00 00 00 00 04 48      	! BUNDLE
	call.r	%r1, 0
	mf.spr	%r2, %eca
	call.r	%r1, 0

		0000000000002d40:  R_POSTRISC_A_JUMP	consume_sr64
		0000000000002d40:  R_POSTRISC_C_JUMP	consume_sr64
    2d50: 14 04 08 80 00 00 00 00 00 01 52 41 90 00 08 00      	! BUNDLE
	mf.spr	%r2, %rsc
	call.r	%r1, 0
	mf.spr	%r2, %rsp

		0000000000002d50:  R_POSTRISC_B_JUMP	consume_sr64
    2d60: 00 00 00 40 80 54 10 28 00 02 00 00 00 00 04 48      	! BUNDLE
	call.r	%r1, 0
	mf.spr	%r2, %bsp
	call.r	%r1, 0

		0000000000002d60:  R_POSTRISC_A_JUMP	consume_sr64
		0000000000002d60:  R_POSTRISC_C_JUMP	consume_sr64
    2d70: 14 04 11 80 00 00 00 00 00 01 52 41 20 01 08 00      	! BUNDLE
	mf.spr	%r2, %reip
	call.r	%r1, 0
	mf.spr	%r2, %kip

		0000000000002d70:  R_POSTRISC_B_JUMP	consume_sr64
    2d80: 00 00 00 40 80 54 10 4c 00 02 00 00 00 00 04 48      	! BUNDLE
	call.r	%r1, 0
	mf.spr	%r2, %ksp
	call.r	%r1, 0

		0000000000002d80:  R_POSTRISC_A_JUMP	consume_sr64
		0000000000002d80:  R_POSTRISC_C_JUMP	consume_sr64
    2d90: 14 04 14 80 00 00 00 00 00 01 52 41 50 01 08 00      	! BUNDLE
	mf.spr	%r2, %krsp
	call.r	%r1, 0
	mf.spr	%r2, %peb

		0000000000002d90:  R_POSTRISC_B_JUMP	consume_sr64
    2da0: 00 00 00 40 80 54 10 58 00 02 00 00 00 00 04 48      	! BUNDLE
	call.r	%r1, 0
	mf.spr	%r2, %teb
	call.r	%r1, 0

		0000000000002da0:  R_POSTRISC_A_JUMP	consume_sr64
		0000000000002da0:  R_POSTRISC_C_JUMP	consume_sr64
    2db0: 14 04 17 80 00 00 00 00 00 01 52 41 80 01 08 00      	! BUNDLE
	mf.spr	%r2, %itc
	call.r	%r1, 0
	mf.spr	%r2, %itm

		0000000000002db0:  R_POSTRISC_B_JUMP	consume_sr64
    2dc0: 00 00 00 40 80 54 10 64 00 02 00 00 00 00 04 48      	! BUNDLE
	call.r	%r1, 0
	mf.spr	%r2, %pta
	call.r	%r1, 0

		0000000000002dc0:  R_POSTRISC_A_JUMP	consume_sr64
		0000000000002dc0:  R_POSTRISC_C_JUMP	consume_sr64
    2dd0: 14 04 1a 80 00 00 00 00 00 01 52 41 80 02 08 00      	! BUNDLE
	mf.spr	%r2, %iva
	call.r	%r1, 0
	mf.spr	%r2, %iip

		0000000000002dd0:  R_POSTRISC_B_JUMP	consume_sr64
    2de0: 00 00 00 40 80 54 10 a4 00 02 00 00 00 00 04 48      	! BUNDLE
	call.r	%r1, 0
	mf.spr	%r2, %iipa
	call.r	%r1, 0

		0000000000002de0:  R_POSTRISC_A_JUMP	consume_sr64
		0000000000002de0:  R_POSTRISC_C_JUMP	consume_sr64
    2df0: 14 04 2b 80 00 00 00 00 00 01 52 41 c0 02 08 00      	! BUNDLE
	mf.spr	%r2, %cause
	call.r	%r1, 0
	mf.spr	%r2, %ifa

		0000000000002df0:  R_POSTRISC_B_JUMP	consume_sr64
    2e00: 00 00 00 40 80 54 10 00 01 02 00 00 00 00 04 48      	! BUNDLE
	call.r	%r1, 0
	mf.spr	%r2, %irr0
	call.r	%r1, 0

		0000000000002e00:  R_POSTRISC_A_JUMP	consume_sr64
		0000000000002e00:  R_POSTRISC_C_JUMP	consume_sr64
    2e10: 14 04 41 80 00 00 00 00 00 01 52 41 20 04 08 00      	! BUNDLE
	mf.spr	%r2, %irr1
	call.r	%r1, 0
	mf.spr	%r2, %irr2

		0000000000002e10:  R_POSTRISC_B_JUMP	consume_sr64
    2e20: 00 00 00 40 80 54 10 0c 01 02 00 00 00 00 04 48      	! BUNDLE
	call.r	%r1, 0
	mf.spr	%r2, %irr3
	call.r	%r1, 0

		0000000000002e20:  R_POSTRISC_A_JUMP	consume_sr64
		0000000000002e20:  R_POSTRISC_C_JUMP	consume_sr64
    2e30: 14 04 48 80 00 00 00 00 00 01 52 41 90 04 08 00      	! BUNDLE
	mf.spr	%r2, %isr0
	call.r	%r1, 0
	mf.spr	%r2, %isr1

		0000000000002e30:  R_POSTRISC_B_JUMP	consume_sr64
    2e40: 00 00 00 40 80 54 10 28 01 02 00 00 00 00 04 48      	! BUNDLE
	call.r	%r1, 0
	mf.spr	%r2, %isr2
	call.r	%r1, 0

		0000000000002e40:  R_POSTRISC_A_JUMP	consume_sr64
		0000000000002e40:  R_POSTRISC_C_JUMP	consume_sr64
    2e50: 14 04 4b 80 00 00 00 00 00 01 52 41 00 05 08 00      	! BUNDLE
	mf.spr	%r2, %isr3
	call.r	%r1, 0
	mf.spr	%r2, %iv

		0000000000002e50:  R_POSTRISC_B_JUMP	consume_sr64
    2e60: 00 00 00 40 80 54 10 44 01 02 00 00 00 00 04 48      	! BUNDLE
	call.r	%r1, 0
	mf.spr	%r2, %lid
	call.r	%r1, 0

		0000000000002e60:  R_POSTRISC_A_JUMP	consume_sr64
		0000000000002e60:  R_POSTRISC_C_JUMP	consume_sr64
    2e70: 14 04 52 80 00 00 00 00 00 01 52 41 30 05 08 00      	! BUNDLE
	mf.spr	%r2, %tpr
	call.r	%r1, 0
	mf.spr	%r2, %itcv

		0000000000002e70:  R_POSTRISC_B_JUMP	consume_sr64
    2e80: 00 00 00 40 80 54 10 50 01 02 00 00 00 00 04 48      	! BUNDLE
	call.r	%r1, 0
	mf.spr	%r2, %tsv
	call.r	%r1, 0

		0000000000002e80:  R_POSTRISC_A_JUMP	consume_sr64
		0000000000002e80:  R_POSTRISC_C_JUMP	consume_sr64
    2e90: 14 04 55 80 00 00 00 00 00 01 52 41 60 05 08 00      	! BUNDLE
	mf.spr	%r2, %pmv
	call.r	%r1, 0
	mf.spr	%r2, %cmcv

		0000000000002e90:  R_POSTRISC_B_JUMP	consume_sr64
    2ea0: 00 00 00 40 80 54 10 b4 00 02 00 00 00 00 04 48      	! BUNDLE
	call.r	%r1, 0
	mf.spr	%r2, %iib
	call.r	%r1, 0

		0000000000002ea0:  R_POSTRISC_A_JUMP	consume_sr64
		0000000000002ea0:  R_POSTRISC_C_JUMP	consume_sr128
    2eb0: 14 04 10 80 00 00 00 00 00 01 52 41 a0 02 08 00      	! BUNDLE
	mf.spr	%r2, %psr
	call.r	%r1, 0
	mf.spr	%r2, %ipsr

		0000000000002eb0:  R_POSTRISC_B_JUMP	consume_sr64
    2ec0: 00 00 00 40 80 04 00 00 00 02 01 00 00 00 00 04      	! BUNDLE
	call.r	%r1, 0
	ret.f	0
	nop	0

		0000000000002ec0:  R_POSTRISC_A_JUMP	consume_sr64

0000000000002ed0 <test_builtin_set_special_reg>:
    2ed0: 00 00 80 c1 40 60 10 00 00 01 80 41 10 00 04 00      	! BUNDLE
	alloc	3
	mt.spr	%r1, %ip
	mt.spr	%r1, %eip

    2ee0: 18 04 02 40 00 60 10 0c 00 01 80 41 80 00 04 00      	! BUNDLE
	mt.spr	%r1, %fpcr
	mt.spr	%r1, %eca
	mt.spr	%r1, %rsc

    2ef0: 18 04 09 40 00 60 10 28 00 01 80 41 10 01 04 00      	! BUNDLE
	mt.spr	%r1, %rsp
	mt.spr	%r1, %bsp
	mt.spr	%r1, %reip

    2f00: 18 04 12 40 00 60 10 4c 00 01 80 41 40 01 04 00      	! BUNDLE
	mt.spr	%r1, %kip
	mt.spr	%r1, %ksp
	mt.spr	%r1, %krsp

    2f10: 18 04 15 40 00 60 10 58 00 01 80 41 70 01 04 00      	! BUNDLE
	mt.spr	%r1, %peb
	mt.spr	%r1, %teb
	mt.spr	%r1, %itc

    2f20: 18 04 18 40 00 60 10 64 00 01 80 41 a0 01 04 00      	! BUNDLE
	mt.spr	%r1, %itm
	mt.spr	%r1, %pta
	mt.spr	%r1, %iva

    2f30: 18 04 28 40 00 60 10 a4 00 01 80 41 b0 02 04 00      	! BUNDLE
	mt.spr	%r1, %iip
	mt.spr	%r1, %iipa
	mt.spr	%r1, %cause

    2f40: 18 04 2c 40 00 60 10 00 01 01 80 41 10 04 04 00      	! BUNDLE
	mt.spr	%r1, %ifa
	mt.spr	%r1, %irr0
	mt.spr	%r1, %irr1

    2f50: 18 04 42 40 00 60 10 0c 01 01 80 41 80 04 04 00      	! BUNDLE
	mt.spr	%r1, %irr2
	mt.spr	%r1, %irr3
	mt.spr	%r1, %isr0

    2f60: 18 04 49 40 00 60 10 28 01 01 80 41 b0 04 04 00      	! BUNDLE
	mt.spr	%r1, %isr1
	mt.spr	%r1, %isr2
	mt.spr	%r1, %isr3

    2f70: 18 04 50 40 00 60 10 44 01 01 80 41 20 05 04 00      	! BUNDLE
	mt.spr	%r1, %iv
	mt.spr	%r1, %lid
	mt.spr	%r1, %tpr

    2f80: 18 04 53 40 00 60 10 50 01 01 80 41 50 05 04 00      	! BUNDLE
	mt.spr	%r1, %itcv
	mt.spr	%r1, %tsv
	mt.spr	%r1, %pmv

    2f90: 18 04 56 40 00 60 10 40 00 01 80 41 d0 02 08 00      	! BUNDLE
	mt.spr	%r1, %cmcv
	mt.spr	%r1, %psr
	mt.spr	%r2, %iib

    2fa0: 18 04 2a 40 00 00 00 00 00 02 01 00 00 00 00 04      	! BUNDLE
	mt.spr	%r1, %ipsr
	ret.f	0
	nop	0


0000000000002fb0 <test_i128_load_store>:
    2fb0: 00 00 80 c1 40 00 01 00 02 02 2e 00 00 08 08 ba      	! BUNDLE
	alloc	3
	ld.q	%r2, %r1, 16
	st.q	%r2, %r1, 0

    2fc0: c0 00 80 40 80 0b 00 00 00 02 01 00 00 00 00 04      	! BUNDLE
	ld.q	%r1, %r1, 48
	ret.f	0
	nop	0


0000000000002fd0 <test_builtin_va>:
    2fd0: 40 00 80 03 41 00 01 00 fc 02 0c 01 00 10 08 2a      	! BUNDLE
	alloc.sp	7, 16
	addi	%r2, %sp, 16
	ori	%r2, %r2, 4

    2fe0: 20 00 00 bf 60 0b 01 00 fc 02 ab 47 10 30 14 02      	! BUNDLE
	st.d	%r2, %sp, 8
	ldz.w	%r2, %sp, 16
	mov2	%r5, %r6, %r1, %r2

    2ff0: 00 00 00 00 81 84 00 00 fc 81 ec 67 00 08 04 02      	! BUNDLE
	call.r	%r4, 0
	ldz.d	%r1, %sp, 8
	algnup	%r1, %r1, 0, 3

		0000000000002ff0:  R_POSTRISC_A_JUMP	test_builtin_va_consume_i32
    3000: 20 00 80 c0 00 83 00 00 fc 83 2d 00 00 08 18 b2      	! BUNDLE
	addi	%r3, %r1, 8
	st.d	%r3, %sp, 8
	ldz.d	%r6, %r1, 0

    3010: 00 00 00 40 81 84 00 00 fc 81 ec 87 00 08 04 02      	! BUNDLE
	call.r	%r5, 0
	ldz.d	%r1, %sp, 8
	algnup	%r1, %r1, 0, 4

		0000000000003010:  R_POSTRISC_A_JUMP	test_builtin_va_consume_f64
    3020: 40 00 80 c0 00 83 00 00 fc 83 2d 00 00 08 18 b8      	! BUNDLE
	addi	%r3, %r1, 16
	st.d	%r3, %sp, 8
	ld.q	%r6, %r1, 0

    3030: 00 00 00 40 81 14 00 00 04 01 00 04 00 00 08 04      	! BUNDLE
	call.r	%r5, 0
	mov	%r1, %r2
	ret.f	16

		0000000000003030:  R_POSTRISC_A_JUMP	test_builtin_va_consume_f128

0000000000003040 <test_test_builtin_va>:
    3040: 40 04 00 03 41 00 10 00 fc 83 2e 3c 00 f0 07 b0      	! BUNDLE
	alloc.sp	6, 272
	st.q	%r3, %sp, 256
	st.w	%r1, %sp, 240

    3050: a0 03 00 bf 60 0b 0e 00 fc 01 2c 34 00 f0 0f ba      	! BUNDLE
	st.d	%r2, %sp, 232
	st.w	%r1, %sp, 224
	st.q	%r3, %sp, 208

    3060: 20 03 00 bf 60 0b 0c 00 fc 01 2c 2c 00 f0 0f ba      	! BUNDLE
	st.d	%r2, %sp, 200
	st.w	%r1, %sp, 192
	st.q	%r3, %sp, 176

    3070: a0 02 00 bf 60 0b 0a 00 fc 01 2c 24 00 f0 0f ba      	! BUNDLE
	st.d	%r2, %sp, 168
	st.w	%r1, %sp, 160
	st.q	%r3, %sp, 144

    3080: 20 02 00 bf 60 0b 08 00 fc 01 2c 1c 00 f0 0f ba      	! BUNDLE
	st.d	%r2, %sp, 136
	st.w	%r1, %sp, 128
	st.q	%r3, %sp, 112

    3090: a0 01 00 bf 60 0b 06 00 fc 01 2c 14 00 f0 0f ba      	! BUNDLE
	st.d	%r2, %sp, 104
	st.w	%r1, %sp, 96
	st.q	%r3, %sp, 80

    30a0: 20 01 00 bf 60 0b 04 00 fc 01 2c 0c 00 f0 0f ba      	! BUNDLE
	st.d	%r2, %sp, 72
	st.w	%r1, %sp, 64
	st.q	%r3, %sp, 48

    30b0: a0 00 00 bf 60 0b 02 00 fc 01 2c 04 00 f0 0f ba      	! BUNDLE
	st.d	%r2, %sp, 40
	st.w	%r1, %sp, 32
	st.q	%r3, %sp, 16

    30c0: 20 00 00 bf 60 0b 00 00 00 05 37 00 00 f0 07 b0      	! BUNDLE
	st.d	%r2, %sp, 8
	ca.rf	%r5, 0
	st.w	%r1, %sp, 0

		00000000000030c0:  R_POSTRISC_B_PCREL_FWD	.L.str.12
    30d0: 00 00 00 00 81 14 00 00 0a 01 00 44 00 00 08 04      	! BUNDLE
	call.r	%r4, 0
	mov	%r1, %r5
	ret.f	272

		00000000000030d0:  R_POSTRISC_A_JUMP	test_builtin_va

00000000000030e0 <test_builtin_vector_i8>:
    30e0: 00 00 80 c1 40 80 50 08 02 02 80 41 11 10 08 00      	! BUNDLE
	alloc	3
	vaddc.b	%r2, %r1, %r2
	vaddo.b	%r2, %r2, %r1

    30f0: 2c 14 01 81 00 a0 50 04 04 02 00 41 11 10 08 00      	! BUNDLE
	vaddss.b	%r2, %r2, %r1
	vaddus.b	%r2, %r2, %r1
	vaddu.b	%r2, %r2, %r1

    3100: 3c 14 01 81 00 e0 50 04 04 02 00 44 11 10 08 00      	! BUNDLE
	vavgu.b	%r2, %r2, %r1
	vavgs.b	%r2, %r2, %r1
	vcmp.eq.b	%r2, %r2, %r1

    3110: 44 14 01 81 00 20 51 04 04 02 00 40 11 10 08 00      	! BUNDLE
	vcmp.lt.b	%r2, %r2, %r1
	vcmp.ltu.b	%r2, %r2, %r1
	vmaxs.b	%r2, %r2, %r1

    3120: 04 14 01 81 00 20 50 04 04 02 c0 40 11 10 08 00      	! BUNDLE
	vmaxu.b	%r2, %r2, %r1
	vmins.b	%r2, %r2, %r1
	vminu.b	%r2, %r2, %r1

    3130: 64 14 01 81 00 a0 51 04 04 02 c0 44 11 10 08 00      	! BUNDLE
	vrol.b	%r2, %r2, %r1
	vror.b	%r2, %r2, %r1
	vsll.b	%r2, %r2, %r1

    3140: 5c 14 01 81 00 50 51 04 04 02 40 42 11 10 08 00      	! BUNDLE
	vsra.b	%r2, %r2, %r1
	vsrl.b	%r2, %r2, %r1
	vsubb.b	%r2, %r2, %r1

    3150: 1c 14 01 81 00 50 50 04 04 02 00 43 11 10 08 00      	! BUNDLE
	vsubo.b	%r2, %r2, %r1
	vsubu.b	%r2, %r2, %r1
	vsubss.b	%r2, %r2, %r1

    3160: 34 14 01 41 00 00 00 00 00 02 01 00 00 00 00 04      	! BUNDLE
	vsubus.b	%r1, %r2, %r1
	ret.f	0
	nop	0


0000000000003170 <test_builtin_vector_i16>:
    3170: 00 00 80 c1 40 80 58 08 02 02 80 61 11 10 08 00      	! BUNDLE
	alloc	3
	vaddc.h	%r2, %r1, %r2
	vaddo.h	%r2, %r2, %r1

    3180: 2c 16 01 81 00 a0 58 04 04 02 00 61 11 10 08 00      	! BUNDLE
	vaddss.h	%r2, %r2, %r1
	vaddus.h	%r2, %r2, %r1
	vaddu.h	%r2, %r2, %r1

    3190: 3c 16 01 81 00 e0 58 04 04 02 00 64 11 10 08 00      	! BUNDLE
	vavgu.h	%r2, %r2, %r1
	vavgs.h	%r2, %r2, %r1
	vcmp.eq.h	%r2, %r2, %r1

    31a0: 44 16 01 81 00 20 59 04 04 02 00 60 11 10 08 00      	! BUNDLE
	vcmp.lt.h	%r2, %r2, %r1
	vcmp.ltu.h	%r2, %r2, %r1
	vmaxs.h	%r2, %r2, %r1

    31b0: 04 16 01 81 00 20 58 04 04 02 c0 60 11 10 08 00      	! BUNDLE
	vmaxu.h	%r2, %r2, %r1
	vmins.h	%r2, %r2, %r1
	vminu.h	%r2, %r2, %r1

    31c0: 64 16 01 81 00 a0 59 04 04 02 c0 64 11 10 08 00      	! BUNDLE
	vrol.h	%r2, %r2, %r1
	vror.h	%r2, %r2, %r1
	vsll.h	%r2, %r2, %r1

    31d0: 5c 16 01 81 00 50 59 04 04 02 40 62 11 10 08 00      	! BUNDLE
	vsra.h	%r2, %r2, %r1
	vsrl.h	%r2, %r2, %r1
	vsubb.h	%r2, %r2, %r1

    31e0: 1c 16 01 81 00 50 58 04 04 02 00 63 11 10 08 00      	! BUNDLE
	vsubo.h	%r2, %r2, %r1
	vsubu.h	%r2, %r2, %r1
	vsubss.h	%r2, %r2, %r1

    31f0: 34 16 01 41 00 00 00 00 00 02 01 00 00 00 00 04      	! BUNDLE
	vsubus.h	%r1, %r2, %r1
	ret.f	0
	nop	0


0000000000003200 <test_builtin_vector_i32>:
    3200: 00 00 80 c1 40 80 60 08 02 02 80 81 11 10 08 00      	! BUNDLE
	alloc	3
	vaddc.w	%r2, %r1, %r2
	vaddo.w	%r2, %r2, %r1

    3210: 2c 18 01 81 00 a0 60 04 04 02 00 81 11 10 08 00      	! BUNDLE
	vaddss.w	%r2, %r2, %r1
	vaddus.w	%r2, %r2, %r1
	vaddu.w	%r2, %r2, %r1

    3220: 3c 18 01 81 00 e0 60 04 04 02 00 84 11 10 08 00      	! BUNDLE
	vavgu.w	%r2, %r2, %r1
	vavgs.w	%r2, %r2, %r1
	vcmp.eq.w	%r2, %r2, %r1

    3230: 44 18 01 81 00 20 61 04 04 02 00 80 11 10 08 00      	! BUNDLE
	vcmp.lt.w	%r2, %r2, %r1
	vcmp.ltu.w	%r2, %r2, %r1
	vmaxs.w	%r2, %r2, %r1

    3240: 04 18 01 81 00 20 60 04 04 02 c0 80 11 10 08 00      	! BUNDLE
	vmaxu.w	%r2, %r2, %r1
	vmins.w	%r2, %r2, %r1
	vminu.w	%r2, %r2, %r1

    3250: 64 18 01 81 00 a0 61 04 04 02 c0 84 11 10 08 00      	! BUNDLE
	vrol.w	%r2, %r2, %r1
	vror.w	%r2, %r2, %r1
	vsll.w	%r2, %r2, %r1

    3260: 5c 18 01 81 00 50 61 04 04 02 40 82 11 10 08 00      	! BUNDLE
	vsra.w	%r2, %r2, %r1
	vsrl.w	%r2, %r2, %r1
	vsubb.w	%r2, %r2, %r1

    3270: 1c 18 01 81 00 50 60 04 04 02 00 83 11 10 08 00      	! BUNDLE
	vsubo.w	%r2, %r2, %r1
	vsubu.w	%r2, %r2, %r1
	vsubss.w	%r2, %r2, %r1

    3280: 34 18 01 41 00 00 00 00 00 02 01 00 00 00 00 04      	! BUNDLE
	vsubus.w	%r1, %r2, %r1
	ret.f	0
	nop	0


0000000000003290 <test_builtin_vector_i64>:
    3290: 00 00 80 c1 40 80 68 08 02 02 80 a1 11 10 08 00      	! BUNDLE
	alloc	3
	vaddc.d	%r2, %r1, %r2
	vaddo.d	%r2, %r2, %r1

    32a0: 2c 1a 01 81 00 a0 68 04 04 02 00 a1 11 10 08 00      	! BUNDLE
	vaddss.d	%r2, %r2, %r1
	vaddus.d	%r2, %r2, %r1
	vaddu.d	%r2, %r2, %r1

    32b0: 3c 1a 01 81 00 e0 68 04 04 02 00 a4 11 10 08 00      	! BUNDLE
	vavgu.d	%r2, %r2, %r1
	vavgs.d	%r2, %r2, %r1
	vcmp.eq.d	%r2, %r2, %r1

    32c0: 44 1a 01 81 00 20 69 04 04 02 00 a0 11 10 08 00      	! BUNDLE
	vcmp.lt.d	%r2, %r2, %r1
	vcmp.ltu.d	%r2, %r2, %r1
	vmaxs.d	%r2, %r2, %r1

    32d0: 04 1a 01 81 00 20 68 04 04 02 c0 a0 11 10 08 00      	! BUNDLE
	vmaxu.d	%r2, %r2, %r1
	vmins.d	%r2, %r2, %r1
	vminu.d	%r2, %r2, %r1

    32e0: 64 1a 01 81 00 a0 69 04 04 02 c0 a4 11 10 08 00      	! BUNDLE
	vrol.d	%r2, %r2, %r1
	vror.d	%r2, %r2, %r1
	vsll.d	%r2, %r2, %r1

    32f0: 5c 1a 01 81 00 50 69 04 04 02 40 a2 11 10 08 00      	! BUNDLE
	vsra.d	%r2, %r2, %r1
	vsrl.d	%r2, %r2, %r1
	vsubb.d	%r2, %r2, %r1

    3300: 1c 1a 01 81 00 50 68 04 04 02 00 a3 11 10 08 00      	! BUNDLE
	vsubo.d	%r2, %r2, %r1
	vsubu.d	%r2, %r2, %r1
	vsubss.d	%r2, %r2, %r1

    3310: 34 1a 01 41 00 00 00 00 00 02 01 00 00 00 00 04      	! BUNDLE
	vsubus.d	%r1, %r2, %r1
	ret.f	0
	nop	0


0000000000003320 <test_builtin_vector_mixed>:
    3320: 00 00 80 c4 40 b0 51 08 02 01 00 47 21 08 04 00      	! BUNDLE
	alloc	9
	vmrg.h.b	%r1, %r1, %r2
	vmrg.l.b	%r1, %r1, %r2

    3330: 6c 16 84 40 00 c0 59 10 02 01 c0 86 61 08 04 00      	! BUNDLE
	vmrg.h.h	%r1, %r1, %r4
	vmrg.l.h	%r1, %r1, %r4
	vmrg.h.w	%r1, %r1, %r6

    3340: 70 18 86 40 00 b0 69 20 02 01 00 a7 81 08 04 00      	! BUNDLE
	vmrg.l.w	%r1, %r1, %r6
	vmrg.h.d	%r1, %r1, %r8
	vmrg.l.d	%r1, %r1, %r8

    3350: 88 16 87 40 00 20 62 14 02 01 40 a8 71 08 04 00      	! BUNDLE
	vpksss.h	%r1, %r1, %r7
	vpksss.w	%r1, %r1, %r5
	vpksss.d	%r1, %r1, %r7

    3360: 8c 16 83 40 00 30 62 18 02 01 80 a8 81 08 04 00      	! BUNDLE
	vpksus.h	%r1, %r1, %r3
	vpksus.w	%r1, %r1, %r6
	vpksus.d	%r1, %r1, %r8

    3370: 90 16 84 40 00 40 62 18 02 01 00 a9 81 08 04 00      	! BUNDLE
	vpkuum.h	%r1, %r1, %r4
	vpkuum.w	%r1, %r1, %r6
	vpkuum.d	%r1, %r1, %r8

    3380: 94 16 84 40 00 50 62 18 02 01 40 a9 81 08 04 00      	! BUNDLE
	vpkuus.h	%r1, %r1, %r4
	vpkuus.w	%r1, %r1, %r6
	vpkuus.d	%r1, %r1, %r8

    3390: 84 14 80 40 00 10 5a 00 02 01 40 88 01 08 04 00      	! BUNDLE
	vupkhs.b	%r1, %r1
	vupkhs.h	%r1, %r1
	vupkhs.w	%r1, %r1

    33a0: 80 14 80 40 00 00 5a 00 02 01 00 88 01 08 04 00      	! BUNDLE
	vupkls.b	%r1, %r1
	vupkls.h	%r1, %r1
	vupkls.w	%r1, %r1

    33b0: 00 00 00 80 40 00 00 00 00 00 01 00 00 00 00 04      	! BUNDLE
	ret.f	0
	nop	0
	nop	0


00000000000033c0 <test_builtin_popcount>:
    33c0: 00 00 00 c1 40 b0 05 7c 02 01 00 00 00 00 08 04      	! BUNDLE
	alloc	2
	cnt.pop	%r1, %r1, 31
	ret.f	0


00000000000033d0 <test_builtin_popcountl>:
    33d0: 00 00 00 c1 40 b0 05 fc 02 01 00 00 00 00 08 04      	! BUNDLE
	alloc	2
	cnt.pop	%r1, %r1, 63
	ret.f	0


00000000000033e0 <test_builtin_ctz>:
    33e0: 00 00 00 c1 40 d0 05 7c 02 01 00 00 00 00 08 04      	! BUNDLE
	alloc	2
	cnt.tz	%r1, %r1, 31
	ret.f	0


00000000000033f0 <test_builtin_ctzl>:
    33f0: 00 00 00 c1 40 d0 05 fc 02 01 00 00 00 00 08 04      	! BUNDLE
	alloc	2
	cnt.tz	%r1, %r1, 63
	ret.f	0


0000000000003400 <test_builtin_clz>:
    3400: 00 00 00 c1 40 c0 05 7c 02 01 00 00 00 00 08 04      	! BUNDLE
	alloc	2
	cnt.lz	%r1, %r1, 31
	ret.f	0


0000000000003410 <test_builtin_clzl>:
    3410: 00 00 00 c1 40 c0 05 fc 02 01 00 00 00 00 08 04      	! BUNDLE
	alloc	2
	cnt.lz	%r1, %r1, 63
	ret.f	0


0000000000003420 <test_builtin_readcyclecounter>:
    3420: 00 00 00 c1 40 50 10 5c 00 01 00 00 00 00 08 04      	! BUNDLE
	alloc	2
	mf.spr	%r1, %itc
	ret.f	0


0000000000003430 <test_builtin_thread_pointer>:
    3430: 00 00 00 c1 40 10 00 00 f8 01 00 00 00 00 08 04      	! BUNDLE
	alloc	2
	mov	%r1, %tp
	ret.f	0


0000000000003440 <test_builtin_set_thread_pointer>:
    3440: 00 00 00 c1 40 10 00 00 02 7c 00 00 00 00 08 04      	! BUNDLE
	alloc	2
	mov	%tp, %r1
	ret.f	0


0000000000003450 <test_frame_buitin>:
    3450: 00 00 80 01 41 10 00 00 fa 02 00 00 00 f0 f7 31      	! BUNDLE
	alloc.sp	3, 0
	mov	%r2, %fp
	addi	%fp, %sp, 0

    3460: 80 00 7d 40 00 10 00 00 fa 7e 40 00 00 10 f4 01      	! BUNDLE
	add	%r1, %r0, %fp
	mov	%sp, %fp
	mov	%fp, %r2

    3470: 00 00 00 80 40 00 00 00 00 00 01 00 00 00 00 04      	! BUNDLE
	ret.f	0
	nop	0
	nop	0


0000000000003480 <test_builtin_stack_pointer>:
    3480: 00 00 00 c1 40 10 00 00 fc 01 00 00 00 00 08 04      	! BUNDLE
	alloc	2
	mov	%r1, %sp
	ret.f	0


0000000000003490 <test_builtin_bitreverse>:
    3490: 40 00 00 03 41 20 00 04 04 01 80 17 f0 09 0c 00      	! BUNDLE
	alloc.sp	6, 16
	add.ws	%r1, %r2, %r1
	permb	%r3, %r1, 31

    34a0: 00 00 00 40 c1 0d 00 00 fc 03 2c 00 00 00 10 48      	! BUNDLE
	ca.rf	%r5, 0
	st.w	%r3, %sp, 0
	call.r	%r4, 0

		00000000000034a0:  R_POSTRISC_A_PCREL_FWD	.L.str.13
		00000000000034a0:  R_POSTRISC_C_JUMP	printf
    34b0: 10 01 00 41 00 b0 00 00 02 01 8c 17 f0 0b 08 00      	! BUNDLE
	srai.w	%r1, %r2, 0
	addi	%r1, %r1, 11
	permb	%r2, %r1, 63

    34c0: 00 00 00 40 c1 0d 00 00 fc 82 2d 00 00 00 10 48      	! BUNDLE
	ca.rf	%r5, 0
	st.d	%r2, %sp, 0
	call.r	%r4, 0

		00000000000034c0:  R_POSTRISC_A_PCREL_FWD	.L.str.14
		00000000000034c0:  R_POSTRISC_C_JUMP	printf
    34d0: 00 1c 03 41 20 01 01 00 00 02 01 00 00 00 00 04      	! BUNDLE
	ca.xw	%r1, %r2, %r3, 0, 0
	ret.f	16
	nop	0


00000000000034e0 <test_builtin_halt>:
    34e0: 00 00 80 c0 40 00 11 00 00 00 00 00 00 00 08 04      	! BUNDLE
	alloc	1
	halt
	ret.f	0


00000000000034f0 <test_builtin_undef>:
    34f0: 00 00 80 c0 40 00 00 00 00 00 00 00 00 00 08 04      	! BUNDLE
	alloc	1
	undef
	ret.f	0


0000000000003500 <test_builtin_rfi>:
    3500: 00 00 80 c0 40 f0 10 00 00 00 00 00 00 00 08 04      	! BUNDLE
	alloc	1
	rfi
	ret.f	0


0000000000003510 <test_builtin_nop>:
    3510: 00 00 80 c0 40 70 68 2d 01 00 81 00 00 00 00 04      	! BUNDLE
	alloc	1
	nop	1234567
	nop	2

    3520: 56 7c 41 33 40 a0 4b 9b b6 01 c0 1e 00 00 00 04      	! BUNDLE
	nop.l	123456789123456789
	nop	123

    3530: ee 01 00 00 40 00 00 00 00 00 00 00 00 00 08 04      	! BUNDLE
	nop.l	123
	ret.f	0


0000000000003540 <test_builtin_tpa>:
    3540: 00 00 00 c1 40 10 11 00 02 01 00 00 00 00 08 04      	! BUNDLE
	alloc	2
	tpa	%r1, %r1
	ret.f	0


0000000000003550 <test_builtin_random>:
    3550: 00 00 80 c1 40 40 10 00 02 01 00 41 00 f8 0b 00      	! BUNDLE
	alloc	3
	random	%r1, %r1
	random	%r2, %gz

    3560: 80 00 01 41 00 00 00 00 00 02 01 00 00 00 00 04      	! BUNDLE
	add	%r1, %r2, %r1
	ret.f	0
	nop	0


0000000000003570 <test_builtin_cache>:
    3570: 00 00 00 c1 40 00 00 00 02 11 01 fa 00 08 44 04      	! BUNDLE
	alloc	2
	dcb.f	%r1, 0
	dcb.f	%r1, 1000

    3580: 02 28 eb 40 44 c0 1d 00 00 00 00 00 00 08 40 04      	! BUNDLE
	dcb.f.l	%r1, 1000000000
	dcb.t	%r1, 0

    3590: a1 0f 80 00 44 00 a0 ac 03 10 01 77 00 00 00 00      	! BUNDLE
	dcb.t	%r1, 1000
	dcb.t.l	%r1, 1000000000

    35a0: 00 00 80 80 44 80 3e 00 02 12 81 00 00 00 00 04      	! BUNDLE
	dcb.i	%r1, 0
	dcb.i	%r1, 1000
	nop	2

    35b0: 02 28 eb 80 44 c0 1d 00 00 00 00 00 00 08 4c 04      	! BUNDLE
	dcb.i.l	%r1, 1000000000
	icb.i	%r1, 0

    35c0: a1 0f 80 c0 44 00 a0 ac 03 13 01 77 00 00 00 00      	! BUNDLE
	icb.i	%r1, 1000
	icb.i.l	%r1, 1000000000

    35d0: 00 00 00 80 40 00 00 00 00 00 01 00 00 00 00 04      	! BUNDLE
	ret.f	0
	nop	0
	nop	0


00000000000035e0 <test_clmul>:
    35e0: 00 00 00 c2 40 00 12 08 02 03 40 48 30 08 04 00      	! BUNDLE
	alloc	4
	clmul.ll	%r3, %r1, %r2
	clmul.hl	%r1, %r1, %r3

    35f0: 88 04 82 40 00 00 00 00 00 02 01 00 00 00 00 04      	! BUNDLE
	clmul.hh	%r1, %r1, %r2
	ret.f	0
	nop	0


0000000000003600 <test_bool_eq>:
    3600: 00 00 80 c1 40 a0 01 08 02 01 40 00 00 08 04 2c      	! BUNDLE
	alloc	3
	xor	%r1, %r1, %r2
	xori	%r1, %r1, 1

    3610: 00 00 00 80 40 00 00 00 00 00 01 00 00 00 00 04      	! BUNDLE
	ret.f	0
	nop	0
	nop	0


0000000000003620 <test_bool_ne>:
    3620: 00 00 80 c1 40 a0 01 08 02 01 00 00 00 00 08 04      	! BUNDLE
	alloc	3
	xor	%r1, %r1, %r2
	ret.f	0


0000000000003630 <test_bool_lt>:
    3630: 00 00 80 c1 40 10 00 00 02 01 0b 06 10 10 04 00      	! BUNDLE
	alloc	3
	xori	%r1, %r1, 1
	and	%r1, %r2, %r1

    3640: 00 00 00 80 40 00 00 00 00 00 01 00 00 00 00 04      	! BUNDLE
	ret.f	0
	nop	0
	nop	0


0000000000003650 <test_bool_le>:
    3650: 00 00 80 c1 40 10 00 00 02 01 4b 06 10 10 04 00      	! BUNDLE
	alloc	3
	xori	%r1, %r1, 1
	or	%r1, %r2, %r1

    3660: 00 00 00 80 40 00 00 00 00 00 01 00 00 00 00 04      	! BUNDLE
	ret.f	0
	nop	0
	nop	0


0000000000003670 <test_bool_gt>:
    3670: 00 00 80 c1 40 10 00 00 04 02 0b 06 20 08 04 00      	! BUNDLE
	alloc	3
	xori	%r2, %r2, 1
	and	%r1, %r1, %r2

    3680: 00 00 00 80 40 00 00 00 00 00 01 00 00 00 00 04      	! BUNDLE
	ret.f	0
	nop	0
	nop	0


0000000000003690 <test_bool_ge>:
    3690: 00 00 80 c1 40 10 00 00 04 02 4b 06 20 08 04 00      	! BUNDLE
	alloc	3
	xori	%r2, %r2, 1
	or	%r1, %r1, %r2

    36a0: 00 00 00 80 40 00 00 00 00 00 01 00 00 00 00 04      	! BUNDLE
	ret.f	0
	nop	0
	nop	0


00000000000036b0 <test_ptr_eq>:
    36b0: 00 00 80 c1 40 80 00 08 02 01 00 00 00 00 08 04      	! BUNDLE
	alloc	3
	cmp.eq.d	%r1, %r1, %r2
	ret.f	0


00000000000036c0 <test_ptr_ne>:
    36c0: 00 00 80 c1 40 90 00 08 02 01 00 00 00 00 08 04      	! BUNDLE
	alloc	3
	cmp.ne.d	%r1, %r1, %r2
	ret.f	0


00000000000036d0 <test_ptr_lt>:
    36d0: 00 00 80 c1 40 c0 00 08 02 01 00 00 00 00 08 04      	! BUNDLE
	alloc	3
	cmpu.lt.d	%r1, %r1, %r2
	ret.f	0


00000000000036e0 <test_ptr_le>:
    36e0: 00 00 80 c1 40 d0 00 08 02 01 00 00 00 00 08 04      	! BUNDLE
	alloc	3
	cmpu.le.d	%r1, %r1, %r2
	ret.f	0


00000000000036f0 <test_ptr_gt>:
    36f0: 00 00 80 c1 40 c0 00 04 04 01 00 00 00 00 08 04      	! BUNDLE
	alloc	3
	cmpu.lt.d	%r1, %r2, %r1
	ret.f	0


0000000000003700 <test_ptr_ge>:
    3700: 00 00 80 c1 40 d0 00 04 04 01 00 00 00 00 08 04      	! BUNDLE
	alloc	3
	cmpu.le.d	%r1, %r2, %r1
	ret.f	0


0000000000003710 <test_i64_eq>:
    3710: 00 00 80 c1 40 80 00 08 02 01 00 00 00 00 08 04      	! BUNDLE
	alloc	3
	cmp.eq.d	%r1, %r1, %r2
	ret.f	0


0000000000003720 <test_i64_ne>:
    3720: 00 00 80 c1 40 90 00 08 02 01 00 00 00 00 08 04      	! BUNDLE
	alloc	3
	cmp.ne.d	%r1, %r1, %r2
	ret.f	0


0000000000003730 <test_i64_lt>:
    3730: 00 00 80 c1 40 a0 00 08 02 01 00 00 00 00 08 04      	! BUNDLE
	alloc	3
	cmps.lt.d	%r1, %r1, %r2
	ret.f	0


0000000000003740 <test_i64_le>:
    3740: 00 00 80 c1 40 b0 00 08 02 01 00 00 00 00 08 04      	! BUNDLE
	alloc	3
	cmps.le.d	%r1, %r1, %r2
	ret.f	0


0000000000003750 <test_i64_gt>:
    3750: 00 00 80 c1 40 a0 00 04 04 01 00 00 00 00 08 04      	! BUNDLE
	alloc	3
	cmps.lt.d	%r1, %r2, %r1
	ret.f	0


0000000000003760 <test_i64_ge>:
    3760: 00 00 80 c1 40 b0 00 04 04 01 00 00 00 00 08 04      	! BUNDLE
	alloc	3
	cmps.le.d	%r1, %r2, %r1
	ret.f	0


0000000000003770 <test_u64_lt>:
    3770: 00 00 80 c1 40 c0 00 08 02 01 00 00 00 00 08 04      	! BUNDLE
	alloc	3
	cmpu.lt.d	%r1, %r1, %r2
	ret.f	0


0000000000003780 <test_u64_le>:
    3780: 00 00 80 c1 40 d0 00 08 02 01 00 00 00 00 08 04      	! BUNDLE
	alloc	3
	cmpu.le.d	%r1, %r1, %r2
	ret.f	0


0000000000003790 <test_u64_gt>:
    3790: 00 00 80 c1 40 c0 00 04 04 01 00 00 00 00 08 04      	! BUNDLE
	alloc	3
	cmpu.lt.d	%r1, %r2, %r1
	ret.f	0


00000000000037a0 <test_u64_ge>:
    37a0: 00 00 80 c1 40 d0 00 04 04 01 00 00 00 00 08 04      	! BUNDLE
	alloc	3
	cmpu.le.d	%r1, %r2, %r1
	ret.f	0


00000000000037b0 <test_i64_eq_imm>:
    37b0: 00 00 00 c1 40 20 4d 00 02 01 1c 00 00 00 08 04      	! BUNDLE
	alloc	2
	cmpi.eq.d	%r1, %r1, 1234
	ret.f	0


00000000000037c0 <test_i64_ne_imm>:
    37c0: 00 00 00 c1 40 20 4d 00 02 81 1c 00 00 00 08 04      	! BUNDLE
	alloc	2
	cmpi.ne.d	%r1, %r1, 1234
	ret.f	0


00000000000037d0 <test_i64_lt_imm>:
    37d0: 00 00 00 c1 40 20 4d 00 02 01 1d 00 00 00 08 04      	! BUNDLE
	alloc	2
	cmpsi.lt.d	%r1, %r1, 1234
	ret.f	0


00000000000037e0 <test_i64_gt_imm>:
    37e0: 00 00 00 c1 40 20 4d 00 02 01 1e 00 00 00 08 04      	! BUNDLE
	alloc	2
	cmpsi.gt.d	%r1, %r1, 1234
	ret.f	0


00000000000037f0 <test_i64_le_imm>:
    37f0: 00 00 00 c1 40 30 4d 00 02 01 1d 00 00 00 08 04      	! BUNDLE
	alloc	2
	cmpsi.lt.d	%r1, %r1, 1235
	ret.f	0


0000000000003800 <test_i64_ge_imm>:
    3800: 00 00 00 c1 40 10 4d 00 02 01 1e 00 00 00 08 04      	! BUNDLE
	alloc	2
	cmpsi.gt.d	%r1, %r1, 1233
	ret.f	0


0000000000003810 <test_u64_lt_imm>:
    3810: 00 00 00 c1 40 20 4d 00 02 81 1d 00 00 00 08 04      	! BUNDLE
	alloc	2
	cmpui.lt.d	%r1, %r1, 1234
	ret.f	0


0000000000003820 <test_u64_gt_imm>:
    3820: 00 00 00 c1 40 20 4d 00 02 81 1e 00 00 00 08 04      	! BUNDLE
	alloc	2
	cmpui.gt.d	%r1, %r1, 1234
	ret.f	0


0000000000003830 <test_u64_le_imm>:
    3830: 00 00 00 c1 40 30 4d 00 02 81 1d 00 00 00 08 04      	! BUNDLE
	alloc	2
	cmpui.lt.d	%r1, %r1, 1235
	ret.f	0


0000000000003840 <test_u64_ge_imm>:
    3840: 00 00 00 c1 40 10 4d 00 02 81 1e 00 00 00 08 04      	! BUNDLE
	alloc	2
	cmpui.gt.d	%r1, %r1, 1233
	ret.f	0


0000000000003850 <test_i32_eq>:
    3850: 00 00 80 c1 40 00 01 08 02 01 00 00 00 00 08 04      	! BUNDLE
	alloc	3
	cmp.eq.w	%r1, %r1, %r2
	ret.f	0


0000000000003860 <test_i32_ne>:
    3860: 00 00 80 c1 40 10 01 08 02 01 00 00 00 00 08 04      	! BUNDLE
	alloc	3
	cmp.ne.w	%r1, %r1, %r2
	ret.f	0


0000000000003870 <test_i32_lt>:
    3870: 00 00 80 c1 40 20 01 08 02 01 00 00 00 00 08 04      	! BUNDLE
	alloc	3
	cmps.lt.w	%r1, %r1, %r2
	ret.f	0


0000000000003880 <test_i32_le>:
    3880: 00 00 80 c1 40 30 01 08 02 01 00 00 00 00 08 04      	! BUNDLE
	alloc	3
	cmps.le.w	%r1, %r1, %r2
	ret.f	0


0000000000003890 <test_i32_gt>:
    3890: 00 00 80 c1 40 20 01 04 04 01 00 00 00 00 08 04      	! BUNDLE
	alloc	3
	cmps.lt.w	%r1, %r2, %r1
	ret.f	0


00000000000038a0 <test_i32_ge>:
    38a0: 00 00 80 c1 40 30 01 04 04 01 00 00 00 00 08 04      	! BUNDLE
	alloc	3
	cmps.le.w	%r1, %r2, %r1
	ret.f	0


00000000000038b0 <test_u32_lt>:
    38b0: 00 00 80 c1 40 40 01 08 02 01 00 00 00 00 08 04      	! BUNDLE
	alloc	3
	cmpu.lt.w	%r1, %r1, %r2
	ret.f	0


00000000000038c0 <test_u32_le>:
    38c0: 00 00 80 c1 40 50 01 08 02 01 00 00 00 00 08 04      	! BUNDLE
	alloc	3
	cmpu.le.w	%r1, %r1, %r2
	ret.f	0


00000000000038d0 <test_u32_gt>:
    38d0: 00 00 80 c1 40 40 01 04 04 01 00 00 00 00 08 04      	! BUNDLE
	alloc	3
	cmpu.lt.w	%r1, %r2, %r1
	ret.f	0


00000000000038e0 <test_u32_ge>:
    38e0: 00 00 80 c1 40 50 01 04 04 01 00 00 00 00 08 04      	! BUNDLE
	alloc	3
	cmpu.le.w	%r1, %r2, %r1
	ret.f	0


00000000000038f0 <test_i32_eq_imm>:
    38f0: 00 00 00 c1 40 20 4d 00 02 01 20 00 00 00 08 04      	! BUNDLE
	alloc	2
	cmpi.eq.w	%r1, %r1, 1234
	ret.f	0


0000000000003900 <test_i32_ne_imm>:
    3900: 00 00 00 c1 40 20 4d 00 02 81 20 00 00 00 08 04      	! BUNDLE
	alloc	2
	cmpi.ne.w	%r1, %r1, 1234
	ret.f	0


0000000000003910 <test_i32_lt_imm>:
    3910: 00 00 00 c1 40 20 4d 00 02 01 21 00 00 00 08 04      	! BUNDLE
	alloc	2
	cmpsi.lt.w	%r1, %r1, 1234
	ret.f	0


0000000000003920 <test_i32_gt_imm>:
    3920: 00 00 00 c1 40 20 4d 00 02 01 22 00 00 00 08 04      	! BUNDLE
	alloc	2
	cmpsi.gt.w	%r1, %r1, 1234
	ret.f	0


0000000000003930 <test_i32_le_imm>:
    3930: 00 00 00 c1 40 30 4d 00 02 01 21 00 00 00 08 04      	! BUNDLE
	alloc	2
	cmpsi.lt.w	%r1, %r1, 1235
	ret.f	0


0000000000003940 <test_i32_ge_imm>:
    3940: 00 00 00 c1 40 10 4d 00 02 01 22 00 00 00 08 04      	! BUNDLE
	alloc	2
	cmpsi.gt.w	%r1, %r1, 1233
	ret.f	0


0000000000003950 <test_u32_lt_imm>:
    3950: 00 00 00 c1 40 20 4d 00 02 81 21 00 00 00 08 04      	! BUNDLE
	alloc	2
	cmpui.lt.w	%r1, %r1, 1234
	ret.f	0


0000000000003960 <test_u32_gt_imm>:
    3960: 00 00 00 c1 40 20 4d 00 02 81 22 00 00 00 08 04      	! BUNDLE
	alloc	2
	cmpui.gt.w	%r1, %r1, 1234
	ret.f	0


0000000000003970 <test_u32_le_imm>:
    3970: 00 00 00 c1 40 30 4d 00 02 81 21 00 00 00 08 04      	! BUNDLE
	alloc	2
	cmpui.lt.w	%r1, %r1, 1235
	ret.f	0


0000000000003980 <test_u32_ge_imm>:
    3980: 00 00 00 c1 40 10 4d 00 02 81 22 00 00 00 08 04      	! BUNDLE
	alloc	2
	cmpui.gt.w	%r1, %r1, 1233
	ret.f	0


0000000000003990 <test_cpuid>:
    3990: 00 00 00 c2 40 10 90 10 02 02 40 40 00 08 0c 00      	! BUNDLE
	alloc	4
	cpuid	%r2, %r1, 33
	cpuid	%r3, %r1, 0

    39a0: 40 9c 80 40 00 13 10 00 02 01 00 22 20 18 04 02      	! BUNDLE
	addi	%r1, %r1, 10000
	cpuid	%r1, %r1, 0
	add.add	%r1, %r3, %r2, %r1

    39b0: 00 00 00 80 40 00 00 00 00 00 01 00 00 00 00 04      	! BUNDLE
	ret.f	0
	nop	0
	nop	0


00000000000039c0 <test_crc32c>:
    39c0: 00 00 00 c2 40 00 1a 08 02 81 00 00 00 00 08 04      	! BUNDLE
	alloc	4
	crc32c	%r1, %r1, %r2, %r3
	ret.f	0


00000000000039d0 <TestDebugRegisters>:
    39d0: 00 00 80 c1 40 c0 90 00 02 02 c0 42 02 08 08 00      	! BUNDLE
	alloc	3
	mf.mr	%r2, %r1, 1
	mt.mr	%r2, %r1, 1

    39e0: 28 44 80 80 00 90 90 00 02 02 00 42 02 08 08 00      	! BUNDLE
	mf.ibr	%r2, %r1, 2
	mt.ibr	%r2, %r1, 1
	mf.dbr	%r2, %r1, 1

    39f0: 1c 44 80 80 00 00 00 00 00 02 01 00 00 00 00 04      	! BUNDLE
	mt.dbr	%r2, %r1, 2
	ret.f	0
	nop	0


0000000000003a00 <test_fma_f16>:
    3a00: 00 00 00 c2 40 10 1e 08 02 83 c0 78 20 08 0c 02      	! BUNDLE
	alloc	4
	fmadd.sh	%r3, %r1, %r2, %r3
	fnmadd.sh	%r3, %r1, %r2, %r3

    3a10: 88 07 82 80 20 40 16 08 02 81 00 00 00 00 08 04      	! BUNDLE
	fmsub.sh	%r2, %r1, %r2, %r3
	fnmsub.sh	%r1, %r1, %r2, %r2
	ret.f	0


0000000000003a20 <test_fma_f32>:
    3a20: 00 00 00 c2 40 10 1d 08 02 83 c0 74 20 08 0c 02      	! BUNDLE
	alloc	4
	fmadd.ss	%r3, %r1, %r2, %r3
	fnmadd.ss	%r3, %r1, %r2, %r3

    3a30: 48 07 82 80 20 40 15 08 02 81 00 00 00 00 08 04      	! BUNDLE
	fmsub.ss	%r2, %r1, %r2, %r3
	fnmsub.ss	%r1, %r1, %r2, %r2
	ret.f	0


0000000000003a40 <test_fma_f64>:
    3a40: 00 00 00 c2 40 10 1c 08 02 83 c0 70 20 08 0c 02      	! BUNDLE
	alloc	4
	fmadd.sd	%r3, %r1, %r2, %r3
	fnmadd.sd	%r3, %r1, %r2, %r3

    3a50: 08 07 82 80 20 40 14 08 02 81 00 00 00 00 08 04      	! BUNDLE
	fmsub.sd	%r2, %r1, %r2, %r3
	fnmsub.sd	%r1, %r1, %r2, %r2
	ret.f	0


0000000000003a60 <test_fma_f128>:
    3a60: 00 00 00 c2 40 90 1b 08 02 83 c0 6e 20 08 0c 02      	! BUNDLE
	alloc	4
	fmadd.sq	%r3, %r1, %r2, %r3
	fnmadd.sq	%r3, %r1, %r2, %r3

    3a70: e8 06 82 80 20 c0 13 08 02 81 00 00 00 00 08 04      	! BUNDLE
	fmsub.sq	%r2, %r1, %r2, %r3
	fnmsub.sq	%r1, %r1, %r2, %r2
	ret.f	0


0000000000003a80 <test_fma_v8f16>:
    3a80: 00 00 00 c2 40 60 1e 08 02 83 00 7a 20 08 0c 02      	! BUNDLE
	alloc	4
	fmadd.ph	%r3, %r1, %r2, %r3
	fnmadd.ph	%r3, %r1, %r2, %r3

    3a90: 9c 07 82 80 20 90 16 08 02 81 00 00 00 00 08 04      	! BUNDLE
	fmsub.ph	%r2, %r1, %r2, %r3
	fnmsub.ph	%r1, %r1, %r2, %r2
	ret.f	0


0000000000003aa0 <test_fma_v4f32>:
    3aa0: 00 00 00 c2 40 60 1d 08 02 83 00 76 20 08 0c 02      	! BUNDLE
	alloc	4
	fmadd.ps	%r3, %r1, %r2, %r3
	fnmadd.ps	%r3, %r1, %r2, %r3

    3ab0: 5c 07 82 80 20 90 15 08 02 81 00 00 00 00 08 04      	! BUNDLE
	fmsub.ps	%r2, %r1, %r2, %r3
	fnmsub.ps	%r1, %r1, %r2, %r2
	ret.f	0


0000000000003ac0 <test_fma_v2f64>:
    3ac0: 00 00 00 c2 40 60 1c 08 02 83 00 72 20 08 0c 02      	! BUNDLE
	alloc	4
	fmadd.pd	%r3, %r1, %r2, %r3
	fnmadd.pd	%r3, %r1, %r2, %r3

    3ad0: 1c 07 82 80 20 90 14 08 02 81 00 00 00 00 08 04      	! BUNDLE
	fmsub.pd	%r2, %r1, %r2, %r3
	fnmsub.pd	%r1, %r1, %r2, %r2
	ret.f	0


0000000000003ae0 <ffff>:
    3ae0: 00 00 80 c1 40 00 00 00 fc 81 2c 00 00 08 08 ac      	! BUNDLE
	alloc	3
	ldz.d	%r1, %sp, 0
	ldz.w	%r2, %r1, 0

    3af0: 10 00 80 40 c0 3a 30 08 02 01 00 00 00 00 08 04      	! BUNDLE
	ldz.w	%r1, %r1, 4
	fadd.ss	%r1, %r1, %r2
	ret.f	0


0000000000003b00 <i64_test>:
    3b00: 80 01 80 05 41 00 02 04 04 03 00 16 00 f0 0f b6      	! BUNDLE
	alloc.sp	11, 96
	add	%r3, %r2, %r1
	st.d	%r3, %sp, 88

    3b10: 84 00 82 c0 00 00 05 00 fc 83 2d fa 00 10 0c 38      	! BUNDLE
	sub	%r3, %r1, %r2
	st.d	%r3, %sp, 80
	subfi	%r3, %r2, 1000

    3b20: 21 01 00 ff 60 0b a0 ac 05 03 0e 77 00 00 00 00      	! BUNDLE
	st.d	%r3, %sp, 72
	subfi.l	%r3, %r2, 1000000000

    3b30: 00 01 00 ff 60 cb f9 ff 03 03 0c 0e 00 f0 0f b6      	! BUNDLE
	st.d	%r3, %sp, 64
	addi	%r3, %r1, -100
	st.d	%r3, %sp, 56

    3b40: c0 00 00 ff 60 8b 05 00 fc 83 2c 14 00 f0 13 b2      	! BUNDLE
	st.d	%r3, %sp, 48
	ldz.d	%r3, %sp, 88
	ldz.d	%r4, %sp, 80

    3b50: 20 01 00 7f 21 0b 04 00 fc 86 2c 0e 00 f0 1f b2      	! BUNDLE
	ldz.d	%r5, %sp, 72
	ldz.d	%r6, %sp, 64
	ldz.d	%r7, %sp, 56

    3b60: c0 00 00 3f 22 8b 38 14 08 84 40 82 60 18 0c 02      	! BUNDLE
	ldz.d	%r8, %sp, 48
	add.add	%r4, %r4, %r5, %r7
	add.sub	%r3, %r3, %r6, %r4

    3b70: 80 00 88 c1 00 80 02 00 fc 83 2d 02 80 09 08 06      	! BUNDLE
	add	%r3, %r3, %r8
	st.d	%r3, %sp, 40
	bs.le.d	%r2, %r1, 128

    3b80: 60 01 00 bf 20 7b 00 60 02 82 01 0a 00 f0 07 b2      	! BUNDLE
	ldz.d	%r2, %sp, 88
	bs.le.d	%r2, %r1, 112
	ldz.d	%r1, %sp, 40

    3b90: fc ff ff 40 00 03 00 00 00 0a 37 00 00 f0 07 b6      	! BUNDLE
	addi	%r1, %r1, -1
	ca.rf	%r10, 0
	st.d	%r1, %sp, 0

		0000000000003b90:  R_POSTRISC_B_PCREL_FWD	.L.str.15
    3ba0: 00 00 00 40 82 84 05 00 fc 81 2c 14 00 f0 0b b2      	! BUNDLE
	call.r	%r9, 0
	ldz.d	%r1, %sp, 88
	ldz.d	%r2, %sp, 80

		0000000000003ba0:  R_POSTRISC_A_JUMP	printf
    3bb0: 00 01 00 ff 20 9b 18 04 04 81 00 08 00 f0 07 b6      	! BUNDLE
	ldz.d	%r3, %sp, 64
	add.sub	%r1, %r2, %r1, %r3
	st.d	%r1, %sp, 32

    3bc0: 60 01 00 7f 20 0b 05 00 fc 82 2c 10 00 f0 0f b2      	! BUNDLE
	ldz.d	%r1, %sp, 88
	ldz.d	%r2, %sp, 80
	ldz.d	%r3, %sp, 64

    3bd0: 28 06 82 40 20 80 01 00 fc 81 2d 0a 00 f0 07 b2      	! BUNDLE
	sub.sub	%r1, %r1, %r2, %r3
	st.d	%r1, %sp, 24
	ldz.d	%r1, %sp, 40

    3be0: 80 01 00 80 40 00 00 00 00 00 01 00 00 00 00 04      	! BUNDLE
	ret.f	96
	nop	0
	nop	0

    3bf0: a0 00 00 7f 20 1b 00 00 02 01 0c 00 00 00 28 dc      	! BUNDLE
	ldz.d	%r1, %sp, 40
	addi	%r1, %r1, 1
	ca.rf	%r10, 0

		0000000000003bf0:  R_POSTRISC_C_PCREL_FWD	.L.str.16
    3c00: 00 00 00 7f 60 0b 00 00 00 09 52 00 00 f8 2b 00      	! BUNDLE
	st.d	%r1, %sp, 0
	call.r	%r9, 0
	mov	%r10, %gz

		0000000000003c00:  R_POSTRISC_B_JUMP	printf
    3c10: 00 00 00 40 82 04 00 00 00 00 01 00 00 00 00 04      	! BUNDLE
	call.r	%r9, 0
	nop	0
	nop	0

		0000000000003c10:  R_POSTRISC_A_JUMP	exit

0000000000003c20 <NeverReturn>:
    3c20: 40 00 80 03 41 40 00 c0 fe 81 01 00 00 00 0c dc      	! BUNDLE
	alloc.sp	7, 16
	b.eq.w	%r1, %gz, 64
	ca.rf	%r3, 0

		0000000000003c20:  R_POSTRISC_C_PCREL_FWD	.L.str.17
    3c30: 00 00 00 7f 00 1b 00 00 06 06 00 00 00 00 14 48      	! BUNDLE
	st.w	%r1, %sp, 0
	mov	%r6, %r3
	call.r	%r5, 0

		0000000000003c30:  R_POSTRISC_C_JUMP	printf
    3c40: 00 00 00 00 21 1d 00 00 08 04 cc ff ff 0f 04 34      	! BUNDLE
	ldz.d.r	%r4, 0
	addi	%r4, %r4, 1
	addi.ws	%r1, %r1, -1

		0000000000003c40:  R_POSTRISC_A_PCREL_FWD	uglbx
    3c50: 00 00 00 00 61 ed ff ff fe 81 01 00 00 00 00 04      	! BUNDLE
	st.d.r	%r4, 0
	b.ne.w	%r1, %gz, -32
	nop	0

		0000000000003c50:  R_POSTRISC_A_PCREL_FWD	uglbx
    3c60: 00 00 00 40 c0 0d 00 00 00 00 01 00 00 00 00 04      	! BUNDLE
	ca.rf	%r1, 0
	nop	0
	nop	0

		0000000000003c60:  R_POSTRISC_A_PCREL_FWD	.L.str.18
    3c70: 00 00 00 bf 00 1b 00 00 02 06 00 00 00 00 14 48      	! BUNDLE
	st.w	%r2, %sp, 0
	mov	%r6, %r1
	call.r	%r5, 0

		0000000000003c70:  R_POSTRISC_C_JUMP	printf
    3c80: 00 00 00 c0 c0 fc ff ff 05 02 cd ff ff 1f 0c 34      	! BUNDLE
	ldz.w.r	%r3, 0
	addi.ws	%r2, %r2, -1
	addi.ws	%r3, %r3, -1

		0000000000003c80:  R_POSTRISC_A_PCREL_FWD	glbx
    3c90: 00 00 00 c0 00 ed ff ff ff 01 01 00 00 00 00 04      	! BUNDLE
	st.w.r	%r3, 0
	jmp	-32
	nop	0

		0000000000003c90:  R_POSTRISC_A_PCREL_FWD	glbx

0000000000003ca0 <i64_add>:
    3ca0: 00 00 80 c1 40 00 00 00 00 82 b3 00 00 00 00 04      	! BUNDLE
	alloc	3
	lds.w.r	%r2, 0
	nop	2

		0000000000003ca0:  R_POSTRISC_B_PCREL_FWD	glbx
    3cb0: 4a 1d 82 40 00 91 00 00 00 00 00 00 00 00 04 d0      	! BUNDLE
	ca.xd.l	%r1, %r1, %r2, 0, 1234
	st.w.r	%r1, 0

		0000000000003cb0:  R_POSTRISC_C_PCREL_FWD	glbx
    3cc0: 00 00 00 80 40 00 00 00 00 00 01 00 00 00 00 04      	! BUNDLE
	ret.f	0
	nop	0
	nop	0


0000000000003cd0 <i32_add>:
    3cd0: 00 00 00 c3 40 00 00 00 00 03 73 00 00 08 14 00      	! BUNDLE
	alloc	6
	ldz.w.r	%r3, 0
	mov	%r5, %r1

		0000000000003cd0:  R_POSTRISC_B_PCREL_FWD	glb
    3ce0: 00 00 00 00 81 04 00 00 00 02 98 00 10 10 04 00      	! BUNDLE
	call.r	%r4, 0
	ca.r	%r2, 0
	add.ws	%r1, %r2, %r1

		0000000000003ce0:  R_POSTRISC_A_JUMP	cccc
		0000000000003ce0:  R_POSTRISC_B_JUMP	cccc
    3cf0: 08 00 83 40 00 20 00 14 02 01 40 0e 0c 08 04 34      	! BUNDLE
	add.ws	%r1, %r1, %r3
	add.ws	%r1, %r1, %r5
	addi.ws	%r1, %r1, 12345

    3d00: 00 00 00 80 40 00 00 00 00 00 01 00 00 00 00 04      	! BUNDLE
	ret.f	0
	nop	0
	nop	0


0000000000003d10 <u32_add>:
    3d10: 00 00 80 c1 40 00 00 00 00 02 b3 00 10 10 04 00      	! BUNDLE
	alloc	3
	ldz.w.r	%r2, 0
	add.ws	%r1, %r2, %r1

		0000000000003d10:  R_POSTRISC_B_PCREL_FWD	uglb
    3d20: 00 00 00 80 40 00 00 00 00 00 01 00 00 00 00 04      	! BUNDLE
	ret.f	0
	nop	0
	nop	0


0000000000003d30 <float_test>:
    3d30: 40 00 80 02 41 30 00 60 02 02 03 00 00 00 10 dc      	! BUNDLE
	alloc.sp	5, 16
	bfo.le.sd	%r2, %r1, 48
	ca.rf	%r4, 0

		0000000000003d30:  R_POSTRISC_C_PCREL_FWD	.L.str.19
    3d40: 00 00 00 7f 60 0b 00 00 00 03 52 00 00 20 04 00      	! BUNDLE
	st.d	%r1, %sp, 0
	call.r	%r3, 0
	mov	%r1, %r4

		0000000000003d40:  R_POSTRISC_B_JUMP	printf
    3d50: 40 00 00 80 40 00 00 00 00 00 01 00 00 00 00 04      	! BUNDLE
	ret.f	16
	nop	0
	nop	0

    3d60: 08 00 00 40 00 02 01 00 00 02 01 00 00 00 00 04      	! BUNDLE
	ldi	%r1, 2
	ret.f	16
	nop	0


0000000000003d70 <main>:
    3d70: 00 00 00 c1 40 10 00 00 fe 01 00 00 00 00 08 04      	! BUNDLE
	alloc	2
	mov	%r1, %gz
	ret.f	0


0000000000003d80 <test_fp_arithmetic_f16>:
    3d80: 00 00 00 c2 40 30 48 04 04 03 00 21 21 08 04 00      	! BUNDLE
	alloc	4
	fadd.sh	%r3, %r2, %r1
	fsub.sh	%r1, %r1, %r2

    3d90: 18 12 81 41 00 80 48 08 02 01 00 00 00 00 08 04      	! BUNDLE
	fmul.sh	%r1, %r3, %r1
	fdiv.sh	%r1, %r1, %r2
	ret.f	0


0000000000003da0 <test_fp_arithmetic_f32>:
    3da0: 00 00 00 c2 40 30 30 04 04 03 00 c1 20 08 04 00      	! BUNDLE
	alloc	4
	fadd.ss	%r3, %r2, %r1
	fsub.ss	%r1, %r1, %r2

    3db0: 18 0c 81 41 00 80 30 08 02 01 00 00 00 00 08 04      	! BUNDLE
	fmul.ss	%r1, %r3, %r1
	fdiv.ss	%r1, %r1, %r2
	ret.f	0


0000000000003dc0 <test_fp_arithmetic_f64>:
    3dc0: 00 00 00 c2 40 30 38 04 04 03 00 e1 20 08 04 00      	! BUNDLE
	alloc	4
	fadd.sd	%r3, %r2, %r1
	fsub.sd	%r1, %r1, %r2

    3dd0: 18 0e 81 41 00 80 38 08 02 01 00 00 00 00 08 04      	! BUNDLE
	fmul.sd	%r1, %r3, %r1
	fdiv.sd	%r1, %r1, %r2
	ret.f	0


0000000000003de0 <test_fp_arithmetic_f128>:
    3de0: 00 00 00 c2 40 30 40 04 04 03 00 01 21 08 04 00      	! BUNDLE
	alloc	4
	fadd.sq	%r3, %r2, %r1
	fsub.sq	%r1, %r1, %r2

    3df0: 18 10 81 41 00 80 40 08 02 01 00 00 00 00 08 04      	! BUNDLE
	fmul.sq	%r1, %r3, %r1
	fdiv.sq	%r1, %r1, %r2
	ret.f	0


0000000000003e00 <test_fp_bitcast_i16_to_f16>:
    3e00: 40 00 00 01 41 e0 00 00 fc 81 aa 03 00 f0 07 a6      	! BUNDLE
	alloc.sp	2, 16
	st.h	%r1, %sp, 14
	ldz.h	%r1, %sp, 14

    3e10: 40 00 00 80 40 00 00 00 00 00 01 00 00 00 00 04      	! BUNDLE
	ret.f	16
	nop	0
	nop	0


0000000000003e20 <test_fp_bitcast_f16_to_i16>:
    3e20: 40 00 00 01 41 e0 00 00 fc 81 aa 03 00 f0 07 a8      	! BUNDLE
	alloc.sp	2, 16
	st.h	%r1, %sp, 14
	lds.h	%r1, %sp, 14

    3e30: 40 00 00 80 40 00 00 00 00 00 01 00 00 00 00 04      	! BUNDLE
	ret.f	16
	nop	0
	nop	0


0000000000003e40 <test_fp_bitcast_i32_to_f32>:
    3e40: 00 00 00 c1 40 00 00 00 00 02 01 00 00 00 00 04      	! BUNDLE
	alloc	2
	ret.f	0
	nop	0


0000000000003e50 <test_fp_bitcast_f32_to_i32>:
    3e50: 00 00 00 c1 40 00 00 00 00 02 01 00 00 00 00 04      	! BUNDLE
	alloc	2
	ret.f	0
	nop	0


0000000000003e60 <test_fp_bitcast_i64_to_f64>:
    3e60: 00 00 00 c1 40 00 00 00 00 02 01 00 00 00 00 04      	! BUNDLE
	alloc	2
	ret.f	0
	nop	0


0000000000003e70 <test_fp_bitcast_f64_to_i64>:
    3e70: 00 00 00 c1 40 00 00 00 00 02 01 00 00 00 00 04      	! BUNDLE
	alloc	2
	ret.f	0
	nop	0


0000000000003e80 <test_fp_bitcast_i128_to_f128>:
    3e80: 00 00 00 c1 40 00 00 00 00 02 01 00 00 00 00 04      	! BUNDLE
	alloc	2
	ret.f	0
	nop	0


0000000000003e90 <test_fp_bitcast_f128_to_i128>:
    3e90: 00 00 00 c1 40 00 00 00 00 02 01 00 00 00 00 04      	! BUNDLE
	alloc	2
	ret.f	0
	nop	0


0000000000003ea0 <test_fp_branch_f32_eq>:
    3ea0: 00 00 80 c2 40 10 10 00 04 81 00 00 00 00 10 dc      	! BUNDLE
	alloc	5
	nulfo.eq.ss	%r1, %r2, 2, 0
	ca.rf	%r4, 0

		0000000000003ea0:  R_POSTRISC_C_PCREL_FWD	.Lstr.99
    3eb0: 00 00 00 c0 80 04 00 00 00 02 01 00 00 00 00 04      	! BUNDLE
	call.r	%r3, 0
	ret.f	0
	nop	0

		0000000000003eb0:  R_POSTRISC_A_JUMP	puts

0000000000003ec0 <test_fp_branch_f32_ne>:
    3ec0: 00 00 80 c2 40 10 10 20 04 81 00 00 00 00 10 dc      	! BUNDLE
	alloc	5
	nulfo.ne.ss	%r1, %r2, 2, 0
	ca.rf	%r4, 0

		0000000000003ec0:  R_POSTRISC_C_PCREL_FWD	.Lstr.100
    3ed0: 00 00 00 c0 80 04 00 00 00 02 01 00 00 00 00 04      	! BUNDLE
	call.r	%r3, 0
	ret.f	0
	nop	0

		0000000000003ed0:  R_POSTRISC_A_JUMP	puts

0000000000003ee0 <test_fp_branch_f32_lt>:
    3ee0: 00 00 80 c2 40 10 10 40 04 81 00 00 00 00 10 dc      	! BUNDLE
	alloc	5
	nulfo.lt.ss	%r1, %r2, 2, 0
	ca.rf	%r4, 0

		0000000000003ee0:  R_POSTRISC_C_PCREL_FWD	.Lstr.101
    3ef0: 00 00 00 c0 80 04 00 00 00 02 01 00 00 00 00 04      	! BUNDLE
	call.r	%r3, 0
	ret.f	0
	nop	0

		0000000000003ef0:  R_POSTRISC_A_JUMP	puts

0000000000003f00 <test_fp_branch_f32_le>:
    3f00: 00 00 80 c2 40 10 10 60 04 81 00 00 00 00 10 dc      	! BUNDLE
	alloc	5
	nulfo.le.ss	%r1, %r2, 2, 0
	ca.rf	%r4, 0

		0000000000003f00:  R_POSTRISC_C_PCREL_FWD	.Lstr.102
    3f10: 00 00 00 c0 80 04 00 00 00 02 01 00 00 00 00 04      	! BUNDLE
	call.r	%r3, 0
	ret.f	0
	nop	0

		0000000000003f10:  R_POSTRISC_A_JUMP	puts

0000000000003f20 <test_fp_branch_f32_gt>:
    3f20: 00 00 80 c2 40 10 10 40 02 82 00 00 00 00 10 dc      	! BUNDLE
	alloc	5
	nulfo.lt.ss	%r2, %r1, 2, 0
	ca.rf	%r4, 0

		0000000000003f20:  R_POSTRISC_C_PCREL_FWD	.Lstr.103
    3f30: 00 00 00 c0 80 04 00 00 00 02 01 00 00 00 00 04      	! BUNDLE
	call.r	%r3, 0
	ret.f	0
	nop	0

		0000000000003f30:  R_POSTRISC_A_JUMP	puts

0000000000003f40 <test_fp_branch_f32_ge>:
    3f40: 00 00 80 c2 40 10 10 60 02 82 00 00 00 00 10 dc      	! BUNDLE
	alloc	5
	nulfo.le.ss	%r2, %r1, 2, 0
	ca.rf	%r4, 0

		0000000000003f40:  R_POSTRISC_C_PCREL_FWD	.Lstr.104
    3f50: 00 00 00 c0 80 04 00 00 00 02 01 00 00 00 00 04      	! BUNDLE
	call.r	%r3, 0
	ret.f	0
	nop	0

		0000000000003f50:  R_POSTRISC_A_JUMP	puts

0000000000003f60 <test_fp_branch_f64_eq>:
    3f60: 00 00 80 c2 40 20 10 00 04 81 00 00 00 00 10 dc      	! BUNDLE
	alloc	5
	nulfo.eq.sd	%r1, %r2, 2, 0
	ca.rf	%r4, 0

		0000000000003f60:  R_POSTRISC_C_PCREL_FWD	.Lstr.105
    3f70: 00 00 00 c0 80 04 00 00 00 02 01 00 00 00 00 04      	! BUNDLE
	call.r	%r3, 0
	ret.f	0
	nop	0

		0000000000003f70:  R_POSTRISC_A_JUMP	puts

0000000000003f80 <test_fp_branch_f64_ne>:
    3f80: 00 00 80 c2 40 20 10 20 04 81 00 00 00 00 10 dc      	! BUNDLE
	alloc	5
	nulfo.ne.sd	%r1, %r2, 2, 0
	ca.rf	%r4, 0

		0000000000003f80:  R_POSTRISC_C_PCREL_FWD	.Lstr.106
    3f90: 00 00 00 c0 80 04 00 00 00 02 01 00 00 00 00 04      	! BUNDLE
	call.r	%r3, 0
	ret.f	0
	nop	0

		0000000000003f90:  R_POSTRISC_A_JUMP	puts

0000000000003fa0 <test_fp_branch_f64_lt>:
    3fa0: 00 00 80 c2 40 20 10 40 04 81 00 00 00 00 10 dc      	! BUNDLE
	alloc	5
	nulfo.lt.sd	%r1, %r2, 2, 0
	ca.rf	%r4, 0

		0000000000003fa0:  R_POSTRISC_C_PCREL_FWD	.Lstr.107
    3fb0: 00 00 00 c0 80 04 00 00 00 02 01 00 00 00 00 04      	! BUNDLE
	call.r	%r3, 0
	ret.f	0
	nop	0

		0000000000003fb0:  R_POSTRISC_A_JUMP	puts

0000000000003fc0 <test_fp_branch_f64_le>:
    3fc0: 00 00 80 c2 40 20 10 60 04 81 00 00 00 00 10 dc      	! BUNDLE
	alloc	5
	nulfo.le.sd	%r1, %r2, 2, 0
	ca.rf	%r4, 0

		0000000000003fc0:  R_POSTRISC_C_PCREL_FWD	.Lstr.108
    3fd0: 00 00 00 c0 80 04 00 00 00 02 01 00 00 00 00 04      	! BUNDLE
	call.r	%r3, 0
	ret.f	0
	nop	0

		0000000000003fd0:  R_POSTRISC_A_JUMP	puts

0000000000003fe0 <test_fp_branch_f64_gt>:
    3fe0: 00 00 80 c2 40 20 10 40 02 82 00 00 00 00 10 dc      	! BUNDLE
	alloc	5
	nulfo.lt.sd	%r2, %r1, 2, 0
	ca.rf	%r4, 0

		0000000000003fe0:  R_POSTRISC_C_PCREL_FWD	.Lstr.109
    3ff0: 00 00 00 c0 80 04 00 00 00 02 01 00 00 00 00 04      	! BUNDLE
	call.r	%r3, 0
	ret.f	0
	nop	0

		0000000000003ff0:  R_POSTRISC_A_JUMP	puts

0000000000004000 <test_fp_branch_f64_ge>:
    4000: 00 00 80 c2 40 20 10 60 02 82 00 00 00 00 10 dc      	! BUNDLE
	alloc	5
	nulfo.le.sd	%r2, %r1, 2, 0
	ca.rf	%r4, 0

		0000000000004000:  R_POSTRISC_C_PCREL_FWD	.Lstr.110
    4010: 00 00 00 c0 80 04 00 00 00 02 01 00 00 00 00 04      	! BUNDLE
	call.r	%r3, 0
	ret.f	0
	nop	0

		0000000000004010:  R_POSTRISC_A_JUMP	puts

0000000000004020 <test_fp_branch_f128_eq>:
    4020: 00 00 80 c2 40 30 10 00 04 81 00 00 00 00 10 dc      	! BUNDLE
	alloc	5
	nulfo.eq.sq	%r1, %r2, 2, 0
	ca.rf	%r4, 0

		0000000000004020:  R_POSTRISC_C_PCREL_FWD	.Lstr.111
    4030: 00 00 00 c0 80 04 00 00 00 02 01 00 00 00 00 04      	! BUNDLE
	call.r	%r3, 0
	ret.f	0
	nop	0

		0000000000004030:  R_POSTRISC_A_JUMP	puts

0000000000004040 <test_fp_branch_f128_ne>:
    4040: 00 00 80 c2 40 30 10 20 04 81 00 00 00 00 10 dc      	! BUNDLE
	alloc	5
	nulfo.ne.sq	%r1, %r2, 2, 0
	ca.rf	%r4, 0

		0000000000004040:  R_POSTRISC_C_PCREL_FWD	.Lstr.112
    4050: 00 00 00 c0 80 04 00 00 00 02 01 00 00 00 00 04      	! BUNDLE
	call.r	%r3, 0
	ret.f	0
	nop	0

		0000000000004050:  R_POSTRISC_A_JUMP	puts

0000000000004060 <test_fp_branch_f128_lt>:
    4060: 00 00 80 c2 40 30 10 40 04 81 00 00 00 00 10 dc      	! BUNDLE
	alloc	5
	nulfo.lt.sq	%r1, %r2, 2, 0
	ca.rf	%r4, 0

		0000000000004060:  R_POSTRISC_C_PCREL_FWD	.Lstr.113
    4070: 00 00 00 c0 80 04 00 00 00 02 01 00 00 00 00 04      	! BUNDLE
	call.r	%r3, 0
	ret.f	0
	nop	0

		0000000000004070:  R_POSTRISC_A_JUMP	puts

0000000000004080 <test_fp_branch_f128_le>:
    4080: 00 00 80 c2 40 30 10 60 04 81 00 00 00 00 10 dc      	! BUNDLE
	alloc	5
	nulfo.le.sq	%r1, %r2, 2, 0
	ca.rf	%r4, 0

		0000000000004080:  R_POSTRISC_C_PCREL_FWD	.Lstr.114
    4090: 00 00 00 c0 80 04 00 00 00 02 01 00 00 00 00 04      	! BUNDLE
	call.r	%r3, 0
	ret.f	0
	nop	0

		0000000000004090:  R_POSTRISC_A_JUMP	puts

00000000000040a0 <test_fp_branch_f128_gt>:
    40a0: 00 00 80 c2 40 30 10 40 02 82 00 00 00 00 10 dc      	! BUNDLE
	alloc	5
	nulfo.lt.sq	%r2, %r1, 2, 0
	ca.rf	%r4, 0

		00000000000040a0:  R_POSTRISC_C_PCREL_FWD	.Lstr.115
    40b0: 00 00 00 c0 80 04 00 00 00 02 01 00 00 00 00 04      	! BUNDLE
	call.r	%r3, 0
	ret.f	0
	nop	0

		00000000000040b0:  R_POSTRISC_A_JUMP	puts

00000000000040c0 <test_fp_branch_f128_ge>:
    40c0: 00 00 80 c2 40 30 10 60 02 82 00 00 00 00 10 dc      	! BUNDLE
	alloc	5
	nulfo.le.sq	%r2, %r1, 2, 0
	ca.rf	%r4, 0

		00000000000040c0:  R_POSTRISC_C_PCREL_FWD	.Lstr.116
    40d0: 00 00 00 c0 80 04 00 00 00 02 01 00 00 00 00 04      	! BUNDLE
	call.r	%r3, 0
	ret.f	0
	nop	0

		00000000000040d0:  R_POSTRISC_A_JUMP	puts

00000000000040e0 <test_builtin_f32_isnan>:
    40e0: 00 00 00 c1 40 10 00 00 fe 01 00 00 00 00 08 04      	! BUNDLE
	alloc	2
	mov	%r1, %gz
	ret.f	0


00000000000040f0 <test_builtin_f32_copysign>:
    40f0: 00 00 80 c1 40 00 0d 04 04 81 00 00 00 00 08 04      	! BUNDLE
	alloc	3
	fmerge.ss	%r1, %r2, %r1, %r1
	ret.f	0


0000000000004100 <test_builtin_f64_copysign>:
    4100: 00 00 80 c1 40 00 0c 04 04 81 00 00 00 00 08 04      	! BUNDLE
	alloc	3
	fmerge.sd	%r1, %r2, %r1, %r1
	ret.f	0


0000000000004110 <test_builtin_f128_copysign>:
    4110: 00 00 80 c1 40 80 0b 04 04 81 00 00 00 00 08 04      	! BUNDLE
	alloc	3
	fmerge.sq	%r1, %r2, %r1, %r1
	ret.f	0


0000000000004120 <test_compare_f16_eq>:
    4120: 00 00 80 c1 40 50 49 08 02 01 00 00 00 00 08 04      	! BUNDLE
	alloc	3
	fcmpo.eq.sh	%r1, %r1, %r2
	ret.f	0


0000000000004130 <test_compare_f16_ne>:
    4130: 00 00 80 c1 40 60 49 08 02 01 00 00 00 00 08 04      	! BUNDLE
	alloc	3
	fcmpo.ne.sh	%r1, %r1, %r2
	ret.f	0


0000000000004140 <test_compare_f16_lt>:
    4140: 00 00 80 c1 40 70 49 08 02 01 00 00 00 00 08 04      	! BUNDLE
	alloc	3
	fcmpo.lt.sh	%r1, %r1, %r2
	ret.f	0


0000000000004150 <test_compare_f16_le>:
    4150: 00 00 80 c1 40 80 49 08 02 01 00 00 00 00 08 04      	! BUNDLE
	alloc	3
	fcmpo.le.sh	%r1, %r1, %r2
	ret.f	0


0000000000004160 <test_compare_f16_gt>:
    4160: 00 00 80 c1 40 70 49 04 04 01 00 00 00 00 08 04      	! BUNDLE
	alloc	3
	fcmpo.lt.sh	%r1, %r2, %r1
	ret.f	0


0000000000004170 <test_compare_f16_ge>:
    4170: 00 00 80 c1 40 80 49 04 04 01 00 00 00 00 08 04      	! BUNDLE
	alloc	3
	fcmpo.le.sh	%r1, %r2, %r1
	ret.f	0


0000000000004180 <test_compare_f32_eq>:
    4180: 00 00 80 c1 40 50 31 08 02 01 00 00 00 00 08 04      	! BUNDLE
	alloc	3
	fcmpo.eq.ss	%r1, %r1, %r2
	ret.f	0


0000000000004190 <test_compare_f32_ne>:
    4190: 00 00 80 c1 40 60 31 08 02 01 00 00 00 00 08 04      	! BUNDLE
	alloc	3
	fcmpo.ne.ss	%r1, %r1, %r2
	ret.f	0


00000000000041a0 <test_compare_f32_lt>:
    41a0: 00 00 80 c1 40 70 31 08 02 01 00 00 00 00 08 04      	! BUNDLE
	alloc	3
	fcmpo.lt.ss	%r1, %r1, %r2
	ret.f	0


00000000000041b0 <test_compare_f32_le>:
    41b0: 00 00 80 c1 40 80 31 08 02 01 00 00 00 00 08 04      	! BUNDLE
	alloc	3
	fcmpo.le.ss	%r1, %r1, %r2
	ret.f	0


00000000000041c0 <test_compare_f32_gt>:
    41c0: 00 00 80 c1 40 70 31 04 04 01 00 00 00 00 08 04      	! BUNDLE
	alloc	3
	fcmpo.lt.ss	%r1, %r2, %r1
	ret.f	0


00000000000041d0 <test_compare_f32_ge>:
    41d0: 00 00 80 c1 40 80 31 04 04 01 00 00 00 00 08 04      	! BUNDLE
	alloc	3
	fcmpo.le.ss	%r1, %r2, %r1
	ret.f	0


00000000000041e0 <test_compare_f64_eq>:
    41e0: 00 00 80 c1 40 50 39 08 02 01 00 00 00 00 08 04      	! BUNDLE
	alloc	3
	fcmpo.eq.sd	%r1, %r1, %r2
	ret.f	0


00000000000041f0 <test_compare_f64_ne>:
    41f0: 00 00 80 c1 40 60 39 08 02 01 00 00 00 00 08 04      	! BUNDLE
	alloc	3
	fcmpo.ne.sd	%r1, %r1, %r2
	ret.f	0


0000000000004200 <test_compare_f64_lt>:
    4200: 00 00 80 c1 40 70 39 08 02 01 00 00 00 00 08 04      	! BUNDLE
	alloc	3
	fcmpo.lt.sd	%r1, %r1, %r2
	ret.f	0


0000000000004210 <test_compare_f64_le>:
    4210: 00 00 80 c1 40 80 39 08 02 01 00 00 00 00 08 04      	! BUNDLE
	alloc	3
	fcmpo.le.sd	%r1, %r1, %r2
	ret.f	0


0000000000004220 <test_compare_f64_gt>:
    4220: 00 00 80 c1 40 70 39 04 04 01 00 00 00 00 08 04      	! BUNDLE
	alloc	3
	fcmpo.lt.sd	%r1, %r2, %r1
	ret.f	0


0000000000004230 <test_compare_f64_ge>:
    4230: 00 00 80 c1 40 80 39 04 04 01 00 00 00 00 08 04      	! BUNDLE
	alloc	3
	fcmpo.le.sd	%r1, %r2, %r1
	ret.f	0


0000000000004240 <test_compare_f128_eq>:
    4240: 00 00 80 c1 40 50 41 08 02 01 00 00 00 00 08 04      	! BUNDLE
	alloc	3
	fcmpo.eq.sq	%r1, %r1, %r2
	ret.f	0


0000000000004250 <test_compare_f128_ne>:
    4250: 00 00 80 c1 40 60 41 08 02 01 00 00 00 00 08 04      	! BUNDLE
	alloc	3
	fcmpo.ne.sq	%r1, %r1, %r2
	ret.f	0


0000000000004260 <test_compare_f128_lt>:
    4260: 00 00 80 c1 40 70 41 08 02 01 00 00 00 00 08 04      	! BUNDLE
	alloc	3
	fcmpo.lt.sq	%r1, %r1, %r2
	ret.f	0


0000000000004270 <test_compare_f128_le>:
    4270: 00 00 80 c1 40 80 41 08 02 01 00 00 00 00 08 04      	! BUNDLE
	alloc	3
	fcmpo.le.sq	%r1, %r1, %r2
	ret.f	0


0000000000004280 <test_compare_f128_gt>:
    4280: 00 00 80 c1 40 70 41 04 04 01 00 00 00 00 08 04      	! BUNDLE
	alloc	3
	fcmpo.lt.sq	%r1, %r2, %r1
	ret.f	0


0000000000004290 <test_compare_f128_ge>:
    4290: 00 00 80 c1 40 80 41 04 04 01 00 00 00 00 08 04      	! BUNDLE
	alloc	3
	fcmpo.le.sq	%r1, %r2, %r1
	ret.f	0


00000000000042a0 <test_conv_f16_to_f32>:
    42a0: 00 00 00 c1 40 80 4b 00 02 01 00 00 00 00 08 04      	! BUNDLE
	alloc	2
	fext.sh.ss	%r1, %r1
	ret.f	0


00000000000042b0 <test_conv_f16_to_f64>:
    42b0: 00 00 00 c1 40 90 4b 00 02 01 00 00 00 00 08 04      	! BUNDLE
	alloc	2
	fext.sh.sd	%r1, %r1
	ret.f	0


00000000000042c0 <test_conv_f16_to_f128>:
    42c0: 00 00 00 c1 40 a0 4b 00 02 01 00 00 00 00 08 04      	! BUNDLE
	alloc	2
	fext.sh.sq	%r1, %r1
	ret.f	0


00000000000042d0 <test_conv_f64_to_f128>:
    42d0: 00 00 00 c1 40 a0 43 00 02 01 00 00 00 00 08 04      	! BUNDLE
	alloc	2
	fext.sd.sq	%r1, %r1
	ret.f	0


00000000000042e0 <test_conv_f32_to_f64>:
    42e0: 00 00 00 c1 40 90 3b 00 02 01 00 00 00 00 08 04      	! BUNDLE
	alloc	2
	fext.ss.sd	%r1, %r1
	ret.f	0


00000000000042f0 <test_conv_f32_to_f128>:
    42f0: 00 00 00 c1 40 90 43 00 02 01 00 00 00 00 08 04      	! BUNDLE
	alloc	2
	fext.ss.sq	%r1, %r1
	ret.f	0


0000000000004300 <test_conv_f32_to_f16>:
    4300: 00 00 00 c1 40 b0 4b 00 02 01 00 00 00 00 08 04      	! BUNDLE
	alloc	2
	fcvt.ss.sh	%r1, %r1, 0
	ret.f	0


0000000000004310 <test_conv_f64_to_f16>:
    4310: 00 00 00 c1 40 c0 4b 00 02 01 00 00 00 00 08 04      	! BUNDLE
	alloc	2
	fcvt.sd.sh	%r1, %r1, 0
	ret.f	0


0000000000004320 <test_conv_f64_to_f32>:
    4320: 00 00 00 c1 40 80 3b 00 02 01 00 00 00 00 08 04      	! BUNDLE
	alloc	2
	fcvt.sd.ss	%r1, %r1, 0
	ret.f	0


0000000000004330 <test_conv_f128_to_f16>:
    4330: 00 00 00 c1 40 d0 4b 00 02 01 00 00 00 00 08 04      	! BUNDLE
	alloc	2
	fcvt.sq.sh	%r1, %r1, 0
	ret.f	0


0000000000004340 <test_conv_f128_to_f32>:
    4340: 00 00 00 c1 40 c0 43 00 02 01 00 00 00 00 08 04      	! BUNDLE
	alloc	2
	fcvt.sq.ss	%r1, %r1, 0
	ret.f	0


0000000000004350 <test_conv_f128_to_f64>:
    4350: 00 00 00 c1 40 b0 43 00 02 01 00 00 00 00 08 04      	! BUNDLE
	alloc	2
	fcvt.sq.sd	%r1, %r1, 0
	ret.f	0


0000000000004360 <test_conv_f16_to_i32>:
    4360: 00 00 00 c1 40 f0 49 00 02 01 00 00 00 00 08 04      	! BUNDLE
	alloc	2
	fcvt.sh.iw	%r1, %r1, 0
	ret.f	0


0000000000004370 <test_conv_f16_to_u32>:
    4370: 00 00 00 c1 40 00 4a 00 02 01 00 00 00 00 08 04      	! BUNDLE
	alloc	2
	fcvt.sh.uw	%r1, %r1, 0
	ret.f	0


0000000000004380 <test_conv_f16_to_i64>:
    4380: 00 00 00 c1 40 30 4a 00 02 01 00 00 00 00 08 04      	! BUNDLE
	alloc	2
	fcvt.sh.id	%r1, %r1, 0
	ret.f	0


0000000000004390 <test_conv_f16_to_u64>:
    4390: 00 00 00 c1 40 40 4a 00 02 01 00 00 00 00 08 04      	! BUNDLE
	alloc	2
	fcvt.sh.ud	%r1, %r1, 0
	ret.f	0


00000000000043a0 <test_conv_f16_to_i128>:
    43a0: 00 00 00 c1 40 70 4a 00 02 01 00 00 00 00 08 04      	! BUNDLE
	alloc	2
	fcvt.sh.iq	%r1, %r1, 0
	ret.f	0


00000000000043b0 <test_conv_f16_to_u128>:
    43b0: 00 00 00 c1 40 80 4a 00 02 01 00 00 00 00 08 04      	! BUNDLE
	alloc	2
	fcvt.sh.uq	%r1, %r1, 0
	ret.f	0


00000000000043c0 <test_conv_i32_to_f16>:
    43c0: 00 00 00 c1 40 10 4a 00 02 01 00 00 00 00 08 04      	! BUNDLE
	alloc	2
	fcvt.iw.sh	%r1, %r1, 0
	ret.f	0


00000000000043d0 <test_conv_u32_to_f16>:
    43d0: 00 00 00 c1 40 20 4a 00 02 01 00 00 00 00 08 04      	! BUNDLE
	alloc	2
	fcvt.uw.sh	%r1, %r1, 0
	ret.f	0


00000000000043e0 <test_conv_i64_to_f16>:
    43e0: 00 00 00 c1 40 50 4a 00 02 01 00 00 00 00 08 04      	! BUNDLE
	alloc	2
	fcvt.id.sh	%r1, %r1, 0
	ret.f	0


00000000000043f0 <test_conv_u64_to_f16>:
    43f0: 00 00 00 c1 40 60 4a 00 02 01 00 00 00 00 08 04      	! BUNDLE
	alloc	2
	fcvt.ud.sh	%r1, %r1, 0
	ret.f	0


0000000000004400 <test_conv_i128_to_f16>:
    4400: 00 00 00 c1 40 90 4a 00 02 01 00 00 00 00 08 04      	! BUNDLE
	alloc	2
	fcvt.iq.sh	%r1, %r1, 0
	ret.f	0


0000000000004410 <test_conv_u128_to_f16>:
    4410: 00 00 00 c1 40 a0 4a 00 02 01 00 00 00 00 08 04      	! BUNDLE
	alloc	2
	fcvt.uq.sh	%r1, %r1, 0
	ret.f	0


0000000000004420 <test_conv_f32_to_i32>:
    4420: 00 00 00 c1 40 f0 31 00 02 01 00 00 00 00 08 04      	! BUNDLE
	alloc	2
	fcvt.ss.iw	%r1, %r1, 0
	ret.f	0


0000000000004430 <test_conv_f32_to_u32>:
    4430: 00 00 00 c1 40 00 32 00 02 01 00 00 00 00 08 04      	! BUNDLE
	alloc	2
	fcvt.ss.uw	%r1, %r1, 0
	ret.f	0


0000000000004440 <test_conv_f32_to_i64>:
    4440: 00 00 00 c1 40 30 32 00 02 01 00 00 00 00 08 04      	! BUNDLE
	alloc	2
	fcvt.ss.id	%r1, %r1, 0
	ret.f	0


0000000000004450 <test_conv_f32_to_u64>:
    4450: 00 00 00 c1 40 40 32 00 02 01 00 00 00 00 08 04      	! BUNDLE
	alloc	2
	fcvt.ss.ud	%r1, %r1, 0
	ret.f	0


0000000000004460 <test_conv_f32_to_i128>:
    4460: 00 00 00 c1 40 70 32 00 02 01 00 00 00 00 08 04      	! BUNDLE
	alloc	2
	fcvt.ss.iq	%r1, %r1, 0
	ret.f	0


0000000000004470 <test_conv_f32_to_u128>:
    4470: 00 00 00 c1 40 80 32 00 02 01 00 00 00 00 08 04      	! BUNDLE
	alloc	2
	fcvt.ss.uq	%r1, %r1, 0
	ret.f	0


0000000000004480 <test_conv_i32_to_f32>:
    4480: 00 00 00 c1 40 10 32 00 02 01 00 00 00 00 08 04      	! BUNDLE
	alloc	2
	fcvt.iw.ss	%r1, %r1, 0
	ret.f	0


0000000000004490 <test_conv_u32_to_f32>:
    4490: 00 00 00 c1 40 20 32 00 02 01 00 00 00 00 08 04      	! BUNDLE
	alloc	2
	fcvt.uw.ss	%r1, %r1, 0
	ret.f	0


00000000000044a0 <test_conv_i64_to_f32>:
    44a0: 00 00 00 c1 40 50 32 00 02 01 00 00 00 00 08 04      	! BUNDLE
	alloc	2
	fcvt.id.ss	%r1, %r1, 0
	ret.f	0


00000000000044b0 <test_conv_u64_to_f32>:
    44b0: 00 00 00 c1 40 60 32 00 02 01 00 00 00 00 08 04      	! BUNDLE
	alloc	2
	fcvt.ud.ss	%r1, %r1, 0
	ret.f	0


00000000000044c0 <test_conv_i128_to_f32>:
    44c0: 00 00 00 c1 40 90 32 00 02 01 00 00 00 00 08 04      	! BUNDLE
	alloc	2
	fcvt.iq.ss	%r1, %r1, 0
	ret.f	0


00000000000044d0 <test_conv_u128_to_f32>:
    44d0: 00 00 00 c1 40 a0 32 00 02 01 00 00 00 00 08 04      	! BUNDLE
	alloc	2
	fcvt.uq.ss	%r1, %r1, 0
	ret.f	0


00000000000044e0 <test_conv_f64_to_i32>:
    44e0: 00 00 00 c1 40 f0 39 00 02 01 00 00 00 00 08 04      	! BUNDLE
	alloc	2
	fcvt.sd.iw	%r1, %r1, 0
	ret.f	0


00000000000044f0 <test_conv_f64_to_u32>:
    44f0: 00 00 00 c1 40 00 3a 00 02 01 00 00 00 00 08 04      	! BUNDLE
	alloc	2
	fcvt.sd.uw	%r1, %r1, 0
	ret.f	0


0000000000004500 <test_conv_f64_to_i64>:
    4500: 00 00 00 c1 40 30 3a 00 02 01 00 00 00 00 08 04      	! BUNDLE
	alloc	2
	fcvt.sd.id	%r1, %r1, 0
	ret.f	0


0000000000004510 <test_conv_f64_to_u64>:
    4510: 00 00 00 c1 40 40 3a 00 02 01 00 00 00 00 08 04      	! BUNDLE
	alloc	2
	fcvt.sd.ud	%r1, %r1, 0
	ret.f	0


0000000000004520 <test_conv_f64_to_i128>:
    4520: 00 00 00 c1 40 70 3a 00 02 01 00 00 00 00 08 04      	! BUNDLE
	alloc	2
	fcvt.sd.iq	%r1, %r1, 0
	ret.f	0


0000000000004530 <test_conv_f64_to_u128>:
    4530: 00 00 00 c1 40 80 3a 00 02 01 00 00 00 00 08 04      	! BUNDLE
	alloc	2
	fcvt.sd.uq	%r1, %r1, 0
	ret.f	0


0000000000004540 <test_conv_i32_to_f64>:
    4540: 00 00 00 c1 40 10 3a 00 02 01 00 00 00 00 08 04      	! BUNDLE
	alloc	2
	fcvt.iw.sd	%r1, %r1, 0
	ret.f	0


0000000000004550 <test_conv_u32_to_f64>:
    4550: 00 00 00 c1 40 20 3a 00 02 01 00 00 00 00 08 04      	! BUNDLE
	alloc	2
	fcvt.uw.sd	%r1, %r1, 0
	ret.f	0


0000000000004560 <test_conv_i64_to_f64>:
    4560: 00 00 00 c1 40 50 3a 00 02 01 00 00 00 00 08 04      	! BUNDLE
	alloc	2
	fcvt.id.sd	%r1, %r1, 0
	ret.f	0


0000000000004570 <test_conv_u64_to_f64>:
    4570: 00 00 00 c1 40 60 3a 00 02 01 00 00 00 00 08 04      	! BUNDLE
	alloc	2
	fcvt.ud.sd	%r1, %r1, 0
	ret.f	0


0000000000004580 <test_conv_i128_to_f64>:
    4580: 00 00 00 c1 40 90 3a 00 02 01 00 00 00 00 08 04      	! BUNDLE
	alloc	2
	fcvt.iq.sd	%r1, %r1, 0
	ret.f	0


0000000000004590 <test_conv_u128_to_f64>:
    4590: 00 00 00 c1 40 a0 3a 00 02 01 00 00 00 00 08 04      	! BUNDLE
	alloc	2
	fcvt.uq.sd	%r1, %r1, 0
	ret.f	0


00000000000045a0 <test_conv_f128_to_i32>:
    45a0: 00 00 00 c1 40 f0 41 00 02 01 00 00 00 00 08 04      	! BUNDLE
	alloc	2
	fcvt.sq.iw	%r1, %r1, 0
	ret.f	0


00000000000045b0 <test_conv_f128_to_u32>:
    45b0: 00 00 00 c1 40 00 42 00 02 01 00 00 00 00 08 04      	! BUNDLE
	alloc	2
	fcvt.sq.uw	%r1, %r1, 0
	ret.f	0


00000000000045c0 <test_conv_f128_to_i64>:
    45c0: 00 00 00 c1 40 30 42 00 02 01 00 00 00 00 08 04      	! BUNDLE
	alloc	2
	fcvt.sq.id	%r1, %r1, 0
	ret.f	0


00000000000045d0 <test_conv_f128_to_u64>:
    45d0: 00 00 00 c1 40 40 42 00 02 01 00 00 00 00 08 04      	! BUNDLE
	alloc	2
	fcvt.sq.ud	%r1, %r1, 0
	ret.f	0


00000000000045e0 <test_conv_f128_to_i128>:
    45e0: 00 00 00 c1 40 70 42 00 02 01 00 00 00 00 08 04      	! BUNDLE
	alloc	2
	fcvt.sq.iq	%r1, %r1, 0
	ret.f	0


00000000000045f0 <test_conv_f128_to_u128>:
    45f0: 00 00 00 c1 40 80 42 00 02 01 00 00 00 00 08 04      	! BUNDLE
	alloc	2
	fcvt.sq.uq	%r1, %r1, 0
	ret.f	0


0000000000004600 <test_conv_i32_to_f128>:
    4600: 00 00 00 c1 40 10 42 00 02 01 00 00 00 00 08 04      	! BUNDLE
	alloc	2
	fcvt.iw.sq	%r1, %r1, 0
	ret.f	0


0000000000004610 <test_conv_u32_to_f128>:
    4610: 00 00 00 c1 40 20 42 00 02 01 00 00 00 00 08 04      	! BUNDLE
	alloc	2
	fcvt.uw.sq	%r1, %r1, 0
	ret.f	0


0000000000004620 <test_conv_i64_to_f128>:
    4620: 00 00 00 c1 40 50 42 00 02 01 00 00 00 00 08 04      	! BUNDLE
	alloc	2
	fcvt.id.sq	%r1, %r1, 0
	ret.f	0


0000000000004630 <test_conv_u64_to_f128>:
    4630: 00 00 00 c1 40 60 42 00 02 01 00 00 00 00 08 04      	! BUNDLE
	alloc	2
	fcvt.ud.sq	%r1, %r1, 0
	ret.f	0


0000000000004640 <test_conv_i128_to_f128>:
    4640: 00 00 00 c1 40 90 42 00 02 01 00 00 00 00 08 04      	! BUNDLE
	alloc	2
	fcvt.iq.sq	%r1, %r1, 0
	ret.f	0


0000000000004650 <test_conv_u128_to_f128>:
    4650: 00 00 00 c1 40 a0 42 00 02 01 00 00 00 00 08 04      	! BUNDLE
	alloc	2
	fcvt.uq.sq	%r1, %r1, 0
	ret.f	0


0000000000004660 <test_fp_immediate_f16>:
    4660: 00 00 00 c1 40 70 fe 02 00 01 08 00 00 00 08 04      	! BUNDLE
	alloc	2
	ldi	%r1, 12263
	ret.f	0


0000000000004670 <test_fp_immediate_f32>:
    4670: 01 00 00 c1 40 00 68 cd df 01 c8 00 00 00 00 00      	! BUNDLE
	alloc	2
	ldi.l	%r1, 1039980160

    4680: 00 00 00 80 40 00 00 00 00 00 01 00 00 00 00 04      	! BUNDLE
	ret.f	0
	nop	0
	nop	0


0000000000004690 <test_fp_immediate_f64>:
    4690: 01 00 00 c1 40 f0 6b eb a7 01 c8 3f 6b fe fe 02      	! BUNDLE
	alloc	2
	ldi.l	%r1, -4629811673862064449

    46a0: 00 00 00 80 40 00 00 00 00 00 01 00 00 00 00 04      	! BUNDLE
	ret.f	0
	nop	0
	nop	0


00000000000046b0 <test_fp_immediate_f128>:
    46b0: 01 00 00 c1 40 30 64 ae 0c 01 88 6a 83 13 d1 03      	! BUNDLE
	alloc	2
	ldi.l	%r1, -845303600433666493

    46c0: ae ad 9f 7e 20 f2 ac f9 fb 3f 00 00 00 00 08 04      	! BUNDLE
	ldih.l	%r1, 4610553164962720619
	ret.f	0


00000000000046d0 <test_fp_immediate_f128_int>:
    46d0: 00 00 00 c1 40 00 00 00 00 01 88 00 00 00 00 04      	! BUNDLE
	alloc	2
	ldi	%r1, 0
	nop	2

    46e0: 02 00 00 40 20 02 00 60 03 40 00 00 00 00 08 04      	! BUNDLE
	ldih.l	%r1, 4612635996473786368
	ret.f	0


00000000000046f0 <test_fp_immediate_f128_denorm>:
    46f0: 00 00 00 c1 40 00 00 00 00 01 88 00 00 00 00 04      	! BUNDLE
	alloc	2
	ldi	%r1, 0
	nop	2

    4700: 02 00 00 40 20 02 00 00 a4 83 00 00 00 00 08 04      	! BUNDLE
	ldih.l	%r1, -8961037358560444416
	ret.f	0


0000000000004710 <test_round_f32>:
    4710: 00 00 00 c1 40 40 31 00 02 01 00 00 00 00 08 04      	! BUNDLE
	alloc	2
	frndss.even	%r1, %r1
	ret.f	0


0000000000004720 <test_floor_f32>:
    4720: 00 00 00 c1 40 40 b1 00 02 01 00 00 00 00 08 04      	! BUNDLE
	alloc	2
	frndss.floor	%r1, %r1
	ret.f	0


0000000000004730 <test_ceil_f32>:
    4730: 00 00 00 c1 40 40 31 01 02 01 00 00 00 00 08 04      	! BUNDLE
	alloc	2
	frndss.ceil	%r1, %r1
	ret.f	0


0000000000004740 <test_trunc_f32>:
    4740: 00 00 00 c1 40 40 b1 01 02 01 00 00 00 00 08 04      	! BUNDLE
	alloc	2
	frndss.trunc	%r1, %r1
	ret.f	0


0000000000004750 <test_nearbyint_f32>:
    4750: 00 00 00 c1 40 40 31 02 02 01 00 00 00 00 08 04      	! BUNDLE
	alloc	2
	frndss.dyn	%r1, %r1
	ret.f	0


0000000000004760 <test_rint_f32>:
    4760: 00 00 00 c1 40 40 31 02 02 01 00 00 00 00 08 04      	! BUNDLE
	alloc	2
	frndss.dyn	%r1, %r1
	ret.f	0


0000000000004770 <test_round_f64>:
    4770: 00 00 00 c1 40 40 39 00 02 01 00 00 00 00 08 04      	! BUNDLE
	alloc	2
	frndsd.even	%r1, %r1
	ret.f	0


0000000000004780 <test_floor_f64>:
    4780: 00 00 00 c1 40 40 b9 00 02 01 00 00 00 00 08 04      	! BUNDLE
	alloc	2
	frndsd.floor	%r1, %r1
	ret.f	0


0000000000004790 <test_ceil_f64>:
    4790: 00 00 00 c1 40 40 39 01 02 01 00 00 00 00 08 04      	! BUNDLE
	alloc	2
	frndsd.ceil	%r1, %r1
	ret.f	0


00000000000047a0 <test_trunc_f64>:
    47a0: 00 00 00 c1 40 40 b9 01 02 01 00 00 00 00 08 04      	! BUNDLE
	alloc	2
	frndsd.trunc	%r1, %r1
	ret.f	0


00000000000047b0 <test_nearbyint_f64>:
    47b0: 00 00 00 c1 40 40 39 02 02 01 00 00 00 00 08 04      	! BUNDLE
	alloc	2
	frndsd.dyn	%r1, %r1
	ret.f	0


00000000000047c0 <test_rint_f64>:
    47c0: 00 00 00 c1 40 40 39 02 02 01 00 00 00 00 08 04      	! BUNDLE
	alloc	2
	frndsd.dyn	%r1, %r1
	ret.f	0


00000000000047d0 <test_round_f128>:
    47d0: 00 00 00 c1 40 40 41 00 02 01 00 00 00 00 08 04      	! BUNDLE
	alloc	2
	frndsq.even	%r1, %r1
	ret.f	0


00000000000047e0 <test_floor_f128>:
    47e0: 00 00 00 c1 40 40 c1 00 02 01 00 00 00 00 08 04      	! BUNDLE
	alloc	2
	frndsq.floor	%r1, %r1
	ret.f	0


00000000000047f0 <test_ceil_f128>:
    47f0: 00 00 00 c1 40 40 41 01 02 01 00 00 00 00 08 04      	! BUNDLE
	alloc	2
	frndsq.ceil	%r1, %r1
	ret.f	0


0000000000004800 <test_trunc_f128>:
    4800: 00 00 00 c1 40 40 c1 01 02 01 00 00 00 00 08 04      	! BUNDLE
	alloc	2
	frndsq.trunc	%r1, %r1
	ret.f	0


0000000000004810 <test_nearbyint_f128>:
    4810: 00 00 00 c1 40 40 41 02 02 01 00 00 00 00 08 04      	! BUNDLE
	alloc	2
	frndsq.dyn	%r1, %r1
	ret.f	0


0000000000004820 <test_rint_f128>:
    4820: 00 00 00 c1 40 40 41 02 02 01 00 00 00 00 08 04      	! BUNDLE
	alloc	2
	frndsq.dyn	%r1, %r1
	ret.f	0


0000000000004830 <test_fneg_f32>:
    4830: 00 00 00 c1 40 90 30 00 02 01 00 00 00 00 08 04      	! BUNDLE
	alloc	2
	fneg.ss	%r1, %r1
	ret.f	0


0000000000004840 <test_fabs_f32>:
    4840: 00 00 00 c1 40 a0 30 00 02 01 00 00 00 00 08 04      	! BUNDLE
	alloc	2
	fabs.ss	%r1, %r1
	ret.f	0


0000000000004850 <test_fnabs_f32>:
    4850: 00 00 00 c1 40 b0 30 00 02 01 00 00 00 00 08 04      	! BUNDLE
	alloc	2
	fnabs.ss	%r1, %r1
	ret.f	0


0000000000004860 <test_fabsd_f32>:
    4860: 00 00 80 c1 40 c0 30 08 02 01 00 00 00 00 08 04      	! BUNDLE
	alloc	3
	fabsd.ss	%r1, %r1, %r2
	ret.f	0


0000000000004870 <test_fnabsd_f32>:
    4870: 00 00 80 c1 40 d0 30 08 02 01 00 00 00 00 08 04      	! BUNDLE
	alloc	3
	fnabsd.ss	%r1, %r1, %r2
	ret.f	0


0000000000004880 <test_fneg_f64>:
    4880: 00 00 00 c1 40 90 38 00 02 01 00 00 00 00 08 04      	! BUNDLE
	alloc	2
	fneg.sd	%r1, %r1
	ret.f	0


0000000000004890 <test_fabs_f64>:
    4890: 00 00 00 c1 40 a0 38 00 02 01 00 00 00 00 08 04      	! BUNDLE
	alloc	2
	fabs.sd	%r1, %r1
	ret.f	0


00000000000048a0 <test_fnabs_f64>:
    48a0: 00 00 00 c1 40 b0 38 00 02 01 00 00 00 00 08 04      	! BUNDLE
	alloc	2
	fnabs.sd	%r1, %r1
	ret.f	0


00000000000048b0 <test_fabsd_f64>:
    48b0: 00 00 80 c1 40 c0 38 08 02 01 00 00 00 00 08 04      	! BUNDLE
	alloc	3
	fabsd.sd	%r1, %r1, %r2
	ret.f	0


00000000000048c0 <test_fnabsd_f64>:
    48c0: 00 00 80 c1 40 d0 38 08 02 01 00 00 00 00 08 04      	! BUNDLE
	alloc	3
	fnabsd.sd	%r1, %r1, %r2
	ret.f	0


00000000000048d0 <test_fneg_f128>:
    48d0: 00 00 00 c1 40 90 40 00 02 01 00 00 00 00 08 04      	! BUNDLE
	alloc	2
	fneg.sq	%r1, %r1
	ret.f	0


00000000000048e0 <test_fabs_f128>:
    48e0: 00 00 00 c1 40 a0 40 00 02 01 00 00 00 00 08 04      	! BUNDLE
	alloc	2
	fabs.sq	%r1, %r1
	ret.f	0


00000000000048f0 <test_fnabs_f128>:
    48f0: 00 00 00 c1 40 b0 40 00 02 01 00 00 00 00 08 04      	! BUNDLE
	alloc	2
	fnabs.sq	%r1, %r1
	ret.f	0


0000000000004900 <test_fabsd_f128>:
    4900: 00 00 80 c1 40 c0 40 08 02 01 00 00 00 00 08 04      	! BUNDLE
	alloc	3
	fabsd.sq	%r1, %r1, %r2
	ret.f	0


0000000000004910 <test_fnabsd_f128>:
    4910: 00 00 80 c1 40 d0 40 08 02 01 00 00 00 00 08 04      	! BUNDLE
	alloc	3
	fnabsd.sq	%r1, %r1, %r2
	ret.f	0


0000000000004920 <fp_store_zero_dummy_return>:
    4920: 00 00 00 c3 40 00 00 00 00 81 31 00 0f 00 08 20      	! BUNDLE
	alloc	6
	ldz.h.r	%r1, 0
	ldi	%r2, 15360

		0000000000004920:  R_POSTRISC_B_PCREL_FWD	f16_zero
    4930: 00 00 00 c0 c0 3c 48 08 02 01 00 00 00 00 04 ca      	! BUNDLE
	ldz.w.r	%r3, 0
	fadd.sh	%r1, %r1, %r2
	st.h.r	%r1, 0

		0000000000004930:  R_POSTRISC_A_PCREL_FWD	f32_zero
		0000000000004930:  R_POSTRISC_C_PCREL_FWD	f16_zero
    4940: 02 00 00 be 00 32 00 00 00 00 00 00 00 00 10 d2      	! BUNDLE
	ldi.l	%r2, 1065353216
	ldz.d.r	%r4, 0

		0000000000004940:  R_POSTRISC_C_PCREL_FWD	f64_zero
    4950: 0c 0c 82 81 00 00 00 00 00 03 36 00 00 00 08 d0      	! BUNDLE
	fadd.ss	%r2, %r3, %r2
	ld.q.r	%r3, 0
	st.w.r	%r2, 0

		0000000000004950:  R_POSTRISC_B_PCREL_FWD	f128_zero
		0000000000004950:  R_POSTRISC_C_PCREL_FWD	f32_zero
    4960: 02 00 00 40 01 02 00 00 f0 3f c0 e0 50 20 10 00      	! BUNDLE
	ldi.l	%r5, 4607182418800017408
	fadd.sd	%r4, %r4, %r5

    4970: 00 00 00 40 01 02 00 00 00 84 b5 00 00 00 00 04      	! BUNDLE
	ldi	%r5, 0
	st.d.r	%r4, 0
	nop	2

		0000000000004970:  R_POSTRISC_B_PCREL_FWD	f64_zero
    4980: 02 00 00 40 21 02 00 00 ff 3f c0 00 51 18 0c 00      	! BUNDLE
	ldih.l	%r5, 4611404543450677248
	fadd.sq	%r3, %r3, %r5

    4990: e0 12 80 40 00 30 30 04 04 01 40 ee 00 08 04 00      	! BUNDLE
	fext.sh.ss	%r1, %r1
	fadd.ss	%r1, %r2, %r1
	fext.ss.sd	%r1, %r1

    49a0: 0c 0e 01 42 00 a0 43 00 02 01 c0 00 11 18 04 00      	! BUNDLE
	fadd.sd	%r1, %r4, %r1
	fext.sd.sq	%r1, %r1
	fadd.sq	%r1, %r3, %r1

    49b0: ec 10 80 40 00 00 00 00 00 83 36 00 00 00 08 04      	! BUNDLE
	fcvt.sq.sd	%r1, %r1, 0
	st.q.r	%r3, 0
	ret.f	0

		00000000000049b0:  R_POSTRISC_B_PCREL_FWD	f128_zero

00000000000049c0 <test_store_based_f16_zero>:
    49c0: 00 00 00 c2 40 00 f4 01 02 ff 2a 00 00 00 fc cb      	! BUNDLE
	alloc	4
	st.h	%gz, %r1, 8000
	st.h.r	%gz, 0

		00000000000049c0:  R_POSTRISC_C_PCREL_FWD	f16_zero
    49d0: 50 2a 82 c0 1f 41 a9 0c 02 ff 04 00 00 00 08 04      	! BUNDLE
	st.h.xd	%gz, %r1, %r2, 1, 20
	st.h.xw	%gz, %r1, %r3, 1, 20
	ret.f	0


00000000000049e0 <test_store_based_f32_zero>:
    49e0: 00 00 00 c2 40 00 e8 03 02 7f 2c 00 00 00 fc d1      	! BUNDLE
	alloc	4
	st.w	%gz, %r1, 16000
	st.w.r	%gz, 0

		00000000000049e0:  R_POSTRISC_C_PCREL_FWD	f32_zero
    49f0: a0 50 82 c0 1f 81 42 0d 02 ff 04 00 00 00 08 04      	! BUNDLE
	st.w.xd	%gz, %r1, %r2, 2, 40
	st.w.xw	%gz, %r1, %r3, 2, 40
	ret.f	0


0000000000004a00 <test_store_based_f64_zero>:
    4a00: 00 00 00 c2 40 00 d0 07 02 ff 2d 00 00 00 fc d7      	! BUNDLE
	alloc	4
	st.d	%gz, %r1, 32000
	st.d.r	%gz, 0

		0000000000004a00:  R_POSTRISC_C_PCREL_FWD	f64_zero
    4a10: a0 76 82 c0 1f 81 da 0d 02 ff 04 00 00 00 08 04      	! BUNDLE
	st.d.xd	%gz, %r1, %r2, 3, 40
	st.d.xw	%gz, %r1, %r3, 3, 40
	ret.f	0


0000000000004a20 <test_store_based_f128_zero>:
    4a20: 00 00 00 c2 40 00 a0 0f 02 ff 2e 00 00 00 fc db      	! BUNDLE
	alloc	4
	st.q	%gz, %r1, 64000
	st.q.r	%gz, 0

		0000000000004a20:  R_POSTRISC_C_PCREL_FWD	f128_zero
    4a30: c0 9a 82 c0 1f 01 6b 0e 02 ff 04 00 00 00 08 04      	! BUNDLE
	st.q.xd	%gz, %r1, %r2, 4, 48
	st.q.xw	%gz, %r1, %r3, 4, 48
	ret.f	0


0000000000004a40 <test_function_pointer>:
    4a40: 00 00 80 c2 40 10 00 00 04 04 40 15 f0 0f 0c 00      	! BUNDLE
	alloc	5
	mov	%r4, %r2
	call.ri	%r3, %r1, %gz

    4a50: 08 00 02 42 00 00 00 00 00 02 01 00 00 00 00 04      	! BUNDLE
	add.ws	%r1, %r4, %r2
	ret.f	0
	nop	0


0000000000004a60 <test_function_call>:
    4a60: 00 00 80 c2 40 10 00 00 04 04 00 00 00 00 0c 48      	! BUNDLE
	alloc	5
	mov	%r4, %r2
	call.r	%r3, 0

		0000000000004a60:  R_POSTRISC_C_JUMP	ccc
    4a70: 08 00 02 42 00 00 00 00 00 02 01 00 00 00 00 04      	! BUNDLE
	add.ws	%r1, %r4, %r2
	ret.f	0
	nop	0


0000000000004a80 <test_function>:
    4a80: 00 00 80 c2 40 10 00 00 02 04 00 00 00 00 0c 48      	! BUNDLE
	alloc	5
	mov	%r4, %r1
	call.r	%r3, 0

		0000000000004a80:  R_POSTRISC_C_JUMP	xprintf
    4a90: 08 00 02 42 00 00 00 00 00 02 01 00 00 00 00 04      	! BUNDLE
	add.ws	%r1, %r4, %r2
	ret.f	0
	nop	0


0000000000004aa0 <test_callmi>:
    4aa0: 00 00 80 c2 40 70 19 04 04 82 80 15 00 10 0c 00      	! BUNDLE
	alloc	5
	sl.add	%r2, %r2, %r1, 3
	call.mi	%r3, %r2, 0

    4ab0: 08 00 01 42 00 00 00 00 00 02 01 00 00 00 00 04      	! BUNDLE
	add.ws	%r1, %r4, %r1
	ret.f	0
	nop	0


0000000000004ac0 <test_callmi_folding>:
    4ac0: 00 00 80 c2 40 10 00 00 04 04 80 15 60 08 0c 00      	! BUNDLE
	alloc	5
	mov	%r4, %r2
	call.mi	%r3, %r1, 48

    4ad0: 08 00 00 42 40 03 00 00 00 02 01 00 00 00 00 04      	! BUNDLE
	addi.ws	%r1, %r4, 2
	ret.f	0
	nop	0


0000000000004ae0 <test_callplt_folding>:
    4ae0: 00 00 00 c2 40 10 00 00 02 03 00 00 00 00 08 4a      	! BUNDLE
	alloc	4
	mov	%r3, %r1
	call.plt	%r2, 0

		0000000000004ae0:  R_POSTRISC_C_PCREL_FWD	gftable+0x28
    4af0: 08 00 80 41 40 03 00 00 00 02 01 00 00 00 00 04      	! BUNDLE
	addi.ws	%r1, %r3, 2
	ret.f	0
	nop	0


0000000000004b00 <test_global_function_pointer_target>:
    4b00: 00 00 00 c1 40 10 00 00 02 01 0d 00 00 00 08 04      	! BUNDLE
	alloc	2
	addi.ws	%r1, %r1, 1
	ret.f	0


0000000000004b10 <test_static_function_pointer_materialize>:
    4b10: 00 00 00 c1 40 10 00 00 00 01 18 00 00 00 08 04      	! BUNDLE
	alloc	2
	ca.r	%r1, 1
	ret.f	0


0000000000004b20 <test_static_function_pointer_target>:
    4b20: 00 00 00 c1 40 10 00 00 02 01 0d 00 00 00 08 04      	! BUNDLE
	alloc	2
	addi.ws	%r1, %r1, 1
	ret.f	0


0000000000004b30 <test_global_function_pointer_materialize>:
    4b30: 00 00 00 c1 40 00 00 00 00 01 18 00 00 00 08 04      	! BUNDLE
	alloc	2
	ca.r	%r1, 0
	ret.f	0

		0000000000004b30:  R_POSTRISC_B_JUMP	test_global_function_pointer_target

0000000000004b40 <test_extern_function_pointer_materialize>:
    4b40: 00 00 00 c1 40 00 00 00 00 01 18 00 00 00 08 04      	! BUNDLE
	alloc	2
	ca.r	%r1, 0
	ret.f	0

		0000000000004b40:  R_POSTRISC_B_JUMP	test_extern_function_pointer_target

0000000000004b50 <test_fshr_u32>:
    4b50: 00 00 80 c1 40 f0 a0 04 04 81 00 00 00 00 08 04      	! BUNDLE
	alloc	3
	srpi.w	%r1, %r2, %r1, 20
	ret.f	0


0000000000004b60 <test_fshr_u64>:
    4b60: 00 00 80 c1 40 20 a1 04 04 81 00 00 00 00 08 04      	! BUNDLE
	alloc	3
	srpi	%r1, %r2, %r1, 20
	ret.f	0


0000000000004b70 <test_fshr_u128>:
    4b70: 00 00 80 c1 40 e0 a2 04 04 81 00 00 00 00 08 04      	! BUNDLE
	alloc	3
	srpi.q	%r1, %r2, %r1, 20
	ret.f	0


0000000000004b80 <test_rotate_u32>:
    4b80: 00 00 00 c1 40 f0 a0 04 02 81 00 00 00 00 08 04      	! BUNDLE
	alloc	2
	srpi.w	%r1, %r1, %r1, 20
	ret.f	0


0000000000004b90 <test_rotate_u64>:
    4b90: 00 00 00 c1 40 20 a1 04 02 81 00 00 00 00 08 04      	! BUNDLE
	alloc	2
	srpi	%r1, %r1, %r1, 20
	ret.f	0


0000000000004ba0 <test_rotate_u128>:
    4ba0: 00 00 00 c1 40 e0 a2 04 02 81 00 00 00 00 08 04      	! BUNDLE
	alloc	2
	srpi.q	%r1, %r1, %r1, 20
	ret.f	0


0000000000004bb0 <test_global_data>:
    4bb0: 00 00 80 c1 40 00 00 00 00 82 74 00 00 10 08 30      	! BUNDLE
	alloc	3
	ldz.d.r	%r2, 0
	addi	%r2, %r2, 1

		0000000000004bb0:  R_POSTRISC_B_PCREL_FWD	x_bss
    4bc0: 00 00 00 80 60 0d 00 00 00 82 74 00 00 10 08 30      	! BUNDLE
	st.d.r	%r2, 0
	ldz.d.r	%r2, 0
	addi	%r2, %r2, 1

		0000000000004bc0:  R_POSTRISC_A_PCREL_FWD	x_bss
		0000000000004bc0:  R_POSTRISC_B_PCREL_FWD	x_bss_extern
    4bd0: 00 00 00 80 60 0d 00 00 00 02 01 00 00 00 00 04      	! BUNDLE
	st.d.r	%r2, 0
	ret.f	0
	nop	0

		0000000000004bd0:  R_POSTRISC_A_PCREL_FWD	x_bss_extern

0000000000004be0 <test_global_i8_ptr>:
    4be0: 00 00 00 c1 40 00 00 00 00 01 37 00 00 00 08 04      	! BUNDLE
	alloc	2
	ca.rf	%r1, 0
	ret.f	0

		0000000000004be0:  R_POSTRISC_B_PCREL_FWD	global_i8

0000000000004bf0 <test_global_i8>:
    4bf0: 00 00 00 c1 40 00 00 00 00 81 30 00 00 00 08 04      	! BUNDLE
	alloc	2
	lds.b.r	%r1, 0
	ret.f	0

		0000000000004bf0:  R_POSTRISC_B_PCREL_FWD	global_i8

0000000000004c00 <test_global_u8>:
    4c00: 00 00 00 c1 40 00 00 00 00 01 30 00 00 00 08 04      	! BUNDLE
	alloc	2
	ldz.b.r	%r1, 0
	ret.f	0

		0000000000004c00:  R_POSTRISC_B_PCREL_FWD	global_u8

0000000000004c10 <test_global_i16>:
    4c10: 00 00 00 c1 40 00 00 00 00 01 32 00 00 00 08 04      	! BUNDLE
	alloc	2
	lds.h.r	%r1, 0
	ret.f	0

		0000000000004c10:  R_POSTRISC_B_PCREL_FWD	global_i16

0000000000004c20 <test_global_u16>:
    4c20: 00 00 00 c1 40 00 00 00 00 81 31 00 00 00 08 04      	! BUNDLE
	alloc	2
	ldz.h.r	%r1, 0
	ret.f	0

		0000000000004c20:  R_POSTRISC_B_PCREL_FWD	global_u16

0000000000004c30 <test_global_i8_to_i16>:
    4c30: 00 00 00 c1 40 00 00 00 00 81 30 00 00 00 08 04      	! BUNDLE
	alloc	2
	lds.b.r	%r1, 0
	ret.f	0

		0000000000004c30:  R_POSTRISC_B_PCREL_FWD	global_i8

0000000000004c40 <test_global_u8_to_u16>:
    4c40: 00 00 00 c1 40 00 00 00 00 01 30 00 00 00 08 04      	! BUNDLE
	alloc	2
	ldz.b.r	%r1, 0
	ret.f	0

		0000000000004c40:  R_POSTRISC_B_PCREL_FWD	global_u8

0000000000004c50 <test_global_i32>:
    4c50: 00 00 00 c1 40 00 00 00 00 01 33 00 00 00 08 04      	! BUNDLE
	alloc	2
	ldz.w.r	%r1, 0
	ret.f	0

		0000000000004c50:  R_POSTRISC_B_PCREL_FWD	global_i32

0000000000004c60 <test_global_u32>:
    4c60: 00 00 00 c1 40 00 00 00 00 01 33 00 00 00 08 04      	! BUNDLE
	alloc	2
	ldz.w.r	%r1, 0
	ret.f	0

		0000000000004c60:  R_POSTRISC_B_PCREL_FWD	global_u32

0000000000004c70 <test_global_i8_to_i32>:
    4c70: 00 00 00 c1 40 00 00 00 00 81 30 00 00 00 08 04      	! BUNDLE
	alloc	2
	lds.b.r	%r1, 0
	ret.f	0

		0000000000004c70:  R_POSTRISC_B_PCREL_FWD	global_i8

0000000000004c80 <test_global_u8_to_u32>:
    4c80: 00 00 00 c1 40 00 00 00 00 01 30 00 00 00 08 04      	! BUNDLE
	alloc	2
	ldz.b.r	%r1, 0
	ret.f	0

		0000000000004c80:  R_POSTRISC_B_PCREL_FWD	global_u8

0000000000004c90 <test_global_i16_to_i32>:
    4c90: 00 00 00 c1 40 00 00 00 00 01 32 00 00 00 08 04      	! BUNDLE
	alloc	2
	lds.h.r	%r1, 0
	ret.f	0

		0000000000004c90:  R_POSTRISC_B_PCREL_FWD	global_i16

0000000000004ca0 <test_global_u16_to_u32>:
    4ca0: 00 00 00 c1 40 00 00 00 00 81 31 00 00 00 08 04      	! BUNDLE
	alloc	2
	ldz.h.r	%r1, 0
	ret.f	0

		0000000000004ca0:  R_POSTRISC_B_PCREL_FWD	global_u16

0000000000004cb0 <test_global_i8_to_i64>:
    4cb0: 00 00 00 c1 40 00 00 00 00 81 30 00 00 00 08 04      	! BUNDLE
	alloc	2
	lds.b.r	%r1, 0
	ret.f	0

		0000000000004cb0:  R_POSTRISC_B_PCREL_FWD	global_i8

0000000000004cc0 <test_global_u8_to_u64>:
    4cc0: 00 00 00 c1 40 00 00 00 00 01 30 00 00 00 08 04      	! BUNDLE
	alloc	2
	ldz.b.r	%r1, 0
	ret.f	0

		0000000000004cc0:  R_POSTRISC_B_PCREL_FWD	global_u8

0000000000004cd0 <test_global_i16_to_i64>:
    4cd0: 00 00 00 c1 40 00 00 00 00 01 32 00 00 00 08 04      	! BUNDLE
	alloc	2
	lds.h.r	%r1, 0
	ret.f	0

		0000000000004cd0:  R_POSTRISC_B_PCREL_FWD	global_i16

0000000000004ce0 <test_global_u16_to_u64>:
    4ce0: 00 00 00 c1 40 00 00 00 00 81 31 00 00 00 08 04      	! BUNDLE
	alloc	2
	ldz.h.r	%r1, 0
	ret.f	0

		0000000000004ce0:  R_POSTRISC_B_PCREL_FWD	global_u16

0000000000004cf0 <test_global_i32_to_i64>:
    4cf0: 00 00 00 c1 40 00 00 00 00 81 33 00 00 00 08 04      	! BUNDLE
	alloc	2
	lds.w.r	%r1, 0
	ret.f	0

		0000000000004cf0:  R_POSTRISC_B_PCREL_FWD	global_i32

0000000000004d00 <test_global_u32_to_u64>:
    4d00: 00 00 00 c1 40 00 00 00 00 01 33 00 00 00 08 04      	! BUNDLE
	alloc	2
	ldz.w.r	%r1, 0
	ret.f	0

		0000000000004d00:  R_POSTRISC_B_PCREL_FWD	global_u32

0000000000004d10 <test_global_i64>:
    4d10: 00 00 00 c1 40 00 00 00 00 81 34 00 00 00 08 04      	! BUNDLE
	alloc	2
	ldz.d.r	%r1, 0
	ret.f	0

		0000000000004d10:  R_POSTRISC_B_PCREL_FWD	global_i64

0000000000004d20 <test_global_u64>:
    4d20: 00 00 00 c1 40 00 00 00 00 81 34 00 00 00 08 04      	! BUNDLE
	alloc	2
	ldz.d.r	%r1, 0
	ret.f	0

		0000000000004d20:  R_POSTRISC_B_PCREL_FWD	global_u64

0000000000004d30 <test_global_array_folding_i8>:
    4d30: 00 00 00 c1 40 00 00 00 00 81 30 00 00 00 08 04      	! BUNDLE
	alloc	2
	lds.b.r	%r1, 0
	ret.f	0

		0000000000004d30:  R_POSTRISC_B_PCREL_FWD	global_array_i8+0x5

0000000000004d40 <test_global_array_folding_i16>:
    4d40: 00 00 00 c1 40 00 00 00 00 01 32 00 00 00 08 04      	! BUNDLE
	alloc	2
	lds.h.r	%r1, 0
	ret.f	0

		0000000000004d40:  R_POSTRISC_B_PCREL_FWD	global_array_i16+0xa

0000000000004d50 <test_global_array_folding_i32>:
    4d50: 00 00 00 c1 40 00 00 00 00 01 33 00 00 00 08 04      	! BUNDLE
	alloc	2
	ldz.w.r	%r1, 0
	ret.f	0

		0000000000004d50:  R_POSTRISC_B_PCREL_FWD	global_array_i32+0x14

0000000000004d60 <test_global_array_folding_i64>:
    4d60: 00 00 00 c1 40 00 00 00 00 81 34 00 00 00 08 04      	! BUNDLE
	alloc	2
	ldz.d.r	%r1, 0
	ret.f	0

		0000000000004d60:  R_POSTRISC_B_PCREL_FWD	global_array_i64+0x28

0000000000004d70 <test_ldi128>:
    4d70: 00 00 00 c1 40 20 1b c6 0b 01 08 00 00 00 08 04      	! BUNDLE
	alloc	2
	ldi	%r1, 12345778
	ret.f	0


0000000000004d80 <test_ldi128_long>:
    4d80: 01 00 00 c1 40 50 71 17 b7 01 08 7d 69 d3 36 00      	! BUNDLE
	alloc	2
	ldi.l	%r1, 987654321123456789

    4d90: 00 00 00 80 40 00 00 00 00 00 01 00 00 00 00 04      	! BUNDLE
	ret.f	0
	nop	0
	nop	0


0000000000004da0 <test_ldi128_verylong>:
    4da0: 01 00 00 c1 40 f0 ff ff 23 01 c8 ff ff ff ff 03      	! BUNDLE
	alloc	2
	ldi.l	%r1, -230686721

    4db0: fe ff 3f 40 20 02 00 00 00 00 00 00 00 00 08 04      	! BUNDLE
	ldih.l	%r1, 1048575
	ret.f	0


0000000000004dc0 <test_subfi_i128>:
    4dc0: 00 00 80 c1 40 20 4d 00 00 02 48 18 10 10 04 00      	! BUNDLE
	alloc	3
	ldi	%r2, 1234
	sub.q	%r1, %r2, %r1

    4dd0: 00 00 00 80 40 00 00 00 00 00 01 00 00 00 00 04      	! BUNDLE
	ret.f	0
	nop	0
	nop	0


0000000000004de0 <test_addi_i128>:
    4de0: 01 00 80 c1 40 50 f1 05 cd 02 88 2e 6d da 06 00      	! BUNDLE
	alloc	3
	ldi.l	%r2, 123456789123456789

    4df0: 81 01 82 40 00 f0 fa af ff 02 88 fe eb bf fe 01      	! BUNDLE
	add.q	%r1, %r1, %r2
	ldi.l	%r2, 9200848539817279407

    4e00: 64 00 82 40 00 00 00 00 00 02 01 00 00 00 00 04      	! BUNDLE
	or	%r1, %r1, %r2
	ret.f	0
	nop	0


0000000000004e10 <test_andi_i128>:
    4e10: 01 00 00 c1 40 50 f1 05 03 01 8a 59 97 36 6d 03      	! BUNDLE
	alloc	2
	andi.l	%r1, %r1, 123456789123456789

    4e20: 00 00 00 80 40 00 00 00 00 00 01 00 00 00 00 04      	! BUNDLE
	ret.f	0
	nop	0
	nop	0


0000000000004e30 <test_ori_i128>:
    4e30: 01 00 00 c1 40 50 71 17 03 81 ca 96 be b4 69 1b      	! BUNDLE
	alloc	2
	ori.l	%r1, %r1, 987654321123456789

    4e40: 00 00 00 80 40 00 00 00 00 00 01 00 00 00 00 04      	! BUNDLE
	ret.f	0
	nop	0
	nop	0


0000000000004e50 <test_add_i128>:
    4e50: 00 00 80 c1 40 00 06 04 04 01 00 00 00 00 08 04      	! BUNDLE
	alloc	3
	add.q	%r1, %r2, %r1
	ret.f	0


0000000000004e60 <test_sub_i128>:
    4e60: 00 00 80 c1 40 10 06 08 02 01 00 00 00 00 08 04      	! BUNDLE
	alloc	3
	sub.q	%r1, %r1, %r2
	ret.f	0


0000000000004e70 <test_immediate_i32>:
    4e70: 00 00 00 c1 40 b0 2e 43 8a 01 08 00 00 00 08 04      	! BUNDLE
	alloc	2
	ldi	%r1, -123456789
	ret.f	0


0000000000004e80 <test_immediate_u32>:
    4e80: 00 00 00 c1 40 50 d1 bc 75 01 08 00 00 00 08 04      	! BUNDLE
	alloc	2
	ldi	%r1, 123456789
	ret.f	0


0000000000004e90 <test_immediate_i32_long>:
    4e90: 01 00 00 c1 40 e0 d2 9f 66 01 c8 fe ff ff ff 03      	! BUNDLE
	alloc	2
	ldi.l	%r1, -1234567890

    4ea0: 00 00 00 80 40 00 00 00 00 00 01 00 00 00 00 04      	! BUNDLE
	ret.f	0
	nop	0
	nop	0


0000000000004eb0 <test_immediate_u32_long>:
    4eb0: 01 00 00 c1 40 20 2d 60 99 01 08 01 00 00 00 00      	! BUNDLE
	alloc	2
	ldi.l	%r1, 1234567890

    4ec0: 00 00 00 80 40 00 00 00 00 00 01 00 00 00 00 04      	! BUNDLE
	ret.f	0
	nop	0
	nop	0


0000000000004ed0 <test_immediate_i64>:
    4ed0: 00 00 00 c1 40 20 eb 39 f4 01 08 00 00 00 08 04      	! BUNDLE
	alloc	2
	ldi	%r1, -12345678
	ret.f	0


0000000000004ee0 <test_immediate_u64>:
    4ee0: 00 00 00 c1 40 e0 14 c6 0b 01 08 00 00 00 08 04      	! BUNDLE
	alloc	2
	ldi	%r1, 12345678
	ret.f	0


0000000000004ef0 <test_immediate_i64_long>:
    4ef0: 01 00 00 c1 40 50 b3 4f e0 01 08 82 fb ff ff 03      	! BUNDLE
	alloc	2
	ldi.l	%r1, -1234567890123

    4f00: 00 00 00 80 40 00 00 00 00 00 01 00 00 00 00 04      	! BUNDLE
	ret.f	0
	nop	0
	nop	0


0000000000004f10 <test_immediate_u64_long>:
    4f10: 01 00 00 c1 40 b0 4c b0 1f 01 c8 7d 04 00 00 00      	! BUNDLE
	alloc	2
	ldi.l	%r1, 1234567890123

    4f20: 00 00 00 80 40 00 00 00 00 00 01 00 00 00 00 04      	! BUNDLE
	ret.f	0
	nop	0
	nop	0


0000000000004f30 <test_immediate_size_max>:
    4f30: 01 00 00 c1 40 f0 ff ff ff 01 c8 ff ff ff ff 01      	! BUNDLE
	alloc	2
	ldi.l	%r1, 9223372036854775807

    4f40: 00 00 00 80 40 00 00 00 00 00 01 00 00 00 00 04      	! BUNDLE
	ret.f	0
	nop	0
	nop	0


0000000000004f50 <test_div_i32>:
    4f50: 00 00 80 c1 40 a0 02 08 02 01 00 00 00 00 08 04      	! BUNDLE
	alloc	3
	div.w	%r1, %r1, %r2
	ret.f	0


0000000000004f60 <test_div_i64>:
    4f60: 00 00 80 c1 40 80 02 08 02 01 00 00 00 00 08 04      	! BUNDLE
	alloc	3
	div.d	%r1, %r1, %r2
	ret.f	0


0000000000004f70 <test_div_u32>:
    4f70: 00 00 80 c1 40 b0 02 08 02 01 00 00 00 00 08 04      	! BUNDLE
	alloc	3
	divu.w	%r1, %r1, %r2
	ret.f	0


0000000000004f80 <test_div_u64>:
    4f80: 00 00 80 c1 40 90 02 08 02 01 00 00 00 00 08 04      	! BUNDLE
	alloc	3
	divu.d	%r1, %r1, %r2
	ret.f	0


0000000000004f90 <test_divi_i32>:
    4f90: 00 00 00 c1 40 80 3e 00 02 01 1a 00 00 00 08 04      	! BUNDLE
	alloc	2
	divi.w	%r1, %r1, 1000
	ret.f	0


0000000000004fa0 <test_divi_i64>:
    4fa0: 00 00 00 c1 40 80 3e 00 02 01 14 00 00 00 08 04      	! BUNDLE
	alloc	2
	divi.d	%r1, %r1, 1000
	ret.f	0


0000000000004fb0 <test_divi_u32>:
    4fb0: 00 00 00 c1 40 80 3e 00 02 81 1a 00 00 00 08 04      	! BUNDLE
	alloc	2
	divui.w	%r1, %r1, 1000
	ret.f	0


0000000000004fc0 <test_divi_u64>:
    4fc0: 00 00 00 c1 40 80 3e 00 02 81 14 00 00 00 08 04      	! BUNDLE
	alloc	2
	divui.d	%r1, %r1, 1000
	ret.f	0


0000000000004fd0 <test_divi_ext_i32>:
    4fd0: 01 00 00 c1 40 00 a0 ac 03 01 1a 77 00 00 00 00      	! BUNDLE
	alloc	2
	divi.w.l	%r1, %r1, 1000000000

    4fe0: 00 00 00 80 40 00 00 00 00 00 01 00 00 00 00 04      	! BUNDLE
	ret.f	0
	nop	0
	nop	0


0000000000004ff0 <test_divi_ext_i64>:
    4ff0: 01 00 00 c1 40 00 a0 ac 03 01 14 77 00 00 00 00      	! BUNDLE
	alloc	2
	divi.d.l	%r1, %r1, 1000000000

    5000: 00 00 00 80 40 00 00 00 00 00 01 00 00 00 00 04      	! BUNDLE
	ret.f	0
	nop	0
	nop	0


0000000000005010 <test_divi_ext_u32>:
    5010: 01 00 00 c1 40 00 a0 ac 03 81 1a 77 00 00 00 00      	! BUNDLE
	alloc	2
	divui.w.l	%r1, %r1, 1000000000

    5020: 00 00 00 80 40 00 00 00 00 00 01 00 00 00 00 04      	! BUNDLE
	ret.f	0
	nop	0
	nop	0


0000000000005030 <test_divi_ext_u64>:
    5030: 01 00 00 c1 40 00 a0 ac 03 81 14 77 00 00 00 00      	! BUNDLE
	alloc	2
	divui.d.l	%r1, %r1, 1000000000

    5040: 00 00 00 80 40 00 00 00 00 00 01 00 00 00 00 04      	! BUNDLE
	ret.f	0
	nop	0
	nop	0


0000000000005050 <test_rem_i32>:
    5050: 00 00 80 c1 40 e0 02 08 02 01 00 00 00 00 08 04      	! BUNDLE
	alloc	3
	mod.w	%r1, %r1, %r2
	ret.f	0


0000000000005060 <test_rem_i64>:
    5060: 00 00 80 c1 40 c0 02 08 02 01 00 00 00 00 08 04      	! BUNDLE
	alloc	3
	mod.d	%r1, %r1, %r2
	ret.f	0


0000000000005070 <test_rem_u32>:
    5070: 00 00 80 c1 40 f0 02 08 02 01 00 00 00 00 08 04      	! BUNDLE
	alloc	3
	modu.w	%r1, %r1, %r2
	ret.f	0


0000000000005080 <test_rem_u64>:
    5080: 00 00 80 c1 40 d0 02 08 02 01 00 00 00 00 08 04      	! BUNDLE
	alloc	3
	modu.d	%r1, %r1, %r2
	ret.f	0


0000000000005090 <test_rem_imm_i32>:
    5090: 00 00 00 c1 40 80 3e 00 02 01 1b 00 00 00 08 04      	! BUNDLE
	alloc	2
	modi.w	%r1, %r1, 1000
	ret.f	0


00000000000050a0 <test_rem_imm_u32>:
    50a0: 00 00 00 c1 40 80 3e 00 02 81 1b 00 00 00 08 04      	! BUNDLE
	alloc	2
	modui.w	%r1, %r1, 1000
	ret.f	0


00000000000050b0 <test_rem_imm_i64>:
    50b0: 00 00 00 c1 40 80 3e 00 02 01 15 00 00 00 08 04      	! BUNDLE
	alloc	2
	modi.d	%r1, %r1, 1000
	ret.f	0


00000000000050c0 <test_rem_imm_u64>:
    50c0: 00 00 00 c1 40 80 3e 00 02 81 15 00 00 00 08 04      	! BUNDLE
	alloc	2
	modui.d	%r1, %r1, 1000
	ret.f	0


00000000000050d0 <test_rem_imm_ext_i32>:
    50d0: 01 00 00 c1 40 00 a0 ac 03 01 1b 77 00 00 00 00      	! BUNDLE
	alloc	2
	modi.w.l	%r1, %r1, 1000000000

    50e0: 00 00 00 80 40 00 00 00 00 00 01 00 00 00 00 04      	! BUNDLE
	ret.f	0
	nop	0
	nop	0


00000000000050f0 <test_rem_imm_ext_u32>:
    50f0: 01 00 00 c1 40 00 a0 ac 03 81 1b 77 00 00 00 00      	! BUNDLE
	alloc	2
	modui.w.l	%r1, %r1, 1000000000

    5100: 00 00 00 80 40 00 00 00 00 00 01 00 00 00 00 04      	! BUNDLE
	ret.f	0
	nop	0
	nop	0


0000000000005110 <test_rem_imm_ext_i64>:
    5110: 01 00 00 c1 40 00 a0 ac 03 01 15 77 00 00 00 00      	! BUNDLE
	alloc	2
	modi.d.l	%r1, %r1, 1000000000

    5120: 00 00 00 80 40 00 00 00 00 00 01 00 00 00 00 04      	! BUNDLE
	ret.f	0
	nop	0
	nop	0


0000000000005130 <test_rem_imm_ext_u64>:
    5130: 01 00 00 c1 40 00 a0 ac 03 81 15 77 00 00 00 00      	! BUNDLE
	alloc	2
	modui.d.l	%r1, %r1, 1000000000

    5140: 00 00 00 80 40 00 00 00 00 00 01 00 00 00 00 04      	! BUNDLE
	ret.f	0
	nop	0
	nop	0


0000000000005150 <test_load_based_u32>:
    5150: 00 00 00 c1 40 00 e8 03 02 01 2b 00 00 00 08 04      	! BUNDLE
	alloc	2
	ldz.w	%r1, %r1, 16000
	ret.f	0


0000000000005160 <test_load_based_u16>:
    5160: 00 00 00 c1 40 00 f4 01 02 81 29 00 00 00 08 04      	! BUNDLE
	alloc	2
	ldz.h	%r1, %r1, 8000
	ret.f	0


0000000000005170 <test_load_based_u8>:
    5170: 00 00 00 c1 40 00 fa 00 02 01 28 00 00 00 08 04      	! BUNDLE
	alloc	2
	ldz.b	%r1, %r1, 4000
	ret.f	0


0000000000005180 <test_load_based_i32>:
    5180: 00 00 00 c1 40 00 e8 03 02 01 2b 00 00 00 08 04      	! BUNDLE
	alloc	2
	ldz.w	%r1, %r1, 16000
	ret.f	0


0000000000005190 <test_load_based_i16>:
    5190: 00 00 00 c1 40 00 f4 01 02 01 2a 00 00 00 08 04      	! BUNDLE
	alloc	2
	lds.h	%r1, %r1, 8000
	ret.f	0


00000000000051a0 <test_load_based_i8>:
    51a0: 00 00 00 c1 40 00 fa 00 02 81 28 00 00 00 08 04      	! BUNDLE
	alloc	2
	lds.b	%r1, %r1, 4000
	ret.f	0


00000000000051b0 <test_base_index_u32_u32>:
    51b0: 00 00 00 c2 40 b0 02 0c 04 02 00 20 27 08 04 14      	! BUNDLE
	alloc	4
	divu.w	%r2, %r2, %r3
	ldz.d.xuw	%r1, %r1, %r2, 3, 0

    51c0: 00 00 00 80 40 00 00 00 00 00 01 00 00 00 00 04      	! BUNDLE
	ret.f	0
	nop	0
	nop	0


00000000000051d0 <test_base_address>:
    51d0: 01 00 00 c4 40 00 00 74 03 85 6c 87 74 01 00 00      	! BUNDLE
	alloc	8
	ldz.d.l	%r5, %r1, 800000000000

    51e0: 01 7d 80 80 21 0b c8 09 02 07 04 84 d7 17 00 00      	! BUNDLE
	ldz.d	%r6, %r1, 8000
	ldz.d.xd.l	%r7, %r1, %r2, 3, 800000000

    51f0: 42 73 84 40 00 01 00 00 00 00 80 00 00 00 00 04      	! BUNDLE
	ldz.d.xd.l	%r1, %r1, %r4, 3, 80
	nop	2

    5200: 82 92 82 81 00 11 00 00 00 00 80 00 00 00 00 04      	! BUNDLE
	ldz.d.xd.l	%r2, %r3, %r2, 4, 160
	nop	2

    5210: 22 93 84 c1 00 c1 00 00 00 00 00 08 50 30 10 00      	! BUNDLE
	ldz.d.xd.l	%r3, %r3, %r4, 4, 1608
	add	%r4, %r6, %r5

    5220: 20 02 07 42 20 80 18 08 02 81 00 00 00 00 08 04      	! BUNDLE
	add.add	%r1, %r4, %r7, %r1
	add.add	%r1, %r1, %r2, %r3
	ret.f	0


0000000000005230 <MemoryIndexed>:
    5230: 00 00 80 c2 40 30 00 20 00 03 39 00 00 00 00 04      	! BUNDLE
	alloc	5
	bsi.lt.d	%r3, 1, 48
	nop	0

    5240: 00 00 80 00 21 8b 4a 12 04 04 04 00 00 08 10 b6      	! BUNDLE
	ldz.d	%r4, %r1, 0
	ldz.d.xd	%r4, %r2, %r4, 4, 40
	st.d	%r4, %r1, 0

    5250: fc ff ff c1 00 83 00 00 02 01 cc ff ff f8 0f 06      	! BUNDLE
	addi	%r3, %r3, -1
	addi	%r1, %r1, 8
	b.ne.d	%r3, %gz, -16

    5260: 00 00 00 80 40 00 00 00 00 00 01 00 00 00 00 04      	! BUNDLE
	ret.f	0
	nop	0
	nop	0


0000000000005270 <test_base_index_i32>:
    5270: 00 00 80 c1 40 00 c8 09 02 81 04 00 00 00 08 04      	! BUNDLE
	alloc	3
	ldz.d.xw	%r1, %r1, %r2, 3, 0
	ret.f	0


0000000000005280 <test_base_index_i32_offset>:
    5280: 00 00 80 c1 40 80 ca 09 02 81 04 00 00 00 08 04      	! BUNDLE
	alloc	3
	ldz.d.xw	%r1, %r1, %r2, 3, 40
	ret.f	0


0000000000005290 <test_base_index_u32>:
    5290: 00 00 80 c1 40 00 c8 09 02 01 05 00 00 00 08 04      	! BUNDLE
	alloc	3
	ldz.d.xuw	%r1, %r1, %r2, 3, 0
	ret.f	0


00000000000052a0 <test_base_index_u32_offset>:
    52a0: 00 00 80 c1 40 40 01 00 04 02 0d 20 27 08 04 14      	! BUNDLE
	alloc	3
	addi.ws	%r2, %r2, 20
	ldz.d.xuw	%r1, %r1, %r2, 3, 0

    52b0: 00 00 00 80 40 00 00 00 00 00 01 00 00 00 00 04      	! BUNDLE
	ret.f	0
	nop	0
	nop	0


00000000000052c0 <test_base_index_i64>:
    52c0: 00 00 80 c1 40 80 ca 09 02 01 04 00 00 00 08 04      	! BUNDLE
	alloc	3
	ldz.d.xd	%r1, %r1, %r2, 3, 40
	ret.f	0


00000000000052d0 <test_base_index_i32_struct>:
    52d0: 01 00 80 c1 40 80 4c 0a 02 81 84 00 00 00 00 00      	! BUNDLE
	alloc	3
	ldz.d.xw.l	%r1, %r1, %r2, 4, 328

    52e0: 00 00 00 80 40 00 00 00 00 00 01 00 00 00 00 04      	! BUNDLE
	ret.f	0
	nop	0
	nop	0


00000000000052f0 <test_base_index_u32_struct>:
    52f0: 00 00 80 c1 40 40 01 00 04 02 0d 22 29 08 04 14      	! BUNDLE
	alloc	3
	addi.ws	%r2, %r2, 20
	ldz.d.xuw	%r1, %r1, %r2, 4, 8

    5300: 00 00 00 80 40 00 00 00 00 00 01 00 00 00 00 04      	! BUNDLE
	ret.f	0
	nop	0
	nop	0


0000000000005310 <for_loop>:
    5310: 00 00 80 c3 40 10 00 00 fe 04 00 01 80 00 04 e4      	! BUNDLE
	alloc	7
	mov	%r4, %gz
	bsi.lt.d	%r1, 1, 64

    5320: 40 01 80 41 01 03 00 00 00 00 01 00 00 00 00 04      	! BUNDLE
	addi	%r5, %r3, 80
	nop	0
	nop	0

    5330: 00 00 80 82 21 0b 02 10 0c 04 c0 ff ff 0f 04 30      	! BUNDLE
	ldz.d	%r6, %r5, 0
	add	%r4, %r6, %r4
	addi	%r1, %r1, -1

    5340: 20 00 80 42 01 f3 ff 3f fe 81 01 00 00 00 00 04      	! BUNDLE
	addi	%r5, %r5, 8
	b.ne.d	%r1, %gz, -16
	nop	0

    5350: a2 72 82 41 00 11 00 00 00 00 00 08 40 08 04 00      	! BUNDLE
	ldz.d.xd.l	%r1, %r3, %r2, 3, 168
	add	%r1, %r1, %r4

    5360: 00 00 00 80 40 00 00 00 00 00 01 00 00 00 00 04      	! BUNDLE
	ret.f	0
	nop	0
	nop	0


0000000000005370 <for_loop_32>:
    5370: 00 00 80 c3 40 10 00 00 fe 04 00 01 80 00 04 f0      	! BUNDLE
	alloc	7
	mov	%r4, %gz
	bsi.lt.w	%r1, 1, 64

    5380: 14 01 80 40 00 80 02 00 06 05 0c 00 00 00 00 04      	! BUNDLE
	srli.w	%r1, %r1, 0
	addi	%r5, %r3, 40
	nop	0

    5390: 00 00 80 82 c1 2a 00 10 0c 04 c0 ff ff 0f 04 30      	! BUNDLE
	ldz.w	%r6, %r5, 0
	add.ws	%r4, %r6, %r4
	addi	%r1, %r1, -1

    53a0: 10 00 80 42 01 f3 ff 3f fe 81 01 00 00 00 00 04      	! BUNDLE
	addi	%r5, %r5, 4
	b.ne.d	%r1, %gz, -16
	nop	0

    53b0: 52 4d 82 41 20 01 00 00 00 00 80 00 40 08 04 00      	! BUNDLE
	ldz.w.xw.l	%r1, %r3, %r2, 2, 84
	add.ws	%r1, %r1, %r4

    53c0: 00 00 00 80 40 00 00 00 00 00 01 00 00 00 00 04      	! BUNDLE
	ret.f	0
	nop	0
	nop	0


00000000000053d0 <test_i64_min_lt>:
    53d0: 00 00 80 c1 40 20 03 08 02 01 00 00 00 00 08 04      	! BUNDLE
	alloc	3
	mins.d	%r1, %r1, %r2
	ret.f	0


00000000000053e0 <test_u64_min_lt>:
    53e0: 00 00 80 c1 40 30 03 08 02 01 00 00 00 00 08 04      	! BUNDLE
	alloc	3
	minu.d	%r1, %r1, %r2
	ret.f	0


00000000000053f0 <test_i64_min_le>:
    53f0: 00 00 80 c1 40 20 03 08 02 01 00 00 00 00 08 04      	! BUNDLE
	alloc	3
	mins.d	%r1, %r1, %r2
	ret.f	0


0000000000005400 <test_u64_min_le>:
    5400: 00 00 80 c1 40 30 03 08 02 01 00 00 00 00 08 04      	! BUNDLE
	alloc	3
	minu.d	%r1, %r1, %r2
	ret.f	0


0000000000005410 <test_i64_min_gt>:
    5410: 00 00 80 c1 40 20 03 04 04 01 00 00 00 00 08 04      	! BUNDLE
	alloc	3
	mins.d	%r1, %r2, %r1
	ret.f	0


0000000000005420 <test_u64_min_gt>:
    5420: 00 00 80 c1 40 30 03 04 04 01 00 00 00 00 08 04      	! BUNDLE
	alloc	3
	minu.d	%r1, %r2, %r1
	ret.f	0


0000000000005430 <test_i64_min_ge>:
    5430: 00 00 80 c1 40 20 03 04 04 01 00 00 00 00 08 04      	! BUNDLE
	alloc	3
	mins.d	%r1, %r2, %r1
	ret.f	0


0000000000005440 <test_u64_min_ge>:
    5440: 00 00 80 c1 40 30 03 04 04 01 00 00 00 00 08 04      	! BUNDLE
	alloc	3
	minu.d	%r1, %r2, %r1
	ret.f	0


0000000000005450 <test_i64_max_lt>:
    5450: 00 00 80 c1 40 00 03 08 02 01 00 00 00 00 08 04      	! BUNDLE
	alloc	3
	maxs.d	%r1, %r1, %r2
	ret.f	0


0000000000005460 <test_u64_max_lt>:
    5460: 00 00 80 c1 40 10 03 08 02 01 00 00 00 00 08 04      	! BUNDLE
	alloc	3
	maxu.d	%r1, %r1, %r2
	ret.f	0


0000000000005470 <test_i64_max_le>:
    5470: 00 00 80 c1 40 00 03 08 02 01 00 00 00 00 08 04      	! BUNDLE
	alloc	3
	maxs.d	%r1, %r1, %r2
	ret.f	0


0000000000005480 <test_u64_max_le>:
    5480: 00 00 80 c1 40 10 03 08 02 01 00 00 00 00 08 04      	! BUNDLE
	alloc	3
	maxu.d	%r1, %r1, %r2
	ret.f	0


0000000000005490 <test_i64_max_gt>:
    5490: 00 00 80 c1 40 00 03 04 04 01 00 00 00 00 08 04      	! BUNDLE
	alloc	3
	maxs.d	%r1, %r2, %r1
	ret.f	0


00000000000054a0 <test_u64_max_gt>:
    54a0: 00 00 80 c1 40 10 03 04 04 01 00 00 00 00 08 04      	! BUNDLE
	alloc	3
	maxu.d	%r1, %r2, %r1
	ret.f	0


00000000000054b0 <test_i64_max_ge>:
    54b0: 00 00 80 c1 40 00 03 04 04 01 00 00 00 00 08 04      	! BUNDLE
	alloc	3
	maxs.d	%r1, %r2, %r1
	ret.f	0


00000000000054c0 <test_u64_max_ge>:
    54c0: 00 00 80 c1 40 10 03 04 04 01 00 00 00 00 08 04      	! BUNDLE
	alloc	3
	maxu.d	%r1, %r2, %r1
	ret.f	0


00000000000054d0 <test_i32_min_lt>:
    54d0: 00 00 80 c1 40 60 03 08 02 01 00 00 00 00 08 04      	! BUNDLE
	alloc	3
	mins.w	%r1, %r1, %r2
	ret.f	0


00000000000054e0 <test_u32_min_lt>:
    54e0: 00 00 80 c1 40 70 03 08 02 01 00 00 00 00 08 04      	! BUNDLE
	alloc	3
	minu.w	%r1, %r1, %r2
	ret.f	0


00000000000054f0 <test_i32_min_le>:
    54f0: 00 00 80 c1 40 60 03 08 02 01 00 00 00 00 08 04      	! BUNDLE
	alloc	3
	mins.w	%r1, %r1, %r2
	ret.f	0


0000000000005500 <test_u32_min_le>:
    5500: 00 00 80 c1 40 70 03 08 02 01 00 00 00 00 08 04      	! BUNDLE
	alloc	3
	minu.w	%r1, %r1, %r2
	ret.f	0


0000000000005510 <test_i32_min_gt>:
    5510: 00 00 80 c1 40 60 03 04 04 01 00 00 00 00 08 04      	! BUNDLE
	alloc	3
	mins.w	%r1, %r2, %r1
	ret.f	0


0000000000005520 <test_u32_min_gt>:
    5520: 00 00 80 c1 40 70 03 04 04 01 00 00 00 00 08 04      	! BUNDLE
	alloc	3
	minu.w	%r1, %r2, %r1
	ret.f	0


0000000000005530 <test_i32_min_ge>:
    5530: 00 00 80 c1 40 60 03 04 04 01 00 00 00 00 08 04      	! BUNDLE
	alloc	3
	mins.w	%r1, %r2, %r1
	ret.f	0


0000000000005540 <test_u32_min_ge>:
    5540: 00 00 80 c1 40 70 03 04 04 01 00 00 00 00 08 04      	! BUNDLE
	alloc	3
	minu.w	%r1, %r2, %r1
	ret.f	0


0000000000005550 <test_i32_max_lt>:
    5550: 00 00 80 c1 40 40 03 08 02 01 00 00 00 00 08 04      	! BUNDLE
	alloc	3
	maxs.w	%r1, %r1, %r2
	ret.f	0


0000000000005560 <test_u32_max_lt>:
    5560: 00 00 80 c1 40 50 03 08 02 01 00 00 00 00 08 04      	! BUNDLE
	alloc	3
	maxu.w	%r1, %r1, %r2
	ret.f	0


0000000000005570 <test_i32_max_le>:
    5570: 00 00 80 c1 40 40 03 08 02 01 00 00 00 00 08 04      	! BUNDLE
	alloc	3
	maxs.w	%r1, %r1, %r2
	ret.f	0


0000000000005580 <test_u32_max_le>:
    5580: 00 00 80 c1 40 50 03 08 02 01 00 00 00 00 08 04      	! BUNDLE
	alloc	3
	maxu.w	%r1, %r1, %r2
	ret.f	0


0000000000005590 <test_i32_max_gt>:
    5590: 00 00 80 c1 40 40 03 04 04 01 00 00 00 00 08 04      	! BUNDLE
	alloc	3
	maxs.w	%r1, %r2, %r1
	ret.f	0


00000000000055a0 <test_u32_max_gt>:
    55a0: 00 00 80 c1 40 50 03 04 04 01 00 00 00 00 08 04      	! BUNDLE
	alloc	3
	maxu.w	%r1, %r2, %r1
	ret.f	0


00000000000055b0 <test_i32_max_ge>:
    55b0: 00 00 80 c1 40 40 03 04 04 01 00 00 00 00 08 04      	! BUNDLE
	alloc	3
	maxs.w	%r1, %r2, %r1
	ret.f	0


00000000000055c0 <test_u32_max_ge>:
    55c0: 00 00 80 c1 40 50 03 04 04 01 00 00 00 00 08 04      	! BUNDLE
	alloc	3
	maxu.w	%r1, %r2, %r1
	ret.f	0


00000000000055d0 <test_i64_min_lt_imm>:
    55d0: 00 00 00 c1 40 80 3e 00 02 01 17 00 00 00 08 04      	! BUNDLE
	alloc	2
	minsi.d	%r1, %r1, 1000
	ret.f	0


00000000000055e0 <test_u64_min_lt_imm>:
    55e0: 00 00 00 c1 40 80 3e 00 02 81 17 00 00 00 08 04      	! BUNDLE
	alloc	2
	minui.d	%r1, %r1, 1000
	ret.f	0


00000000000055f0 <test_i64_min_le_imm>:
    55f0: 00 00 00 c1 40 80 3e 00 02 01 17 00 00 00 08 04      	! BUNDLE
	alloc	2
	minsi.d	%r1, %r1, 1000
	ret.f	0


0000000000005600 <test_u64_min_le_imm>:
    5600: 00 00 00 c1 40 80 3e 00 02 81 17 00 00 00 08 04      	! BUNDLE
	alloc	2
	minui.d	%r1, %r1, 1000
	ret.f	0


0000000000005610 <test_i64_min_gt_imm>:
    5610: 00 00 00 c1 40 80 3e 00 02 01 17 00 00 00 08 04      	! BUNDLE
	alloc	2
	minsi.d	%r1, %r1, 1000
	ret.f	0


0000000000005620 <test_u64_min_gt_imm>:
    5620: 00 00 00 c1 40 80 3e 00 02 81 17 00 00 00 08 04      	! BUNDLE
	alloc	2
	minui.d	%r1, %r1, 1000
	ret.f	0


0000000000005630 <test_i64_min_ge_imm>:
    5630: 00 00 00 c1 40 80 3e 00 02 01 17 00 00 00 08 04      	! BUNDLE
	alloc	2
	minsi.d	%r1, %r1, 1000
	ret.f	0


0000000000005640 <test_u64_min_ge_imm>:
    5640: 00 00 00 c1 40 80 3e 00 02 81 17 00 00 00 08 04      	! BUNDLE
	alloc	2
	minui.d	%r1, %r1, 1000
	ret.f	0


0000000000005650 <test_i64_min_lt_imm_ext>:
    5650: 01 00 00 c1 40 00 a0 ac 03 01 17 77 00 00 00 00      	! BUNDLE
	alloc	2
	minsi.d.l	%r1, %r1, 1000000000

    5660: 00 00 00 80 40 00 00 00 00 00 01 00 00 00 00 04      	! BUNDLE
	ret.f	0
	nop	0
	nop	0


0000000000005670 <test_u64_min_lt_imm_ext>:
    5670: 01 00 00 c1 40 00 a0 ac 03 81 17 77 00 00 00 00      	! BUNDLE
	alloc	2
	minui.d.l	%r1, %r1, 1000000000

    5680: 00 00 00 80 40 00 00 00 00 00 01 00 00 00 00 04      	! BUNDLE
	ret.f	0
	nop	0
	nop	0


0000000000005690 <test_i64_min_le_imm_ext>:
    5690: 01 00 00 c1 40 00 a0 ac 03 01 17 77 00 00 00 00      	! BUNDLE
	alloc	2
	minsi.d.l	%r1, %r1, 1000000000

    56a0: 00 00 00 80 40 00 00 00 00 00 01 00 00 00 00 04      	! BUNDLE
	ret.f	0
	nop	0
	nop	0


00000000000056b0 <test_u64_min_le_imm_ext>:
    56b0: 01 00 00 c1 40 00 a0 ac 03 81 17 77 00 00 00 00      	! BUNDLE
	alloc	2
	minui.d.l	%r1, %r1, 1000000000

    56c0: 00 00 00 80 40 00 00 00 00 00 01 00 00 00 00 04      	! BUNDLE
	ret.f	0
	nop	0
	nop	0


00000000000056d0 <test_i64_min_gt_imm_ext>:
    56d0: 01 00 00 c1 40 00 a0 ac 03 01 17 77 00 00 00 00      	! BUNDLE
	alloc	2
	minsi.d.l	%r1, %r1, 1000000000

    56e0: 00 00 00 80 40 00 00 00 00 00 01 00 00 00 00 04      	! BUNDLE
	ret.f	0
	nop	0
	nop	0


00000000000056f0 <test_u64_min_gt_imm_ext>:
    56f0: 01 00 00 c1 40 00 a0 ac 03 81 17 77 00 00 00 00      	! BUNDLE
	alloc	2
	minui.d.l	%r1, %r1, 1000000000

    5700: 00 00 00 80 40 00 00 00 00 00 01 00 00 00 00 04      	! BUNDLE
	ret.f	0
	nop	0
	nop	0


0000000000005710 <test_i64_min_ge_imm_ext>:
    5710: 01 00 00 c1 40 00 a0 ac 03 01 17 77 00 00 00 00      	! BUNDLE
	alloc	2
	minsi.d.l	%r1, %r1, 1000000000

    5720: 00 00 00 80 40 00 00 00 00 00 01 00 00 00 00 04      	! BUNDLE
	ret.f	0
	nop	0
	nop	0


0000000000005730 <test_u64_min_ge_imm_ext>:
    5730: 01 00 00 c1 40 00 a0 ac 03 81 17 77 00 00 00 00      	! BUNDLE
	alloc	2
	minui.d.l	%r1, %r1, 1000000000

    5740: 00 00 00 80 40 00 00 00 00 00 01 00 00 00 00 04      	! BUNDLE
	ret.f	0
	nop	0
	nop	0


0000000000005750 <test_i64_max_lt_imm>:
    5750: 00 00 00 c1 40 80 3e 00 02 01 16 00 00 00 08 04      	! BUNDLE
	alloc	2
	maxsi.d	%r1, %r1, 1000
	ret.f	0


0000000000005760 <test_u64_max_lt_imm>:
    5760: 00 00 00 c1 40 80 3e 00 02 81 16 00 00 00 08 04      	! BUNDLE
	alloc	2
	maxui.d	%r1, %r1, 1000
	ret.f	0


0000000000005770 <test_i64_max_le_imm>:
    5770: 00 00 00 c1 40 80 3e 00 02 01 16 00 00 00 08 04      	! BUNDLE
	alloc	2
	maxsi.d	%r1, %r1, 1000
	ret.f	0


0000000000005780 <test_u64_max_le_imm>:
    5780: 00 00 00 c1 40 80 3e 00 02 81 16 00 00 00 08 04      	! BUNDLE
	alloc	2
	maxui.d	%r1, %r1, 1000
	ret.f	0


0000000000005790 <test_i64_max_gt_imm>:
    5790: 00 00 00 c1 40 80 3e 00 02 01 16 00 00 00 08 04      	! BUNDLE
	alloc	2
	maxsi.d	%r1, %r1, 1000
	ret.f	0


00000000000057a0 <test_u64_max_gt_imm>:
    57a0: 00 00 00 c1 40 80 3e 00 02 81 16 00 00 00 08 04      	! BUNDLE
	alloc	2
	maxui.d	%r1, %r1, 1000
	ret.f	0


00000000000057b0 <test_i64_max_ge_imm>:
    57b0: 00 00 00 c1 40 80 3e 00 02 01 16 00 00 00 08 04      	! BUNDLE
	alloc	2
	maxsi.d	%r1, %r1, 1000
	ret.f	0


00000000000057c0 <test_u64_max_ge_imm>:
    57c0: 00 00 00 c1 40 80 3e 00 02 81 16 00 00 00 08 04      	! BUNDLE
	alloc	2
	maxui.d	%r1, %r1, 1000
	ret.f	0


00000000000057d0 <test_i64_max_lt_imm_ext>:
    57d0: 01 00 00 c1 40 00 a0 ac 03 01 16 77 00 00 00 00      	! BUNDLE
	alloc	2
	maxsi.d.l	%r1, %r1, 1000000000

    57e0: 00 00 00 80 40 00 00 00 00 00 01 00 00 00 00 04      	! BUNDLE
	ret.f	0
	nop	0
	nop	0


00000000000057f0 <test_u64_max_lt_imm_ext>:
    57f0: 01 00 00 c1 40 00 a0 ac 03 81 16 77 00 00 00 00      	! BUNDLE
	alloc	2
	maxui.d.l	%r1, %r1, 1000000000

    5800: 00 00 00 80 40 00 00 00 00 00 01 00 00 00 00 04      	! BUNDLE
	ret.f	0
	nop	0
	nop	0


0000000000005810 <test_i64_max_le_imm_ext>:
    5810: 01 00 00 c1 40 00 a0 ac 03 01 16 77 00 00 00 00      	! BUNDLE
	alloc	2
	maxsi.d.l	%r1, %r1, 1000000000

    5820: 00 00 00 80 40 00 00 00 00 00 01 00 00 00 00 04      	! BUNDLE
	ret.f	0
	nop	0
	nop	0


0000000000005830 <test_u64_max_le_imm_ext>:
    5830: 01 00 00 c1 40 00 a0 ac 03 81 16 77 00 00 00 00      	! BUNDLE
	alloc	2
	maxui.d.l	%r1, %r1, 1000000000

    5840: 00 00 00 80 40 00 00 00 00 00 01 00 00 00 00 04      	! BUNDLE
	ret.f	0
	nop	0
	nop	0


0000000000005850 <test_i64_max_gt_imm_ext>:
    5850: 01 00 00 c1 40 00 a0 ac 03 01 16 77 00 00 00 00      	! BUNDLE
	alloc	2
	maxsi.d.l	%r1, %r1, 1000000000

    5860: 00 00 00 80 40 00 00 00 00 00 01 00 00 00 00 04      	! BUNDLE
	ret.f	0
	nop	0
	nop	0


0000000000005870 <test_u64_max_gt_imm_ext>:
    5870: 01 00 00 c1 40 00 a0 ac 03 81 16 77 00 00 00 00      	! BUNDLE
	alloc	2
	maxui.d.l	%r1, %r1, 1000000000

    5880: 00 00 00 80 40 00 00 00 00 00 01 00 00 00 00 04      	! BUNDLE
	ret.f	0
	nop	0
	nop	0


0000000000005890 <test_i64_max_ge_imm_ext>:
    5890: 01 00 00 c1 40 00 a0 ac 03 01 16 77 00 00 00 00      	! BUNDLE
	alloc	2
	maxsi.d.l	%r1, %r1, 1000000000

    58a0: 00 00 00 80 40 00 00 00 00 00 01 00 00 00 00 04      	! BUNDLE
	ret.f	0
	nop	0
	nop	0


00000000000058b0 <test_u64_max_ge_imm_ext>:
    58b0: 01 00 00 c1 40 00 a0 ac 03 81 16 77 00 00 00 00      	! BUNDLE
	alloc	2
	maxui.d.l	%r1, %r1, 1000000000

    58c0: 00 00 00 80 40 00 00 00 00 00 01 00 00 00 00 04      	! BUNDLE
	ret.f	0
	nop	0
	nop	0


00000000000058d0 <test_mov2>:
    58d0: 00 00 80 c5 40 e0 21 0c 10 87 80 27 20 50 24 02      	! BUNDLE
	alloc	11
	mov2	%r7, %r8, %r3, %r4
	mov2	%r9, %r10, %r2, %r1

    58e0: 00 00 00 80 81 24 00 04 0e 05 80 87 30 40 1c 02      	! BUNDLE
	call.r	%r6, 0
	add.ws	%r5, %r7, %r1
	mov2	%r7, %r8, %r3, %r4

		00000000000058e0:  R_POSTRISC_A_JUMP	test_mov2_callback
    58f0: 78 fe 02 45 22 00 00 00 00 06 92 00 70 28 08 00      	! BUNDLE
	mov2	%r9, %r10, %r2, %gz
	call.r	%r6, 0
	add.ws	%r2, %r5, %r7

		00000000000058f0:  R_POSTRISC_B_JUMP	test_mov2_callback
    5900: 78 08 03 c4 21 e0 f9 ff 15 89 00 00 00 00 18 48      	! BUNDLE
	mov2	%r7, %r8, %r3, %r4
	mov2	%r9, %r10, %gz, %gz
	call.r	%r6, 0

		0000000000005900:  R_POSTRISC_C_JUMP	test_mov2_callback
    5910: 08 00 07 81 00 e0 f9 0f 10 87 80 e7 ff 57 24 02      	! BUNDLE
	add.ws	%r2, %r2, %r7
	mov2	%r7, %r8, %r3, %gz
	mov2	%r9, %r10, %gz, %gz

    5920: 00 00 00 80 81 24 00 1c 04 02 80 e7 ff 47 1c 02      	! BUNDLE
	call.r	%r6, 0
	add.ws	%r2, %r2, %r7
	mov2	%r7, %r8, %gz, %gz

		0000000000005920:  R_POSTRISC_A_JUMP	test_mov2_callback
    5930: 78 fe 7f 45 22 00 00 00 00 06 92 00 70 10 04 00      	! BUNDLE
	mov2	%r9, %r10, %gz, %gz
	call.r	%r6, 0
	add.ws	%r1, %r2, %r7

		0000000000005930:  R_POSTRISC_B_JUMP	test_mov2_callback
    5940: 00 00 00 80 40 00 00 00 00 00 01 00 00 00 00 04      	! BUNDLE
	ret.f	0
	nop	0
	nop	0


0000000000005950 <test_after_naked>:
0000000000005950 <test_naked>:
    5950: 00 00 80 c0 40 00 00 00 00 02 01 00 00 00 00 04      	! BUNDLE
	alloc	1
	ret.f	0
	nop	0


0000000000005960 <test_nullification_i64_le>:
    5960: 00 00 80 c2 40 00 01 00 04 84 2c 60 90 09 10 02      	! BUNDLE
	alloc	5
	ldz.d	%r4, %r2, 16
	nuls.le.d	%r4, %r1, 3, 4

    5970: 20 72 01 81 00 51 00 00 04 04 10 f4 01 00 08 20      	! BUNDLE
	ldz.d.xd	%r2, %r2, %r1, 3, 8
	muli	%r4, %r2, 5
	ldi	%r2, 2000

    5980: 40 72 81 01 01 31 00 00 08 04 10 60 17 10 fc 11      	! BUNDLE
	ldz.d.xd	%r4, %r3, %r1, 3, 16
	muli	%r4, %r4, 3
	st.d.xd	%gz, %r2, %r1, 3, 0

    5990: e0 2e 00 80 00 82 ca 05 06 03 04 08 20 08 04 00      	! BUNDLE
	ldi	%r2, 3000
	ldz.d.xd	%r3, %r3, %r1, 3, 40
	add	%r1, %r1, %r2

    59a0: 20 06 84 40 20 00 00 00 00 02 01 00 00 00 00 04      	! BUNDLE
	add.add	%r1, %r1, %r4, %r3
	ret.f	0
	nop	0


00000000000059b0 <test_nullification_i64_lt>:
    59b0: 00 00 80 c2 40 00 01 00 04 84 2c 60 10 09 10 02      	! BUNDLE
	alloc	5
	ldz.d	%r4, %r2, 16
	nuls.lt.d	%r4, %r1, 3, 4

    59c0: 20 72 01 81 00 51 00 00 04 04 10 f4 01 00 08 20      	! BUNDLE
	ldz.d.xd	%r2, %r2, %r1, 3, 8
	muli	%r4, %r2, 5
	ldi	%r2, 2000

    59d0: 40 72 81 01 01 31 00 00 08 04 10 60 17 10 fc 11      	! BUNDLE
	ldz.d.xd	%r4, %r3, %r1, 3, 16
	muli	%r4, %r4, 3
	st.d.xd	%gz, %r2, %r1, 3, 0

    59e0: e0 2e 00 80 00 82 ca 05 06 03 04 08 20 08 04 00      	! BUNDLE
	ldi	%r2, 3000
	ldz.d.xd	%r3, %r3, %r1, 3, 40
	add	%r1, %r1, %r2

    59f0: 20 06 84 40 20 00 00 00 00 02 01 00 00 00 00 04      	! BUNDLE
	add.add	%r1, %r1, %r4, %r3
	ret.f	0
	nop	0


0000000000005a00 <test_nulu_le_d>:
    5a00: 00 00 00 c2 40 00 10 a3 02 82 00 00 00 00 08 d2      	! BUNDLE
	alloc	4
	nulu.le.d	%r2, %r1, 2, 3
	ldz.d.r	%r2, 0

		0000000000005a00:  R_POSTRISC_C_PCREL_FWD	left
    5a10: 80 00 01 41 00 00 00 00 00 82 34 08 10 10 04 00      	! BUNDLE
	add	%r1, %r2, %r1
	ldz.d.r	%r2, 0
	add	%r1, %r2, %r1

		0000000000005a10:  R_POSTRISC_B_PCREL_FWD	right
    5a20: 40 76 81 c1 1f 01 05 00 06 82 2c 08 10 10 04 00      	! BUNDLE
	st.d.xd	%gz, %r3, %r1, 3, 16
	ldz.d	%r2, %r3, 80
	add	%r1, %r2, %r1

    5a30: 00 00 00 80 40 00 00 00 00 00 01 00 00 00 00 04      	! BUNDLE
	ret.f	0
	nop	0
	nop	0


0000000000005a40 <test_nullify_bool>:
    5a40: 00 00 00 c2 40 00 10 a3 01 81 00 00 00 00 08 d2      	! BUNDLE
	alloc	4
	nul.bci	%r1, 0, 2, 3
	ldz.d.r	%r2, 0

		0000000000005a40:  R_POSTRISC_C_PCREL_FWD	left_bool
    5a50: 80 00 01 41 00 00 00 00 00 82 34 08 10 10 04 00      	! BUNDLE
	add	%r1, %r2, %r1
	ldz.d.r	%r2, 0
	add	%r1, %r2, %r1

		0000000000005a50:  R_POSTRISC_B_PCREL_FWD	right_bool
    5a60: 40 76 81 c1 1f 01 05 00 06 82 2c 08 10 10 04 00      	! BUNDLE
	st.d.xd	%gz, %r3, %r1, 3, 16
	ldz.d	%r2, %r3, 80
	add	%r1, %r2, %r1

    5a70: 00 00 00 80 40 00 00 00 00 00 01 00 00 00 00 04      	! BUNDLE
	ret.f	0
	nop	0
	nop	0


0000000000005a80 <test_nullify_bool_not>:
    5a80: 00 00 00 c2 40 00 10 e3 01 81 00 00 00 00 08 d2      	! BUNDLE
	alloc	4
	nul.bsi	%r1, 0, 2, 3
	ldz.d.r	%r2, 0

		0000000000005a80:  R_POSTRISC_C_PCREL_FWD	left_bool
    5a90: 80 00 01 41 00 00 00 00 00 82 34 08 10 10 04 00      	! BUNDLE
	add	%r1, %r2, %r1
	ldz.d.r	%r2, 0
	add	%r1, %r2, %r1

		0000000000005a90:  R_POSTRISC_B_PCREL_FWD	right_bool
    5aa0: 40 76 81 c1 1f 01 05 00 06 82 2c 08 10 10 04 00      	! BUNDLE
	st.d.xd	%gz, %r3, %r1, 3, 16
	ldz.d	%r2, %r3, 80
	add	%r1, %r2, %r1

    5ab0: 00 00 00 80 40 00 00 00 00 00 01 00 00 00 00 04      	! BUNDLE
	ret.f	0
	nop	0
	nop	0


0000000000005ac0 <test_nullify_bool_and>:
    5ac0: 00 00 00 c2 40 20 00 a0 01 81 81 00 80 06 08 06      	! BUNDLE
	alloc	4
	b.bci	%r1, 0, 32
	b.bci	%r2, 0, 32

    5ad0: 00 00 00 80 20 0d 02 04 04 01 80 00 00 00 04 04      	! BUNDLE
	ldz.d.r	%r2, 0
	add	%r1, %r2, %r1
	jmp	32

		0000000000005ad0:  R_POSTRISC_A_PCREL_FWD	left_bool
    5ae0: 00 00 00 80 20 0d 02 04 04 01 00 64 17 18 fc 11      	! BUNDLE
	ldz.d.r	%r2, 0
	add	%r1, %r2, %r1
	st.d.xd	%gz, %r3, %r1, 3, 16

		0000000000005ae0:  R_POSTRISC_A_PCREL_FWD	right_bool
    5af0: 40 01 80 81 20 0b 02 04 04 01 00 00 00 00 08 04      	! BUNDLE
	ldz.d	%r2, %r3, 80
	add	%r1, %r2, %r1
	ret.f	0


0000000000005b00 <test_nullify_bool_or>:
    5b00: 00 00 00 c2 40 30 00 e0 01 81 c1 00 80 07 08 06      	! BUNDLE
	alloc	4
	b.bsi	%r1, 0, 48
	b.bsi	%r2, 0, 48

    5b10: 00 00 00 80 20 0d 02 04 04 01 00 64 17 18 fc 11      	! BUNDLE
	ldz.d.r	%r2, 0
	add	%r1, %r2, %r1
	st.d.xd	%gz, %r3, %r1, 3, 16

		0000000000005b10:  R_POSTRISC_A_PCREL_FWD	right_bool
    5b20: 08 00 00 40 40 00 00 00 00 00 01 00 00 00 00 04      	! BUNDLE
	jmp	32
	nop	0
	nop	0

    5b30: 00 00 00 80 20 0d 02 04 04 01 00 00 00 00 00 04      	! BUNDLE
	ldz.d.r	%r2, 0
	add	%r1, %r2, %r1
	nop	0

		0000000000005b30:  R_POSTRISC_A_PCREL_FWD	left_bool
    5b40: 40 01 80 81 20 0b 02 04 04 01 00 00 00 00 08 04      	! BUNDLE
	ldz.d	%r2, %r3, 80
	add	%r1, %r2, %r1
	ret.f	0


0000000000005b50 <test_nullify_f128_eq>:
    5b50: 00 00 00 c2 40 30 10 24 04 81 00 00 00 00 08 d8      	! BUNDLE
	alloc	4
	nulfo.ne.sq	%r1, %r2, 2, 4
	ld.q.r	%r2, 0

		0000000000005b50:  R_POSTRISC_C_PCREL_FWD	left_f128
    5b60: 0c 10 01 41 00 00 00 00 00 02 f6 00 11 10 04 00      	! BUNDLE
	fadd.sq	%r1, %r2, %r1
	ld.q.r	%r2, 0
	fadd.sq	%r1, %r2, %r1

		0000000000005b60:  R_POSTRISC_B_PCREL_FWD	right_f128
    5b70: 8c 10 80 80 00 00 6a 0a 06 7f 04 28 00 18 08 b8      	! BUNDLE
	fcvt.sq.id	%r2, %r1, 0
	st.q.xd	%gz, %r3, %r2, 4, 32
	ld.q	%r2, %r3, 160

    5b80: 0c 10 01 41 00 00 00 00 00 02 01 00 00 00 00 04      	! BUNDLE
	fadd.sq	%r1, %r2, %r1
	ret.f	0
	nop	0


0000000000005b90 <test_nullify_f128_ne>:
    5b90: 00 00 00 c2 40 30 10 04 04 81 00 00 00 00 08 d8      	! BUNDLE
	alloc	4
	nulfo.eq.sq	%r1, %r2, 2, 4
	ld.q.r	%r2, 0

		0000000000005b90:  R_POSTRISC_C_PCREL_FWD	left_f128
    5ba0: 0c 10 01 41 00 00 00 00 00 02 f6 00 11 10 04 00      	! BUNDLE
	fadd.sq	%r1, %r2, %r1
	ld.q.r	%r2, 0
	fadd.sq	%r1, %r2, %r1

		0000000000005ba0:  R_POSTRISC_B_PCREL_FWD	right_f128
    5bb0: 8c 10 80 80 00 00 6a 0a 06 7f 04 28 00 18 08 b8      	! BUNDLE
	fcvt.sq.id	%r2, %r1, 0
	st.q.xd	%gz, %r3, %r2, 4, 32
	ld.q	%r2, %r3, 160

    5bc0: 0c 10 01 41 00 00 00 00 00 02 01 00 00 00 00 04      	! BUNDLE
	fadd.sq	%r1, %r2, %r1
	ret.f	0
	nop	0


0000000000005bd0 <test_nullify_f128_lt>:
    5bd0: 00 00 00 c2 40 30 10 64 02 82 00 00 00 00 08 d8      	! BUNDLE
	alloc	4
	nulfo.le.sq	%r2, %r1, 2, 4
	ld.q.r	%r2, 0

		0000000000005bd0:  R_POSTRISC_C_PCREL_FWD	left_f128
    5be0: 0c 10 01 41 00 00 00 00 00 02 f6 00 11 10 04 00      	! BUNDLE
	fadd.sq	%r1, %r2, %r1
	ld.q.r	%r2, 0
	fadd.sq	%r1, %r2, %r1

		0000000000005be0:  R_POSTRISC_B_PCREL_FWD	right_f128
    5bf0: 8c 10 80 80 00 00 6a 0a 06 7f 04 28 00 18 08 b8      	! BUNDLE
	fcvt.sq.id	%r2, %r1, 0
	st.q.xd	%gz, %r3, %r2, 4, 32
	ld.q	%r2, %r3, 160

    5c00: 0c 10 01 41 00 00 00 00 00 02 01 00 00 00 00 04      	! BUNDLE
	fadd.sq	%r1, %r2, %r1
	ret.f	0
	nop	0


0000000000005c10 <test_nullify_f128_le>:
    5c10: 00 00 00 c2 40 30 10 44 02 82 00 00 00 00 08 d8      	! BUNDLE
	alloc	4
	nulfo.lt.sq	%r2, %r1, 2, 4
	ld.q.r	%r2, 0

		0000000000005c10:  R_POSTRISC_C_PCREL_FWD	left_f128
    5c20: 0c 10 01 41 00 00 00 00 00 02 f6 00 11 10 04 00      	! BUNDLE
	fadd.sq	%r1, %r2, %r1
	ld.q.r	%r2, 0
	fadd.sq	%r1, %r2, %r1

		0000000000005c20:  R_POSTRISC_B_PCREL_FWD	right_f128
    5c30: 8c 10 80 80 00 00 6a 0a 06 7f 04 28 00 18 08 b8      	! BUNDLE
	fcvt.sq.id	%r2, %r1, 0
	st.q.xd	%gz, %r3, %r2, 4, 32
	ld.q	%r2, %r3, 160

    5c40: 0c 10 01 41 00 00 00 00 00 02 01 00 00 00 00 04      	! BUNDLE
	fadd.sq	%r1, %r2, %r1
	ret.f	0
	nop	0


0000000000005c50 <test_nullify_f128_gt>:
    5c50: 00 00 00 c2 40 30 10 64 04 81 00 00 00 00 08 d8      	! BUNDLE
	alloc	4
	nulfo.le.sq	%r1, %r2, 2, 4
	ld.q.r	%r2, 0

		0000000000005c50:  R_POSTRISC_C_PCREL_FWD	left_f128
    5c60: 0c 10 01 41 00 00 00 00 00 02 f6 00 11 10 04 00      	! BUNDLE
	fadd.sq	%r1, %r2, %r1
	ld.q.r	%r2, 0
	fadd.sq	%r1, %r2, %r1

		0000000000005c60:  R_POSTRISC_B_PCREL_FWD	right_f128
    5c70: 8c 10 80 80 00 00 6a 0a 06 7f 04 28 00 18 08 b8      	! BUNDLE
	fcvt.sq.id	%r2, %r1, 0
	st.q.xd	%gz, %r3, %r2, 4, 32
	ld.q	%r2, %r3, 160

    5c80: 0c 10 01 41 00 00 00 00 00 02 01 00 00 00 00 04      	! BUNDLE
	fadd.sq	%r1, %r2, %r1
	ret.f	0
	nop	0


0000000000005c90 <test_nullify_f128_ge>:
    5c90: 00 00 00 c2 40 30 10 44 04 81 00 00 00 00 08 d8      	! BUNDLE
	alloc	4
	nulfo.lt.sq	%r1, %r2, 2, 4
	ld.q.r	%r2, 0

		0000000000005c90:  R_POSTRISC_C_PCREL_FWD	left_f128
    5ca0: 0c 10 01 41 00 00 00 00 00 02 f6 00 11 10 04 00      	! BUNDLE
	fadd.sq	%r1, %r2, %r1
	ld.q.r	%r2, 0
	fadd.sq	%r1, %r2, %r1

		0000000000005ca0:  R_POSTRISC_B_PCREL_FWD	right_f128
    5cb0: 8c 10 80 80 00 00 6a 0a 06 7f 04 28 00 18 08 b8      	! BUNDLE
	fcvt.sq.id	%r2, %r1, 0
	st.q.xd	%gz, %r3, %r2, 4, 32
	ld.q	%r2, %r3, 160

    5cc0: 0c 10 01 41 00 00 00 00 00 02 01 00 00 00 00 04      	! BUNDLE
	fadd.sq	%r1, %r2, %r1
	ret.f	0
	nop	0


0000000000005cd0 <test_nullify_f32_eq>:
    5cd0: 00 00 00 c2 40 10 10 24 04 81 00 00 00 00 08 cc      	! BUNDLE
	alloc	4
	nulfo.ne.ss	%r1, %r2, 2, 4
	ldz.w.r	%r2, 0

		0000000000005cd0:  R_POSTRISC_C_PCREL_FWD	left_f32
    5ce0: 0c 0c 01 41 00 00 00 00 00 02 f3 c0 10 10 04 00      	! BUNDLE
	fadd.ss	%r1, %r2, %r1
	ldz.w.r	%r2, 0
	fadd.ss	%r1, %r2, %r1

		0000000000005ce0:  R_POSTRISC_B_PCREL_FWD	right_f32
    5cf0: 8c 0c 80 80 00 80 40 09 06 7f 04 0a 00 18 08 ac      	! BUNDLE
	fcvt.ss.id	%r2, %r1, 0
	st.w.xd	%gz, %r3, %r2, 2, 8
	ldz.w	%r2, %r3, 40

    5d00: 0c 0c 01 41 00 00 00 00 00 02 01 00 00 00 00 04      	! BUNDLE
	fadd.ss	%r1, %r2, %r1
	ret.f	0
	nop	0


0000000000005d10 <test_nullify_f32_ne>:
    5d10: 00 00 00 c2 40 10 10 04 04 81 00 00 00 00 08 cc      	! BUNDLE
	alloc	4
	nulfo.eq.ss	%r1, %r2, 2, 4
	ldz.w.r	%r2, 0

		0000000000005d10:  R_POSTRISC_C_PCREL_FWD	left_f32
    5d20: 0c 0c 01 41 00 00 00 00 00 02 f3 c0 10 10 04 00      	! BUNDLE
	fadd.ss	%r1, %r2, %r1
	ldz.w.r	%r2, 0
	fadd.ss	%r1, %r2, %r1

		0000000000005d20:  R_POSTRISC_B_PCREL_FWD	right_f32
    5d30: 8c 0c 80 80 00 80 40 09 06 7f 04 0a 00 18 08 ac      	! BUNDLE
	fcvt.ss.id	%r2, %r1, 0
	st.w.xd	%gz, %r3, %r2, 2, 8
	ldz.w	%r2, %r3, 40

    5d40: 0c 0c 01 41 00 00 00 00 00 02 01 00 00 00 00 04      	! BUNDLE
	fadd.ss	%r1, %r2, %r1
	ret.f	0
	nop	0


0000000000005d50 <test_nullify_f32_lt>:
    5d50: 00 00 00 c2 40 10 10 64 02 82 00 00 00 00 08 cc      	! BUNDLE
	alloc	4
	nulfo.le.ss	%r2, %r1, 2, 4
	ldz.w.r	%r2, 0

		0000000000005d50:  R_POSTRISC_C_PCREL_FWD	left_f32
    5d60: 0c 0c 01 41 00 00 00 00 00 02 f3 c0 10 10 04 00      	! BUNDLE
	fadd.ss	%r1, %r2, %r1
	ldz.w.r	%r2, 0
	fadd.ss	%r1, %r2, %r1

		0000000000005d60:  R_POSTRISC_B_PCREL_FWD	right_f32
    5d70: 8c 0c 80 80 00 80 40 09 06 7f 04 0a 00 18 08 ac      	! BUNDLE
	fcvt.ss.id	%r2, %r1, 0
	st.w.xd	%gz, %r3, %r2, 2, 8
	ldz.w	%r2, %r3, 40

    5d80: 0c 0c 01 41 00 00 00 00 00 02 01 00 00 00 00 04      	! BUNDLE
	fadd.ss	%r1, %r2, %r1
	ret.f	0
	nop	0


0000000000005d90 <test_nullify_f32_le>:
    5d90: 00 00 00 c2 40 10 10 44 02 82 00 00 00 00 08 cc      	! BUNDLE
	alloc	4
	nulfo.lt.ss	%r2, %r1, 2, 4
	ldz.w.r	%r2, 0

		0000000000005d90:  R_POSTRISC_C_PCREL_FWD	left_f32
    5da0: 0c 0c 01 41 00 00 00 00 00 02 f3 c0 10 10 04 00      	! BUNDLE
	fadd.ss	%r1, %r2, %r1
	ldz.w.r	%r2, 0
	fadd.ss	%r1, %r2, %r1

		0000000000005da0:  R_POSTRISC_B_PCREL_FWD	right_f32
    5db0: 8c 0c 80 80 00 80 40 09 06 7f 04 0a 00 18 08 ac      	! BUNDLE
	fcvt.ss.id	%r2, %r1, 0
	st.w.xd	%gz, %r3, %r2, 2, 8
	ldz.w	%r2, %r3, 40

    5dc0: 0c 0c 01 41 00 00 00 00 00 02 01 00 00 00 00 04      	! BUNDLE
	fadd.ss	%r1, %r2, %r1
	ret.f	0
	nop	0


0000000000005dd0 <test_nullify_f32_gt>:
    5dd0: 00 00 00 c2 40 10 10 64 04 81 00 00 00 00 08 cc      	! BUNDLE
	alloc	4
	nulfo.le.ss	%r1, %r2, 2, 4
	ldz.w.r	%r2, 0

		0000000000005dd0:  R_POSTRISC_C_PCREL_FWD	left_f32
    5de0: 0c 0c 01 41 00 00 00 00 00 02 f3 c0 10 10 04 00      	! BUNDLE
	fadd.ss	%r1, %r2, %r1
	ldz.w.r	%r2, 0
	fadd.ss	%r1, %r2, %r1

		0000000000005de0:  R_POSTRISC_B_PCREL_FWD	right_f32
    5df0: 8c 0c 80 80 00 80 40 09 06 7f 04 0a 00 18 08 ac      	! BUNDLE
	fcvt.ss.id	%r2, %r1, 0
	st.w.xd	%gz, %r3, %r2, 2, 8
	ldz.w	%r2, %r3, 40

    5e00: 0c 0c 01 41 00 00 00 00 00 02 01 00 00 00 00 04      	! BUNDLE
	fadd.ss	%r1, %r2, %r1
	ret.f	0
	nop	0


0000000000005e10 <test_nullify_f32_ge>:
    5e10: 00 00 00 c2 40 10 10 44 04 81 00 00 00 00 08 cc      	! BUNDLE
	alloc	4
	nulfo.lt.ss	%r1, %r2, 2, 4
	ldz.w.r	%r2, 0

		0000000000005e10:  R_POSTRISC_C_PCREL_FWD	left_f32
    5e20: 0c 0c 01 41 00 00 00 00 00 02 f3 c0 10 10 04 00      	! BUNDLE
	fadd.ss	%r1, %r2, %r1
	ldz.w.r	%r2, 0
	fadd.ss	%r1, %r2, %r1

		0000000000005e20:  R_POSTRISC_B_PCREL_FWD	right_f32
    5e30: 8c 0c 80 80 00 80 40 09 06 7f 04 0a 00 18 08 ac      	! BUNDLE
	fcvt.ss.id	%r2, %r1, 0
	st.w.xd	%gz, %r3, %r2, 2, 8
	ldz.w	%r2, %r3, 40

    5e40: 0c 0c 01 41 00 00 00 00 00 02 01 00 00 00 00 04      	! BUNDLE
	fadd.ss	%r1, %r2, %r1
	ret.f	0
	nop	0


0000000000005e50 <test_nullify_f64_eq>:
    5e50: 00 00 00 c2 40 20 10 24 04 81 00 00 00 00 08 d2      	! BUNDLE
	alloc	4
	nulfo.ne.sd	%r1, %r2, 2, 4
	ldz.d.r	%r2, 0

		0000000000005e50:  R_POSTRISC_C_PCREL_FWD	left_f64
    5e60: 0c 0e 01 41 00 00 00 00 00 82 f4 e0 10 10 04 00      	! BUNDLE
	fadd.sd	%r1, %r2, %r1
	ldz.d.r	%r2, 0
	fadd.sd	%r1, %r2, %r1

		0000000000005e60:  R_POSTRISC_B_PCREL_FWD	right_f64
    5e70: 8c 0e 80 80 00 00 d9 09 06 7f 04 14 00 18 08 b2      	! BUNDLE
	fcvt.sd.id	%r2, %r1, 0
	st.d.xd	%gz, %r3, %r2, 3, 16
	ldz.d	%r2, %r3, 80

    5e80: 0c 0e 01 41 00 00 00 00 00 02 01 00 00 00 00 04      	! BUNDLE
	fadd.sd	%r1, %r2, %r1
	ret.f	0
	nop	0


0000000000005e90 <test_nullify_f64_ne>:
    5e90: 00 00 00 c2 40 20 10 04 04 81 00 00 00 00 08 d2      	! BUNDLE
	alloc	4
	nulfo.eq.sd	%r1, %r2, 2, 4
	ldz.d.r	%r2, 0

		0000000000005e90:  R_POSTRISC_C_PCREL_FWD	left_f64
    5ea0: 0c 0e 01 41 00 00 00 00 00 82 f4 e0 10 10 04 00      	! BUNDLE
	fadd.sd	%r1, %r2, %r1
	ldz.d.r	%r2, 0
	fadd.sd	%r1, %r2, %r1

		0000000000005ea0:  R_POSTRISC_B_PCREL_FWD	right_f64
    5eb0: 8c 0e 80 80 00 00 d9 09 06 7f 04 14 00 18 08 b2      	! BUNDLE
	fcvt.sd.id	%r2, %r1, 0
	st.d.xd	%gz, %r3, %r2, 3, 16
	ldz.d	%r2, %r3, 80

    5ec0: 0c 0e 01 41 00 00 00 00 00 02 01 00 00 00 00 04      	! BUNDLE
	fadd.sd	%r1, %r2, %r1
	ret.f	0
	nop	0


0000000000005ed0 <test_nullify_f64_lt>:
    5ed0: 00 00 00 c2 40 20 10 64 02 82 00 00 00 00 08 d2      	! BUNDLE
	alloc	4
	nulfo.le.sd	%r2, %r1, 2, 4
	ldz.d.r	%r2, 0

		0000000000005ed0:  R_POSTRISC_C_PCREL_FWD	left_f64
    5ee0: 0c 0e 01 41 00 00 00 00 00 82 f4 e0 10 10 04 00      	! BUNDLE
	fadd.sd	%r1, %r2, %r1
	ldz.d.r	%r2, 0
	fadd.sd	%r1, %r2, %r1

		0000000000005ee0:  R_POSTRISC_B_PCREL_FWD	right_f64
    5ef0: 8c 0e 80 80 00 00 d9 09 06 7f 04 14 00 18 08 b2      	! BUNDLE
	fcvt.sd.id	%r2, %r1, 0
	st.d.xd	%gz, %r3, %r2, 3, 16
	ldz.d	%r2, %r3, 80

    5f00: 0c 0e 01 41 00 00 00 00 00 02 01 00 00 00 00 04      	! BUNDLE
	fadd.sd	%r1, %r2, %r1
	ret.f	0
	nop	0


0000000000005f10 <test_nullify_f64_le>:
    5f10: 00 00 00 c2 40 20 10 44 02 82 00 00 00 00 08 d2      	! BUNDLE
	alloc	4
	nulfo.lt.sd	%r2, %r1, 2, 4
	ldz.d.r	%r2, 0

		0000000000005f10:  R_POSTRISC_C_PCREL_FWD	left_f64
    5f20: 0c 0e 01 41 00 00 00 00 00 82 f4 e0 10 10 04 00      	! BUNDLE
	fadd.sd	%r1, %r2, %r1
	ldz.d.r	%r2, 0
	fadd.sd	%r1, %r2, %r1

		0000000000005f20:  R_POSTRISC_B_PCREL_FWD	right_f64
    5f30: 8c 0e 80 80 00 00 d9 09 06 7f 04 14 00 18 08 b2      	! BUNDLE
	fcvt.sd.id	%r2, %r1, 0
	st.d.xd	%gz, %r3, %r2, 3, 16
	ldz.d	%r2, %r3, 80

    5f40: 0c 0e 01 41 00 00 00 00 00 02 01 00 00 00 00 04      	! BUNDLE
	fadd.sd	%r1, %r2, %r1
	ret.f	0
	nop	0


0000000000005f50 <test_nullify_f64_gt>:
    5f50: 00 00 00 c2 40 20 10 64 04 81 00 00 00 00 08 d2      	! BUNDLE
	alloc	4
	nulfo.le.sd	%r1, %r2, 2, 4
	ldz.d.r	%r2, 0

		0000000000005f50:  R_POSTRISC_C_PCREL_FWD	left_f64
    5f60: 0c 0e 01 41 00 00 00 00 00 82 f4 e0 10 10 04 00      	! BUNDLE
	fadd.sd	%r1, %r2, %r1
	ldz.d.r	%r2, 0
	fadd.sd	%r1, %r2, %r1

		0000000000005f60:  R_POSTRISC_B_PCREL_FWD	right_f64
    5f70: 8c 0e 80 80 00 00 d9 09 06 7f 04 14 00 18 08 b2      	! BUNDLE
	fcvt.sd.id	%r2, %r1, 0
	st.d.xd	%gz, %r3, %r2, 3, 16
	ldz.d	%r2, %r3, 80

    5f80: 0c 0e 01 41 00 00 00 00 00 02 01 00 00 00 00 04      	! BUNDLE
	fadd.sd	%r1, %r2, %r1
	ret.f	0
	nop	0


0000000000005f90 <test_nullify_f64_ge>:
    5f90: 00 00 00 c2 40 20 10 44 04 81 00 00 00 00 08 d2      	! BUNDLE
	alloc	4
	nulfo.lt.sd	%r1, %r2, 2, 4
	ldz.d.r	%r2, 0

		0000000000005f90:  R_POSTRISC_C_PCREL_FWD	left_f64
    5fa0: 0c 0e 01 41 00 00 00 00 00 82 f4 e0 10 10 04 00      	! BUNDLE
	fadd.sd	%r1, %r2, %r1
	ldz.d.r	%r2, 0
	fadd.sd	%r1, %r2, %r1

		0000000000005fa0:  R_POSTRISC_B_PCREL_FWD	right_f64
    5fb0: 8c 0e 80 80 00 00 d9 09 06 7f 04 14 00 18 08 b2      	! BUNDLE
	fcvt.sd.id	%r2, %r1, 0
	st.d.xd	%gz, %r3, %r2, 3, 16
	ldz.d	%r2, %r3, 80

    5fc0: 0c 0e 01 41 00 00 00 00 00 02 01 00 00 00 00 04      	! BUNDLE
	fadd.sd	%r1, %r2, %r1
	ret.f	0
	nop	0


0000000000005fd0 <test_post_update>:
    5fd0: 00 00 80 c3 40 10 00 00 fe 04 00 01 80 00 04 e4      	! BUNDLE
	alloc	7
	mov	%r4, %gz
	bsi.lt.d	%r1, 1, 64

    5fe0: 00 00 00 41 21 0b 00 00 06 86 ac 88 50 30 10 02      	! BUNDLE
	ldz.d	%r5, %r2, 0
	ldz.d	%r6, %r3, 0
	mul.add	%r4, %r6, %r5, %r4

    5ff0: fc ff ff 40 00 83 00 00 06 03 0c 02 00 10 08 30      	! BUNDLE
	addi	%r1, %r1, -1
	addi	%r3, %r3, 8
	addi	%r2, %r2, 8

    6000: f8 ff 8f 7f 60 00 00 00 00 00 01 00 00 00 00 04      	! BUNDLE
	b.ne.d	%r1, %gz, -32
	nop	0
	nop	0

    6010: 04 00 00 42 00 00 00 00 00 02 01 00 00 00 00 04      	! BUNDLE
	mov	%r1, %r4
	ret.f	0
	nop	0


0000000000006020 <shift_right_and_load_i32>:
    6020: 00 00 80 c1 40 50 c9 a5 04 82 00 00 20 08 04 10      	! BUNDLE
	alloc	3
	slsrli	%r2, %r2, 41, 57
	ldz.b.xd	%r1, %r1, %r2, 0, 0

    6030: 00 00 00 80 40 00 00 00 00 00 01 00 00 00 00 04      	! BUNDLE
	ret.f	0
	nop	0
	nop	0


0000000000006040 <shift_right_and_load_u32>:
    6040: 00 00 80 c1 40 50 c9 a5 04 82 00 00 20 08 04 10      	! BUNDLE
	alloc	3
	slsrli	%r2, %r2, 41, 57
	ldz.b.xd	%r1, %r1, %r2, 0, 0

    6050: 00 00 00 80 40 00 00 00 00 00 01 00 00 00 00 04      	! BUNDLE
	ret.f	0
	nop	0
	nop	0


0000000000006060 <shift_right_and_load_i64>:
    6060: 00 00 80 c1 40 50 c9 a5 04 82 00 00 20 08 04 10      	! BUNDLE
	alloc	3
	slsrli	%r2, %r2, 41, 57
	ldz.b.xd	%r1, %r1, %r2, 0, 0

    6070: 00 00 00 80 40 00 00 00 00 00 01 00 00 00 00 04      	! BUNDLE
	ret.f	0
	nop	0
	nop	0


0000000000006080 <shift_right_and_load_u64>:
    6080: 00 00 80 c1 40 50 c9 a5 04 82 00 00 20 08 04 10      	! BUNDLE
	alloc	3
	slsrli	%r2, %r2, 41, 57
	ldz.b.xd	%r1, %r1, %r2, 0, 0

    6090: 00 00 00 80 40 00 00 00 00 00 01 00 00 00 00 04      	! BUNDLE
	ret.f	0
	nop	0
	nop	0


00000000000060a0 <test_sign_extend_32>:
    60a0: 00 00 00 c1 40 40 04 00 02 01 00 00 00 00 08 04      	! BUNDLE
	alloc	2
	srai.w	%r1, %r1, 0
	ret.f	0


00000000000060b0 <test_sign_extend_16>:
    60b0: 00 00 00 c1 40 60 81 c1 02 81 00 00 00 00 08 04      	! BUNDLE
	alloc	2
	slsrai	%r1, %r1, 48, 48
	ret.f	0


00000000000060c0 <test_sign_extend_8>:
    60c0: 00 00 00 c1 40 60 c1 e1 02 81 00 00 00 00 08 04      	! BUNDLE
	alloc	2
	slsrai	%r1, %r1, 56, 56
	ret.f	0


00000000000060d0 <test_zero_extend_32>:
    60d0: 00 00 00 c1 40 50 04 00 02 01 00 00 00 00 08 04      	! BUNDLE
	alloc	2
	srli.w	%r1, %r1, 0
	ret.f	0


00000000000060e0 <test_zero_extend_16>:
    60e0: 00 00 00 c1 40 f0 ff 0f 02 01 0a 00 00 00 08 04      	! BUNDLE
	alloc	2
	andi	%r1, %r1, 65535
	ret.f	0


00000000000060f0 <test_zero_extend_8>:
    60f0: 00 00 00 c1 40 f0 0f 00 02 01 0a 00 00 00 08 04      	! BUNDLE
	alloc	2
	andi	%r1, %r1, 255
	ret.f	0


0000000000006100 <test_store_based_u32>:
    6100: 00 00 80 c1 40 00 e8 03 02 02 2c 00 00 00 08 04      	! BUNDLE
	alloc	3
	st.w	%r2, %r1, 16000
	ret.f	0


0000000000006110 <test_store_based_u16>:
    6110: 00 00 80 c1 40 00 f4 01 02 82 2a 00 00 00 08 04      	! BUNDLE
	alloc	3
	st.h	%r2, %r1, 8000
	ret.f	0


0000000000006120 <test_store_based_u8>:
    6120: 00 00 80 c1 40 00 fa 00 02 02 29 00 00 00 08 04      	! BUNDLE
	alloc	3
	st.b	%r2, %r1, 4000
	ret.f	0


0000000000006130 <test_store_based_i32>:
    6130: 00 00 80 c1 40 00 e8 03 02 02 2c 00 00 00 08 04      	! BUNDLE
	alloc	3
	st.w	%r2, %r1, 16000
	ret.f	0


0000000000006140 <test_store_based_i16>:
    6140: 00 00 80 c1 40 00 f4 01 02 82 2a 00 00 00 08 04      	! BUNDLE
	alloc	3
	st.h	%r2, %r1, 8000
	ret.f	0


0000000000006150 <test_store_based_i8>:
    6150: 00 00 80 c1 40 00 fa 00 02 02 29 00 00 00 08 04      	! BUNDLE
	alloc	3
	st.b	%r2, %r1, 4000
	ret.f	0


0000000000006160 <test_store_indexed_u32_u32>:
    6160: 00 00 80 c2 40 b0 02 0c 04 02 00 60 27 08 10 14      	! BUNDLE
	alloc	5
	divu.w	%r2, %r2, %r3
	st.d.xuw	%r4, %r1, %r2, 3, 0

    6170: 00 00 00 80 40 00 00 00 00 00 01 00 00 00 00 04      	! BUNDLE
	ret.f	0
	nop	0
	nop	0


0000000000006180 <test_store_indexed_i32>:
    6180: 00 00 00 c2 40 00 d8 09 02 83 04 00 00 00 08 04      	! BUNDLE
	alloc	4
	st.d.xw	%r3, %r1, %r2, 3, 0
	ret.f	0


0000000000006190 <test_store_indexed_i32_offset>:
    6190: 00 00 00 c2 40 80 da 09 02 83 04 00 00 00 08 04      	! BUNDLE
	alloc	4
	st.d.xw	%r3, %r1, %r2, 3, 40
	ret.f	0


00000000000061a0 <test_store_indexed_u32>:
    61a0: 00 00 00 c2 40 00 d8 09 02 03 05 00 00 00 08 04      	! BUNDLE
	alloc	4
	st.d.xuw	%r3, %r1, %r2, 3, 0
	ret.f	0


00000000000061b0 <test_store_indexed_u32_offset>:
    61b0: 00 00 00 c2 40 40 01 00 04 02 0d 60 27 08 0c 14      	! BUNDLE
	alloc	4
	addi.ws	%r2, %r2, 20
	st.d.xuw	%r3, %r1, %r2, 3, 0

    61c0: 00 00 00 80 40 00 00 00 00 00 01 00 00 00 00 04      	! BUNDLE
	ret.f	0
	nop	0
	nop	0


00000000000061d0 <test_store_indexed_i64>:
    61d0: 00 00 00 c2 40 80 da 09 02 03 04 00 00 00 08 04      	! BUNDLE
	alloc	4
	st.d.xd	%r3, %r1, %r2, 3, 40
	ret.f	0


00000000000061e0 <test_store_indexed_i32_struct>:
    61e0: 01 00 00 c2 40 80 5c 0a 02 83 84 00 00 00 00 00      	! BUNDLE
	alloc	4
	st.d.xw.l	%r3, %r1, %r2, 4, 328

    61f0: 00 00 00 80 40 00 00 00 00 00 01 00 00 00 00 04      	! BUNDLE
	ret.f	0
	nop	0
	nop	0


0000000000006200 <dummy_return>:
    6200: 00 00 00 c6 40 00 00 00 00 01 30 00 00 00 08 c0      	! BUNDLE
	alloc	12
	ldz.b.r	%r1, 0
	ldz.b.r	%r2, 0

		0000000000006200:  R_POSTRISC_B_PCREL_FWD	i8_zero
		0000000000006200:  R_POSTRISC_C_PCREL_FWD	u8_zero
    6210: 04 00 80 40 40 03 00 00 00 01 31 00 00 00 0c c6      	! BUNDLE
	addi.ws	%r1, %r1, 1
	st.b.r	%r1, 0
	ldz.h.r	%r3, 0

		0000000000006210:  R_POSTRISC_B_PCREL_FWD	i8_zero
		0000000000006210:  R_POSTRISC_C_PCREL_FWD	i16_zero
    6220: 04 00 00 81 40 03 00 00 00 02 31 00 00 00 10 c6      	! BUNDLE
	addi.ws	%r2, %r2, 1
	st.b.r	%r2, 0
	ldz.h.r	%r4, 0

		0000000000006220:  R_POSTRISC_B_PCREL_FWD	u8_zero
		0000000000006220:  R_POSTRISC_C_PCREL_FWD	u16_zero
    6230: 04 00 80 c1 40 03 00 00 00 83 32 00 00 00 14 cc      	! BUNDLE
	addi.ws	%r3, %r3, 1
	st.h.r	%r3, 0
	ldz.w.r	%r5, 0

		0000000000006230:  R_POSTRISC_B_PCREL_FWD	i16_zero
		0000000000006230:  R_POSTRISC_C_PCREL_FWD	i32_zero
    6240: 04 00 00 02 41 03 00 00 00 84 32 00 00 00 18 cc      	! BUNDLE
	addi.ws	%r4, %r4, 1
	st.h.r	%r4, 0
	ldz.w.r	%r6, 0

		0000000000006240:  R_POSTRISC_B_PCREL_FWD	u16_zero
		0000000000006240:  R_POSTRISC_C_PCREL_FWD	u32_zero
    6250: 04 00 80 42 41 03 00 00 00 05 34 00 00 00 1c d2      	! BUNDLE
	addi.ws	%r5, %r5, 1
	st.w.r	%r5, 0
	ldz.d.r	%r7, 0

		0000000000006250:  R_POSTRISC_B_PCREL_FWD	i32_zero
		0000000000006250:  R_POSTRISC_C_PCREL_FWD	i64_zero
    6260: 04 00 00 83 41 03 00 00 00 06 34 00 00 00 20 d2      	! BUNDLE
	addi.ws	%r6, %r6, 1
	st.w.r	%r6, 0
	ldz.d.r	%r8, 0

		0000000000006260:  R_POSTRISC_B_PCREL_FWD	u32_zero
		0000000000006260:  R_POSTRISC_C_PCREL_FWD	u64_zero
    6270: 04 00 80 43 02 03 00 00 00 89 35 00 00 00 24 d8      	! BUNDLE
	addi	%r9, %r7, 1
	st.d.r	%r9, 0
	ld.q.r	%r9, 0

		0000000000006270:  R_POSTRISC_B_PCREL_FWD	i64_zero
		0000000000006270:  R_POSTRISC_C_PCREL_FWD	i128_zero
    6280: 04 00 00 84 02 03 00 00 00 0b 36 00 00 00 28 d6      	! BUNDLE
	addi	%r10, %r8, 1
	ld.q.r	%r11, 0
	st.d.r	%r10, 0

		0000000000006280:  R_POSTRISC_B_PCREL_FWD	u128_zero
		0000000000006280:  R_POSTRISC_C_PCREL_FWD	u64_zero
    6290: 04 00 80 44 c2 02 00 00 00 89 76 00 00 58 28 2c      	! BUNDLE
	xori	%r9, %r9, 1
	st.q.r	%r9, 0
	xori	%r10, %r11, 1

		0000000000006290:  R_POSTRISC_B_PCREL_FWD	i128_zero
    62a0: 00 00 00 80 a2 6d c1 e1 02 81 c0 3f 00 10 08 28      	! BUNDLE
	st.q.r	%r10, 0
	slsrai	%r1, %r1, 56, 56
	andi	%r2, %r2, 255

		00000000000062a0:  R_POSTRISC_A_PCREL_FWD	u128_zero
    62b0: 08 00 01 41 00 60 81 c1 06 82 80 00 20 08 04 00      	! BUNDLE
	add.ws	%r1, %r2, %r1
	slsrai	%r2, %r3, 48, 48
	add.ws	%r1, %r1, %r2

    62c0: fc ff 03 82 80 22 00 08 02 01 80 00 50 08 04 00      	! BUNDLE
	andi	%r2, %r4, 65535
	add.ws	%r1, %r1, %r2
	add.ws	%r1, %r1, %r5

    62d0: 08 00 86 40 00 10 70 04 0e 01 45 c0 11 40 04 10      	! BUNDLE
	add.ws	%r1, %r1, %r6
	ca.xuw	%r1, %r7, %r1, 0, 1
	ca.xd	%r1, %r8, %r1, 0, 1

    62e0: 68 00 81 44 00 a0 01 28 02 01 00 00 00 00 08 04      	! BUNDLE
	xor	%r1, %r9, %r1
	xor	%r1, %r1, %r10
	ret.f	0


00000000000062f0 <test_store_based_i8_zero>:
    62f0: 00 00 00 c2 40 00 fa 00 02 7f 29 00 00 00 fc c5      	! BUNDLE
	alloc	4
	st.b	%gz, %r1, 4000
	st.b.r	%gz, 0

		00000000000062f0:  R_POSTRISC_C_PCREL_FWD	i8_zero
    6300: 28 04 82 c0 1f a1 10 0c 02 ff 04 00 00 00 08 04      	! BUNDLE
	st.b.xd	%gz, %r1, %r2, 0, 10
	st.b.xw	%gz, %r1, %r3, 0, 10
	ret.f	0


0000000000006310 <test_store_based_u8_zero>:
    6310: 00 00 00 c2 40 00 fa 00 02 7f 29 00 00 00 fc c5      	! BUNDLE
	alloc	4
	st.b	%gz, %r1, 4000
	st.b.r	%gz, 0

		0000000000006310:  R_POSTRISC_C_PCREL_FWD	u8_zero
    6320: 28 04 82 c0 1f a1 10 0c 02 ff 04 00 00 00 08 04      	! BUNDLE
	st.b.xd	%gz, %r1, %r2, 0, 10
	st.b.xw	%gz, %r1, %r3, 0, 10
	ret.f	0


0000000000006330 <test_store_based_i16_zero>:
    6330: 00 00 00 c2 40 00 f4 01 02 ff 2a 00 00 00 fc cb      	! BUNDLE
	alloc	4
	st.h	%gz, %r1, 8000
	st.h.r	%gz, 0

		0000000000006330:  R_POSTRISC_C_PCREL_FWD	i16_zero
    6340: 50 2a 82 c0 1f 41 a9 0c 02 ff 04 00 00 00 08 04      	! BUNDLE
	st.h.xd	%gz, %r1, %r2, 1, 20
	st.h.xw	%gz, %r1, %r3, 1, 20
	ret.f	0


0000000000006350 <test_store_based_u16_zero>:
    6350: 00 00 00 c2 40 00 f4 01 02 ff 2a 00 00 00 fc cb      	! BUNDLE
	alloc	4
	st.h	%gz, %r1, 8000
	st.h.r	%gz, 0

		0000000000006350:  R_POSTRISC_C_PCREL_FWD	u16_zero
    6360: 50 2a 82 c0 1f 41 a9 0c 02 ff 04 00 00 00 08 04      	! BUNDLE
	st.h.xd	%gz, %r1, %r2, 1, 20
	st.h.xw	%gz, %r1, %r3, 1, 20
	ret.f	0


0000000000006370 <test_store_based_i32_zero>:
    6370: 00 00 00 c2 40 00 e8 03 02 7f 2c 00 00 00 fc d1      	! BUNDLE
	alloc	4
	st.w	%gz, %r1, 16000
	st.w.r	%gz, 0

		0000000000006370:  R_POSTRISC_C_PCREL_FWD	i32_zero
    6380: a0 50 82 c0 1f 81 42 0d 02 ff 04 00 00 00 08 04      	! BUNDLE
	st.w.xd	%gz, %r1, %r2, 2, 40
	st.w.xw	%gz, %r1, %r3, 2, 40
	ret.f	0


0000000000006390 <test_store_based_u32_zero>:
    6390: 00 00 00 c2 40 00 e8 03 02 7f 2c 00 00 00 fc d1      	! BUNDLE
	alloc	4
	st.w	%gz, %r1, 16000
	st.w.r	%gz, 0

		0000000000006390:  R_POSTRISC_C_PCREL_FWD	u32_zero
    63a0: a0 50 82 c0 1f 81 42 0d 02 ff 04 00 00 00 08 04      	! BUNDLE
	st.w.xd	%gz, %r1, %r2, 2, 40
	st.w.xw	%gz, %r1, %r3, 2, 40
	ret.f	0


00000000000063b0 <test_store_based_i64_zero>:
    63b0: 00 00 00 c2 40 00 d0 07 02 ff 2d 00 00 00 fc d7      	! BUNDLE
	alloc	4
	st.d	%gz, %r1, 32000
	st.d.r	%gz, 0

		00000000000063b0:  R_POSTRISC_C_PCREL_FWD	i64_zero
    63c0: a0 76 82 c0 1f 81 da 0d 02 ff 04 00 00 00 08 04      	! BUNDLE
	st.d.xd	%gz, %r1, %r2, 3, 40
	st.d.xw	%gz, %r1, %r3, 3, 40
	ret.f	0


00000000000063d0 <test_store_based_u64_zero>:
    63d0: 00 00 00 c2 40 00 d0 07 02 ff 2d 00 00 00 fc d7      	! BUNDLE
	alloc	4
	st.d	%gz, %r1, 32000
	st.d.r	%gz, 0

		00000000000063d0:  R_POSTRISC_C_PCREL_FWD	u64_zero
    63e0: a0 76 82 c0 1f 81 da 0d 02 ff 04 00 00 00 08 04      	! BUNDLE
	st.d.xd	%gz, %r1, %r2, 3, 40
	st.d.xw	%gz, %r1, %r3, 3, 40
	ret.f	0


00000000000063f0 <test_store_based_i128_zero>:
    63f0: 00 00 00 c2 40 00 a0 0f 02 ff 2e 00 00 00 fc db      	! BUNDLE
	alloc	4
	st.q	%gz, %r1, 64000
	st.q.r	%gz, 0

		00000000000063f0:  R_POSTRISC_C_PCREL_FWD	i128_zero
    6400: c0 9a 82 c0 1f 01 6b 0e 02 ff 04 00 00 00 08 04      	! BUNDLE
	st.q.xd	%gz, %r1, %r2, 4, 48
	st.q.xw	%gz, %r1, %r3, 4, 48
	ret.f	0


0000000000006410 <test_store_based_u128_zero>:
    6410: 00 00 00 c2 40 00 a0 0f 02 ff 2e 00 00 00 fc db      	! BUNDLE
	alloc	4
	st.q	%gz, %r1, 64000
	st.q.r	%gz, 0

		0000000000006410:  R_POSTRISC_C_PCREL_FWD	u128_zero
    6420: c0 9a 82 c0 1f 01 6b 0e 02 ff 04 00 00 00 08 04      	! BUNDLE
	st.q.xd	%gz, %r1, %r2, 4, 48
	st.q.xw	%gz, %r1, %r3, 4, 48
	ret.f	0


0000000000006430 <test_struct_memset>:
    6430: c0 03 00 02 41 00 04 00 fc ff 2e 14 00 f0 ff bb      	! BUNDLE
	alloc.sp	4, 240
	st.q	%gz, %sp, 64
	st.q	%gz, %sp, 80

    6440: 00 02 00 ff bf 0b 09 00 fc ff 2e 34 00 f0 ff bb      	! BUNDLE
	st.q	%gz, %sp, 128
	st.q	%gz, %sp, 144
	st.q	%gz, %sp, 208

    6450: 80 03 00 ff 7f 0b 0c 00 fc ff 2e 2c 00 f0 ff bb      	! BUNDLE
	st.d	%gz, %sp, 224
	st.q	%gz, %sp, 192
	st.q	%gz, %sp, 176

    6460: 80 02 00 ff bf 0b 07 00 fc ff 2e 18 00 f0 ff bb      	! BUNDLE
	st.q	%gz, %sp, 160
	st.q	%gz, %sp, 112
	st.q	%gz, %sp, 96

    6470: c0 00 00 ff bf 0b 02 00 fc ff 2e 04 00 f0 ff bb      	! BUNDLE
	st.q	%gz, %sp, 48
	st.q	%gz, %sp, 32
	st.q	%gz, %sp, 16

    6480: 00 00 00 ff bf 5b 00 00 00 01 18 12 00 f0 07 b6      	! BUNDLE
	st.q	%gz, %sp, 0
	ca.r	%r1, 5
	st.d	%r1, %sp, 72

    6490: bc 03 00 7f 00 83 05 00 fc 81 ed ff ff ff 07 20      	! BUNDLE
	addi	%r1, %sp, 239
	st.d	%r1, %sp, 88
	ldi	%r1, -1

    64a0: 30 02 00 7f 00 0b 09 00 fc 01 2c 00 00 f0 0f 30      	! BUNDLE
	st.w	%r1, %sp, 140
	st.w	%r1, %sp, 144
	addi	%r3, %sp, 0

    64b0: 40 03 00 ff 60 0b 00 00 00 02 52 00 00 18 04 00      	! BUNDLE
	st.d	%r3, %sp, 208
	call.r	%r2, 0
	mov	%r1, %r3

		00000000000064b0:  R_POSTRISC_B_JUMP	test_struct_memset_consumer
    64c0: c0 03 00 80 40 00 00 00 00 00 01 00 00 00 00 04      	! BUNDLE
	ret.f	240
	nop	0
	nop	0


00000000000064d0 <sn_write>:
    64d0: 00 00 80 c3 40 80 09 00 02 82 2c 0a 00 08 10 b2      	! BUNDLE
	alloc	7
	ldz.d	%r2, %r1, 152
	ldz.d	%r4, %r1, 40

    64e0: e0 00 80 80 21 8b 00 00 04 85 6c 08 60 20 10 00      	! BUNDLE
	ldz.d	%r6, %r1, 56
	ldz.d	%r5, %r2, 8
	sub	%r4, %r4, %r6

    64f0: cc 00 84 82 01 00 00 00 04 84 2c 80 00 f8 1b 02      	! BUNDLE
	minu.d	%r6, %r5, %r4
	ldz.d	%r4, %r2, 0
	nul.eq.d	%r6, %gz, 4, 0

    6500: 80 00 06 02 01 00 00 00 04 84 6d 08 60 28 14 00      	! BUNDLE
	add	%r4, %r4, %r6
	st.d	%r4, %r2, 0
	sub	%r5, %r5, %r6

    6510: 20 00 00 41 61 3b 03 0c 0a 06 00 80 00 f8 1b 02      	! BUNDLE
	st.d	%r5, %r2, 8
	minu.d	%r6, %r5, %r3
	nul.eq.d	%r6, %gz, 4, 0

    6520: 80 00 06 02 01 00 00 00 04 84 6d 08 60 28 14 00      	! BUNDLE
	add	%r4, %r4, %r6
	st.d	%r4, %r2, 0
	sub	%r5, %r5, %r6

    6530: 20 00 00 41 61 0b 00 00 08 7f 29 16 00 08 08 b2      	! BUNDLE
	st.d	%r5, %r2, 8
	st.b	%gz, %r4, 0
	ldz.d	%r2, %r1, 88

    6540: e0 00 80 80 60 8b 02 00 02 82 6d 00 00 18 04 00      	! BUNDLE
	st.d	%r2, %r1, 56
	st.d	%r2, %r1, 40
	mov	%r1, %r3

    6550: 00 00 00 80 40 00 00 00 00 00 01 00 00 00 00 04      	! BUNDLE
	ret.f	0
	nop	0
	nop	0


0000000000006560 <test_switch_table_i64>:
    6560: 40 00 80 02 41 e0 00 c0 00 81 3a 00 00 00 08 dc      	! BUNDLE
	alloc.sp	5, 16
	bui.ge.d	%r1, 6, 224
	ca.rf	%r2, 0

		0000000000006560:  R_POSTRISC_C_PCREL_FWD	.LJTI665_0
    6570: 44 01 01 01 00 00 00 00 00 00 01 00 00 00 00 04      	! BUNDLE
	jmp.t	%r2, %r1
	nop	0
	nop	0

    6580: 04 00 00 40 00 02 00 00 00 04 f7 02 00 00 04 04      	! BUNDLE
	ldi	%r1, 1
	ca.rf	%r4, 0
	jmp	176

		0000000000006580:  R_POSTRISC_B_PCREL_FWD	.L.str.38
    6590: 20 00 00 40 00 82 00 00 fc 81 6d 01 00 00 04 20      	! BUNDLE
	ldi	%r1, 8
	st.d	%r1, %sp, 8
	ldi	%r1, 5

    65a0: 00 00 00 00 c1 9d 00 00 00 01 01 00 00 00 00 04      	! BUNDLE
	ca.rf	%r4, 0
	jmp	144
	nop	0

		00000000000065a0:  R_POSTRISC_A_PCREL_FWD	.L.str.42
    65b0: 08 00 00 40 00 82 00 00 fc 81 ed 00 00 00 04 20      	! BUNDLE
	ldi	%r1, 2
	st.d	%r1, %sp, 8
	ldi	%r1, 3

    65c0: 00 00 00 00 c1 7d 00 00 00 01 01 00 00 00 00 04      	! BUNDLE
	ca.rf	%r4, 0
	jmp	112
	nop	0

		00000000000065c0:  R_POSTRISC_A_PCREL_FWD	.L.str.40
    65d0: 04 00 00 40 00 82 00 00 fc 81 2d 01 00 00 04 20      	! BUNDLE
	ldi	%r1, 1
	st.d	%r1, %sp, 8
	ldi	%r1, 4

    65e0: 00 00 00 00 c1 5d 00 00 00 01 01 00 00 00 00 04      	! BUNDLE
	ca.rf	%r4, 0
	jmp	80
	nop	0

		00000000000065e0:  R_POSTRISC_A_PCREL_FWD	.L.str.41
    65f0: 20 00 00 ff 7f 2b 00 00 00 01 08 00 00 00 10 dc      	! BUNDLE
	st.d	%gz, %sp, 8
	ldi	%r1, 2
	ca.rf	%r4, 0

		00000000000065f0:  R_POSTRISC_C_PCREL_FWD	.L.str.39
    6600: 0c 00 00 40 40 00 00 00 00 00 01 00 00 00 00 04      	! BUNDLE
	jmp	48
	nop	0
	nop	0

    6610: 6c 00 00 40 00 82 00 00 fc 81 ad 01 00 00 04 20      	! BUNDLE
	ldi	%r1, 27
	st.d	%r1, %sp, 8
	ldi	%r1, 6

    6620: 00 00 00 00 c1 0d 00 00 00 00 01 00 00 00 00 04      	! BUNDLE
	ca.rf	%r4, 0
	nop	0
	nop	0

		0000000000006620:  R_POSTRISC_A_PCREL_FWD	.L.str.43
    6630: 00 00 00 7f 60 0b 00 00 00 03 12 00 00 00 00 04      	! BUNDLE
	st.d	%r1, %sp, 0
	call.r	%r3, 0
	nop	0

		0000000000006630:  R_POSTRISC_B_JUMP	printf
    6640: 04 00 80 7f 00 00 01 00 00 02 01 00 00 00 00 04      	! BUNDLE
	mov	%r1, %gz
	ret.f	16
	nop	0


0000000000006650 <test_switch_table_i32>:
    6650: 40 00 80 02 41 e0 00 c0 00 81 7d 11 00 08 04 00      	! BUNDLE
	alloc.sp	5, 16
	bui.ge.w	%r1, 6, 224
	srli.w	%r1, %r1, 0

    6660: 00 00 00 80 c0 1d 05 04 04 00 00 00 00 00 00 04      	! BUNDLE
	ca.rf	%r2, 0
	jmp.t	%r2, %r1
	nop	0

		0000000000006660:  R_POSTRISC_A_PCREL_FWD	.LJTI666_0
    6670: 04 00 00 40 00 02 00 00 00 04 f7 02 00 00 04 04      	! BUNDLE
	ldi	%r1, 1
	ca.rf	%r4, 0
	jmp	176

		0000000000006670:  R_POSTRISC_B_PCREL_FWD	.L.str.44
    6680: 20 00 00 40 00 42 00 00 fc 01 6c 01 00 00 04 20      	! BUNDLE
	ldi	%r1, 8
	st.w	%r1, %sp, 4
	ldi	%r1, 5

    6690: 00 00 00 00 c1 9d 00 00 00 01 01 00 00 00 00 04      	! BUNDLE
	ca.rf	%r4, 0
	jmp	144
	nop	0

		0000000000006690:  R_POSTRISC_A_PCREL_FWD	.L.str.48
    66a0: 08 00 00 40 00 42 00 00 fc 01 ec 00 00 00 04 20      	! BUNDLE
	ldi	%r1, 2
	st.w	%r1, %sp, 4
	ldi	%r1, 3

    66b0: 00 00 00 00 c1 7d 00 00 00 01 01 00 00 00 00 04      	! BUNDLE
	ca.rf	%r4, 0
	jmp	112
	nop	0

		00000000000066b0:  R_POSTRISC_A_PCREL_FWD	.L.str.46
    66c0: 04 00 00 40 00 42 00 00 fc 01 2c 01 00 00 04 20      	! BUNDLE
	ldi	%r1, 1
	st.w	%r1, %sp, 4
	ldi	%r1, 4

    66d0: 00 00 00 00 c1 5d 00 00 00 01 01 00 00 00 00 04      	! BUNDLE
	ca.rf	%r4, 0
	jmp	80
	nop	0

		00000000000066d0:  R_POSTRISC_A_PCREL_FWD	.L.str.47
    66e0: 10 00 00 ff 1f 2b 00 00 00 01 08 00 00 00 10 dc      	! BUNDLE
	st.w	%gz, %sp, 4
	ldi	%r1, 2
	ca.rf	%r4, 0

		00000000000066e0:  R_POSTRISC_C_PCREL_FWD	.L.str.45
    66f0: 0c 00 00 40 40 00 00 00 00 00 01 00 00 00 00 04      	! BUNDLE
	jmp	48
	nop	0
	nop	0

    6700: 6c 00 00 40 00 42 00 00 fc 01 ac 01 00 00 04 20      	! BUNDLE
	ldi	%r1, 27
	st.w	%r1, %sp, 4
	ldi	%r1, 6

    6710: 00 00 00 00 c1 0d 00 00 00 00 01 00 00 00 00 04      	! BUNDLE
	ca.rf	%r4, 0
	nop	0
	nop	0

		0000000000006710:  R_POSTRISC_A_PCREL_FWD	.L.str.49
    6720: 00 00 00 7f 00 0b 00 00 00 03 12 00 00 00 00 04      	! BUNDLE
	st.w	%r1, %sp, 0
	call.r	%r3, 0
	nop	0

		0000000000006720:  R_POSTRISC_B_JUMP	printf
    6730: 04 00 80 7f 00 00 01 00 00 02 01 00 00 00 00 04      	! BUNDLE
	mov	%r1, %gz
	ret.f	16
	nop	0


0000000000006740 <test_switch_table_u32>:
    6740: 40 00 80 02 41 e0 00 c0 00 81 7d 11 00 08 04 00      	! BUNDLE
	alloc.sp	5, 16
	bui.ge.w	%r1, 6, 224
	srli.w	%r1, %r1, 0

    6750: 00 00 00 80 c0 1d 05 04 04 00 00 00 00 00 00 04      	! BUNDLE
	ca.rf	%r2, 0
	jmp.t	%r2, %r1
	nop	0

		0000000000006750:  R_POSTRISC_A_PCREL_FWD	.LJTI667_0
    6760: 04 00 00 40 00 02 00 00 00 04 f7 02 00 00 04 04      	! BUNDLE
	ldi	%r1, 1
	ca.rf	%r4, 0
	jmp	176

		0000000000006760:  R_POSTRISC_B_PCREL_FWD	.L.str.50
    6770: 20 00 00 40 00 42 00 00 fc 01 6c 01 00 00 04 20      	! BUNDLE
	ldi	%r1, 8
	st.w	%r1, %sp, 4
	ldi	%r1, 5

    6780: 00 00 00 00 c1 9d 00 00 00 01 01 00 00 00 00 04      	! BUNDLE
	ca.rf	%r4, 0
	jmp	144
	nop	0

		0000000000006780:  R_POSTRISC_A_PCREL_FWD	.L.str.54
    6790: 08 00 00 40 00 42 00 00 fc 01 ec 00 00 00 04 20      	! BUNDLE
	ldi	%r1, 2
	st.w	%r1, %sp, 4
	ldi	%r1, 3

    67a0: 00 00 00 00 c1 7d 00 00 00 01 01 00 00 00 00 04      	! BUNDLE
	ca.rf	%r4, 0
	jmp	112
	nop	0

		00000000000067a0:  R_POSTRISC_A_PCREL_FWD	.L.str.52
    67b0: 04 00 00 40 00 42 00 00 fc 01 2c 01 00 00 04 20      	! BUNDLE
	ldi	%r1, 1
	st.w	%r1, %sp, 4
	ldi	%r1, 4

    67c0: 00 00 00 00 c1 5d 00 00 00 01 01 00 00 00 00 04      	! BUNDLE
	ca.rf	%r4, 0
	jmp	80
	nop	0

		00000000000067c0:  R_POSTRISC_A_PCREL_FWD	.L.str.53
    67d0: 10 00 00 ff 1f 2b 00 00 00 01 08 00 00 00 10 dc      	! BUNDLE
	st.w	%gz, %sp, 4
	ldi	%r1, 2
	ca.rf	%r4, 0

		00000000000067d0:  R_POSTRISC_C_PCREL_FWD	.L.str.51
    67e0: 0c 00 00 40 40 00 00 00 00 00 01 00 00 00 00 04      	! BUNDLE
	jmp	48
	nop	0
	nop	0

    67f0: 6c 00 00 40 00 42 00 00 fc 01 ac 01 00 00 04 20      	! BUNDLE
	ldi	%r1, 27
	st.w	%r1, %sp, 4
	ldi	%r1, 6

    6800: 00 00 00 00 c1 0d 00 00 00 00 01 00 00 00 00 04      	! BUNDLE
	ca.rf	%r4, 0
	nop	0
	nop	0

		0000000000006800:  R_POSTRISC_A_PCREL_FWD	.L.str.55
    6810: 00 00 00 7f 00 0b 00 00 00 03 12 00 00 00 00 04      	! BUNDLE
	st.w	%r1, %sp, 0
	call.r	%r3, 0
	nop	0

		0000000000006810:  R_POSTRISC_B_JUMP	printf
    6820: 04 00 80 7f 00 00 01 00 00 02 01 00 00 00 00 04      	! BUNDLE
	mov	%r1, %gz
	ret.f	16
	nop	0


0000000000006830 <test_switch_table_nonzero_i64>:
    6830: 40 00 80 02 41 60 ff ff 03 01 8c 03 00 03 04 ea      	! BUNDLE
	alloc.sp	5, 16
	addi	%r1, %r1, -10
	bui.ge.d	%r1, 6, 224

    6840: 00 00 00 80 c0 1d 05 04 04 00 00 00 00 00 00 04      	! BUNDLE
	ca.rf	%r2, 0
	jmp.t	%r2, %r1
	nop	0

		0000000000006840:  R_POSTRISC_A_PCREL_FWD	.LJTI668_0
    6850: 2c 00 00 40 00 02 00 00 00 04 f7 02 00 00 04 04      	! BUNDLE
	ldi	%r1, 11
	ca.rf	%r4, 0
	jmp	176

		0000000000006850:  R_POSTRISC_B_PCREL_FWD	.L.str.56
    6860: 70 00 00 40 00 82 00 00 fc 81 ed 03 00 00 04 20      	! BUNDLE
	ldi	%r1, 28
	st.d	%r1, %sp, 8
	ldi	%r1, 15

    6870: 00 00 00 00 c1 9d 00 00 00 01 01 00 00 00 00 04      	! BUNDLE
	ca.rf	%r4, 0
	jmp	144
	nop	0

		0000000000006870:  R_POSTRISC_A_PCREL_FWD	.L.str.60
    6880: 38 00 00 40 00 82 00 00 fc 81 6d 03 00 00 04 20      	! BUNDLE
	ldi	%r1, 14
	st.d	%r1, %sp, 8
	ldi	%r1, 13

    6890: 00 00 00 00 c1 7d 00 00 00 01 01 00 00 00 00 04      	! BUNDLE
	ca.rf	%r4, 0
	jmp	112
	nop	0

		0000000000006890:  R_POSTRISC_A_PCREL_FWD	.L.str.58
    68a0: 3c 00 00 40 00 82 00 00 fc 81 ad 03 00 00 04 20      	! BUNDLE
	ldi	%r1, 15
	st.d	%r1, %sp, 8
	ldi	%r1, 14

    68b0: 00 00 00 00 c1 5d 00 00 00 01 01 00 00 00 00 04      	! BUNDLE
	ca.rf	%r4, 0
	jmp	80
	nop	0

		00000000000068b0:  R_POSTRISC_A_PCREL_FWD	.L.str.59
    68c0: 28 00 00 40 00 82 00 00 fc 81 2d 03 00 00 04 20      	! BUNDLE
	ldi	%r1, 10
	st.d	%r1, %sp, 8
	ldi	%r1, 12

    68d0: 00 00 00 00 c1 3d 00 00 00 01 01 00 00 00 00 04      	! BUNDLE
	ca.rf	%r4, 0
	jmp	48
	nop	0

		00000000000068d0:  R_POSTRISC_A_PCREL_FWD	.L.str.57
    68e0: 94 00 00 40 00 82 00 00 fc 81 2d 04 00 00 04 20      	! BUNDLE
	ldi	%r1, 37
	st.d	%r1, %sp, 8
	ldi	%r1, 16

    68f0: 00 00 00 00 c1 0d 00 00 00 00 01 00 00 00 00 04      	! BUNDLE
	ca.rf	%r4, 0
	nop	0
	nop	0

		00000000000068f0:  R_POSTRISC_A_PCREL_FWD	.L.str.61
    6900: 00 00 00 7f 60 0b 00 00 00 03 12 00 00 00 00 04      	! BUNDLE
	st.d	%r1, %sp, 0
	call.r	%r3, 0
	nop	0

		0000000000006900:  R_POSTRISC_B_JUMP	printf
    6910: 04 00 80 7f 00 00 01 00 00 02 01 00 00 00 00 04      	! BUNDLE
	mov	%r1, %gz
	ret.f	16
	nop	0


0000000000006920 <test_switch_table_nonzero_i32>:
    6920: 40 00 80 02 41 60 ff ff 03 02 8d 03 00 03 08 f6      	! BUNDLE
	alloc.sp	5, 16
	addi.ws	%r2, %r1, -10
	bui.ge.w	%r2, 6, 224

    6930: d8 ff ff 40 60 03 00 00 00 02 77 14 10 10 00 00      	! BUNDLE
	addi.wz	%r1, %r1, -10
	ca.rf	%r2, 0
	jmp.t	%r2, %r1

		0000000000006930:  R_POSTRISC_B_PCREL_FWD	.LJTI669_0
    6940: 2c 00 00 40 00 02 00 00 00 04 f7 02 00 00 04 04      	! BUNDLE
	ldi	%r1, 11
	ca.rf	%r4, 0
	jmp	176

		0000000000006940:  R_POSTRISC_B_PCREL_FWD	.L.str.62
    6950: 70 00 00 40 00 42 00 00 fc 01 ec 03 00 00 04 20      	! BUNDLE
	ldi	%r1, 28
	st.w	%r1, %sp, 4
	ldi	%r1, 15

    6960: 00 00 00 00 c1 9d 00 00 00 01 01 00 00 00 00 04      	! BUNDLE
	ca.rf	%r4, 0
	jmp	144
	nop	0

		0000000000006960:  R_POSTRISC_A_PCREL_FWD	.L.str.66
    6970: 38 00 00 40 00 42 00 00 fc 01 6c 03 00 00 04 20      	! BUNDLE
	ldi	%r1, 14
	st.w	%r1, %sp, 4
	ldi	%r1, 13

    6980: 00 00 00 00 c1 7d 00 00 00 01 01 00 00 00 00 04      	! BUNDLE
	ca.rf	%r4, 0
	jmp	112
	nop	0

		0000000000006980:  R_POSTRISC_A_PCREL_FWD	.L.str.64
    6990: 3c 00 00 40 00 42 00 00 fc 01 ac 03 00 00 04 20      	! BUNDLE
	ldi	%r1, 15
	st.w	%r1, %sp, 4
	ldi	%r1, 14

    69a0: 00 00 00 00 c1 5d 00 00 00 01 01 00 00 00 00 04      	! BUNDLE
	ca.rf	%r4, 0
	jmp	80
	nop	0

		00000000000069a0:  R_POSTRISC_A_PCREL_FWD	.L.str.65
    69b0: 28 00 00 40 00 42 00 00 fc 01 2c 03 00 00 04 20      	! BUNDLE
	ldi	%r1, 10
	st.w	%r1, %sp, 4
	ldi	%r1, 12

    69c0: 00 00 00 00 c1 3d 00 00 00 01 01 00 00 00 00 04      	! BUNDLE
	ca.rf	%r4, 0
	jmp	48
	nop	0

		00000000000069c0:  R_POSTRISC_A_PCREL_FWD	.L.str.63
    69d0: 94 00 00 40 00 42 00 00 fc 01 2c 04 00 00 04 20      	! BUNDLE
	ldi	%r1, 37
	st.w	%r1, %sp, 4
	ldi	%r1, 16

    69e0: 00 00 00 00 c1 0d 00 00 00 00 01 00 00 00 00 04      	! BUNDLE
	ca.rf	%r4, 0
	nop	0
	nop	0

		00000000000069e0:  R_POSTRISC_A_PCREL_FWD	.L.str.67
    69f0: 00 00 00 7f 00 0b 00 00 00 03 12 00 00 00 00 04      	! BUNDLE
	st.w	%r1, %sp, 0
	call.r	%r3, 0
	nop	0

		00000000000069f0:  R_POSTRISC_B_JUMP	printf
    6a00: 04 00 80 7f 00 00 01 00 00 02 01 00 00 00 00 04      	! BUNDLE
	mov	%r1, %gz
	ret.f	16
	nop	0


0000000000006a10 <test_switch_table_nonzero_u32>:
    6a10: 40 00 80 02 41 60 ff ff 03 02 8d 03 00 03 08 f6      	! BUNDLE
	alloc.sp	5, 16
	addi.ws	%r2, %r1, -10
	bui.ge.w	%r2, 6, 224

    6a20: d8 ff ff 40 60 03 00 00 00 02 77 14 10 10 00 00      	! BUNDLE
	addi.wz	%r1, %r1, -10
	ca.rf	%r2, 0
	jmp.t	%r2, %r1

		0000000000006a20:  R_POSTRISC_B_PCREL_FWD	.LJTI670_0
    6a30: 2c 00 00 40 00 02 00 00 00 04 f7 02 00 00 04 04      	! BUNDLE
	ldi	%r1, 11
	ca.rf	%r4, 0
	jmp	176

		0000000000006a30:  R_POSTRISC_B_PCREL_FWD	.L.str.68
    6a40: 70 00 00 40 00 42 00 00 fc 01 ec 03 00 00 04 20      	! BUNDLE
	ldi	%r1, 28
	st.w	%r1, %sp, 4
	ldi	%r1, 15

    6a50: 00 00 00 00 c1 9d 00 00 00 01 01 00 00 00 00 04      	! BUNDLE
	ca.rf	%r4, 0
	jmp	144
	nop	0

		0000000000006a50:  R_POSTRISC_A_PCREL_FWD	.L.str.72
    6a60: 38 00 00 40 00 42 00 00 fc 01 6c 03 00 00 04 20      	! BUNDLE
	ldi	%r1, 14
	st.w	%r1, %sp, 4
	ldi	%r1, 13

    6a70: 00 00 00 00 c1 7d 00 00 00 01 01 00 00 00 00 04      	! BUNDLE
	ca.rf	%r4, 0
	jmp	112
	nop	0

		0000000000006a70:  R_POSTRISC_A_PCREL_FWD	.L.str.70
    6a80: 3c 00 00 40 00 42 00 00 fc 01 ac 03 00 00 04 20      	! BUNDLE
	ldi	%r1, 15
	st.w	%r1, %sp, 4
	ldi	%r1, 14

    6a90: 00 00 00 00 c1 5d 00 00 00 01 01 00 00 00 00 04      	! BUNDLE
	ca.rf	%r4, 0
	jmp	80
	nop	0

		0000000000006a90:  R_POSTRISC_A_PCREL_FWD	.L.str.71
    6aa0: 28 00 00 40 00 42 00 00 fc 01 2c 03 00 00 04 20      	! BUNDLE
	ldi	%r1, 10
	st.w	%r1, %sp, 4
	ldi	%r1, 12

    6ab0: 00 00 00 00 c1 3d 00 00 00 01 01 00 00 00 00 04      	! BUNDLE
	ca.rf	%r4, 0
	jmp	48
	nop	0

		0000000000006ab0:  R_POSTRISC_A_PCREL_FWD	.L.str.69
    6ac0: 94 00 00 40 00 42 00 00 fc 01 2c 04 00 00 04 20      	! BUNDLE
	ldi	%r1, 37
	st.w	%r1, %sp, 4
	ldi	%r1, 16

    6ad0: 00 00 00 00 c1 0d 00 00 00 00 01 00 00 00 00 04      	! BUNDLE
	ca.rf	%r4, 0
	nop	0
	nop	0

		0000000000006ad0:  R_POSTRISC_A_PCREL_FWD	.L.str.73
    6ae0: 00 00 00 7f 00 0b 00 00 00 03 12 00 00 00 00 04      	! BUNDLE
	st.w	%r1, %sp, 0
	call.r	%r3, 0
	nop	0

		0000000000006ae0:  R_POSTRISC_B_JUMP	printf
    6af0: 04 00 80 7f 00 00 01 00 00 02 01 00 00 00 00 04      	! BUNDLE
	mov	%r1, %gz
	ret.f	16
	nop	0


0000000000006b00 <test_syscall_2>:
    6b00: 00 00 00 c1 40 30 10 00 00 00 00 00 00 00 08 04      	! BUNDLE
	alloc	2
	syscall
	ret.f	0


0000000000006b10 <test_syscall>:
    6b10: 00 00 80 c0 40 30 10 00 00 00 80 45 00 00 00 00      	! BUNDLE
	alloc	1
	syscall
	sysret

    6b20: 00 00 00 80 40 00 00 00 00 00 01 00 00 00 00 04      	! BUNDLE
	ret.f	0
	nop	0
	nop	0


0000000000006b30 <test_call_global_tailcall>:
    6b30: 00 00 80 c2 40 10 00 00 02 03 8d 02 00 08 10 34      	! BUNDLE
	alloc	5
	addi.ws	%r3, %r1, 1
	addi.ws	%r4, %r1, 10

    6b40: 00 00 00 80 80 14 00 00 06 01 00 00 00 00 08 04      	! BUNDLE
	call.r	%r2, 0
	mov	%r1, %r3
	ret.f	0

		0000000000006b40:  R_POSTRISC_A_JUMP	tail_call

0000000000006b50 <test_ptr_tailcall>:
    6b50: 00 00 80 c2 40 10 00 00 04 04 80 15 60 08 0c 00      	! BUNDLE
	alloc	5
	mov	%r4, %r2
	call.mi	%r3, %r1, 48

    6b60: 04 00 00 42 00 00 00 00 00 02 01 00 00 00 00 04      	! BUNDLE
	mov	%r1, %r4
	ret.f	0
	nop	0


0000000000006b70 <test_call_global_ptr_table_tailcall>:
    6b70: 00 00 00 c2 40 10 00 00 02 03 00 00 00 00 08 4a      	! BUNDLE
	alloc	4
	mov	%r3, %r1
	call.plt	%r2, 0

		0000000000006b70:  R_POSTRISC_C_PCREL_FWD	global_ftable+0x28
    6b80: 04 00 80 41 00 00 00 00 00 02 01 00 00 00 00 04      	! BUNDLE
	mov	%r1, %r3
	ret.f	0
	nop	0


0000000000006b90 <test_builtin_tlb_purge>:
    6b90: 00 00 00 c2 40 20 11 0c 04 01 00 00 00 00 08 04      	! BUNDLE
	alloc	4
	ptc	%r1, %r2, %r3
	ret.f	0


0000000000006ba0 <test_local_tls>:
    6ba0: 40 00 80 02 41 00 00 00 00 04 37 00 00 00 0c 48      	! BUNDLE
	alloc.sp	5, 16
	ca.rf	%r4, 0
	call.r	%r3, 0

		0000000000006ba0:  R_POSTRISC_B_TLS_LD_GOT_OFFSET	x_tls
		0000000000006ba0:  R_POSTRISC_C_JUMP	__tls_get_addr
    6bb0: 00 00 00 82 20 0b 02 04 04 01 00 04 00 00 08 04      	! BUNDLE
	ldz.d	%r2, %r4, 0
	add	%r1, %r2, %r1
	ret.f	16

		0000000000006bb0:  R_POSTRISC_A_TLS_LD_OFFSET	x_tls

0000000000006bc0 <test_extern_tls>:
    6bc0: 40 00 80 02 41 00 00 00 00 04 37 00 00 00 0c 48      	! BUNDLE
	alloc.sp	5, 16
	ca.rf	%r4, 0
	call.r	%r3, 0

		0000000000006bc0:  R_POSTRISC_B_TLS_LD_GOT_OFFSET	x_tls_extern
		0000000000006bc0:  R_POSTRISC_C_JUMP	__tls_get_addr
    6bd0: 00 00 00 82 20 0b 02 04 04 01 00 04 00 00 08 04      	! BUNDLE
	ldz.d	%r2, %r4, 0
	add	%r1, %r2, %r1
	ret.f	16

		0000000000006bd0:  R_POSTRISC_A_TLS_LD_OFFSET	x_tls_extern

0000000000006be0 <test_va_start>:
    6be0: 40 02 80 03 41 00 09 00 fc 06 0c 02 00 f0 1b b6      	! BUNDLE
	alloc.sp	7, 144
	addi	%r6, %sp, 144
	st.d	%r6, %sp, 8

    6bf0: 04 00 80 c0 40 f3 ff ff 03 04 0d 04 00 f0 17 30      	! BUNDLE
	addi.ws	%r3, %r1, 1
	addi.ws	%r4, %r1, -1
	addi	%r5, %sp, 16

    6c00: 00 00 00 80 80 14 00 00 06 01 00 24 00 00 08 04      	! BUNDLE
	call.r	%r2, 0
	mov	%r1, %r3
	ret.f	144

		0000000000006c00:  R_POSTRISC_A_JUMP	test_va_list_callback

0000000000006c10 <test_va_start_end>:
    6c10: 40 02 00 04 41 00 09 00 fc 01 0c 02 00 f0 07 b6      	! BUNDLE
	alloc.sp	8, 144
	addi	%r1, %sp, 144
	st.d	%r1, %sp, 8

    6c20: a0 0f 00 00 40 80 00 00 fc 81 ec 47 00 08 04 02      	! BUNDLE
	nop	1000
	ldz.d	%r1, %sp, 8
	algnup	%r1, %r1, 0, 2

    6c30: 10 00 80 80 00 83 00 00 fc 82 2d 00 00 08 10 ac      	! BUNDLE
	addi	%r2, %r1, 4
	st.d	%r2, %sp, 8
	ldz.w	%r4, %r1, 0

    6c40: a4 0f 00 00 40 80 00 00 fc 81 ec 67 00 08 04 02      	! BUNDLE
	nop	1001
	ldz.d	%r1, %sp, 8
	algnup	%r1, %r1, 0, 3

    6c50: 20 00 80 80 00 83 00 00 fc 82 2d 00 00 08 14 b2      	! BUNDLE
	addi	%r2, %r1, 8
	st.d	%r2, %sp, 8
	ldz.d	%r5, %r1, 0

    6c60: a8 0f 00 00 40 b0 3e 00 00 00 01 04 00 f0 1b 30      	! BUNDLE
	nop	1002
	nop	1003
	addi	%r6, %sp, 16

    6c70: 20 00 00 ff 01 03 00 00 00 03 52 00 00 20 04 00      	! BUNDLE
	addi	%r7, %sp, 8
	call.r	%r3, 0
	mov	%r1, %r4

		0000000000006c70:  R_POSTRISC_B_JUMP	test_va_callback
    6c80: 40 02 00 80 40 00 00 00 00 00 01 00 00 00 00 04      	! BUNDLE
	ret.f	144
	nop	0
	nop	0


0000000000006c90 <test_printf_valist>:
    6c90: 40 00 00 03 41 80 00 00 fc 82 2d 00 00 f0 0b b6      	! BUNDLE
	alloc.sp	6, 16
	st.d	%r2, %sp, 8
	st.d	%r2, %sp, 0

    6ca0: 90 01 00 00 01 02 00 00 fc 01 4c 00 00 08 14 00      	! BUNDLE
	ldi	%r4, 100
	addi	%r1, %sp, 0
	mov	%r5, %r1

    6cb0: 00 00 00 c0 80 84 0c 00 00 04 48 00 00 08 14 00      	! BUNDLE
	call.r	%r3, 0
	ldi	%r4, 200
	mov	%r5, %r1

		0000000000006cb0:  R_POSTRISC_A_JUMP	test_printf_callback
    6cc0: 00 00 00 c0 80 14 00 00 08 01 00 04 00 00 08 04      	! BUNDLE
	call.r	%r3, 0
	mov	%r1, %r4
	ret.f	16

		0000000000006cc0:  R_POSTRISC_A_JUMP	test_printf_callback

0000000000006cd0 <test_vprintf_valist>:
    6cd0: 80 00 00 03 41 80 01 00 fc 82 2d 04 00 f0 0b b6      	! BUNDLE
	alloc.sp	6, 32
	st.d	%r2, %sp, 24
	st.d	%r2, %sp, 16

    6ce0: 20 00 00 bf 60 4b 06 00 00 04 08 04 00 f0 17 30      	! BUNDLE
	st.d	%r2, %sp, 8
	ldi	%r4, 100
	addi	%r5, %sp, 16

    6cf0: 00 00 00 c0 80 84 0c 00 00 04 08 02 00 f0 17 30      	! BUNDLE
	call.r	%r3, 0
	ldi	%r4, 200
	addi	%r5, %sp, 8

		0000000000006cf0:  R_POSTRISC_A_JUMP	test_vprintf_callback
    6d00: 00 00 00 c0 80 14 00 00 08 01 00 08 00 00 08 04      	! BUNDLE
	call.r	%r3, 0
	mov	%r1, %r4
	ret.f	32

		0000000000006d00:  R_POSTRISC_A_JUMP	test_vprintf_callback

0000000000006d10 <test_vacopy>:
    6d10: 40 00 80 02 41 80 00 00 fc 82 2d 00 00 f0 0b b6      	! BUNDLE
	alloc.sp	5, 16
	st.d	%r2, %sp, 8
	st.d	%r2, %sp, 0

    6d20: 00 00 00 7f 00 13 00 00 02 04 00 00 00 00 0c 48      	! BUNDLE
	addi	%r1, %sp, 0
	mov	%r4, %r1
	call.r	%r3, 0

		0000000000006d20:  R_POSTRISC_C_JUMP	test_valist_callback
    6d30: 04 00 80 00 01 00 00 00 00 03 52 00 00 20 04 00      	! BUNDLE
	mov	%r4, %r1
	call.r	%r3, 0
	mov	%r1, %r4

		0000000000006d30:  R_POSTRISC_B_JUMP	test_valist_callback
    6d40: 40 00 00 80 40 00 00 00 00 00 01 00 00 00 00 04      	! BUNDLE
	ret.f	16
	nop	0
	nop	0


0000000000006d50 <test_vector_bitcast_v2i64_to_v4i32>:
    6d50: 00 00 00 c1 40 00 00 00 00 02 01 00 00 00 00 04      	! BUNDLE
	alloc	2
	ret.f	0
	nop	0


0000000000006d60 <test_vector_bitcast_v2i64_to_v8i16>:
    6d60: 00 00 00 c1 40 00 00 00 00 02 01 00 00 00 00 04      	! BUNDLE
	alloc	2
	ret.f	0
	nop	0


0000000000006d70 <test_vector_bitcast_v2i64_to_v16i8>:
    6d70: 00 00 00 c1 40 00 00 00 00 02 01 00 00 00 00 04      	! BUNDLE
	alloc	2
	ret.f	0
	nop	0


0000000000006d80 <test_vector_bitcast_v4i32_to_v2i64>:
    6d80: 00 00 00 c1 40 00 00 00 00 02 01 00 00 00 00 04      	! BUNDLE
	alloc	2
	ret.f	0
	nop	0


0000000000006d90 <test_vector_bitcast_v4i32_to_v8i16>:
    6d90: 00 00 00 c1 40 00 00 00 00 02 01 00 00 00 00 04      	! BUNDLE
	alloc	2
	ret.f	0
	nop	0


0000000000006da0 <test_vector_bitcast_v4i32_to_v16i8>:
    6da0: 00 00 00 c1 40 00 00 00 00 02 01 00 00 00 00 04      	! BUNDLE
	alloc	2
	ret.f	0
	nop	0


0000000000006db0 <test_vector_bitcast_v8i16_to_v2i64>:
    6db0: 00 00 00 c1 40 00 00 00 00 02 01 00 00 00 00 04      	! BUNDLE
	alloc	2
	ret.f	0
	nop	0


0000000000006dc0 <test_vector_bitcast_v8i16_to_v4i32>:
    6dc0: 00 00 00 c1 40 00 00 00 00 02 01 00 00 00 00 04      	! BUNDLE
	alloc	2
	ret.f	0
	nop	0


0000000000006dd0 <test_vector_bitcast_v8i16_to_v16i8>:
    6dd0: 00 00 00 c1 40 00 00 00 00 02 01 00 00 00 00 04      	! BUNDLE
	alloc	2
	ret.f	0
	nop	0


0000000000006de0 <test_vector_bitcast_v16i8_to_v2i64>:
    6de0: 00 00 00 c1 40 00 00 00 00 02 01 00 00 00 00 04      	! BUNDLE
	alloc	2
	ret.f	0
	nop	0


0000000000006df0 <test_vector_bitcast_v16i8_to_v4i32>:
    6df0: 00 00 00 c1 40 00 00 00 00 02 01 00 00 00 00 04      	! BUNDLE
	alloc	2
	ret.f	0
	nop	0


0000000000006e00 <test_vector_bitcast_v16i8_to_v8i16>:
    6e00: 00 00 00 c1 40 00 00 00 00 02 01 00 00 00 00 04      	! BUNDLE
	alloc	2
	ret.f	0
	nop	0


0000000000006e10 <test_vector_bitcast_f128_to_v16i8>:
    6e10: 00 00 00 c1 40 00 00 00 00 02 01 00 00 00 00 04      	! BUNDLE
	alloc	2
	ret.f	0
	nop	0


0000000000006e20 <test_vector_bitcast_f128_to_v8i16>:
    6e20: 00 00 00 c1 40 00 00 00 00 02 01 00 00 00 00 04      	! BUNDLE
	alloc	2
	ret.f	0
	nop	0


0000000000006e30 <test_vector_bitcast_f128_to_v4i32>:
    6e30: 00 00 00 c1 40 00 00 00 00 02 01 00 00 00 00 04      	! BUNDLE
	alloc	2
	ret.f	0
	nop	0


0000000000006e40 <test_vector_bitcast_f128_to_v2i64>:
    6e40: 00 00 00 c1 40 00 00 00 00 02 01 00 00 00 00 04      	! BUNDLE
	alloc	2
	ret.f	0
	nop	0


0000000000006e50 <test_vector_bitcast_v16i8_to_f128>:
    6e50: 00 00 00 c1 40 00 00 00 00 02 01 00 00 00 00 04      	! BUNDLE
	alloc	2
	ret.f	0
	nop	0


0000000000006e60 <test_vector_bitcast_v8i16_to_f128>:
    6e60: 00 00 00 c1 40 00 00 00 00 02 01 00 00 00 00 04      	! BUNDLE
	alloc	2
	ret.f	0
	nop	0


0000000000006e70 <test_vector_bitcast_v4i32_to_f128>:
    6e70: 00 00 00 c1 40 00 00 00 00 02 01 00 00 00 00 04      	! BUNDLE
	alloc	2
	ret.f	0
	nop	0


0000000000006e80 <test_vector_bitcast_v2i64_to_f128>:
    6e80: 00 00 00 c1 40 00 00 00 00 02 01 00 00 00 00 04      	! BUNDLE
	alloc	2
	ret.f	0
	nop	0


0000000000006e90 <test_vector_bitcast_i128_to_v16i8>:
    6e90: 00 00 00 c1 40 00 00 00 00 02 01 00 00 00 00 04      	! BUNDLE
	alloc	2
	ret.f	0
	nop	0


0000000000006ea0 <test_vector_bitcast_i128_to_v8i16>:
    6ea0: 00 00 00 c1 40 00 00 00 00 02 01 00 00 00 00 04      	! BUNDLE
	alloc	2
	ret.f	0
	nop	0


0000000000006eb0 <test_vector_bitcast_i128_to_v4i32>:
    6eb0: 00 00 00 c1 40 00 00 00 00 02 01 00 00 00 00 04      	! BUNDLE
	alloc	2
	ret.f	0
	nop	0


0000000000006ec0 <test_vector_bitcast_i128_to_v2i64>:
    6ec0: 00 00 00 c1 40 00 00 00 00 02 01 00 00 00 00 04      	! BUNDLE
	alloc	2
	ret.f	0
	nop	0


0000000000006ed0 <test_vector_bitcast_v16i8_to_i128>:
    6ed0: 00 00 00 c1 40 00 00 00 00 02 01 00 00 00 00 04      	! BUNDLE
	alloc	2
	ret.f	0
	nop	0


0000000000006ee0 <test_vector_bitcast_v8i16_to_i128>:
    6ee0: 00 00 00 c1 40 00 00 00 00 02 01 00 00 00 00 04      	! BUNDLE
	alloc	2
	ret.f	0
	nop	0


0000000000006ef0 <test_vector_bitcast_v4i32_to_i128>:
    6ef0: 00 00 00 c1 40 00 00 00 00 02 01 00 00 00 00 04      	! BUNDLE
	alloc	2
	ret.f	0
	nop	0


0000000000006f00 <test_vector_bitcast_v2i64_to_i128>:
    6f00: 00 00 00 c1 40 00 00 00 00 02 01 00 00 00 00 04      	! BUNDLE
	alloc	2
	ret.f	0
	nop	0


0000000000006f10 <test_stack_array>:
    6f10: 40 00 80 06 41 10 00 00 fa 05 00 04 00 f0 f7 31      	! BUNDLE
	alloc.sp	13, 16
	mov	%r5, %fp
	addi	%fp, %sp, 16

    6f20: c0 ff 7f bf 1f 03 00 00 00 0c 37 00 00 f0 07 b6      	! BUNDLE
	addi	%sp, %sp, -16
	ca.rf	%r12, 0
	st.d	%r1, %sp, 0

		0000000000006f20:  R_POSTRISC_B_PCREL_FWD	.L.str.74
    6f30: 00 00 00 c0 82 04 01 00 fc 7e cc 87 30 08 10 02      	! BUNDLE
	call.r	%r11, 0
	addi	%sp, %sp, 16
	algnup	%r4, %r1, 3, 4

		0000000000006f30:  R_POSTRISC_A_JUMP	printf
    6f40: 84 00 04 3f 01 10 00 00 08 7e 00 08 10 10 24 00      	! BUNDLE
	sub	%r4, %sp, %r4
	mov	%sp, %r4
	add	%r9, %r2, %r1

    6f50: 36 1d 83 04 02 21 00 00 00 00 40 08 20 08 0c 00      	! BUNDLE
	ca.xd.l	%r8, %r9, %r3, 0, 333
	sub	%r3, %r1, %r2

    6f60: b0 00 80 81 02 73 09 04 04 8b c0 25 20 08 30 02      	! BUNDLE
	addi	%r10, %r3, 44
	sl.add	%r11, %r2, %r1, 1
	sl.add	%r12, %r1, %r2, 1

    6f70: 04 00 00 c2 01 00 00 00 00 06 12 fe ff ef 1f b6      	! BUNDLE
	mov	%r7, %r4
	call.r	%r6, 0
	st.d	%r7, %fp, -8

		0000000000006f70:  R_POSTRISC_B_JUMP	stack_array_consumer
    6f80: 00 00 00 c2 20 8b ff ff fb 84 2c 82 20 18 08 02      	! BUNDLE
	ldz.d	%r3, %r4, 0
	ldz.d	%r4, %fp, -8
	add.add	%r2, %r3, %r2, %r4

    6f90: e0 ff ff be 60 8b ff ff fb 82 2c fc ff f7 fb 31      	! BUNDLE
	st.d	%r2, %fp, -8
	ldz.d	%r2, %fp, -8
	addi	%sp, %sp, -16

    6fa0: 00 00 00 00 c3 0d 00 00 fc 82 2d 00 00 00 2c 48      	! BUNDLE
	ca.rf	%r12, 0
	st.d	%r2, %sp, 0
	call.r	%r11, 0

		0000000000006fa0:  R_POSTRISC_A_PCREL_FWD	.L.str.75
		0000000000006fa0:  R_POSTRISC_C_JUMP	printf
    6fb0: 40 00 00 bf 1f 83 ff ff fb 82 2c 08 10 10 04 00      	! BUNDLE
	addi	%sp, %sp, 16
	ldz.d	%r2, %fp, -8
	add	%r1, %r2, %r1

    6fc0: 04 00 80 be 1f 10 00 00 0a 7d 00 00 00 00 08 04      	! BUNDLE
	mov	%sp, %fp
	mov	%fp, %r5
	ret.f	0


Disassembly of section .text.unlikely.:

0000000000000000 <test_int>:
       0: 00 00 00 c1 40 20 10 00 02 00 80 40 c8 f8 03 00      	! BUNDLE
	alloc	2
	int	%r1, 0
	int	%gz, 100

      10: 08 04 99 3f 00 20 90 7f fe 00 80 40 c6 f8 03 00      	! BUNDLE
	int	%gz, 200
	int	%gz, 255
	int	%gz, 99

      20: 08 24 80 3f 00 20 90 02 fe 00 00 00 00 00 00 04      	! BUNDLE
	int	%gz, 1
	int	%gz, 5
	nop	0

