
<stdin>:	file format elf64-postrisc
architecture: postrisc
start address: 0x0000000000000000

Program Header:

Dynamic Section:

Sections:
Idx Name            Size     VMA              LMA              Type
  0                 00000000 0000000000000000 0000000000000000 
  1 .strtab         00003960 0000000000000000 0000000000000000 
  2 .text           000067d0 0000000000000000 0000000000000000 TEXT
  3 .rela.text      00002490 0000000000000000 0000000000000000 
  4 .rodata         00000090 0000000000000000 0000000000000000 DATA
  5 .rela.rodata    00000360 0000000000000000 0000000000000000 
  6 .text.unlikely. 00000030 0000000000000000 0000000000000000 TEXT
  7 .rodata.str1.1  00000429 0000000000000000 0000000000000000 DATA
  8 .data           00000008 0000000000000000 0000000000000000 DATA
  9 .bss            00000070 0000000000000000 0000000000000000 BSS
 10 .tbss           00000008 0000000000000000 0000000000000000 BSS
 11 .comment        0000001f 0000000000000000 0000000000000000 
 12 .note.GNU-stack 00000000 0000000000000000 0000000000000000 
 13 .symtab         00004d70 0000000000000000 0000000000000000 

SYMBOL TABLE:
0000000000000000 l    df *ABS*	0000000000000000 foo.temp.c
0000000000000000 l    d  .text	0000000000000000 .text
0000000000000343 l     O .rodata.str1.1	0000000000000008 .Lstr.98
0000000000000000 l     O .rodata.str1.1	0000000000000019 .L.str.1
0000000000000019 l     O .rodata.str1.1	0000000000000018 .L.str.2
0000000000000031 l     O .rodata.str1.1	0000000000000019 .L.str.3
000000000000004a l     O .rodata.str1.1	0000000000000019 .L.str.4
0000000000000063 l     O .rodata.str1.1	0000000000000019 .L.str.5
000000000000007c l     O .rodata.str1.1	0000000000000015 .L.str.6
0000000000000091 l     O .rodata.str1.1	0000000000000014 .L.str.7
00000000000000a5 l     O .rodata.str1.1	0000000000000015 .L.str.8
00000000000000ba l     O .rodata.str1.1	0000000000000015 .L.str.9
00000000000000cf l     O .rodata.str1.1	0000000000000015 .L.str.10
00000000000000e4 l     O .rodata.str1.1	0000000000000005 .L.str.11
00000000000000e9 l     O .rodata.str1.1	0000000000000007 .L.str.12
00000000000000f0 l     O .rodata.str1.1	0000000000000009 .L.str.13
00000000000000f9 l     O .rodata.str1.1	0000000000000005 .L.str.14
00000000000000fe l     O .rodata.str1.1	000000000000000b .L.str.15
0000000000000109 l     O .rodata.str1.1	000000000000000e .L.str.16
0000000000000117 l     O .rodata.str1.1	0000000000000007 .L.str.17
0000000000000000 l     O .data	0000000000000008 uglbx
000000000000011e l     O .rodata.str1.1	0000000000000007 .L.str.18
0000000000000125 l     O .rodata.str1.1	0000000000000007 .L.str.19
000000000000034b l     O .rodata.str1.1	000000000000000c .Lstr.99
0000000000000357 l     O .rodata.str1.1	000000000000000c .Lstr.100
0000000000000363 l     O .rodata.str1.1	000000000000000c .Lstr.101
000000000000036f l     O .rodata.str1.1	000000000000000c .Lstr.102
000000000000037b l     O .rodata.str1.1	000000000000000c .Lstr.103
0000000000000387 l     O .rodata.str1.1	000000000000000c .Lstr.104
0000000000000393 l     O .rodata.str1.1	000000000000000c .Lstr.105
000000000000039f l     O .rodata.str1.1	000000000000000c .Lstr.106
00000000000003ab l     O .rodata.str1.1	000000000000000c .Lstr.107
00000000000003b7 l     O .rodata.str1.1	000000000000000c .Lstr.108
00000000000003c3 l     O .rodata.str1.1	000000000000000c .Lstr.109
00000000000003cf l     O .rodata.str1.1	000000000000000c .Lstr.110
00000000000003db l     O .rodata.str1.1	000000000000000d .Lstr.111
00000000000003e8 l     O .rodata.str1.1	000000000000000d .Lstr.112
00000000000003f5 l     O .rodata.str1.1	000000000000000d .Lstr.113
0000000000000402 l     O .rodata.str1.1	000000000000000d .Lstr.114
000000000000040f l     O .rodata.str1.1	000000000000000d .Lstr.115
000000000000041c l     O .rodata.str1.1	000000000000000d .Lstr.116
0000000000000000 l     O .bss	0000000000000002 f16_zero
0000000000000004 l     O .bss	0000000000000004 f32_zero
0000000000000008 l     O .bss	0000000000000008 f64_zero
0000000000000010 l     O .bss	0000000000000010 f128_zero
0000000000004920 l     F .text	0000000000000010 test_static_function_pointer_target
0000000000000028 l     O .bss	0000000000000001 i8_zero
0000000000000029 l     O .bss	0000000000000001 u8_zero
000000000000002a l     O .bss	0000000000000002 i16_zero
000000000000002c l     O .bss	0000000000000002 u16_zero
0000000000000030 l     O .bss	0000000000000004 i32_zero
0000000000000034 l     O .bss	0000000000000004 u32_zero
0000000000000038 l     O .bss	0000000000000008 i64_zero
0000000000000040 l     O .bss	0000000000000008 u64_zero
0000000000000050 l     O .bss	0000000000000010 i128_zero
0000000000000060 l     O .bss	0000000000000010 u128_zero
0000000000005cd0 l     F .text	0000000000000090 sn_write
0000000000000000 l       .rodata	0000000000000000 .LJTI614_0
000000000000012c l     O .rodata.str1.1	000000000000000c .L.str.38
000000000000016b l     O .rodata.str1.1	0000000000000011 .L.str.42
0000000000000149 l     O .rodata.str1.1	0000000000000011 .L.str.40
000000000000015a l     O .rodata.str1.1	0000000000000011 .L.str.41
0000000000000138 l     O .rodata.str1.1	0000000000000011 .L.str.39
000000000000017c l     O .rodata.str1.1	0000000000000011 .L.str.43
0000000000000018 l       .rodata	0000000000000000 .LJTI615_0
000000000000018d l     O .rodata.str1.1	000000000000000a .L.str.44
00000000000001be l     O .rodata.str1.1	000000000000000d .L.str.48
00000000000001a4 l     O .rodata.str1.1	000000000000000d .L.str.46
00000000000001b1 l     O .rodata.str1.1	000000000000000d .L.str.47
0000000000000197 l     O .rodata.str1.1	000000000000000d .L.str.45
00000000000001cb l     O .rodata.str1.1	000000000000000d .L.str.49
0000000000000030 l       .rodata	0000000000000000 .LJTI616_0
00000000000001d8 l     O .rodata.str1.1	000000000000000a .L.str.50
000000000000020a l     O .rodata.str1.1	000000000000000d .L.str.54
00000000000001ef l     O .rodata.str1.1	000000000000000d .L.str.52
00000000000001fc l     O .rodata.str1.1	000000000000000e .L.str.53
00000000000001e2 l     O .rodata.str1.1	000000000000000d .L.str.51
0000000000000217 l     O .rodata.str1.1	000000000000000d .L.str.55
0000000000000048 l       .rodata	0000000000000000 .LJTI617_0
0000000000000224 l     O .rodata.str1.1	000000000000000d .L.str.56
0000000000000267 l     O .rodata.str1.1	0000000000000012 .L.str.60
0000000000000243 l     O .rodata.str1.1	0000000000000012 .L.str.58
0000000000000255 l     O .rodata.str1.1	0000000000000012 .L.str.59
0000000000000231 l     O .rodata.str1.1	0000000000000012 .L.str.57
0000000000000279 l     O .rodata.str1.1	0000000000000012 .L.str.61
0000000000000060 l       .rodata	0000000000000000 .LJTI618_0
000000000000028b l     O .rodata.str1.1	000000000000000b .L.str.62
00000000000002c0 l     O .rodata.str1.1	000000000000000e .L.str.66
00000000000002a4 l     O .rodata.str1.1	000000000000000e .L.str.64
00000000000002b2 l     O .rodata.str1.1	000000000000000e .L.str.65
0000000000000296 l     O .rodata.str1.1	000000000000000e .L.str.63
00000000000002ce l     O .rodata.str1.1	000000000000000e .L.str.67
0000000000000078 l       .rodata	0000000000000000 .LJTI619_0
00000000000002dc l     O .rodata.str1.1	000000000000000b .L.str.68
0000000000000312 l     O .rodata.str1.1	000000000000000e .L.str.72
00000000000002f5 l     O .rodata.str1.1	000000000000000e .L.str.70
0000000000000303 l     O .rodata.str1.1	000000000000000f .L.str.71
00000000000002e7 l     O .rodata.str1.1	000000000000000e .L.str.69
0000000000000320 l     O .rodata.str1.1	000000000000000e .L.str.73
000000000000032e l     O .rodata.str1.1	000000000000000a .L.str.74
0000000000000338 l     O .rodata.str1.1	000000000000000b .L.str.75
0000000000000000 g     F .text	0000000000000010 test_i64_abs
0000000000000010 g     F .text	0000000000000010 test_i32_abs
0000000000000020 g     F .text	0000000000000010 test_i64_abs_difference
0000000000000030 g     F .text	0000000000000010 test_i32_abs_difference
0000000000000040 g     F .text	0000000000000010 test_aesenc
0000000000000050 g     F .text	0000000000000010 test_aesenclast
0000000000000060 g     F .text	0000000000000010 test_aesdec
0000000000000070 g     F .text	0000000000000010 test_aesdeclast
0000000000000080 g     F .text	0000000000000010 test_aesimc
0000000000000090 g     F .text	0000000000000020 test_aeskeygenassist
00000000000000b0 g     F .text	0000000000000010 test_ldi32
00000000000000c0 g     F .text	0000000000000020 test_ldi32_long
00000000000000e0 g     F .text	0000000000000010 test_ldi64
00000000000000f0 g     F .text	0000000000000020 test_ldi64_long
0000000000000110 g     F .text	0000000000000010 test_subfi_i64
0000000000000120 g     F .text	0000000000000010 test_subfi_i32
0000000000000130 g     F .text	0000000000000030 test_addil
0000000000000160 g     F .text	0000000000000020 test_andil
0000000000000180 g     F .text	0000000000000020 test_oril
00000000000001a0 g     F .text	0000000000000010 test_addadd
00000000000001b0 g     F .text	0000000000000010 test_addsub
00000000000001c0 g     F .text	0000000000000010 test_subsub
00000000000001d0 g     F .text	0000000000000010 test_mul_i32_i32
00000000000001e0 g     F .text	0000000000000010 test_mul_i32_imm
00000000000001f0 g     F .text	0000000000000020 test_mul_i32_imm_ext
0000000000000210 g     F .text	0000000000000010 test_mul_u32_imm
0000000000000220 g     F .text	0000000000000020 test_mul_u32_imm_ext
0000000000000240 g     F .text	0000000000000010 test_mul_i32_i64
0000000000000250 g     F .text	0000000000000010 test_mul_u32_u64
0000000000000260 g     F .text	0000000000000010 test_mul_i32_u64
0000000000000270 g     F .text	0000000000000010 test_mul_i32_i64_imm
0000000000000280 g     F .text	0000000000000020 test_mul_i32_i64_imm_ext
00000000000002a0 g     F .text	0000000000000010 test_mul_u32_u64_imm
00000000000002b0 g     F .text	0000000000000020 test_mul_u32_u64_imm_ext
00000000000002d0 g     F .text	0000000000000010 test_mul_i64_i64
00000000000002e0 g     F .text	0000000000000010 test_div_i32
00000000000002f0 g     F .text	0000000000000010 test_div_i64
0000000000000300 g     F .text	0000000000000010 test_div_u32
0000000000000310 g     F .text	0000000000000010 test_div_u64
0000000000000320 g     F .text	0000000000000010 test_mod_i32
0000000000000330 g     F .text	0000000000000010 test_mod_i64
0000000000000340 g     F .text	0000000000000010 test_mod_u32
0000000000000350 g     F .text	0000000000000010 test_mod_u64
0000000000000360 g     F .text	0000000000000010 test_mod_imm_i64
0000000000000370 g     F .text	0000000000000010 test_mod_imm_u64
0000000000000380 g     F .text	0000000000000020 test_mod_imm_ext_i64
00000000000003a0 g     F .text	0000000000000020 test_mod_imm_ext_u64
00000000000003c0 g     F .text	0000000000000300 test_atomic_compare_exchange_i8
00000000000006c0 g     F .text	0000000000000300 test_atomic_compare_exchange_i16
00000000000009c0 g     F .text	0000000000000300 test_atomic_compare_exchange_i32
0000000000000cc0 g     F .text	0000000000000300 test_atomic_compare_exchange_i64
0000000000000fc0 g     F .text	0000000000000300 test_atomic_compare_exchange_i128
00000000000012c0 g     F .text	0000000000000040 test_atomic_exchange_i8
0000000000001300 g     F .text	0000000000000040 test_atomic_exchange_i16
0000000000001340 g     F .text	0000000000000030 test_atomic_exchange_i32
0000000000001370 g     F .text	0000000000000030 test_atomic_exchange_i64
00000000000013a0 g     F .text	0000000000000030 test_atomic_exchange_i128
00000000000013d0 g     F .text	0000000000000010 test_fence_acquire
00000000000013e0 g     F .text	0000000000000010 test_fence_release
00000000000013f0 g     F .text	0000000000000010 test_fence_acq_rel
0000000000001400 g     F .text	0000000000000010 test_fence_seq_cst
0000000000001410 g     F .text	0000000000000010 test_compiler_fence
0000000000001420 g     F .text	0000000000000030 test_atomic_load_u8_u8
0000000000001450 g     F .text	0000000000000030 test_atomic_load_u8_u16
0000000000001480 g     F .text	0000000000000030 test_atomic_load_u8_u32
00000000000014b0 g     F .text	0000000000000040 test_atomic_load_u8_u64
00000000000014f0 g     F .text	0000000000000030 test_atomic_load_u16_u16
0000000000001520 g     F .text	0000000000000030 test_atomic_load_u16_u32
0000000000001550 g     F .text	0000000000000040 test_atomic_load_u16_u64
0000000000001590 g     F .text	0000000000000030 test_atomic_load_u32_u32
00000000000015c0 g     F .text	0000000000000040 test_atomic_load_u32_u64
0000000000001600 g     F .text	0000000000000030 test_atomic_load_u64_u64
0000000000001630 g     F .text	0000000000000030 test_atomic_load_u128_u128
0000000000001660 g     F .text	0000000000000140 test_atomic_load_op_i8
00000000000017a0 g     F .text	0000000000000130 test_atomic_load_op_u8
00000000000018d0 g     F .text	0000000000000140 test_atomic_load_op_i16
0000000000001a10 g     F .text	0000000000000130 test_atomic_load_op_u16
0000000000001b40 g     F .text	0000000000000130 test_atomic_load_op_i32
0000000000001c70 g     F .text	0000000000000130 test_atomic_load_op_u32
0000000000001da0 g     F .text	0000000000000130 test_atomic_load_op_i64
0000000000001ed0 g     F .text	0000000000000130 test_atomic_load_op_u64
0000000000002000 g     F .text	0000000000000020 test_atomic_store_i8
0000000000002020 g     F .text	0000000000000020 test_atomic_store_i16
0000000000002040 g     F .text	0000000000000020 test_atomic_store_i32
0000000000002060 g     F .text	0000000000000020 test_atomic_store_i64
0000000000002080 g     F .text	0000000000000020 test_atomic_store_i128
00000000000020a0 g     F .text	0000000000000010 test_i32_inv
00000000000020b0 g     F .text	0000000000000010 test_i64_inv
00000000000020c0 g     F .text	0000000000000010 test_i128_inv
00000000000020d0 g     F .text	0000000000000010 test_i32_and
00000000000020e0 g     F .text	0000000000000010 test_i64_and
00000000000020f0 g     F .text	0000000000000010 test_i128_and
0000000000002100 g     F .text	0000000000000010 test_i32_andi
0000000000002110 g     F .text	0000000000000020 test_i32_andi_ext
0000000000002130 g     F .text	0000000000000010 test_i64_andi
0000000000002140 g     F .text	0000000000000020 test_i64_andi_ext
0000000000002160 g     F .text	0000000000000010 test_i128_andi
0000000000002170 g     F .text	0000000000000020 test_i128_andi_ext
0000000000002190 g     F .text	0000000000000010 test_i32_andn
00000000000021a0 g     F .text	0000000000000010 test_i64_andn
00000000000021b0 g     F .text	0000000000000010 test_i128_andn
00000000000021c0 g     F .text	0000000000000010 test_i32_andni
00000000000021d0 g     F .text	0000000000000020 test_i32_andni_ext
00000000000021f0 g     F .text	0000000000000010 test_i64_andni
0000000000002200 g     F .text	0000000000000020 test_i64_andni_ext
0000000000002220 g     F .text	0000000000000010 test_i128_andni
0000000000002230 g     F .text	0000000000000020 test_i128_andni_ext
0000000000002250 g     F .text	0000000000000010 test_i32_or
0000000000002260 g     F .text	0000000000000010 test_i64_or
0000000000002270 g     F .text	0000000000000010 test_i128_or
0000000000002280 g     F .text	0000000000000010 test_i32_ori
0000000000002290 g     F .text	0000000000000020 test_i32_ori_ext
00000000000022b0 g     F .text	0000000000000010 test_i64_ori
00000000000022c0 g     F .text	0000000000000020 test_i64_ori_ext
00000000000022e0 g     F .text	0000000000000010 test_i128_ori
00000000000022f0 g     F .text	0000000000000020 test_i128_ori_ext
0000000000002310 g     F .text	0000000000000010 test_i32_orn
0000000000002320 g     F .text	0000000000000010 test_i64_orn
0000000000002330 g     F .text	0000000000000010 test_i128_orn
0000000000002340 g     F .text	0000000000000010 test_i32_orni
0000000000002350 g     F .text	0000000000000020 test_i32_orni_ext
0000000000002370 g     F .text	0000000000000010 test_i64_orni
0000000000002380 g     F .text	0000000000000020 test_i64_orni_ext
00000000000023a0 g     F .text	0000000000000010 test_i128_orni
00000000000023b0 g     F .text	0000000000000020 test_i128_orni_ext
00000000000023d0 g     F .text	0000000000000010 test_i32_xor
00000000000023e0 g     F .text	0000000000000010 test_i64_xor
00000000000023f0 g     F .text	0000000000000010 test_i128_xor
0000000000002400 g     F .text	0000000000000010 test_i32_xori
0000000000002410 g     F .text	0000000000000020 test_i32_xori_ext
0000000000002430 g     F .text	0000000000000010 test_i64_xori
0000000000002440 g     F .text	0000000000000020 test_i64_xori_ext
0000000000002460 g     F .text	0000000000000010 test_i128_xori
0000000000002470 g     F .text	0000000000000020 test_i128_xori_ext
0000000000002490 g     F .text	0000000000000010 test_i1_and
00000000000024a0 g     F .text	0000000000000010 test_i1_or
00000000000024b0 g     F .text	0000000000000010 test_i1_xor
00000000000024c0 g     F .text	0000000000000010 test_i1_not
00000000000024d0 g     F .text	0000000000000020 test_i1_andn
00000000000024f0 g     F .text	0000000000000020 test_i1_orn
0000000000002510 g     F .text	0000000000000020 test_i1_nand
0000000000002530 g     F .text	0000000000000010 test_i1_to_i32
0000000000002540 g     F .text	0000000000000010 test_i1_to_i64
0000000000002550 g     F .text	0000000000000010 test_i1_inv
0000000000002560 g     F .text	0000000000000010 test_imm_to_i1
0000000000002570 g     F .text	0000000000000050 test_write_i1
0000000000000000         *UND*	0000000000000000 test_bool_true
0000000000000000         *UND*	0000000000000000 test_bool_false
0000000000000000         *UND*	0000000000000000 test_i8_true
0000000000000000         *UND*	0000000000000000 test_i8_false
0000000000000000         *UND*	0000000000000000 test_i16_true
0000000000000000         *UND*	0000000000000000 test_i16_false
0000000000000000         *UND*	0000000000000000 test_i32_true
0000000000000000         *UND*	0000000000000000 test_i32_false
0000000000000000         *UND*	0000000000000000 test_i64_true
0000000000000000         *UND*	0000000000000000 test_i64_false
00000000000025c0 g     F .text	0000000000000020 test_branch_i64_eqi
0000000000000000         *UND*	0000000000000000 puts
00000000000025e0 g     F .text	0000000000000020 test_branch_i64_nei
0000000000002600 g     F .text	0000000000000020 test_branch_i64_lti
0000000000002620 g     F .text	0000000000000020 test_branch_i64_lei
0000000000002640 g     F .text	0000000000000020 test_branch_i64_gti
0000000000002660 g     F .text	0000000000000020 test_branch_i64_gei
0000000000002680 g     F .text	0000000000000020 test_branch_ext_i64_eqi
00000000000026a0 g     F .text	0000000000000020 test_branch_ext_i64_nei
00000000000026c0 g     F .text	0000000000000020 test_branch_ext_i64_lti
00000000000026e0 g     F .text	0000000000000020 test_branch_ext_i64_lei
0000000000002700 g     F .text	0000000000000020 test_branch_ext_i64_gti
0000000000002720 g     F .text	0000000000000020 test_branch_ext_i64_gei
0000000000002740 g     F .text	0000000000000020 test_branch_i32_eqi
0000000000002760 g     F .text	0000000000000020 test_branch_i32_nei
0000000000002780 g     F .text	0000000000000020 test_branch_i32_lti
00000000000027a0 g     F .text	0000000000000020 test_branch_i32_lei
00000000000027c0 g     F .text	0000000000000020 test_branch_i32_gti
00000000000027e0 g     F .text	0000000000000020 test_branch_i32_gei
0000000000002800 g     F .text	0000000000000020 test_branch_ext_i32_eqi
0000000000002820 g     F .text	0000000000000020 test_branch_ext_i32_nei
0000000000002840 g     F .text	0000000000000020 test_branch_ext_i32_lti
0000000000002860 g     F .text	0000000000000020 test_branch_ext_i32_lei
0000000000002880 g     F .text	0000000000000020 test_branch_ext_i32_gti
00000000000028a0 g     F .text	0000000000000020 test_branch_ext_i32_gei
00000000000028c0 g     F .text	0000000000000030 test_bit_1
0000000000000000         *UND*	0000000000000000 printf
00000000000028f0 g     F .text	0000000000000030 test_bit_2
0000000000002920 g     F .text	0000000000000030 test_bit_3
0000000000002950 g     F .text	0000000000000030 test_bit_4
0000000000002980 g     F .text	0000000000000030 test_bit_5
00000000000029b0 g     F .text	0000000000000030 test_bit_i32_1
00000000000029e0 g     F .text	0000000000000030 test_bit_i32_2
0000000000002a10 g     F .text	0000000000000030 test_bit_i32_3
0000000000002a40 g     F .text	0000000000000030 test_bit_i32_4
0000000000002a70 g     F .text	0000000000000030 test_bit_i32_5
0000000000002aa0 g     F .text	0000000000000080 test_ball
0000000000002b20 g     F .text	0000000000000010 test_builtin_popcount
0000000000002b30 g     F .text	0000000000000010 test_builtin_popcountl
0000000000002b40 g     F .text	0000000000000010 test_builtin_ctz
0000000000002b50 g     F .text	0000000000000010 test_builtin_ctzl
0000000000002b60 g     F .text	0000000000000010 test_builtin_clz
0000000000002b70 g     F .text	0000000000000010 test_builtin_clzl
0000000000002b80 g     F .text	0000000000000010 test_builtin_readcyclecounter
0000000000002b90 g     F .text	0000000000000010 test_builtin_thread_pointer
0000000000002ba0 g     F .text	0000000000000010 test_builtin_set_thread_pointer
0000000000002bb0 g     F .text	0000000000000030 test_frame_buitin
0000000000002be0 g     F .text	0000000000000010 test_builtin_stack_pointer
0000000000002bf0 g     F .text	0000000000000050 test_builtin_bitreverse
0000000000002c40 g     F .text	0000000000000010 test_builtin_halt
0000000000002c50 g     F .text	0000000000000010 test_builtin_undef
0000000000002c60 g     F .text	0000000000000010 test_builtin_rfi
0000000000002c70 g     F .text	0000000000000030 test_builtin_nop
0000000000002ca0 g     F .text	0000000000000010 test_builtin_tpa
0000000000002cb0 g     F .text	0000000000000020 test_builtin_random
0000000000002cd0 g     F .text	0000000000000070 test_builtin_cache
0000000000002d40 g     F .text	00000000000001b0 test_builtin_get_special_reg
0000000000000000         *UND*	0000000000000000 consume_sr64
0000000000000000         *UND*	0000000000000000 consume_sr128
0000000000002ef0 g     F .text	00000000000000e0 test_builtin_set_special_reg
0000000000002fd0 g     F .text	0000000000000020 test_i128_load_store
0000000000002ff0 g     F .text	0000000000000070 test_builtin_va
0000000000000000         *UND*	0000000000000000 test_builtin_va_consume_i32
0000000000000000         *UND*	0000000000000000 test_builtin_va_consume_f64
0000000000000000         *UND*	0000000000000000 test_builtin_va_consume_f128
0000000000003060 g     F .text	00000000000000a0 test_test_builtin_va
0000000000003100 g     F .text	0000000000000090 test_builtin_vector_i8
0000000000003190 g     F .text	0000000000000090 test_builtin_vector_i16
0000000000003220 g     F .text	0000000000000090 test_builtin_vector_i32
00000000000032b0 g     F .text	0000000000000090 test_builtin_vector_i64
0000000000003340 g     F .text	00000000000000a0 test_builtin_vector_mixed
00000000000033e0 g     F .text	0000000000000020 test_clmul
0000000000003400 g     F .text	0000000000000020 test_bool_eq
0000000000003420 g     F .text	0000000000000010 test_bool_ne
0000000000003430 g     F .text	0000000000000020 test_bool_lt
0000000000003450 g     F .text	0000000000000020 test_bool_le
0000000000003470 g     F .text	0000000000000020 test_bool_gt
0000000000003490 g     F .text	0000000000000020 test_bool_ge
00000000000034b0 g     F .text	0000000000000010 test_ptr_eq
00000000000034c0 g     F .text	0000000000000010 test_ptr_ne
00000000000034d0 g     F .text	0000000000000010 test_ptr_lt
00000000000034e0 g     F .text	0000000000000010 test_ptr_le
00000000000034f0 g     F .text	0000000000000010 test_ptr_gt
0000000000003500 g     F .text	0000000000000010 test_ptr_ge
0000000000003510 g     F .text	0000000000000010 test_i64_eq
0000000000003520 g     F .text	0000000000000010 test_i64_ne
0000000000003530 g     F .text	0000000000000010 test_i64_lt
0000000000003540 g     F .text	0000000000000010 test_i64_le
0000000000003550 g     F .text	0000000000000010 test_i64_gt
0000000000003560 g     F .text	0000000000000010 test_i64_ge
0000000000003570 g     F .text	0000000000000010 test_u64_lt
0000000000003580 g     F .text	0000000000000010 test_u64_le
0000000000003590 g     F .text	0000000000000010 test_u64_gt
00000000000035a0 g     F .text	0000000000000010 test_u64_ge
00000000000035b0 g     F .text	0000000000000010 test_i64_eq_imm
00000000000035c0 g     F .text	0000000000000010 test_i64_ne_imm
00000000000035d0 g     F .text	0000000000000010 test_i64_lt_imm
00000000000035e0 g     F .text	0000000000000010 test_i64_gt_imm
00000000000035f0 g     F .text	0000000000000010 test_i64_le_imm
0000000000003600 g     F .text	0000000000000010 test_i64_ge_imm
0000000000003610 g     F .text	0000000000000010 test_u64_lt_imm
0000000000003620 g     F .text	0000000000000010 test_u64_gt_imm
0000000000003630 g     F .text	0000000000000010 test_u64_le_imm
0000000000003640 g     F .text	0000000000000010 test_u64_ge_imm
0000000000003650 g     F .text	0000000000000010 test_i32_eq
0000000000003660 g     F .text	0000000000000010 test_i32_ne
0000000000003670 g     F .text	0000000000000010 test_i32_lt
0000000000003680 g     F .text	0000000000000010 test_i32_le
0000000000003690 g     F .text	0000000000000010 test_i32_gt
00000000000036a0 g     F .text	0000000000000010 test_i32_ge
00000000000036b0 g     F .text	0000000000000010 test_u32_lt
00000000000036c0 g     F .text	0000000000000010 test_u32_le
00000000000036d0 g     F .text	0000000000000010 test_u32_gt
00000000000036e0 g     F .text	0000000000000010 test_u32_ge
00000000000036f0 g     F .text	0000000000000010 test_i32_eq_imm
0000000000003700 g     F .text	0000000000000010 test_i32_ne_imm
0000000000003710 g     F .text	0000000000000010 test_i32_lt_imm
0000000000003720 g     F .text	0000000000000010 test_i32_gt_imm
0000000000003730 g     F .text	0000000000000010 test_i32_le_imm
0000000000003740 g     F .text	0000000000000010 test_i32_ge_imm
0000000000003750 g     F .text	0000000000000010 test_u32_lt_imm
0000000000003760 g     F .text	0000000000000010 test_u32_gt_imm
0000000000003770 g     F .text	0000000000000010 test_u32_le_imm
0000000000003780 g     F .text	0000000000000010 test_u32_ge_imm
0000000000003790 g     F .text	0000000000000030 test_cpuid
00000000000037c0 g     F .text	0000000000000010 test_crc32c
00000000000037d0 g     F .text	0000000000000030 TestDebugRegisters
0000000000003800 g     F .text	0000000000000020 test_fma_f16
0000000000003820 g     F .text	0000000000000020 test_fma_f32
0000000000003840 g     F .text	0000000000000020 test_fma_f64
0000000000003860 g     F .text	0000000000000020 test_fma_f128
0000000000003880 g     F .text	0000000000000020 test_fma_v8f16
00000000000038a0 g     F .text	0000000000000020 test_fma_v4f32
00000000000038c0 g     F .text	0000000000000020 test_fma_v2f64
00000000000038e0 g     F .text	0000000000000020 ffff
0000000000003900 g     F .text	0000000000000120 i64_test
0000000000000000         *UND*	0000000000000000 exit
0000000000003a20 g     F .text	0000000000000080 NeverReturn
0000000000000000         *UND*	0000000000000000 glbx
0000000000003aa0 g     F .text	0000000000000030 i64_add
0000000000003ad0 g     F .text	0000000000000040 i32_add
0000000000000000         *UND*	0000000000000000 glb
0000000000000000         *UND*	0000000000000000 cccc
0000000000003b10 g     F .text	0000000000000020 u32_add
0000000000000000         *UND*	0000000000000000 uglb
0000000000003b30 g     F .text	0000000000000040 float_test
0000000000003b70 g     F .text	0000000000000010 main
0000000000003b80 g     F .text	0000000000000020 test_fp_arithmetic_f16
0000000000003ba0 g     F .text	0000000000000020 test_fp_arithmetic_f32
0000000000003bc0 g     F .text	0000000000000020 test_fp_arithmetic_f64
0000000000003be0 g     F .text	0000000000000020 test_fp_arithmetic_f128
0000000000003c00 g     F .text	0000000000000020 test_fp_bitcast_i16_to_f16
0000000000003c20 g     F .text	0000000000000020 test_fp_bitcast_f16_to_i16
0000000000003c40 g     F .text	0000000000000010 test_fp_bitcast_i32_to_f32
0000000000003c50 g     F .text	0000000000000010 test_fp_bitcast_f32_to_i32
0000000000003c60 g     F .text	0000000000000010 test_fp_bitcast_i64_to_f64
0000000000003c70 g     F .text	0000000000000010 test_fp_bitcast_f64_to_i64
0000000000003c80 g     F .text	0000000000000010 test_fp_bitcast_i128_to_f128
0000000000003c90 g     F .text	0000000000000010 test_fp_bitcast_f128_to_i128
0000000000003ca0 g     F .text	0000000000000020 test_fp_branch_f32_eq
0000000000003cc0 g     F .text	0000000000000020 test_fp_branch_f32_ne
0000000000003ce0 g     F .text	0000000000000020 test_fp_branch_f32_lt
0000000000003d00 g     F .text	0000000000000020 test_fp_branch_f32_le
0000000000003d20 g     F .text	0000000000000020 test_fp_branch_f32_gt
0000000000003d40 g     F .text	0000000000000020 test_fp_branch_f32_ge
0000000000003d60 g     F .text	0000000000000020 test_fp_branch_f64_eq
0000000000003d80 g     F .text	0000000000000020 test_fp_branch_f64_ne
0000000000003da0 g     F .text	0000000000000020 test_fp_branch_f64_lt
0000000000003dc0 g     F .text	0000000000000020 test_fp_branch_f64_le
0000000000003de0 g     F .text	0000000000000020 test_fp_branch_f64_gt
0000000000003e00 g     F .text	0000000000000020 test_fp_branch_f64_ge
0000000000003e20 g     F .text	0000000000000020 test_fp_branch_f128_eq
0000000000003e40 g     F .text	0000000000000020 test_fp_branch_f128_ne
0000000000003e60 g     F .text	0000000000000020 test_fp_branch_f128_lt
0000000000003e80 g     F .text	0000000000000020 test_fp_branch_f128_le
0000000000003ea0 g     F .text	0000000000000020 test_fp_branch_f128_gt
0000000000003ec0 g     F .text	0000000000000020 test_fp_branch_f128_ge
0000000000003ee0 g     F .text	0000000000000010 test_builtin_f32_isnan
0000000000003ef0 g     F .text	0000000000000010 test_builtin_f32_copysign
0000000000003f00 g     F .text	0000000000000010 test_builtin_f64_copysign
0000000000003f10 g     F .text	0000000000000010 test_builtin_f128_copysign
0000000000003f20 g     F .text	0000000000000010 test_compare_f16_eq
0000000000003f30 g     F .text	0000000000000010 test_compare_f16_ne
0000000000003f40 g     F .text	0000000000000010 test_compare_f16_lt
0000000000003f50 g     F .text	0000000000000010 test_compare_f16_le
0000000000003f60 g     F .text	0000000000000010 test_compare_f16_gt
0000000000003f70 g     F .text	0000000000000010 test_compare_f16_ge
0000000000003f80 g     F .text	0000000000000010 test_compare_f32_eq
0000000000003f90 g     F .text	0000000000000010 test_compare_f32_ne
0000000000003fa0 g     F .text	0000000000000010 test_compare_f32_lt
0000000000003fb0 g     F .text	0000000000000010 test_compare_f32_le
0000000000003fc0 g     F .text	0000000000000010 test_compare_f32_gt
0000000000003fd0 g     F .text	0000000000000010 test_compare_f32_ge
0000000000003fe0 g     F .text	0000000000000010 test_compare_f64_eq
0000000000003ff0 g     F .text	0000000000000010 test_compare_f64_ne
0000000000004000 g     F .text	0000000000000010 test_compare_f64_lt
0000000000004010 g     F .text	0000000000000010 test_compare_f64_le
0000000000004020 g     F .text	0000000000000010 test_compare_f64_gt
0000000000004030 g     F .text	0000000000000010 test_compare_f64_ge
0000000000004040 g     F .text	0000000000000010 test_compare_f128_eq
0000000000004050 g     F .text	0000000000000010 test_compare_f128_ne
0000000000004060 g     F .text	0000000000000010 test_compare_f128_lt
0000000000004070 g     F .text	0000000000000010 test_compare_f128_le
0000000000004080 g     F .text	0000000000000010 test_compare_f128_gt
0000000000004090 g     F .text	0000000000000010 test_compare_f128_ge
00000000000040a0 g     F .text	0000000000000010 test_conv_f16_to_f32
00000000000040b0 g     F .text	0000000000000010 test_conv_f16_to_f64
00000000000040c0 g     F .text	0000000000000010 test_conv_f16_to_f128
00000000000040d0 g     F .text	0000000000000010 test_conv_f64_to_f128
00000000000040e0 g     F .text	0000000000000010 test_conv_f32_to_f64
00000000000040f0 g     F .text	0000000000000010 test_conv_f32_to_f128
0000000000004100 g     F .text	0000000000000010 test_conv_f32_to_f16
0000000000004110 g     F .text	0000000000000010 test_conv_f64_to_f16
0000000000004120 g     F .text	0000000000000010 test_conv_f64_to_f32
0000000000004130 g     F .text	0000000000000010 test_conv_f128_to_f16
0000000000004140 g     F .text	0000000000000010 test_conv_f128_to_f32
0000000000004150 g     F .text	0000000000000010 test_conv_f128_to_f64
0000000000004160 g     F .text	0000000000000010 test_conv_f16_to_i32
0000000000004170 g     F .text	0000000000000010 test_conv_f16_to_u32
0000000000004180 g     F .text	0000000000000010 test_conv_f16_to_i64
0000000000004190 g     F .text	0000000000000010 test_conv_f16_to_u64
00000000000041a0 g     F .text	0000000000000010 test_conv_f16_to_i128
00000000000041b0 g     F .text	0000000000000010 test_conv_f16_to_u128
00000000000041c0 g     F .text	0000000000000010 test_conv_i32_to_f16
00000000000041d0 g     F .text	0000000000000010 test_conv_u32_to_f16
00000000000041e0 g     F .text	0000000000000010 test_conv_i64_to_f16
00000000000041f0 g     F .text	0000000000000010 test_conv_u64_to_f16
0000000000004200 g     F .text	0000000000000010 test_conv_i128_to_f16
0000000000004210 g     F .text	0000000000000010 test_conv_u128_to_f16
0000000000004220 g     F .text	0000000000000010 test_conv_f32_to_i32
0000000000004230 g     F .text	0000000000000010 test_conv_f32_to_u32
0000000000004240 g     F .text	0000000000000010 test_conv_f32_to_i64
0000000000004250 g     F .text	0000000000000010 test_conv_f32_to_u64
0000000000004260 g     F .text	0000000000000010 test_conv_f32_to_i128
0000000000004270 g     F .text	0000000000000010 test_conv_f32_to_u128
0000000000004280 g     F .text	0000000000000010 test_conv_i32_to_f32
0000000000004290 g     F .text	0000000000000010 test_conv_u32_to_f32
00000000000042a0 g     F .text	0000000000000010 test_conv_i64_to_f32
00000000000042b0 g     F .text	0000000000000010 test_conv_u64_to_f32
00000000000042c0 g     F .text	0000000000000010 test_conv_i128_to_f32
00000000000042d0 g     F .text	0000000000000010 test_conv_u128_to_f32
00000000000042e0 g     F .text	0000000000000010 test_conv_f64_to_i32
00000000000042f0 g     F .text	0000000000000010 test_conv_f64_to_u32
0000000000004300 g     F .text	0000000000000010 test_conv_f64_to_i64
0000000000004310 g     F .text	0000000000000010 test_conv_f64_to_u64
0000000000004320 g     F .text	0000000000000010 test_conv_f64_to_i128
0000000000004330 g     F .text	0000000000000010 test_conv_f64_to_u128
0000000000004340 g     F .text	0000000000000010 test_conv_i32_to_f64
0000000000004350 g     F .text	0000000000000010 test_conv_u32_to_f64
0000000000004360 g     F .text	0000000000000010 test_conv_i64_to_f64
0000000000004370 g     F .text	0000000000000010 test_conv_u64_to_f64
0000000000004380 g     F .text	0000000000000010 test_conv_i128_to_f64
0000000000004390 g     F .text	0000000000000010 test_conv_u128_to_f64
00000000000043a0 g     F .text	0000000000000010 test_conv_f128_to_i32
00000000000043b0 g     F .text	0000000000000010 test_conv_f128_to_u32
00000000000043c0 g     F .text	0000000000000010 test_conv_f128_to_i64
00000000000043d0 g     F .text	0000000000000010 test_conv_f128_to_u64
00000000000043e0 g     F .text	0000000000000010 test_conv_f128_to_i128
00000000000043f0 g     F .text	0000000000000010 test_conv_f128_to_u128
0000000000004400 g     F .text	0000000000000010 test_conv_i32_to_f128
0000000000004410 g     F .text	0000000000000010 test_conv_u32_to_f128
0000000000004420 g     F .text	0000000000000010 test_conv_i64_to_f128
0000000000004430 g     F .text	0000000000000010 test_conv_u64_to_f128
0000000000004440 g     F .text	0000000000000010 test_conv_i128_to_f128
0000000000004450 g     F .text	0000000000000010 test_conv_u128_to_f128
0000000000004460 g     F .text	0000000000000010 test_fp_immediate_f16
0000000000004470 g     F .text	0000000000000020 test_fp_immediate_f32
0000000000004490 g     F .text	0000000000000020 test_fp_immediate_f64
00000000000044b0 g     F .text	0000000000000020 test_fp_immediate_f128
00000000000044d0 g     F .text	0000000000000020 test_fp_immediate_f128_int
00000000000044f0 g     F .text	0000000000000020 test_fp_immediate_f128_denorm
0000000000004510 g     F .text	0000000000000010 test_round_f32
0000000000004520 g     F .text	0000000000000010 test_floor_f32
0000000000004530 g     F .text	0000000000000010 test_ceil_f32
0000000000004540 g     F .text	0000000000000010 test_trunc_f32
0000000000004550 g     F .text	0000000000000010 test_nearbyint_f32
0000000000004560 g     F .text	0000000000000010 test_rint_f32
0000000000004570 g     F .text	0000000000000010 test_round_f64
0000000000004580 g     F .text	0000000000000010 test_floor_f64
0000000000004590 g     F .text	0000000000000010 test_ceil_f64
00000000000045a0 g     F .text	0000000000000010 test_trunc_f64
00000000000045b0 g     F .text	0000000000000010 test_nearbyint_f64
00000000000045c0 g     F .text	0000000000000010 test_rint_f64
00000000000045d0 g     F .text	0000000000000010 test_round_f128
00000000000045e0 g     F .text	0000000000000010 test_floor_f128
00000000000045f0 g     F .text	0000000000000010 test_ceil_f128
0000000000004600 g     F .text	0000000000000010 test_trunc_f128
0000000000004610 g     F .text	0000000000000010 test_nearbyint_f128
0000000000004620 g     F .text	0000000000000010 test_rint_f128
0000000000004630 g     F .text	0000000000000010 test_fneg_f32
0000000000004640 g     F .text	0000000000000010 test_fabs_f32
0000000000004650 g     F .text	0000000000000010 test_fnabs_f32
0000000000004660 g     F .text	0000000000000010 test_fabsd_f32
0000000000004670 g     F .text	0000000000000010 test_fnabsd_f32
0000000000004680 g     F .text	0000000000000010 test_fneg_f64
0000000000004690 g     F .text	0000000000000010 test_fabs_f64
00000000000046a0 g     F .text	0000000000000010 test_fnabs_f64
00000000000046b0 g     F .text	0000000000000010 test_fabsd_f64
00000000000046c0 g     F .text	0000000000000010 test_fnabsd_f64
00000000000046d0 g     F .text	0000000000000010 test_fneg_f128
00000000000046e0 g     F .text	0000000000000010 test_fabs_f128
00000000000046f0 g     F .text	0000000000000010 test_fnabs_f128
0000000000004700 g     F .text	0000000000000010 test_fabsd_f128
0000000000004710 g     F .text	0000000000000010 test_fnabsd_f128
0000000000004720 g     F .text	00000000000000a0 fp_store_zero_dummy_return
00000000000047c0 g     F .text	0000000000000020 test_store_based_f16_zero
00000000000047e0 g     F .text	0000000000000020 test_store_based_f32_zero
0000000000004800 g     F .text	0000000000000020 test_store_based_f64_zero
0000000000004820 g     F .text	0000000000000020 test_store_based_f128_zero
0000000000004840 g     F .text	0000000000000020 test_function_pointer
0000000000004860 g     F .text	0000000000000020 test_function_call
0000000000000000         *UND*	0000000000000000 ccc
0000000000004880 g     F .text	0000000000000020 test_function
0000000000000000         *UND*	0000000000000000 xprintf
00000000000048a0 g     F .text	0000000000000020 test_callmi
00000000000048c0 g     F .text	0000000000000020 test_callmi_folding
00000000000048e0 g     F .text	0000000000000020 test_callplt_folding
0000000000000000         *UND*	0000000000000000 gftable
0000000000004900 g     F .text	0000000000000010 test_global_function_pointer_target
0000000000004910 g     F .text	0000000000000010 test_static_function_pointer_materialize
0000000000004930 g     F .text	0000000000000010 test_global_function_pointer_materialize
0000000000004940 g     F .text	0000000000000010 test_extern_function_pointer_materialize
0000000000000000         *UND*	0000000000000000 test_extern_function_pointer_target
0000000000004950 g     F .text	0000000000000010 test_fshr_u32
0000000000004960 g     F .text	0000000000000010 test_fshr_u64
0000000000004970 g     F .text	0000000000000010 test_fshr_u128
0000000000004980 g     F .text	0000000000000010 test_rotate_u32
0000000000004990 g     F .text	0000000000000010 test_rotate_u64
00000000000049a0 g     F .text	0000000000000010 test_rotate_u128
00000000000049b0 g     F .text	0000000000000030 test_global_data
0000000000000020 g     O .bss	0000000000000008 x_bss
0000000000000000         *UND*	0000000000000000 x_bss_extern
00000000000049e0 g     F .text	0000000000000010 test_global_i8_ptr
0000000000000000         *UND*	0000000000000000 global_i8
00000000000049f0 g     F .text	0000000000000010 test_global_i8
0000000000004a00 g     F .text	0000000000000010 test_global_u8
0000000000000000         *UND*	0000000000000000 global_u8
0000000000004a10 g     F .text	0000000000000010 test_global_i16
0000000000000000         *UND*	0000000000000000 global_i16
0000000000004a20 g     F .text	0000000000000010 test_global_u16
0000000000000000         *UND*	0000000000000000 global_u16
0000000000004a30 g     F .text	0000000000000010 test_global_i8_to_i16
0000000000004a40 g     F .text	0000000000000010 test_global_u8_to_u16
0000000000004a50 g     F .text	0000000000000010 test_global_i32
0000000000000000         *UND*	0000000000000000 global_i32
0000000000004a60 g     F .text	0000000000000010 test_global_u32
0000000000000000         *UND*	0000000000000000 global_u32
0000000000004a70 g     F .text	0000000000000010 test_global_i8_to_i32
0000000000004a80 g     F .text	0000000000000010 test_global_u8_to_u32
0000000000004a90 g     F .text	0000000000000010 test_global_i16_to_i32
0000000000004aa0 g     F .text	0000000000000010 test_global_u16_to_u32
0000000000004ab0 g     F .text	0000000000000010 test_global_i8_to_i64
0000000000004ac0 g     F .text	0000000000000010 test_global_u8_to_u64
0000000000004ad0 g     F .text	0000000000000010 test_global_i16_to_i64
0000000000004ae0 g     F .text	0000000000000010 test_global_u16_to_u64
0000000000004af0 g     F .text	0000000000000010 test_global_i32_to_i64
0000000000004b00 g     F .text	0000000000000010 test_global_u32_to_u64
0000000000004b10 g     F .text	0000000000000010 test_global_i64
0000000000000000         *UND*	0000000000000000 global_i64
0000000000004b20 g     F .text	0000000000000010 test_global_u64
0000000000000000         *UND*	0000000000000000 global_u64
0000000000004b30 g     F .text	0000000000000010 test_global_array_folding_i8
0000000000000000         *UND*	0000000000000000 global_array_i8
0000000000004b40 g     F .text	0000000000000010 test_global_array_folding_i16
0000000000000000         *UND*	0000000000000000 global_array_i16
0000000000004b50 g     F .text	0000000000000010 test_global_array_folding_i32
0000000000000000         *UND*	0000000000000000 global_array_i32
0000000000004b60 g     F .text	0000000000000010 test_global_array_folding_i64
0000000000000000         *UND*	0000000000000000 global_array_i64
0000000000004b70 g     F .text	0000000000000010 test_ldi128
0000000000004b80 g     F .text	0000000000000020 test_ldi128_long
0000000000004ba0 g     F .text	0000000000000020 test_ldi128_verylong
0000000000004bc0 g     F .text	0000000000000020 test_subfi_i128
0000000000004be0 g     F .text	0000000000000030 test_addi_i128
0000000000004c10 g     F .text	0000000000000020 test_andi_i128
0000000000004c30 g     F .text	0000000000000020 test_ori_i128
0000000000004c50 g     F .text	0000000000000010 test_add_i128
0000000000004c60 g     F .text	0000000000000010 test_sub_i128
0000000000004c70 g     F .text	0000000000000010 test_immediate_i32
0000000000004c80 g     F .text	0000000000000010 test_immediate_u32
0000000000004c90 g     F .text	0000000000000020 test_immediate_i32_long
0000000000004cb0 g     F .text	0000000000000020 test_immediate_u32_long
0000000000004cd0 g     F .text	0000000000000010 test_immediate_i64
0000000000004ce0 g     F .text	0000000000000010 test_immediate_u64
0000000000004cf0 g     F .text	0000000000000020 test_immediate_i64_long
0000000000004d10 g     F .text	0000000000000020 test_immediate_u64_long
0000000000004d30 g     F .text	0000000000000020 test_immediate_size_max
0000000000004d50 g     F .text	0000000000000010 test_load_based_u32
0000000000004d60 g     F .text	0000000000000010 test_load_based_u16
0000000000004d70 g     F .text	0000000000000010 test_load_based_u8
0000000000004d80 g     F .text	0000000000000010 test_load_based_i32
0000000000004d90 g     F .text	0000000000000010 test_load_based_i16
0000000000004da0 g     F .text	0000000000000010 test_load_based_i8
0000000000004db0 g     F .text	0000000000000020 test_base_index_u32_u32
0000000000004dd0 g     F .text	0000000000000050 test_base_address
0000000000004e20 g     F .text	0000000000000040 MemoryIndexed
0000000000004e60 g     F .text	0000000000000010 test_base_index_i32
0000000000004e70 g     F .text	0000000000000010 test_base_index_i32_offset
0000000000004e80 g     F .text	0000000000000010 test_base_index_u32
0000000000004e90 g     F .text	0000000000000020 test_base_index_u32_offset
0000000000004eb0 g     F .text	0000000000000010 test_base_index_i64
0000000000004ec0 g     F .text	0000000000000020 test_base_index_i32_struct
0000000000004ee0 g     F .text	0000000000000020 test_base_index_u32_struct
0000000000004f00 g     F .text	0000000000000050 for_loop
0000000000004f50 g     F .text	0000000000000050 for_loop_32
0000000000004fa0 g     F .text	0000000000000010 test_i64_min_lt
0000000000004fb0 g     F .text	0000000000000010 test_u64_min_lt
0000000000004fc0 g     F .text	0000000000000010 test_i64_min_le
0000000000004fd0 g     F .text	0000000000000010 test_u64_min_le
0000000000004fe0 g     F .text	0000000000000010 test_i64_min_gt
0000000000004ff0 g     F .text	0000000000000010 test_u64_min_gt
0000000000005000 g     F .text	0000000000000010 test_i64_min_ge
0000000000005010 g     F .text	0000000000000010 test_u64_min_ge
0000000000005020 g     F .text	0000000000000010 test_i64_max_lt
0000000000005030 g     F .text	0000000000000010 test_u64_max_lt
0000000000005040 g     F .text	0000000000000010 test_i64_max_le
0000000000005050 g     F .text	0000000000000010 test_u64_max_le
0000000000005060 g     F .text	0000000000000010 test_i64_max_gt
0000000000005070 g     F .text	0000000000000010 test_u64_max_gt
0000000000005080 g     F .text	0000000000000010 test_i64_max_ge
0000000000005090 g     F .text	0000000000000010 test_u64_max_ge
00000000000050a0 g     F .text	0000000000000010 test_i32_min_lt
00000000000050b0 g     F .text	0000000000000010 test_u32_min_lt
00000000000050c0 g     F .text	0000000000000010 test_i32_min_le
00000000000050d0 g     F .text	0000000000000010 test_u32_min_le
00000000000050e0 g     F .text	0000000000000010 test_i32_min_gt
00000000000050f0 g     F .text	0000000000000010 test_u32_min_gt
0000000000005100 g     F .text	0000000000000010 test_i32_min_ge
0000000000005110 g     F .text	0000000000000010 test_u32_min_ge
0000000000005120 g     F .text	0000000000000010 test_i32_max_lt
0000000000005130 g     F .text	0000000000000010 test_u32_max_lt
0000000000005140 g     F .text	0000000000000010 test_i32_max_le
0000000000005150 g     F .text	0000000000000010 test_u32_max_le
0000000000005160 g     F .text	0000000000000010 test_i32_max_gt
0000000000005170 g     F .text	0000000000000010 test_u32_max_gt
0000000000005180 g     F .text	0000000000000010 test_i32_max_ge
0000000000005190 g     F .text	0000000000000010 test_u32_max_ge
00000000000051a0 g     F .text	0000000000000080 test_mov2
0000000000000000         *UND*	0000000000000000 test_mov2_callback
0000000000005220 g     F .text	0000000000000000 test_naked
0000000000005220 g     F .text	0000000000000010 test_after_naked
0000000000005230 g     F .text	0000000000000040 test_nullify_bool
0000000000000000         *UND*	0000000000000000 left_bool
0000000000000000         *UND*	0000000000000000 right_bool
0000000000005270 g     F .text	0000000000000040 test_nullify_bool_not
00000000000052b0 g     F .text	0000000000000040 test_nullify_bool_and
00000000000052f0 g     F .text	0000000000000050 test_nullify_bool_or
0000000000005340 g     F .text	0000000000000050 test_nullification_i64_le
0000000000005390 g     F .text	0000000000000050 test_nullification_i64_lt
00000000000053e0 g     F .text	0000000000000040 test_nuldleu
0000000000000000         *UND*	0000000000000000 left
0000000000000000         *UND*	0000000000000000 right
0000000000005420 g     F .text	0000000000000040 test_nullify_f128_eq
0000000000000000         *UND*	0000000000000000 left_f128
0000000000000000         *UND*	0000000000000000 right_f128
0000000000005460 g     F .text	0000000000000040 test_nullify_f128_ne
00000000000054a0 g     F .text	0000000000000040 test_nullify_f128_lt
00000000000054e0 g     F .text	0000000000000040 test_nullify_f128_le
0000000000005520 g     F .text	0000000000000040 test_nullify_f128_gt
0000000000005560 g     F .text	0000000000000040 test_nullify_f128_ge
00000000000055a0 g     F .text	0000000000000040 test_nullify_f32_eq
0000000000000000         *UND*	0000000000000000 left_f32
0000000000000000         *UND*	0000000000000000 right_f32
00000000000055e0 g     F .text	0000000000000040 test_nullify_f32_ne
0000000000005620 g     F .text	0000000000000040 test_nullify_f32_lt
0000000000005660 g     F .text	0000000000000040 test_nullify_f32_le
00000000000056a0 g     F .text	0000000000000040 test_nullify_f32_gt
00000000000056e0 g     F .text	0000000000000040 test_nullify_f32_ge
0000000000005720 g     F .text	0000000000000040 test_nullify_f64_eq
0000000000000000         *UND*	0000000000000000 left_f64
0000000000000000         *UND*	0000000000000000 right_f64
0000000000005760 g     F .text	0000000000000040 test_nullify_f64_ne
00000000000057a0 g     F .text	0000000000000040 test_nullify_f64_lt
00000000000057e0 g     F .text	0000000000000040 test_nullify_f64_le
0000000000005820 g     F .text	0000000000000040 test_nullify_f64_gt
0000000000005860 g     F .text	0000000000000040 test_nullify_f64_ge
00000000000058a0 g     F .text	0000000000000010 test_sign_extend_32
00000000000058b0 g     F .text	0000000000000010 test_sign_extend_16
00000000000058c0 g     F .text	0000000000000010 test_sign_extend_8
00000000000058d0 g     F .text	0000000000000010 test_zero_extend_32
00000000000058e0 g     F .text	0000000000000010 test_zero_extend_16
00000000000058f0 g     F .text	0000000000000010 test_zero_extend_8
0000000000005900 g     F .text	0000000000000010 test_store_based_u32
0000000000005910 g     F .text	0000000000000010 test_store_based_u16
0000000000005920 g     F .text	0000000000000010 test_store_based_u8
0000000000005930 g     F .text	0000000000000010 test_store_based_i32
0000000000005940 g     F .text	0000000000000010 test_store_based_i16
0000000000005950 g     F .text	0000000000000010 test_store_based_i8
0000000000005960 g     F .text	0000000000000020 test_store_indexed_u32_u32
0000000000005980 g     F .text	0000000000000010 test_store_indexed_i32
0000000000005990 g     F .text	0000000000000010 test_store_indexed_i32_offset
00000000000059a0 g     F .text	0000000000000010 test_store_indexed_u32
00000000000059b0 g     F .text	0000000000000020 test_store_indexed_u32_offset
00000000000059d0 g     F .text	0000000000000010 test_store_indexed_i64
00000000000059e0 g     F .text	0000000000000020 test_store_indexed_i32_struct
0000000000005a00 g     F .text	00000000000000f0 dummy_return
0000000000005af0 g     F .text	0000000000000020 test_store_based_i8_zero
0000000000005b10 g     F .text	0000000000000020 test_store_based_u8_zero
0000000000005b30 g     F .text	0000000000000020 test_store_based_i16_zero
0000000000005b50 g     F .text	0000000000000020 test_store_based_u16_zero
0000000000005b70 g     F .text	0000000000000020 test_store_based_i32_zero
0000000000005b90 g     F .text	0000000000000020 test_store_based_u32_zero
0000000000005bb0 g     F .text	0000000000000020 test_store_based_i64_zero
0000000000005bd0 g     F .text	0000000000000020 test_store_based_u64_zero
0000000000005bf0 g     F .text	0000000000000020 test_store_based_i128_zero
0000000000005c10 g     F .text	0000000000000020 test_store_based_u128_zero
0000000000005c30 g     F .text	00000000000000a0 test_struct_memset
0000000000000000         *UND*	0000000000000000 test_struct_memset_consumer
0000000000005d60 g     F .text	00000000000000f0 test_switch_table_i64
0000000000005e50 g     F .text	00000000000000f0 test_switch_table_i32
0000000000005f40 g     F .text	00000000000000f0 test_switch_table_u32
0000000000006030 g     F .text	00000000000000f0 test_switch_table_nonzero_i64
0000000000006120 g     F .text	00000000000000f0 test_switch_table_nonzero_i32
0000000000006210 g     F .text	00000000000000f0 test_switch_table_nonzero_u32
0000000000006300 g     F .text	0000000000000010 test_syscall_2
0000000000006310 g     F .text	0000000000000020 test_syscall
0000000000000000 g     F .text.unlikely.	0000000000000030 test_int
0000000000006330 g     F .text	0000000000000020 test_call_global_tailcall
0000000000000000         *UND*	0000000000000000 tail_call
0000000000006350 g     F .text	0000000000000020 test_ptr_tailcall
0000000000006370 g     F .text	0000000000000020 test_call_global_ptr_table_tailcall
0000000000000000         *UND*	0000000000000000 global_ftable
0000000000006390 g     F .text	0000000000000010 test_builtin_tlb_purge
00000000000063a0 g     F .text	0000000000000020 test_local_tls
0000000000000000 g       .tbss	0000000000000008 x_tls
0000000000000000         *UND*	0000000000000000 __tls_get_addr
00000000000063c0 g     F .text	0000000000000020 test_extern_tls
0000000000000000         *UND*	0000000000000000 x_tls_extern
00000000000063e0 g     F .text	0000000000000030 test_va_start
0000000000000000         *UND*	0000000000000000 test_va_list_callback
0000000000006410 g     F .text	0000000000000080 test_va_start_end
0000000000000000         *UND*	0000000000000000 test_va_callback
0000000000006490 g     F .text	0000000000000040 test_printf_valist
0000000000000000         *UND*	0000000000000000 test_printf_callback
00000000000064d0 g     F .text	0000000000000040 test_vprintf_valist
0000000000000000         *UND*	0000000000000000 test_vprintf_callback
0000000000006510 g     F .text	0000000000000040 test_vacopy
0000000000000000         *UND*	0000000000000000 test_valist_callback
0000000000006550 g     F .text	0000000000000010 test_vector_bitcast_v2i64_to_v4i32
0000000000006560 g     F .text	0000000000000010 test_vector_bitcast_v2i64_to_v8i16
0000000000006570 g     F .text	0000000000000010 test_vector_bitcast_v2i64_to_v16i8
0000000000006580 g     F .text	0000000000000010 test_vector_bitcast_v4i32_to_v2i64
0000000000006590 g     F .text	0000000000000010 test_vector_bitcast_v4i32_to_v8i16
00000000000065a0 g     F .text	0000000000000010 test_vector_bitcast_v4i32_to_v16i8
00000000000065b0 g     F .text	0000000000000010 test_vector_bitcast_v8i16_to_v2i64
00000000000065c0 g     F .text	0000000000000010 test_vector_bitcast_v8i16_to_v4i32
00000000000065d0 g     F .text	0000000000000010 test_vector_bitcast_v8i16_to_v16i8
00000000000065e0 g     F .text	0000000000000010 test_vector_bitcast_v16i8_to_v2i64
00000000000065f0 g     F .text	0000000000000010 test_vector_bitcast_v16i8_to_v4i32
0000000000006600 g     F .text	0000000000000010 test_vector_bitcast_v16i8_to_v8i16
0000000000006610 g     F .text	0000000000000010 test_vector_bitcast_f128_to_v16i8
0000000000006620 g     F .text	0000000000000010 test_vector_bitcast_f128_to_v8i16
0000000000006630 g     F .text	0000000000000010 test_vector_bitcast_f128_to_v4i32
0000000000006640 g     F .text	0000000000000010 test_vector_bitcast_f128_to_v2i64
0000000000006650 g     F .text	0000000000000010 test_vector_bitcast_v16i8_to_f128
0000000000006660 g     F .text	0000000000000010 test_vector_bitcast_v8i16_to_f128
0000000000006670 g     F .text	0000000000000010 test_vector_bitcast_v4i32_to_f128
0000000000006680 g     F .text	0000000000000010 test_vector_bitcast_v2i64_to_f128
0000000000006690 g     F .text	0000000000000010 test_vector_bitcast_i128_to_v16i8
00000000000066a0 g     F .text	0000000000000010 test_vector_bitcast_i128_to_v8i16
00000000000066b0 g     F .text	0000000000000010 test_vector_bitcast_i128_to_v4i32
00000000000066c0 g     F .text	0000000000000010 test_vector_bitcast_i128_to_v2i64
00000000000066d0 g     F .text	0000000000000010 test_vector_bitcast_v16i8_to_i128
00000000000066e0 g     F .text	0000000000000010 test_vector_bitcast_v8i16_to_i128
00000000000066f0 g     F .text	0000000000000010 test_vector_bitcast_v4i32_to_i128
0000000000006700 g     F .text	0000000000000010 test_vector_bitcast_v2i64_to_i128
0000000000006710 g     F .text	00000000000000c0 test_stack_array
0000000000000000         *UND*	0000000000000000 stack_array_consumer

DYNAMIC SYMBOL TABLE:

Disassembly of section .text:

0000000000000000 <test_i64_abs>:
       0: 00 00 00 c1 40 00 05 fc 03 01 00 00 00 00 08 04      	! BUNDLE
	alloc	2
	absd	%r1, %r1, %gz
	retf	0


0000000000000010 <test_i32_abs>:
      10: 00 00 00 c1 40 10 05 fc 03 01 00 00 00 00 08 04      	! BUNDLE
	alloc	2
	absdw	%r1, %r1, %gz
	retf	0


0000000000000020 <test_i64_abs_difference>:
      20: 00 00 80 c1 40 00 05 04 04 01 00 00 00 00 08 04      	! BUNDLE
	alloc	3
	absd	%r1, %r2, %r1
	retf	0


0000000000000030 <test_i32_abs_difference>:
      30: 00 00 80 c1 40 10 05 04 04 01 00 00 00 00 08 04      	! BUNDLE
	alloc	3
	absdw	%r1, %r2, %r1
	retf	0


0000000000000040 <test_aesenc>:
      40: 00 00 80 c1 40 80 12 08 02 01 00 00 00 00 08 04      	! BUNDLE
	alloc	3
	aesenc	%r1, %r1, %r2
	retf	0


0000000000000050 <test_aesenclast>:
      50: 00 00 80 c1 40 90 12 08 02 01 00 00 00 00 08 04      	! BUNDLE
	alloc	3
	aesenclast	%r1, %r1, %r2
	retf	0


0000000000000060 <test_aesdec>:
      60: 00 00 80 c1 40 a0 12 08 02 01 00 00 00 00 08 04      	! BUNDLE
	alloc	3
	aesdec	%r1, %r1, %r2
	retf	0


0000000000000070 <test_aesdeclast>:
      70: 00 00 80 c1 40 b0 12 08 02 01 00 00 00 00 08 04      	! BUNDLE
	alloc	3
	aesdeclast	%r1, %r1, %r2
	retf	0


0000000000000080 <test_aesimc>:
      80: 00 00 00 c1 40 c0 12 00 02 01 00 00 00 00 08 04      	! BUNDLE
	alloc	2
	aesimc	%r1, %r1
	retf	0


0000000000000090 <test_aeskeygenassist>:
      90: 00 00 00 c1 40 d0 12 32 02 01 40 4b fe 0f 04 00      	! BUNDLE
	alloc	2
	aeskeygenassist	%r1, %r1, 100
	aeskeygenassist	%r1, %r1, -1

      a0: 00 00 00 80 40 00 00 00 00 00 01 00 00 00 00 04      	! BUNDLE
	retf	0
	nop	0
	nop	0


00000000000000b0 <test_ldi32>:
      b0: 00 00 00 c1 40 20 1b c6 0b 01 04 00 00 00 08 04      	! BUNDLE
	alloc	2
	ldi	%r1, 12345778
	retf	0


00000000000000c0 <test_ldi32_long>:
      c0: 01 00 00 c1 40 10 8b e6 ad 01 c4 00 00 00 00 00      	! BUNDLE
	alloc	2
	ldi.l	%r1, 987654321

      d0: 00 00 00 80 40 00 00 00 00 00 01 00 00 00 00 04      	! BUNDLE
	retf	0
	nop	0
	nop	0


00000000000000e0 <test_ldi64>:
      e0: 00 00 00 c1 40 20 1b c6 0b 01 04 00 00 00 08 04      	! BUNDLE
	alloc	2
	ldi	%r1, 12345778
	retf	0


00000000000000f0 <test_ldi64_long>:
      f0: 01 00 00 c1 40 50 71 17 b7 01 04 7d 69 d3 36 00      	! BUNDLE
	alloc	2
	ldi.l	%r1, 987654321123456789

     100: 00 00 00 80 40 00 00 00 00 00 01 00 00 00 00 04      	! BUNDLE
	retf	0
	nop	0
	nop	0


0000000000000110 <test_subfi_i64>:
     110: 00 00 00 c1 40 20 4d 00 02 81 09 00 00 00 08 04      	! BUNDLE
	alloc	2
	subfi	%r1, %r1, 1234
	retf	0


0000000000000120 <test_subfi_i32>:
     120: 00 00 00 c1 40 20 4d 00 02 01 0a 00 00 00 08 04      	! BUNDLE
	alloc	2
	subfiws	%r1, %r1, 1234
	retf	0


0000000000000130 <test_addil>:
     130: 01 00 80 c1 40 50 f1 05 03 01 88 59 97 36 6d 03      	! BUNDLE
	alloc	3
	addi.l	%r1, %r1, 123456789123456789

     140: be fe eb bf 00 a1 ff fa af 7f 40 06 20 08 04 00      	! BUNDLE
	ldi.l	%r2, 9200848539817279407
	or	%r1, %r1, %r2

     150: 00 00 00 80 40 00 00 00 00 00 01 00 00 00 00 04      	! BUNDLE
	retf	0
	nop	0
	nop	0


0000000000000160 <test_andil>:
     160: 01 00 00 c1 40 50 f1 05 03 81 85 59 97 36 6d 03      	! BUNDLE
	alloc	2
	andi.l	%r1, %r1, 123456789123456789

     170: 00 00 00 80 40 00 00 00 00 00 01 00 00 00 00 04      	! BUNDLE
	retf	0
	nop	0
	nop	0


0000000000000180 <test_oril>:
     180: 01 00 00 c1 40 50 71 17 03 01 c6 96 be b4 69 1b      	! BUNDLE
	alloc	2
	ori.l	%r1, %r1, 987654321123456789

     190: 00 00 00 80 40 00 00 00 00 00 01 00 00 00 00 04      	! BUNDLE
	retf	0
	nop	0
	nop	0


00000000000001a0 <test_addadd>:
     1a0: 00 00 00 c2 40 00 18 04 04 81 00 00 00 00 08 04      	! BUNDLE
	alloc	4
	addadd	%r1, %r2, %r1, %r3
	retf	0


00000000000001b0 <test_addsub>:
     1b0: 00 00 00 c2 40 10 18 04 04 81 00 00 00 00 08 04      	! BUNDLE
	alloc	4
	addsub	%r1, %r2, %r1, %r3
	retf	0


00000000000001c0 <test_subsub>:
     1c0: 00 00 00 c2 40 20 18 08 02 81 00 00 00 00 08 04      	! BUNDLE
	alloc	4
	subsub	%r1, %r1, %r2, %r3
	retf	0


00000000000001d0 <test_mul_i32_i32>:
     1d0: 00 00 80 c1 40 a0 02 04 04 01 00 00 00 00 08 04      	! BUNDLE
	alloc	3
	mulws	%r1, %r2, %r1
	retf	0


00000000000001e0 <test_mul_i32_imm>:
     1e0: 00 00 00 c1 40 d0 1c 18 02 01 07 00 00 00 08 04      	! BUNDLE
	alloc	2
	mulwsi	%r1, %r1, 98765
	retf	0


00000000000001f0 <test_mul_i32_imm_ext>:
     1f0: 01 00 00 c1 40 80 a7 30 02 01 c7 0b 00 00 00 00      	! BUNDLE
	alloc	2
	mulwsi.l	%r1, %r1, 98765432

     200: 00 00 00 80 40 00 00 00 00 00 01 00 00 00 00 04      	! BUNDLE
	retf	0
	nop	0
	nop	0


0000000000000210 <test_mul_u32_imm>:
     210: 00 00 00 c1 40 d0 1c 18 02 01 07 00 00 00 08 04      	! BUNDLE
	alloc	2
	mulwsi	%r1, %r1, 98765
	retf	0


0000000000000220 <test_mul_u32_imm_ext>:
     220: 01 00 00 c1 40 80 a7 30 02 01 c7 0b 00 00 00 00      	! BUNDLE
	alloc	2
	mulwsi.l	%r1, %r1, 98765432

     230: 00 00 00 80 40 00 00 00 00 00 01 00 00 00 00 04      	! BUNDLE
	retf	0
	nop	0
	nop	0


0000000000000240 <test_mul_i32_i64>:
     240: 00 00 80 c1 40 a0 02 04 04 01 00 00 00 00 08 04      	! BUNDLE
	alloc	3
	mulws	%r1, %r2, %r1
	retf	0


0000000000000250 <test_mul_u32_u64>:
     250: 00 00 80 c1 40 b0 02 04 04 01 00 00 00 00 08 04      	! BUNDLE
	alloc	3
	mulwz	%r1, %r2, %r1
	retf	0


0000000000000260 <test_mul_i32_u64>:
     260: 00 00 80 c1 40 a0 02 04 04 01 00 00 00 00 08 04      	! BUNDLE
	alloc	3
	mulws	%r1, %r2, %r1
	retf	0


0000000000000270 <test_mul_i32_i64_imm>:
     270: 00 00 00 c1 40 d0 1c 18 02 01 07 00 00 00 08 04      	! BUNDLE
	alloc	2
	mulwsi	%r1, %r1, 98765
	retf	0


0000000000000280 <test_mul_i32_i64_imm_ext>:
     280: 01 00 00 c1 40 80 a7 30 02 01 c7 0b 00 00 00 00      	! BUNDLE
	alloc	2
	mulwsi.l	%r1, %r1, 98765432

     290: 00 00 00 80 40 00 00 00 00 00 01 00 00 00 00 04      	! BUNDLE
	retf	0
	nop	0
	nop	0


00000000000002a0 <test_mul_u32_u64_imm>:
     2a0: 00 00 00 c1 40 d0 1c 18 02 81 07 00 00 00 08 04      	! BUNDLE
	alloc	2
	mulwzi	%r1, %r1, 98765
	retf	0


00000000000002b0 <test_mul_u32_u64_imm_ext>:
     2b0: 01 00 00 c1 40 80 a7 30 02 81 c7 0b 00 00 00 00      	! BUNDLE
	alloc	2
	mulwzi.l	%r1, %r1, 98765432

     2c0: 00 00 00 80 40 00 00 00 00 00 01 00 00 00 00 04      	! BUNDLE
	retf	0
	nop	0
	nop	0


00000000000002d0 <test_mul_i64_i64>:
     2d0: 00 00 80 c1 40 80 02 04 04 01 00 00 00 00 08 04      	! BUNDLE
	alloc	3
	mul	%r1, %r2, %r1
	retf	0


00000000000002e0 <test_div_i32>:
     2e0: 00 00 80 c1 40 20 03 08 02 01 00 00 00 00 08 04      	! BUNDLE
	alloc	3
	divw	%r1, %r1, %r2
	retf	0


00000000000002f0 <test_div_i64>:
     2f0: 00 00 80 c1 40 00 03 08 02 01 00 00 00 00 08 04      	! BUNDLE
	alloc	3
	div	%r1, %r1, %r2
	retf	0


0000000000000300 <test_div_u32>:
     300: 00 00 80 c1 40 30 03 08 02 01 00 00 00 00 08 04      	! BUNDLE
	alloc	3
	divuw	%r1, %r1, %r2
	retf	0


0000000000000310 <test_div_u64>:
     310: 00 00 80 c1 40 10 03 08 02 01 00 00 00 00 08 04      	! BUNDLE
	alloc	3
	divu	%r1, %r1, %r2
	retf	0


0000000000000320 <test_mod_i32>:
     320: 00 00 80 c1 40 60 03 08 02 01 00 00 00 00 08 04      	! BUNDLE
	alloc	3
	modw	%r1, %r1, %r2
	retf	0


0000000000000330 <test_mod_i64>:
     330: 00 00 80 c1 40 40 03 08 02 01 00 00 00 00 08 04      	! BUNDLE
	alloc	3
	mod	%r1, %r1, %r2
	retf	0


0000000000000340 <test_mod_u32>:
     340: 00 00 80 c1 40 70 03 08 02 01 00 00 00 00 08 04      	! BUNDLE
	alloc	3
	moduw	%r1, %r1, %r2
	retf	0


0000000000000350 <test_mod_u64>:
     350: 00 00 80 c1 40 50 03 08 02 01 00 00 00 00 08 04      	! BUNDLE
	alloc	3
	modu	%r1, %r1, %r2
	retf	0


0000000000000360 <test_mod_imm_i64>:
     360: 00 00 00 c1 40 40 06 00 02 01 0d 00 00 00 08 04      	! BUNDLE
	alloc	2
	modi	%r1, %r1, 100
	retf	0


0000000000000370 <test_mod_imm_u64>:
     370: 00 00 00 c1 40 40 06 00 02 81 0d 00 00 00 08 04      	! BUNDLE
	alloc	2
	modui	%r1, %r1, 100
	retf	0


0000000000000380 <test_mod_imm_ext_i64>:
     380: 01 00 00 c1 40 00 a0 ac 03 01 0d 77 00 00 00 00      	! BUNDLE
	alloc	2
	modi.l	%r1, %r1, 1000000000

     390: 00 00 00 80 40 00 00 00 00 00 01 00 00 00 00 04      	! BUNDLE
	retf	0
	nop	0
	nop	0


00000000000003a0 <test_mod_imm_ext_u64>:
     3a0: 01 00 00 c1 40 00 a0 ac 03 81 0d 77 00 00 00 00      	! BUNDLE
	alloc	2
	modui.l	%r1, %r1, 1000000000

     3b0: 00 00 00 80 40 00 00 00 00 00 01 00 00 00 00 04      	! BUNDLE
	retf	0
	nop	0
	nop	0


00000000000003c0 <test_atomic_compare_exchange_i8>:
     3c0: 40 00 80 03 41 c0 00 00 fc 7f 24 00 00 10 18 80      	! BUNDLE
	allocsp	7, 16
	stw	%gz, %sp, 12
	ldbz	%r6, %r2, 0

     3d0: 04 00 80 41 01 30 20 18 02 05 00 04 60 28 10 00      	! BUNDLE
	mov	%r5, %r3
	casb.relaxed	%r5, %r1, %r6
	cmpweq	%r4, %r5, %r6

     3e0: a0 02 30 43 21 00 00 00 04 05 21 03 00 f0 17 8c      	! BUNDLE
	nulweq	%r5, %r6, 1, 0
	stb	%r5, %r2, 0
	ldwz	%r5, %sp, 12

     3f0: 90 00 84 02 01 c0 00 00 fc 04 24 00 00 10 18 80      	! BUNDLE
	addws	%r4, %r5, %r4
	stw	%r4, %sp, 12
	ldbz	%r6, %r2, 0

     400: 04 00 80 41 01 30 a0 18 02 05 00 04 60 28 10 00      	! BUNDLE
	mov	%r5, %r3
	casb.acquire	%r5, %r1, %r6
	cmpweq	%r4, %r5, %r6

     410: a0 02 30 43 21 00 00 00 04 05 21 03 00 f0 17 8c      	! BUNDLE
	nulweq	%r5, %r6, 1, 0
	stb	%r5, %r2, 0
	ldwz	%r5, %sp, 12

     420: 90 00 84 02 01 c0 00 00 fc 04 24 00 00 10 18 80      	! BUNDLE
	addws	%r4, %r5, %r4
	stw	%r4, %sp, 12
	ldbz	%r6, %r2, 0

     430: 04 00 80 41 01 30 a0 18 02 05 00 04 60 28 10 00      	! BUNDLE
	mov	%r5, %r3
	casb.acquire	%r5, %r1, %r6
	cmpweq	%r4, %r5, %r6

     440: a0 02 30 43 21 00 00 00 04 05 21 03 00 f0 17 8c      	! BUNDLE
	nulweq	%r5, %r6, 1, 0
	stb	%r5, %r2, 0
	ldwz	%r5, %sp, 12

     450: 90 00 84 02 01 c0 00 00 fc 04 24 00 00 10 18 80      	! BUNDLE
	addws	%r4, %r5, %r4
	stw	%r4, %sp, 12
	ldbz	%r6, %r2, 0

     460: 04 00 80 41 01 30 a0 18 02 05 00 04 60 28 10 00      	! BUNDLE
	mov	%r5, %r3
	casb.acquire	%r5, %r1, %r6
	cmpweq	%r4, %r5, %r6

     470: a0 02 30 43 21 00 00 00 04 05 21 03 00 f0 17 8c      	! BUNDLE
	nulweq	%r5, %r6, 1, 0
	stb	%r5, %r2, 0
	ldwz	%r5, %sp, 12

     480: 90 00 84 02 01 c0 00 00 fc 04 24 00 00 10 18 80      	! BUNDLE
	addws	%r4, %r5, %r4
	stw	%r4, %sp, 12
	ldbz	%r6, %r2, 0

     490: 04 00 80 41 01 30 a0 18 02 05 00 04 60 28 10 00      	! BUNDLE
	mov	%r5, %r3
	casb.acquire	%r5, %r1, %r6
	cmpweq	%r4, %r5, %r6

     4a0: a0 02 30 43 21 00 00 00 04 05 21 03 00 f0 17 8c      	! BUNDLE
	nulweq	%r5, %r6, 1, 0
	stb	%r5, %r2, 0
	ldwz	%r5, %sp, 12

     4b0: 90 00 84 02 01 c0 00 00 fc 04 24 00 00 10 18 80      	! BUNDLE
	addws	%r4, %r5, %r4
	stw	%r4, %sp, 12
	ldbz	%r6, %r2, 0

     4c0: 04 00 80 41 01 30 a0 18 02 05 00 04 60 28 10 00      	! BUNDLE
	mov	%r5, %r3
	casb.acquire	%r5, %r1, %r6
	cmpweq	%r4, %r5, %r6

     4d0: a0 02 30 43 21 00 00 00 04 05 21 03 00 f0 17 8c      	! BUNDLE
	nulweq	%r5, %r6, 1, 0
	stb	%r5, %r2, 0
	ldwz	%r5, %sp, 12

     4e0: 90 00 84 02 01 c0 00 00 fc 04 24 00 00 10 18 80      	! BUNDLE
	addws	%r4, %r5, %r4
	stw	%r4, %sp, 12
	ldbz	%r6, %r2, 0

     4f0: 04 00 80 41 01 30 a0 18 02 05 00 04 60 28 10 00      	! BUNDLE
	mov	%r5, %r3
	casb.acquire	%r5, %r1, %r6
	cmpweq	%r4, %r5, %r6

     500: a0 02 30 43 21 00 00 00 04 05 21 03 00 f0 17 8c      	! BUNDLE
	nulweq	%r5, %r6, 1, 0
	stb	%r5, %r2, 0
	ldwz	%r5, %sp, 12

     510: 90 00 84 02 01 c0 00 00 fc 04 24 00 00 10 18 80      	! BUNDLE
	addws	%r4, %r5, %r4
	stw	%r4, %sp, 12
	ldbz	%r6, %r2, 0

     520: 04 00 80 41 01 30 20 19 02 05 00 04 60 28 10 00      	! BUNDLE
	mov	%r5, %r3
	casb.release	%r5, %r1, %r6
	cmpweq	%r4, %r5, %r6

     530: a0 02 30 43 21 00 00 00 04 05 21 03 00 f0 17 8c      	! BUNDLE
	nulweq	%r5, %r6, 1, 0
	stb	%r5, %r2, 0
	ldwz	%r5, %sp, 12

     540: 90 00 84 02 01 c0 00 00 fc 04 24 00 00 10 18 80      	! BUNDLE
	addws	%r4, %r5, %r4
	stw	%r4, %sp, 12
	ldbz	%r6, %r2, 0

     550: 04 00 80 41 01 30 a0 19 02 05 00 04 60 28 10 00      	! BUNDLE
	mov	%r5, %r3
	casb.acq_rel	%r5, %r1, %r6
	cmpweq	%r4, %r5, %r6

     560: a0 02 30 43 21 00 00 00 04 05 21 03 00 f0 17 8c      	! BUNDLE
	nulweq	%r5, %r6, 1, 0
	stb	%r5, %r2, 0
	ldwz	%r5, %sp, 12

     570: 90 00 84 02 01 c0 00 00 fc 04 24 00 00 10 18 80      	! BUNDLE
	addws	%r4, %r5, %r4
	stw	%r4, %sp, 12
	ldbz	%r6, %r2, 0

     580: 04 00 80 41 01 30 a0 19 02 05 00 04 60 28 10 00      	! BUNDLE
	mov	%r5, %r3
	casb.acq_rel	%r5, %r1, %r6
	cmpweq	%r4, %r5, %r6

     590: a0 02 30 43 21 00 00 00 04 05 21 03 00 f0 17 8c      	! BUNDLE
	nulweq	%r5, %r6, 1, 0
	stb	%r5, %r2, 0
	ldwz	%r5, %sp, 12

     5a0: 90 00 84 02 01 c0 00 00 fc 04 24 00 00 10 18 80      	! BUNDLE
	addws	%r4, %r5, %r4
	stw	%r4, %sp, 12
	ldbz	%r6, %r2, 0

     5b0: 04 00 80 41 01 30 a0 19 02 05 00 04 60 28 10 00      	! BUNDLE
	mov	%r5, %r3
	casb.acq_rel	%r5, %r1, %r6
	cmpweq	%r4, %r5, %r6

     5c0: a0 02 30 43 21 00 00 00 04 05 21 03 00 f0 17 8c      	! BUNDLE
	nulweq	%r5, %r6, 1, 0
	stb	%r5, %r2, 0
	ldwz	%r5, %sp, 12

     5d0: 90 00 84 02 01 c0 00 00 fc 04 24 00 00 10 18 80      	! BUNDLE
	addws	%r4, %r5, %r4
	stw	%r4, %sp, 12
	ldbz	%r6, %r2, 0

     5e0: d0 84 00 00 00 10 00 00 06 05 c0 80 60 08 14 00      	! BUNDLE
	fence.seq_cst
	mov	%r5, %r3
	casb.relaxed	%r5, %r1, %r6

     5f0: 40 00 86 02 01 80 0a c0 0c 85 00 00 00 10 14 84      	! BUNDLE
	cmpweq	%r4, %r5, %r6
	nulweq	%r5, %r6, 1, 0
	stb	%r5, %r2, 0

     600: 30 00 00 7f c1 48 02 10 0a 04 00 03 00 f0 13 90      	! BUNDLE
	ldwz	%r5, %sp, 12
	addws	%r4, %r5, %r4
	stw	%r4, %sp, 12

     610: 00 00 00 81 01 48 13 02 00 00 40 00 00 18 14 00      	! BUNDLE
	ldbz	%r6, %r2, 0
	fence.seq_cst
	mov	%r5, %r3

     620: 0c 08 86 40 01 00 01 18 0a 04 00 2a 00 33 14 02      	! BUNDLE
	casb.relaxed	%r5, %r1, %r6
	cmpweq	%r4, %r5, %r6
	nulweq	%r5, %r6, 1, 0

     630: 00 00 00 41 41 c8 00 00 fc 05 23 09 40 28 10 00      	! BUNDLE
	stb	%r5, %r2, 0
	ldwz	%r5, %sp, 12
	addws	%r4, %r5, %r4

     640: 30 00 00 3f 01 09 00 00 04 06 20 4d 08 00 00 00      	! BUNDLE
	stw	%r4, %sp, 12
	ldbz	%r6, %r2, 0
	fence.seq_cst

     650: 04 00 80 41 01 30 20 18 02 05 00 04 60 28 10 00      	! BUNDLE
	mov	%r5, %r3
	casb.relaxed	%r5, %r1, %r6
	cmpweq	%r4, %r5, %r6

     660: a0 02 30 43 21 00 00 00 04 05 21 03 00 f0 17 8c      	! BUNDLE
	nulweq	%r5, %r6, 1, 0
	stb	%r5, %r2, 0
	ldwz	%r5, %sp, 12

     670: 90 00 84 02 01 c0 00 00 fc 04 24 00 00 10 10 80      	! BUNDLE
	addws	%r4, %r5, %r4
	stw	%r4, %sp, 12
	ldbz	%r4, %r2, 0

     680: d0 84 00 00 00 30 20 10 02 03 00 04 40 18 04 00      	! BUNDLE
	fence.seq_cst
	casb.relaxed	%r3, %r1, %r4
	cmpweq	%r1, %r3, %r4

     690: a0 02 30 c2 20 00 00 00 04 03 21 03 00 f0 0b 8c      	! BUNDLE
	nulweq	%r3, %r4, 1, 0
	stb	%r3, %r2, 0
	ldwz	%r2, %sp, 12

     6a0: 90 00 01 41 00 c0 00 00 fc 01 24 03 00 f0 07 8c      	! BUNDLE
	addws	%r1, %r2, %r1
	stw	%r1, %sp, 12
	ldwz	%r1, %sp, 12

     6b0: 40 00 00 80 40 00 00 00 00 00 01 00 00 00 00 04      	! BUNDLE
	retf	16
	nop	0
	nop	0


00000000000006c0 <test_atomic_compare_exchange_i16>:
     6c0: 40 00 80 03 41 c0 00 00 fc 7f 24 00 00 10 18 86      	! BUNDLE
	allocsp	7, 16
	stw	%gz, %sp, 12
	ldhz	%r6, %r2, 0

     6d0: 04 00 80 41 01 30 22 18 02 05 00 04 60 28 10 00      	! BUNDLE
	mov	%r5, %r3
	cash.relaxed	%r5, %r1, %r6
	cmpweq	%r4, %r5, %r6

     6e0: a0 02 30 43 21 00 00 00 04 85 22 03 00 f0 17 8c      	! BUNDLE
	nulweq	%r5, %r6, 1, 0
	sth	%r5, %r2, 0
	ldwz	%r5, %sp, 12

     6f0: 90 00 84 02 01 c0 00 00 fc 04 24 00 00 10 18 86      	! BUNDLE
	addws	%r4, %r5, %r4
	stw	%r4, %sp, 12
	ldhz	%r6, %r2, 0

     700: 04 00 80 41 01 30 a2 18 02 05 00 04 60 28 10 00      	! BUNDLE
	mov	%r5, %r3
	cash.acquire	%r5, %r1, %r6
	cmpweq	%r4, %r5, %r6

     710: a0 02 30 43 21 00 00 00 04 85 22 03 00 f0 17 8c      	! BUNDLE
	nulweq	%r5, %r6, 1, 0
	sth	%r5, %r2, 0
	ldwz	%r5, %sp, 12

     720: 90 00 84 02 01 c0 00 00 fc 04 24 00 00 10 18 86      	! BUNDLE
	addws	%r4, %r5, %r4
	stw	%r4, %sp, 12
	ldhz	%r6, %r2, 0

     730: 04 00 80 41 01 30 a2 18 02 05 00 04 60 28 10 00      	! BUNDLE
	mov	%r5, %r3
	cash.acquire	%r5, %r1, %r6
	cmpweq	%r4, %r5, %r6

     740: a0 02 30 43 21 00 00 00 04 85 22 03 00 f0 17 8c      	! BUNDLE
	nulweq	%r5, %r6, 1, 0
	sth	%r5, %r2, 0
	ldwz	%r5, %sp, 12

     750: 90 00 84 02 01 c0 00 00 fc 04 24 00 00 10 18 86      	! BUNDLE
	addws	%r4, %r5, %r4
	stw	%r4, %sp, 12
	ldhz	%r6, %r2, 0

     760: 04 00 80 41 01 30 a2 18 02 05 00 04 60 28 10 00      	! BUNDLE
	mov	%r5, %r3
	cash.acquire	%r5, %r1, %r6
	cmpweq	%r4, %r5, %r6

     770: a0 02 30 43 21 00 00 00 04 85 22 03 00 f0 17 8c      	! BUNDLE
	nulweq	%r5, %r6, 1, 0
	sth	%r5, %r2, 0
	ldwz	%r5, %sp, 12

     780: 90 00 84 02 01 c0 00 00 fc 04 24 00 00 10 18 86      	! BUNDLE
	addws	%r4, %r5, %r4
	stw	%r4, %sp, 12
	ldhz	%r6, %r2, 0

     790: 04 00 80 41 01 30 a2 18 02 05 00 04 60 28 10 00      	! BUNDLE
	mov	%r5, %r3
	cash.acquire	%r5, %r1, %r6
	cmpweq	%r4, %r5, %r6

     7a0: a0 02 30 43 21 00 00 00 04 85 22 03 00 f0 17 8c      	! BUNDLE
	nulweq	%r5, %r6, 1, 0
	sth	%r5, %r2, 0
	ldwz	%r5, %sp, 12

     7b0: 90 00 84 02 01 c0 00 00 fc 04 24 00 00 10 18 86      	! BUNDLE
	addws	%r4, %r5, %r4
	stw	%r4, %sp, 12
	ldhz	%r6, %r2, 0

     7c0: 04 00 80 41 01 30 a2 18 02 05 00 04 60 28 10 00      	! BUNDLE
	mov	%r5, %r3
	cash.acquire	%r5, %r1, %r6
	cmpweq	%r4, %r5, %r6

     7d0: a0 02 30 43 21 00 00 00 04 85 22 03 00 f0 17 8c      	! BUNDLE
	nulweq	%r5, %r6, 1, 0
	sth	%r5, %r2, 0
	ldwz	%r5, %sp, 12

     7e0: 90 00 84 02 01 c0 00 00 fc 04 24 00 00 10 18 86      	! BUNDLE
	addws	%r4, %r5, %r4
	stw	%r4, %sp, 12
	ldhz	%r6, %r2, 0

     7f0: 04 00 80 41 01 30 a2 18 02 05 00 04 60 28 10 00      	! BUNDLE
	mov	%r5, %r3
	cash.acquire	%r5, %r1, %r6
	cmpweq	%r4, %r5, %r6

     800: a0 02 30 43 21 00 00 00 04 85 22 03 00 f0 17 8c      	! BUNDLE
	nulweq	%r5, %r6, 1, 0
	sth	%r5, %r2, 0
	ldwz	%r5, %sp, 12

     810: 90 00 84 02 01 c0 00 00 fc 04 24 00 00 10 18 86      	! BUNDLE
	addws	%r4, %r5, %r4
	stw	%r4, %sp, 12
	ldhz	%r6, %r2, 0

     820: 04 00 80 41 01 30 22 19 02 05 00 04 60 28 10 00      	! BUNDLE
	mov	%r5, %r3
	cash.release	%r5, %r1, %r6
	cmpweq	%r4, %r5, %r6

     830: a0 02 30 43 21 00 00 00 04 85 22 03 00 f0 17 8c      	! BUNDLE
	nulweq	%r5, %r6, 1, 0
	sth	%r5, %r2, 0
	ldwz	%r5, %sp, 12

     840: 90 00 84 02 01 c0 00 00 fc 04 24 00 00 10 18 86      	! BUNDLE
	addws	%r4, %r5, %r4
	stw	%r4, %sp, 12
	ldhz	%r6, %r2, 0

     850: 04 00 80 41 01 30 a2 19 02 05 00 04 60 28 10 00      	! BUNDLE
	mov	%r5, %r3
	cash.acq_rel	%r5, %r1, %r6
	cmpweq	%r4, %r5, %r6

     860: a0 02 30 43 21 00 00 00 04 85 22 03 00 f0 17 8c      	! BUNDLE
	nulweq	%r5, %r6, 1, 0
	sth	%r5, %r2, 0
	ldwz	%r5, %sp, 12

     870: 90 00 84 02 01 c0 00 00 fc 04 24 00 00 10 18 86      	! BUNDLE
	addws	%r4, %r5, %r4
	stw	%r4, %sp, 12
	ldhz	%r6, %r2, 0

     880: 04 00 80 41 01 30 a2 19 02 05 00 04 60 28 10 00      	! BUNDLE
	mov	%r5, %r3
	cash.acq_rel	%r5, %r1, %r6
	cmpweq	%r4, %r5, %r6

     890: a0 02 30 43 21 00 00 00 04 85 22 03 00 f0 17 8c      	! BUNDLE
	nulweq	%r5, %r6, 1, 0
	sth	%r5, %r2, 0
	ldwz	%r5, %sp, 12

     8a0: 90 00 84 02 01 c0 00 00 fc 04 24 00 00 10 18 86      	! BUNDLE
	addws	%r4, %r5, %r4
	stw	%r4, %sp, 12
	ldhz	%r6, %r2, 0

     8b0: 04 00 80 41 01 30 a2 19 02 05 00 04 60 28 10 00      	! BUNDLE
	mov	%r5, %r3
	cash.acq_rel	%r5, %r1, %r6
	cmpweq	%r4, %r5, %r6

     8c0: a0 02 30 43 21 00 00 00 04 85 22 03 00 f0 17 8c      	! BUNDLE
	nulweq	%r5, %r6, 1, 0
	sth	%r5, %r2, 0
	ldwz	%r5, %sp, 12

     8d0: 90 00 84 02 01 c0 00 00 fc 04 24 00 00 10 18 86      	! BUNDLE
	addws	%r4, %r5, %r4
	stw	%r4, %sp, 12
	ldhz	%r6, %r2, 0

     8e0: d0 84 00 00 00 10 00 00 06 05 c0 88 60 08 14 00      	! BUNDLE
	fence.seq_cst
	mov	%r5, %r3
	cash.relaxed	%r5, %r1, %r6

     8f0: 40 00 86 02 01 80 0a c0 0c 85 00 00 00 10 14 8a      	! BUNDLE
	cmpweq	%r4, %r5, %r6
	nulweq	%r5, %r6, 1, 0
	sth	%r5, %r2, 0

     900: 30 00 00 7f c1 48 02 10 0a 04 00 03 00 f0 13 90      	! BUNDLE
	ldwz	%r5, %sp, 12
	addws	%r4, %r5, %r4
	stw	%r4, %sp, 12

     910: 00 00 00 81 61 48 13 02 00 00 40 00 00 18 14 00      	! BUNDLE
	ldhz	%r6, %r2, 0
	fence.seq_cst
	mov	%r5, %r3

     920: 8c 08 86 40 01 00 01 18 0a 04 00 2a 00 33 14 02      	! BUNDLE
	cash.relaxed	%r5, %r1, %r6
	cmpweq	%r4, %r5, %r6
	nulweq	%r5, %r6, 1, 0

     930: 00 00 00 41 a1 c8 00 00 fc 05 23 09 40 28 10 00      	! BUNDLE
	sth	%r5, %r2, 0
	ldwz	%r5, %sp, 12
	addws	%r4, %r5, %r4

     940: 30 00 00 3f 01 09 00 00 04 86 21 4d 08 00 00 00      	! BUNDLE
	stw	%r4, %sp, 12
	ldhz	%r6, %r2, 0
	fence.seq_cst

     950: 04 00 80 41 01 30 22 18 02 05 00 04 60 28 10 00      	! BUNDLE
	mov	%r5, %r3
	cash.relaxed	%r5, %r1, %r6
	cmpweq	%r4, %r5, %r6

     960: a0 02 30 43 21 00 00 00 04 85 22 03 00 f0 17 8c      	! BUNDLE
	nulweq	%r5, %r6, 1, 0
	sth	%r5, %r2, 0
	ldwz	%r5, %sp, 12

     970: 90 00 84 02 01 c0 00 00 fc 04 24 00 00 10 10 86      	! BUNDLE
	addws	%r4, %r5, %r4
	stw	%r4, %sp, 12
	ldhz	%r4, %r2, 0

     980: d0 84 00 00 00 30 22 10 02 03 00 04 40 18 04 00      	! BUNDLE
	fence.seq_cst
	cash.relaxed	%r3, %r1, %r4
	cmpweq	%r1, %r3, %r4

     990: a0 02 30 c2 20 00 00 00 04 83 22 03 00 f0 0b 8c      	! BUNDLE
	nulweq	%r3, %r4, 1, 0
	sth	%r3, %r2, 0
	ldwz	%r2, %sp, 12

     9a0: 90 00 01 41 00 c0 00 00 fc 01 24 03 00 f0 07 8c      	! BUNDLE
	addws	%r1, %r2, %r1
	stw	%r1, %sp, 12
	ldwz	%r1, %sp, 12

     9b0: 40 00 00 80 40 00 00 00 00 00 01 00 00 00 00 04      	! BUNDLE
	retf	16
	nop	0
	nop	0


00000000000009c0 <test_atomic_compare_exchange_i32>:
     9c0: 40 00 80 03 41 c0 00 00 fc 7f 24 00 00 10 18 8c      	! BUNDLE
	allocsp	7, 16
	stw	%gz, %sp, 12
	ldwz	%r6, %r2, 0

     9d0: 04 00 80 41 01 30 24 18 02 05 00 04 60 28 10 00      	! BUNDLE
	mov	%r5, %r3
	casw.relaxed	%r5, %r1, %r6
	cmpweq	%r4, %r5, %r6

     9e0: a0 02 30 43 21 00 00 00 04 05 24 03 00 f0 17 8c      	! BUNDLE
	nulweq	%r5, %r6, 1, 0
	stw	%r5, %r2, 0
	ldwz	%r5, %sp, 12

     9f0: 90 00 84 02 01 c0 00 00 fc 04 24 00 00 10 18 8c      	! BUNDLE
	addws	%r4, %r5, %r4
	stw	%r4, %sp, 12
	ldwz	%r6, %r2, 0

     a00: 04 00 80 41 01 30 a4 18 02 05 00 04 60 28 10 00      	! BUNDLE
	mov	%r5, %r3
	casw.acquire	%r5, %r1, %r6
	cmpweq	%r4, %r5, %r6

     a10: a0 02 30 43 21 00 00 00 04 05 24 03 00 f0 17 8c      	! BUNDLE
	nulweq	%r5, %r6, 1, 0
	stw	%r5, %r2, 0
	ldwz	%r5, %sp, 12

     a20: 90 00 84 02 01 c0 00 00 fc 04 24 00 00 10 18 8c      	! BUNDLE
	addws	%r4, %r5, %r4
	stw	%r4, %sp, 12
	ldwz	%r6, %r2, 0

     a30: 04 00 80 41 01 30 a4 18 02 05 00 04 60 28 10 00      	! BUNDLE
	mov	%r5, %r3
	casw.acquire	%r5, %r1, %r6
	cmpweq	%r4, %r5, %r6

     a40: a0 02 30 43 21 00 00 00 04 05 24 03 00 f0 17 8c      	! BUNDLE
	nulweq	%r5, %r6, 1, 0
	stw	%r5, %r2, 0
	ldwz	%r5, %sp, 12

     a50: 90 00 84 02 01 c0 00 00 fc 04 24 00 00 10 18 8c      	! BUNDLE
	addws	%r4, %r5, %r4
	stw	%r4, %sp, 12
	ldwz	%r6, %r2, 0

     a60: 04 00 80 41 01 30 a4 18 02 05 00 04 60 28 10 00      	! BUNDLE
	mov	%r5, %r3
	casw.acquire	%r5, %r1, %r6
	cmpweq	%r4, %r5, %r6

     a70: a0 02 30 43 21 00 00 00 04 05 24 03 00 f0 17 8c      	! BUNDLE
	nulweq	%r5, %r6, 1, 0
	stw	%r5, %r2, 0
	ldwz	%r5, %sp, 12

     a80: 90 00 84 02 01 c0 00 00 fc 04 24 00 00 10 18 8c      	! BUNDLE
	addws	%r4, %r5, %r4
	stw	%r4, %sp, 12
	ldwz	%r6, %r2, 0

     a90: 04 00 80 41 01 30 a4 18 02 05 00 04 60 28 10 00      	! BUNDLE
	mov	%r5, %r3
	casw.acquire	%r5, %r1, %r6
	cmpweq	%r4, %r5, %r6

     aa0: a0 02 30 43 21 00 00 00 04 05 24 03 00 f0 17 8c      	! BUNDLE
	nulweq	%r5, %r6, 1, 0
	stw	%r5, %r2, 0
	ldwz	%r5, %sp, 12

     ab0: 90 00 84 02 01 c0 00 00 fc 04 24 00 00 10 18 8c      	! BUNDLE
	addws	%r4, %r5, %r4
	stw	%r4, %sp, 12
	ldwz	%r6, %r2, 0

     ac0: 04 00 80 41 01 30 a4 18 02 05 00 04 60 28 10 00      	! BUNDLE
	mov	%r5, %r3
	casw.acquire	%r5, %r1, %r6
	cmpweq	%r4, %r5, %r6

     ad0: a0 02 30 43 21 00 00 00 04 05 24 03 00 f0 17 8c      	! BUNDLE
	nulweq	%r5, %r6, 1, 0
	stw	%r5, %r2, 0
	ldwz	%r5, %sp, 12

     ae0: 90 00 84 02 01 c0 00 00 fc 04 24 00 00 10 18 8c      	! BUNDLE
	addws	%r4, %r5, %r4
	stw	%r4, %sp, 12
	ldwz	%r6, %r2, 0

     af0: 04 00 80 41 01 30 a4 18 02 05 00 04 60 28 10 00      	! BUNDLE
	mov	%r5, %r3
	casw.acquire	%r5, %r1, %r6
	cmpweq	%r4, %r5, %r6

     b00: a0 02 30 43 21 00 00 00 04 05 24 03 00 f0 17 8c      	! BUNDLE
	nulweq	%r5, %r6, 1, 0
	stw	%r5, %r2, 0
	ldwz	%r5, %sp, 12

     b10: 90 00 84 02 01 c0 00 00 fc 04 24 00 00 10 18 8c      	! BUNDLE
	addws	%r4, %r5, %r4
	stw	%r4, %sp, 12
	ldwz	%r6, %r2, 0

     b20: 04 00 80 41 01 30 24 19 02 05 00 04 60 28 10 00      	! BUNDLE
	mov	%r5, %r3
	casw.release	%r5, %r1, %r6
	cmpweq	%r4, %r5, %r6

     b30: a0 02 30 43 21 00 00 00 04 05 24 03 00 f0 17 8c      	! BUNDLE
	nulweq	%r5, %r6, 1, 0
	stw	%r5, %r2, 0
	ldwz	%r5, %sp, 12

     b40: 90 00 84 02 01 c0 00 00 fc 04 24 00 00 10 18 8c      	! BUNDLE
	addws	%r4, %r5, %r4
	stw	%r4, %sp, 12
	ldwz	%r6, %r2, 0

     b50: 04 00 80 41 01 30 a4 19 02 05 00 04 60 28 10 00      	! BUNDLE
	mov	%r5, %r3
	casw.acq_rel	%r5, %r1, %r6
	cmpweq	%r4, %r5, %r6

     b60: a0 02 30 43 21 00 00 00 04 05 24 03 00 f0 17 8c      	! BUNDLE
	nulweq	%r5, %r6, 1, 0
	stw	%r5, %r2, 0
	ldwz	%r5, %sp, 12

     b70: 90 00 84 02 01 c0 00 00 fc 04 24 00 00 10 18 8c      	! BUNDLE
	addws	%r4, %r5, %r4
	stw	%r4, %sp, 12
	ldwz	%r6, %r2, 0

     b80: 04 00 80 41 01 30 a4 19 02 05 00 04 60 28 10 00      	! BUNDLE
	mov	%r5, %r3
	casw.acq_rel	%r5, %r1, %r6
	cmpweq	%r4, %r5, %r6

     b90: a0 02 30 43 21 00 00 00 04 05 24 03 00 f0 17 8c      	! BUNDLE
	nulweq	%r5, %r6, 1, 0
	stw	%r5, %r2, 0
	ldwz	%r5, %sp, 12

     ba0: 90 00 84 02 01 c0 00 00 fc 04 24 00 00 10 18 8c      	! BUNDLE
	addws	%r4, %r5, %r4
	stw	%r4, %sp, 12
	ldwz	%r6, %r2, 0

     bb0: 04 00 80 41 01 30 a4 19 02 05 00 04 60 28 10 00      	! BUNDLE
	mov	%r5, %r3
	casw.acq_rel	%r5, %r1, %r6
	cmpweq	%r4, %r5, %r6

     bc0: a0 02 30 43 21 00 00 00 04 05 24 03 00 f0 17 8c      	! BUNDLE
	nulweq	%r5, %r6, 1, 0
	stw	%r5, %r2, 0
	ldwz	%r5, %sp, 12

     bd0: 90 00 84 02 01 c0 00 00 fc 04 24 00 00 10 18 8c      	! BUNDLE
	addws	%r4, %r5, %r4
	stw	%r4, %sp, 12
	ldwz	%r6, %r2, 0

     be0: d0 84 00 00 00 10 00 00 06 05 c0 90 60 08 14 00      	! BUNDLE
	fence.seq_cst
	mov	%r5, %r3
	casw.relaxed	%r5, %r1, %r6

     bf0: 40 00 86 02 01 80 0a c0 0c 85 00 00 00 10 14 90      	! BUNDLE
	cmpweq	%r4, %r5, %r6
	nulweq	%r5, %r6, 1, 0
	stw	%r5, %r2, 0

     c00: 30 00 00 7f c1 48 02 10 0a 04 00 03 00 f0 13 90      	! BUNDLE
	ldwz	%r5, %sp, 12
	addws	%r4, %r5, %r4
	stw	%r4, %sp, 12

     c10: 00 00 00 81 c1 48 13 02 00 00 40 00 00 18 14 00      	! BUNDLE
	ldwz	%r6, %r2, 0
	fence.seq_cst
	mov	%r5, %r3

     c20: 0c 09 86 40 01 00 01 18 0a 04 00 2a 00 33 14 02      	! BUNDLE
	casw.relaxed	%r5, %r1, %r6
	cmpweq	%r4, %r5, %r6
	nulweq	%r5, %r6, 1, 0

     c30: 00 00 00 41 01 c9 00 00 fc 05 23 09 40 28 10 00      	! BUNDLE
	stw	%r5, %r2, 0
	ldwz	%r5, %sp, 12
	addws	%r4, %r5, %r4

     c40: 30 00 00 3f 01 09 00 00 04 06 23 4d 08 00 00 00      	! BUNDLE
	stw	%r4, %sp, 12
	ldwz	%r6, %r2, 0
	fence.seq_cst

     c50: 04 00 80 41 01 30 24 18 02 05 00 04 60 28 10 00      	! BUNDLE
	mov	%r5, %r3
	casw.relaxed	%r5, %r1, %r6
	cmpweq	%r4, %r5, %r6

     c60: a0 02 30 43 21 00 00 00 04 05 24 03 00 f0 17 8c      	! BUNDLE
	nulweq	%r5, %r6, 1, 0
	stw	%r5, %r2, 0
	ldwz	%r5, %sp, 12

     c70: 90 00 84 02 01 c0 00 00 fc 04 24 00 00 10 10 8c      	! BUNDLE
	addws	%r4, %r5, %r4
	stw	%r4, %sp, 12
	ldwz	%r4, %r2, 0

     c80: d0 84 00 00 00 30 24 10 02 03 00 04 40 18 04 00      	! BUNDLE
	fence.seq_cst
	casw.relaxed	%r3, %r1, %r4
	cmpweq	%r1, %r3, %r4

     c90: a0 02 30 c2 20 00 00 00 04 03 24 03 00 f0 0b 8c      	! BUNDLE
	nulweq	%r3, %r4, 1, 0
	stw	%r3, %r2, 0
	ldwz	%r2, %sp, 12

     ca0: 90 00 01 41 00 c0 00 00 fc 01 24 03 00 f0 07 8c      	! BUNDLE
	addws	%r1, %r2, %r1
	stw	%r1, %sp, 12
	ldwz	%r1, %sp, 12

     cb0: 40 00 00 80 40 00 00 00 00 00 01 00 00 00 00 04      	! BUNDLE
	retf	16
	nop	0
	nop	0


0000000000000cc0 <test_atomic_compare_exchange_i64>:
     cc0: 40 00 80 03 41 c0 00 00 fc 7f 24 00 00 10 18 92      	! BUNDLE
	allocsp	7, 16
	stw	%gz, %sp, 12
	lddz	%r6, %r2, 0

     cd0: 04 00 80 41 01 30 26 18 02 05 00 02 60 28 10 00      	! BUNDLE
	mov	%r5, %r3
	casd.relaxed	%r5, %r1, %r6
	cmpdeq	%r4, %r5, %r6

     ce0: a0 02 00 43 21 00 00 00 04 85 25 03 00 f0 17 8c      	! BUNDLE
	nuldeq	%r5, %r6, 1, 0
	std	%r5, %r2, 0
	ldwz	%r5, %sp, 12

     cf0: 90 00 84 02 01 c0 00 00 fc 04 24 00 00 10 18 92      	! BUNDLE
	addws	%r4, %r5, %r4
	stw	%r4, %sp, 12
	lddz	%r6, %r2, 0

     d00: 04 00 80 41 01 30 a6 18 02 05 00 02 60 28 10 00      	! BUNDLE
	mov	%r5, %r3
	casd.acquire	%r5, %r1, %r6
	cmpdeq	%r4, %r5, %r6

     d10: a0 02 00 43 21 00 00 00 04 85 25 03 00 f0 17 8c      	! BUNDLE
	nuldeq	%r5, %r6, 1, 0
	std	%r5, %r2, 0
	ldwz	%r5, %sp, 12

     d20: 90 00 84 02 01 c0 00 00 fc 04 24 00 00 10 18 92      	! BUNDLE
	addws	%r4, %r5, %r4
	stw	%r4, %sp, 12
	lddz	%r6, %r2, 0

     d30: 04 00 80 41 01 30 a6 18 02 05 00 02 60 28 10 00      	! BUNDLE
	mov	%r5, %r3
	casd.acquire	%r5, %r1, %r6
	cmpdeq	%r4, %r5, %r6

     d40: a0 02 00 43 21 00 00 00 04 85 25 03 00 f0 17 8c      	! BUNDLE
	nuldeq	%r5, %r6, 1, 0
	std	%r5, %r2, 0
	ldwz	%r5, %sp, 12

     d50: 90 00 84 02 01 c0 00 00 fc 04 24 00 00 10 18 92      	! BUNDLE
	addws	%r4, %r5, %r4
	stw	%r4, %sp, 12
	lddz	%r6, %r2, 0

     d60: 04 00 80 41 01 30 a6 18 02 05 00 02 60 28 10 00      	! BUNDLE
	mov	%r5, %r3
	casd.acquire	%r5, %r1, %r6
	cmpdeq	%r4, %r5, %r6

     d70: a0 02 00 43 21 00 00 00 04 85 25 03 00 f0 17 8c      	! BUNDLE
	nuldeq	%r5, %r6, 1, 0
	std	%r5, %r2, 0
	ldwz	%r5, %sp, 12

     d80: 90 00 84 02 01 c0 00 00 fc 04 24 00 00 10 18 92      	! BUNDLE
	addws	%r4, %r5, %r4
	stw	%r4, %sp, 12
	lddz	%r6, %r2, 0

     d90: 04 00 80 41 01 30 a6 18 02 05 00 02 60 28 10 00      	! BUNDLE
	mov	%r5, %r3
	casd.acquire	%r5, %r1, %r6
	cmpdeq	%r4, %r5, %r6

     da0: a0 02 00 43 21 00 00 00 04 85 25 03 00 f0 17 8c      	! BUNDLE
	nuldeq	%r5, %r6, 1, 0
	std	%r5, %r2, 0
	ldwz	%r5, %sp, 12

     db0: 90 00 84 02 01 c0 00 00 fc 04 24 00 00 10 18 92      	! BUNDLE
	addws	%r4, %r5, %r4
	stw	%r4, %sp, 12
	lddz	%r6, %r2, 0

     dc0: 04 00 80 41 01 30 a6 18 02 05 00 02 60 28 10 00      	! BUNDLE
	mov	%r5, %r3
	casd.acquire	%r5, %r1, %r6
	cmpdeq	%r4, %r5, %r6

     dd0: a0 02 00 43 21 00 00 00 04 85 25 03 00 f0 17 8c      	! BUNDLE
	nuldeq	%r5, %r6, 1, 0
	std	%r5, %r2, 0
	ldwz	%r5, %sp, 12

     de0: 90 00 84 02 01 c0 00 00 fc 04 24 00 00 10 18 92      	! BUNDLE
	addws	%r4, %r5, %r4
	stw	%r4, %sp, 12
	lddz	%r6, %r2, 0

     df0: 04 00 80 41 01 30 a6 18 02 05 00 02 60 28 10 00      	! BUNDLE
	mov	%r5, %r3
	casd.acquire	%r5, %r1, %r6
	cmpdeq	%r4, %r5, %r6

     e00: a0 02 00 43 21 00 00 00 04 85 25 03 00 f0 17 8c      	! BUNDLE
	nuldeq	%r5, %r6, 1, 0
	std	%r5, %r2, 0
	ldwz	%r5, %sp, 12

     e10: 90 00 84 02 01 c0 00 00 fc 04 24 00 00 10 18 92      	! BUNDLE
	addws	%r4, %r5, %r4
	stw	%r4, %sp, 12
	lddz	%r6, %r2, 0

     e20: 04 00 80 41 01 30 26 19 02 05 00 02 60 28 10 00      	! BUNDLE
	mov	%r5, %r3
	casd.release	%r5, %r1, %r6
	cmpdeq	%r4, %r5, %r6

     e30: a0 02 00 43 21 00 00 00 04 85 25 03 00 f0 17 8c      	! BUNDLE
	nuldeq	%r5, %r6, 1, 0
	std	%r5, %r2, 0
	ldwz	%r5, %sp, 12

     e40: 90 00 84 02 01 c0 00 00 fc 04 24 00 00 10 18 92      	! BUNDLE
	addws	%r4, %r5, %r4
	stw	%r4, %sp, 12
	lddz	%r6, %r2, 0

     e50: 04 00 80 41 01 30 a6 19 02 05 00 02 60 28 10 00      	! BUNDLE
	mov	%r5, %r3
	casd.acq_rel	%r5, %r1, %r6
	cmpdeq	%r4, %r5, %r6

     e60: a0 02 00 43 21 00 00 00 04 85 25 03 00 f0 17 8c      	! BUNDLE
	nuldeq	%r5, %r6, 1, 0
	std	%r5, %r2, 0
	ldwz	%r5, %sp, 12

     e70: 90 00 84 02 01 c0 00 00 fc 04 24 00 00 10 18 92      	! BUNDLE
	addws	%r4, %r5, %r4
	stw	%r4, %sp, 12
	lddz	%r6, %r2, 0

     e80: 04 00 80 41 01 30 a6 19 02 05 00 02 60 28 10 00      	! BUNDLE
	mov	%r5, %r3
	casd.acq_rel	%r5, %r1, %r6
	cmpdeq	%r4, %r5, %r6

     e90: a0 02 00 43 21 00 00 00 04 85 25 03 00 f0 17 8c      	! BUNDLE
	nuldeq	%r5, %r6, 1, 0
	std	%r5, %r2, 0
	ldwz	%r5, %sp, 12

     ea0: 90 00 84 02 01 c0 00 00 fc 04 24 00 00 10 18 92      	! BUNDLE
	addws	%r4, %r5, %r4
	stw	%r4, %sp, 12
	lddz	%r6, %r2, 0

     eb0: 04 00 80 41 01 30 a6 19 02 05 00 02 60 28 10 00      	! BUNDLE
	mov	%r5, %r3
	casd.acq_rel	%r5, %r1, %r6
	cmpdeq	%r4, %r5, %r6

     ec0: a0 02 00 43 21 00 00 00 04 85 25 03 00 f0 17 8c      	! BUNDLE
	nuldeq	%r5, %r6, 1, 0
	std	%r5, %r2, 0
	ldwz	%r5, %sp, 12

     ed0: 90 00 84 02 01 c0 00 00 fc 04 24 00 00 10 18 92      	! BUNDLE
	addws	%r4, %r5, %r4
	stw	%r4, %sp, 12
	lddz	%r6, %r2, 0

     ee0: d0 84 00 00 00 10 00 00 06 05 c0 98 60 08 14 00      	! BUNDLE
	fence.seq_cst
	mov	%r5, %r3
	casd.relaxed	%r5, %r1, %r6

     ef0: 20 00 86 02 01 80 0a 00 0c 85 00 00 00 10 14 96      	! BUNDLE
	cmpdeq	%r4, %r5, %r6
	nuldeq	%r5, %r6, 1, 0
	std	%r5, %r2, 0

     f00: 30 00 00 7f c1 48 02 10 0a 04 00 03 00 f0 13 90      	! BUNDLE
	ldwz	%r5, %sp, 12
	addws	%r4, %r5, %r4
	stw	%r4, %sp, 12

     f10: 00 00 00 81 21 49 13 02 00 00 40 00 00 18 14 00      	! BUNDLE
	lddz	%r6, %r2, 0
	fence.seq_cst
	mov	%r5, %r3

     f20: 8c 09 86 40 01 80 00 18 0a 04 00 2a 00 30 14 02      	! BUNDLE
	casd.relaxed	%r5, %r1, %r6
	cmpdeq	%r4, %r5, %r6
	nuldeq	%r5, %r6, 1, 0

     f30: 00 00 00 41 61 c9 00 00 fc 05 23 09 40 28 10 00      	! BUNDLE
	std	%r5, %r2, 0
	ldwz	%r5, %sp, 12
	addws	%r4, %r5, %r4

     f40: 30 00 00 3f 01 09 00 00 04 86 24 4d 08 00 00 00      	! BUNDLE
	stw	%r4, %sp, 12
	lddz	%r6, %r2, 0
	fence.seq_cst

     f50: 04 00 80 41 01 30 26 18 02 05 00 02 60 28 10 00      	! BUNDLE
	mov	%r5, %r3
	casd.relaxed	%r5, %r1, %r6
	cmpdeq	%r4, %r5, %r6

     f60: a0 02 00 43 21 00 00 00 04 85 25 03 00 f0 17 8c      	! BUNDLE
	nuldeq	%r5, %r6, 1, 0
	std	%r5, %r2, 0
	ldwz	%r5, %sp, 12

     f70: 90 00 84 02 01 c0 00 00 fc 04 24 00 00 10 10 92      	! BUNDLE
	addws	%r4, %r5, %r4
	stw	%r4, %sp, 12
	lddz	%r4, %r2, 0

     f80: d0 84 00 00 00 30 26 10 02 03 00 02 40 18 04 00      	! BUNDLE
	fence.seq_cst
	casd.relaxed	%r3, %r1, %r4
	cmpdeq	%r1, %r3, %r4

     f90: a0 02 00 c2 20 00 00 00 04 83 25 03 00 f0 0b 8c      	! BUNDLE
	nuldeq	%r3, %r4, 1, 0
	std	%r3, %r2, 0
	ldwz	%r2, %sp, 12

     fa0: 90 00 01 41 00 c0 00 00 fc 01 24 03 00 f0 07 8c      	! BUNDLE
	addws	%r1, %r2, %r1
	stw	%r1, %sp, 12
	ldwz	%r1, %sp, 12

     fb0: 40 00 00 80 40 00 00 00 00 00 01 00 00 00 00 04      	! BUNDLE
	retf	16
	nop	0
	nop	0


0000000000000fc0 <test_atomic_compare_exchange_i128>:
     fc0: 40 00 00 03 41 c0 00 00 fc 7f 24 00 00 10 10 98      	! BUNDLE
	allocsp	6, 16
	stw	%gz, %sp, 12
	ldq	%r4, %r2, 0

     fd0: 04 00 80 41 01 30 28 10 02 05 80 14 40 28 10 00      	! BUNDLE
	mov	%r5, %r3
	casq.relaxed	%r5, %r1, %r4
	cmpqeq	%r4, %r5, %r4

     fe0: a0 02 78 00 21 00 00 00 04 85 26 03 00 f0 17 8c      	! BUNDLE
	nulbsi	%r4, 0, 1, 0
	stq	%r5, %r2, 0
	ldwz	%r5, %sp, 12

     ff0: 90 00 84 02 01 c0 00 00 fc 04 24 00 00 10 10 98      	! BUNDLE
	addws	%r4, %r5, %r4
	stw	%r4, %sp, 12
	ldq	%r4, %r2, 0

    1000: 04 00 80 41 01 30 a8 10 02 05 80 14 40 28 10 00      	! BUNDLE
	mov	%r5, %r3
	casq.acquire	%r5, %r1, %r4
	cmpqeq	%r4, %r5, %r4

    1010: a0 02 78 00 21 00 00 00 04 85 26 03 00 f0 17 8c      	! BUNDLE
	nulbsi	%r4, 0, 1, 0
	stq	%r5, %r2, 0
	ldwz	%r5, %sp, 12

    1020: 90 00 84 02 01 c0 00 00 fc 04 24 00 00 10 10 98      	! BUNDLE
	addws	%r4, %r5, %r4
	stw	%r4, %sp, 12
	ldq	%r4, %r2, 0

    1030: 04 00 80 41 01 30 a8 10 02 05 80 14 40 28 10 00      	! BUNDLE
	mov	%r5, %r3
	casq.acquire	%r5, %r1, %r4
	cmpqeq	%r4, %r5, %r4

    1040: a0 02 78 00 21 00 00 00 04 85 26 03 00 f0 17 8c      	! BUNDLE
	nulbsi	%r4, 0, 1, 0
	stq	%r5, %r2, 0
	ldwz	%r5, %sp, 12

    1050: 90 00 84 02 01 c0 00 00 fc 04 24 00 00 10 10 98      	! BUNDLE
	addws	%r4, %r5, %r4
	stw	%r4, %sp, 12
	ldq	%r4, %r2, 0

    1060: 04 00 80 41 01 30 a8 10 02 05 80 14 40 28 10 00      	! BUNDLE
	mov	%r5, %r3
	casq.acquire	%r5, %r1, %r4
	cmpqeq	%r4, %r5, %r4

    1070: a0 02 78 00 21 00 00 00 04 85 26 03 00 f0 17 8c      	! BUNDLE
	nulbsi	%r4, 0, 1, 0
	stq	%r5, %r2, 0
	ldwz	%r5, %sp, 12

    1080: 90 00 84 02 01 c0 00 00 fc 04 24 00 00 10 10 98      	! BUNDLE
	addws	%r4, %r5, %r4
	stw	%r4, %sp, 12
	ldq	%r4, %r2, 0

    1090: 04 00 80 41 01 30 a8 10 02 05 80 14 40 28 10 00      	! BUNDLE
	mov	%r5, %r3
	casq.acquire	%r5, %r1, %r4
	cmpqeq	%r4, %r5, %r4

    10a0: a0 02 78 00 21 00 00 00 04 85 26 03 00 f0 17 8c      	! BUNDLE
	nulbsi	%r4, 0, 1, 0
	stq	%r5, %r2, 0
	ldwz	%r5, %sp, 12

    10b0: 90 00 84 02 01 c0 00 00 fc 04 24 00 00 10 10 98      	! BUNDLE
	addws	%r4, %r5, %r4
	stw	%r4, %sp, 12
	ldq	%r4, %r2, 0

    10c0: 04 00 80 41 01 30 a8 10 02 05 80 14 40 28 10 00      	! BUNDLE
	mov	%r5, %r3
	casq.acquire	%r5, %r1, %r4
	cmpqeq	%r4, %r5, %r4

    10d0: a0 02 78 00 21 00 00 00 04 85 26 03 00 f0 17 8c      	! BUNDLE
	nulbsi	%r4, 0, 1, 0
	stq	%r5, %r2, 0
	ldwz	%r5, %sp, 12

    10e0: 90 00 84 02 01 c0 00 00 fc 04 24 00 00 10 10 98      	! BUNDLE
	addws	%r4, %r5, %r4
	stw	%r4, %sp, 12
	ldq	%r4, %r2, 0

    10f0: 04 00 80 41 01 30 a8 10 02 05 80 14 40 28 10 00      	! BUNDLE
	mov	%r5, %r3
	casq.acquire	%r5, %r1, %r4
	cmpqeq	%r4, %r5, %r4

    1100: a0 02 78 00 21 00 00 00 04 85 26 03 00 f0 17 8c      	! BUNDLE
	nulbsi	%r4, 0, 1, 0
	stq	%r5, %r2, 0
	ldwz	%r5, %sp, 12

    1110: 90 00 84 02 01 c0 00 00 fc 04 24 00 00 10 10 98      	! BUNDLE
	addws	%r4, %r5, %r4
	stw	%r4, %sp, 12
	ldq	%r4, %r2, 0

    1120: 04 00 80 41 01 30 28 11 02 05 80 14 40 28 10 00      	! BUNDLE
	mov	%r5, %r3
	casq.release	%r5, %r1, %r4
	cmpqeq	%r4, %r5, %r4

    1130: a0 02 78 00 21 00 00 00 04 85 26 03 00 f0 17 8c      	! BUNDLE
	nulbsi	%r4, 0, 1, 0
	stq	%r5, %r2, 0
	ldwz	%r5, %sp, 12

    1140: 90 00 84 02 01 c0 00 00 fc 04 24 00 00 10 10 98      	! BUNDLE
	addws	%r4, %r5, %r4
	stw	%r4, %sp, 12
	ldq	%r4, %r2, 0

    1150: 04 00 80 41 01 30 a8 11 02 05 80 14 40 28 10 00      	! BUNDLE
	mov	%r5, %r3
	casq.acq_rel	%r5, %r1, %r4
	cmpqeq	%r4, %r5, %r4

    1160: a0 02 78 00 21 00 00 00 04 85 26 03 00 f0 17 8c      	! BUNDLE
	nulbsi	%r4, 0, 1, 0
	stq	%r5, %r2, 0
	ldwz	%r5, %sp, 12

    1170: 90 00 84 02 01 c0 00 00 fc 04 24 00 00 10 10 98      	! BUNDLE
	addws	%r4, %r5, %r4
	stw	%r4, %sp, 12
	ldq	%r4, %r2, 0

    1180: 04 00 80 41 01 30 a8 11 02 05 80 14 40 28 10 00      	! BUNDLE
	mov	%r5, %r3
	casq.acq_rel	%r5, %r1, %r4
	cmpqeq	%r4, %r5, %r4

    1190: a0 02 78 00 21 00 00 00 04 85 26 03 00 f0 17 8c      	! BUNDLE
	nulbsi	%r4, 0, 1, 0
	stq	%r5, %r2, 0
	ldwz	%r5, %sp, 12

    11a0: 90 00 84 02 01 c0 00 00 fc 04 24 00 00 10 10 98      	! BUNDLE
	addws	%r4, %r5, %r4
	stw	%r4, %sp, 12
	ldq	%r4, %r2, 0

    11b0: 04 00 80 41 01 30 a8 11 02 05 80 14 40 28 10 00      	! BUNDLE
	mov	%r5, %r3
	casq.acq_rel	%r5, %r1, %r4
	cmpqeq	%r4, %r5, %r4

    11c0: a0 02 78 00 21 00 00 00 04 85 26 03 00 f0 17 8c      	! BUNDLE
	nulbsi	%r4, 0, 1, 0
	stq	%r5, %r2, 0
	ldwz	%r5, %sp, 12

    11d0: 90 00 84 02 01 c0 00 00 fc 04 24 00 00 10 10 98      	! BUNDLE
	addws	%r4, %r5, %r4
	stw	%r4, %sp, 12
	ldq	%r4, %r2, 0

    11e0: d0 84 00 00 00 10 00 00 06 05 c0 a0 40 08 14 00      	! BUNDLE
	fence.seq_cst
	mov	%r5, %r3
	casq.relaxed	%r5, %r1, %r4

    11f0: 48 01 84 02 01 80 0a e0 01 84 00 00 00 10 14 9a      	! BUNDLE
	cmpqeq	%r4, %r5, %r4
	nulbsi	%r4, 0, 1, 0
	stq	%r5, %r2, 0

    1200: 30 00 00 7f c1 48 02 10 0a 04 00 03 00 f0 13 90      	! BUNDLE
	ldwz	%r5, %sp, 12
	addws	%r4, %r5, %r4
	stw	%r4, %sp, 12

    1210: 00 00 00 01 81 49 13 02 00 00 40 00 00 18 14 00      	! BUNDLE
	ldq	%r4, %r2, 0
	fence.seq_cst
	mov	%r5, %r3

    1220: 0c 0a 84 40 01 20 05 10 0a 04 00 2a 80 07 10 02      	! BUNDLE
	casq.relaxed	%r5, %r1, %r4
	cmpqeq	%r4, %r5, %r4
	nulbsi	%r4, 0, 1, 0

    1230: 00 00 00 41 a1 c9 00 00 fc 05 23 09 40 28 10 00      	! BUNDLE
	stq	%r5, %r2, 0
	ldwz	%r5, %sp, 12
	addws	%r4, %r5, %r4

    1240: 30 00 00 3f 01 09 00 00 04 04 26 4d 08 00 00 00      	! BUNDLE
	stw	%r4, %sp, 12
	ldq	%r4, %r2, 0
	fence.seq_cst

    1250: 04 00 80 41 01 30 28 10 02 05 80 14 40 28 10 00      	! BUNDLE
	mov	%r5, %r3
	casq.relaxed	%r5, %r1, %r4
	cmpqeq	%r4, %r5, %r4

    1260: a0 02 78 00 21 00 00 00 04 85 26 03 00 f0 17 8c      	! BUNDLE
	nulbsi	%r4, 0, 1, 0
	stq	%r5, %r2, 0
	ldwz	%r5, %sp, 12

    1270: 90 00 84 02 01 c0 00 00 fc 04 24 00 00 10 10 98      	! BUNDLE
	addws	%r4, %r5, %r4
	stw	%r4, %sp, 12
	ldq	%r4, %r2, 0

    1280: d0 84 00 00 00 30 28 10 02 03 80 14 40 18 04 00      	! BUNDLE
	fence.seq_cst
	casq.relaxed	%r3, %r1, %r4
	cmpqeq	%r1, %r3, %r4

    1290: a0 02 78 40 20 00 00 00 04 83 26 03 00 f0 0b 8c      	! BUNDLE
	nulbsi	%r1, 0, 1, 0
	stq	%r3, %r2, 0
	ldwz	%r2, %sp, 12

    12a0: 90 00 01 41 00 c0 00 00 fc 01 24 03 00 f0 07 8c      	! BUNDLE
	addws	%r1, %r2, %r1
	stw	%r1, %sp, 12
	ldwz	%r1, %sp, 12

    12b0: 40 00 00 80 40 00 00 00 00 00 01 00 00 00 00 04      	! BUNDLE
	retf	16
	nop	0
	nop	0


00000000000012c0 <test_atomic_exchange_i8>:
    12c0: 00 00 80 c1 40 20 20 04 04 01 80 80 12 10 04 00      	! BUNDLE
	alloc	3
	swapb.relaxed	%r1, %r2, %r1
	swapb.acquire	%r1, %r2, %r1

    12d0: 08 28 01 41 00 20 20 05 04 01 80 80 16 10 04 00      	! BUNDLE
	swapb.acquire	%r1, %r2, %r1
	swapb.release	%r1, %r2, %r1
	swapb.acq_rel	%r1, %r2, %r1

    12e0: d0 84 00 00 00 20 20 04 04 01 80 03 87 0b 04 02      	! BUNDLE
	fence.seq_cst
	swapb.relaxed	%r1, %r2, %r1
	slsrai	%r1, %r1, 56, 56

    12f0: 00 00 00 80 40 00 00 00 00 00 01 00 00 00 00 04      	! BUNDLE
	retf	0
	nop	0
	nop	0


0000000000001300 <test_atomic_exchange_i16>:
    1300: 00 00 80 c1 40 20 22 04 04 01 80 88 12 10 04 00      	! BUNDLE
	alloc	3
	swaph.relaxed	%r1, %r2, %r1
	swaph.acquire	%r1, %r2, %r1

    1310: 88 28 01 41 00 20 22 05 04 01 80 88 16 10 04 00      	! BUNDLE
	swaph.acquire	%r1, %r2, %r1
	swaph.release	%r1, %r2, %r1
	swaph.acq_rel	%r1, %r2, %r1

    1320: d0 84 00 00 00 20 22 04 04 01 80 03 06 0b 04 02      	! BUNDLE
	fence.seq_cst
	swaph.relaxed	%r1, %r2, %r1
	slsrai	%r1, %r1, 48, 48

    1330: 00 00 00 80 40 00 00 00 00 00 01 00 00 00 00 04      	! BUNDLE
	retf	0
	nop	0
	nop	0


0000000000001340 <test_atomic_exchange_i32>:
    1340: 00 00 80 c1 40 20 24 04 04 01 80 90 12 10 04 00      	! BUNDLE
	alloc	3
	swapw.relaxed	%r1, %r2, %r1
	swapw.acquire	%r1, %r2, %r1

    1350: 08 29 01 41 00 20 24 05 04 01 80 90 16 10 04 00      	! BUNDLE
	swapw.acquire	%r1, %r2, %r1
	swapw.release	%r1, %r2, %r1
	swapw.acq_rel	%r1, %r2, %r1

    1360: d0 84 00 00 00 20 24 04 04 01 00 00 00 00 08 04      	! BUNDLE
	fence.seq_cst
	swapw.relaxed	%r1, %r2, %r1
	retf	0


0000000000001370 <test_atomic_exchange_i64>:
    1370: 00 00 80 c1 40 20 26 04 04 01 80 98 12 10 04 00      	! BUNDLE
	alloc	3
	swapd.relaxed	%r1, %r2, %r1
	swapd.acquire	%r1, %r2, %r1

    1380: 88 29 01 41 00 20 26 05 04 01 80 98 16 10 04 00      	! BUNDLE
	swapd.acquire	%r1, %r2, %r1
	swapd.release	%r1, %r2, %r1
	swapd.acq_rel	%r1, %r2, %r1

    1390: d0 84 00 00 00 20 26 04 04 01 00 00 00 00 08 04      	! BUNDLE
	fence.seq_cst
	swapd.relaxed	%r1, %r2, %r1
	retf	0


00000000000013a0 <test_atomic_exchange_i128>:
    13a0: 00 00 80 c1 40 20 28 04 04 01 80 a0 12 10 04 00      	! BUNDLE
	alloc	3
	swapq.relaxed	%r1, %r2, %r1
	swapq.acquire	%r1, %r2, %r1

    13b0: 08 2a 01 41 00 20 28 05 04 01 80 a0 16 10 04 00      	! BUNDLE
	swapq.acquire	%r1, %r2, %r1
	swapq.release	%r1, %r2, %r1
	swapq.acq_rel	%r1, %r2, %r1

    13c0: d0 84 00 00 00 20 28 04 04 01 00 00 00 00 08 04      	! BUNDLE
	fence.seq_cst
	swapq.relaxed	%r1, %r2, %r1
	retf	0


00000000000013d0 <test_fence_acquire>:
    13d0: 00 00 80 c0 40 40 93 00 00 00 00 00 00 00 08 04      	! BUNDLE
	alloc	1
	fence.acquire
	retf	0


00000000000013e0 <test_fence_release>:
    13e0: 00 00 80 c0 40 40 13 01 00 00 00 00 00 00 08 04      	! BUNDLE
	alloc	1
	fence.release
	retf	0


00000000000013f0 <test_fence_acq_rel>:
    13f0: 00 00 80 c0 40 40 93 01 00 00 00 00 00 00 08 04      	! BUNDLE
	alloc	1
	fence.acq_rel
	retf	0


0000000000001400 <test_fence_seq_cst>:
    1400: 00 00 80 c0 40 40 13 02 00 00 00 00 00 00 08 04      	! BUNDLE
	alloc	1
	fence.seq_cst
	retf	0


0000000000001410 <test_compiler_fence>:
    1410: 00 00 80 c0 40 00 00 00 00 02 01 00 00 00 00 04      	! BUNDLE
	alloc	1
	retf	0
	nop	0


0000000000001420 <test_atomic_load_u8_u8>:
    1420: 00 00 80 c2 40 00 20 00 02 01 00 80 02 10 08 00      	! BUNDLE
	alloc	5
	ldab.relaxed	%r1, %r1
	ldab.acquire	%r2, %r2

    1430: 00 28 80 c1 00 00 20 02 08 04 80 06 10 10 04 00      	! BUNDLE
	ldab.acquire	%r3, %r3
	ldab.sec_cst	%r4, %r4
	xor	%r1, %r2, %r1

    1440: 60 00 83 40 00 90 01 10 02 01 00 00 00 00 08 04      	! BUNDLE
	and	%r1, %r1, %r3
	or	%r1, %r1, %r4
	retf	0


0000000000001450 <test_atomic_load_u8_u16>:
    1450: 00 00 80 c2 40 00 20 00 02 01 00 80 02 10 08 00      	! BUNDLE
	alloc	5
	ldab.relaxed	%r1, %r1
	ldab.acquire	%r2, %r2

    1460: 00 28 80 c1 00 00 20 02 08 04 80 06 10 10 04 00      	! BUNDLE
	ldab.acquire	%r3, %r3
	ldab.sec_cst	%r4, %r4
	xor	%r1, %r2, %r1

    1470: 60 00 83 40 00 90 01 10 02 01 00 00 00 00 08 04      	! BUNDLE
	and	%r1, %r1, %r3
	or	%r1, %r1, %r4
	retf	0


0000000000001480 <test_atomic_load_u8_u32>:
    1480: 00 00 80 c2 40 00 20 00 02 01 00 80 02 10 08 00      	! BUNDLE
	alloc	5
	ldab.relaxed	%r1, %r1
	ldab.acquire	%r2, %r2

    1490: 00 28 80 c1 00 00 20 02 08 04 80 06 10 10 04 00      	! BUNDLE
	ldab.acquire	%r3, %r3
	ldab.sec_cst	%r4, %r4
	xor	%r1, %r2, %r1

    14a0: 60 00 83 40 00 90 01 10 02 01 00 00 00 00 08 04      	! BUNDLE
	and	%r1, %r1, %r3
	or	%r1, %r1, %r4
	retf	0


00000000000014b0 <test_atomic_load_u8_u64>:
    14b0: 00 00 80 c2 40 00 20 00 02 01 00 80 02 10 08 00      	! BUNDLE
	alloc	5
	ldab.relaxed	%r1, %r1
	ldab.acquire	%r2, %r2

    14c0: 00 28 80 c1 00 00 20 02 08 04 80 06 10 10 04 00      	! BUNDLE
	ldab.acquire	%r3, %r3
	ldab.sec_cst	%r4, %r4
	xor	%r1, %r2, %r1

    14d0: 60 00 83 40 00 90 01 10 02 01 80 13 00 08 04 00      	! BUNDLE
	and	%r1, %r1, %r3
	or	%r1, %r1, %r4
	srlwi	%r1, %r1, 0

    14e0: 00 00 00 80 40 00 00 00 00 00 01 00 00 00 00 04      	! BUNDLE
	retf	0
	nop	0
	nop	0


00000000000014f0 <test_atomic_load_u16_u16>:
    14f0: 00 00 80 c2 40 00 22 00 02 01 00 88 02 10 08 00      	! BUNDLE
	alloc	5
	ldah.relaxed	%r1, %r1
	ldah.acquire	%r2, %r2

    1500: 80 28 80 c1 00 00 22 02 08 04 80 06 10 10 04 00      	! BUNDLE
	ldah.acquire	%r3, %r3
	ldah.sec_cst	%r4, %r4
	xor	%r1, %r2, %r1

    1510: 60 00 83 40 00 90 01 10 02 01 00 00 00 00 08 04      	! BUNDLE
	and	%r1, %r1, %r3
	or	%r1, %r1, %r4
	retf	0


0000000000001520 <test_atomic_load_u16_u32>:
    1520: 00 00 80 c2 40 00 22 00 02 01 00 88 02 10 08 00      	! BUNDLE
	alloc	5
	ldah.relaxed	%r1, %r1
	ldah.acquire	%r2, %r2

    1530: 80 28 80 c1 00 00 22 02 08 04 80 06 10 10 04 00      	! BUNDLE
	ldah.acquire	%r3, %r3
	ldah.sec_cst	%r4, %r4
	xor	%r1, %r2, %r1

    1540: 60 00 83 40 00 90 01 10 02 01 00 00 00 00 08 04      	! BUNDLE
	and	%r1, %r1, %r3
	or	%r1, %r1, %r4
	retf	0


0000000000001550 <test_atomic_load_u16_u64>:
    1550: 00 00 80 c2 40 00 22 00 02 01 00 88 02 10 08 00      	! BUNDLE
	alloc	5
	ldah.relaxed	%r1, %r1
	ldah.acquire	%r2, %r2

    1560: 80 28 80 c1 00 00 22 02 08 04 80 06 10 10 04 00      	! BUNDLE
	ldah.acquire	%r3, %r3
	ldah.sec_cst	%r4, %r4
	xor	%r1, %r2, %r1

    1570: 60 00 83 40 00 90 01 10 02 01 80 13 00 08 04 00      	! BUNDLE
	and	%r1, %r1, %r3
	or	%r1, %r1, %r4
	srlwi	%r1, %r1, 0

    1580: 00 00 00 80 40 00 00 00 00 00 01 00 00 00 00 04      	! BUNDLE
	retf	0
	nop	0
	nop	0


0000000000001590 <test_atomic_load_u32_u32>:
    1590: 00 00 80 c2 40 00 24 00 02 01 00 90 02 10 08 00      	! BUNDLE
	alloc	5
	ldaw.relaxed	%r1, %r1
	ldaw.acquire	%r2, %r2

    15a0: 00 29 80 c1 00 00 24 02 08 04 80 06 10 10 04 00      	! BUNDLE
	ldaw.acquire	%r3, %r3
	ldaw.sec_cst	%r4, %r4
	xor	%r1, %r2, %r1

    15b0: 60 00 83 40 00 90 01 10 02 01 00 00 00 00 08 04      	! BUNDLE
	and	%r1, %r1, %r3
	or	%r1, %r1, %r4
	retf	0


00000000000015c0 <test_atomic_load_u32_u64>:
    15c0: 00 00 80 c2 40 00 24 00 02 01 00 90 02 10 08 00      	! BUNDLE
	alloc	5
	ldaw.relaxed	%r1, %r1
	ldaw.acquire	%r2, %r2

    15d0: 00 29 80 c1 00 00 24 02 08 04 80 06 10 10 04 00      	! BUNDLE
	ldaw.acquire	%r3, %r3
	ldaw.sec_cst	%r4, %r4
	xor	%r1, %r2, %r1

    15e0: 60 00 83 40 00 90 01 10 02 01 80 13 00 08 04 00      	! BUNDLE
	and	%r1, %r1, %r3
	or	%r1, %r1, %r4
	srlwi	%r1, %r1, 0

    15f0: 00 00 00 80 40 00 00 00 00 00 01 00 00 00 00 04      	! BUNDLE
	retf	0
	nop	0
	nop	0


0000000000001600 <test_atomic_load_u64_u64>:
    1600: 00 00 80 c2 40 00 26 00 02 01 00 98 02 10 08 00      	! BUNDLE
	alloc	5
	ldad.relaxed	%r1, %r1
	ldad.acquire	%r2, %r2

    1610: 80 29 80 c1 00 00 26 02 08 04 80 06 10 10 04 00      	! BUNDLE
	ldad.acquire	%r3, %r3
	ldad.sec_cst	%r4, %r4
	xor	%r1, %r2, %r1

    1620: 60 00 83 40 00 90 01 10 02 01 00 00 00 00 08 04      	! BUNDLE
	and	%r1, %r1, %r3
	or	%r1, %r1, %r4
	retf	0


0000000000001630 <test_atomic_load_u128_u128>:
    1630: 00 00 80 c2 40 00 28 00 02 01 00 a0 02 10 08 00      	! BUNDLE
	alloc	5
	ldaq.relaxed	%r1, %r1
	ldaq.acquire	%r2, %r2

    1640: 00 2a 80 c1 00 00 28 02 08 04 80 06 10 10 04 00      	! BUNDLE
	ldaq.acquire	%r3, %r3
	ldaq.sec_cst	%r4, %r4
	xor	%r1, %r2, %r1

    1650: 60 00 83 40 00 90 01 10 02 01 00 00 00 00 08 04      	! BUNDLE
	and	%r1, %r1, %r3
	or	%r1, %r1, %r4
	retf	0


0000000000001660 <test_atomic_load_op_i8>:
    1660: 00 00 80 c1 40 40 20 04 04 01 00 00 00 08 04 28      	! BUNDLE
	alloc	3
	ldaddb.relaxed	%r1, %r2, %r1
	subfiws	%r1, %r1, 0

    1670: 10 08 01 41 00 50 20 04 04 01 80 81 10 10 04 00      	! BUNDLE
	ldaddb.relaxed	%r1, %r2, %r1
	ldandb.relaxed	%r1, %r2, %r1
	ldorb.relaxed	%r1, %r2, %r1

    1680: 1c 08 01 41 00 80 20 04 04 01 40 82 10 10 04 00      	! BUNDLE
	ldxorb.relaxed	%r1, %r2, %r1
	ldsminb.relaxed	%r1, %r2, %r1
	ldsmaxb.relaxed	%r1, %r2, %r1

    1690: 10 28 01 41 00 00 00 00 02 01 0a 81 12 10 04 00      	! BUNDLE
	ldaddb.acquire	%r1, %r2, %r1
	subfiws	%r1, %r1, 0
	ldaddb.acquire	%r1, %r2, %r1

    16a0: 14 28 01 41 00 60 a0 04 04 01 c0 81 12 10 04 00      	! BUNDLE
	ldandb.acquire	%r1, %r2, %r1
	ldorb.acquire	%r1, %r2, %r1
	ldxorb.acquire	%r1, %r2, %r1

    16b0: 20 28 01 41 00 90 a0 04 04 01 00 81 12 10 04 00      	! BUNDLE
	ldsminb.acquire	%r1, %r2, %r1
	ldsmaxb.acquire	%r1, %r2, %r1
	ldaddb.acquire	%r1, %r2, %r1

    16c0: 00 00 80 40 80 42 a0 04 04 01 40 81 12 10 04 00      	! BUNDLE
	subfiws	%r1, %r1, 0
	ldaddb.acquire	%r1, %r2, %r1
	ldandb.acquire	%r1, %r2, %r1

    16d0: 18 28 01 41 00 70 a0 04 04 01 00 82 12 10 04 00      	! BUNDLE
	ldorb.acquire	%r1, %r2, %r1
	ldxorb.acquire	%r1, %r2, %r1
	ldsminb.acquire	%r1, %r2, %r1

    16e0: 24 28 01 41 00 40 20 05 04 01 00 00 00 08 04 28      	! BUNDLE
	ldsmaxb.acquire	%r1, %r2, %r1
	ldaddb.release	%r1, %r2, %r1
	subfiws	%r1, %r1, 0

    16f0: 10 48 01 41 00 50 20 05 04 01 80 81 14 10 04 00      	! BUNDLE
	ldaddb.release	%r1, %r2, %r1
	ldandb.release	%r1, %r2, %r1
	ldorb.release	%r1, %r2, %r1

    1700: 1c 48 01 41 00 80 20 05 04 01 40 82 14 10 04 00      	! BUNDLE
	ldxorb.release	%r1, %r2, %r1
	ldsminb.release	%r1, %r2, %r1
	ldsmaxb.release	%r1, %r2, %r1

    1710: 10 68 01 41 00 00 00 00 02 01 0a 81 16 10 04 00      	! BUNDLE
	ldaddb.acq_rel	%r1, %r2, %r1
	subfiws	%r1, %r1, 0
	ldaddb.acq_rel	%r1, %r2, %r1

    1720: 14 68 01 41 00 60 a0 05 04 01 c0 81 16 10 04 00      	! BUNDLE
	ldandb.acq_rel	%r1, %r2, %r1
	ldorb.acq_rel	%r1, %r2, %r1
	ldxorb.acq_rel	%r1, %r2, %r1

    1730: 20 68 01 41 00 90 a0 05 04 01 00 4d 08 00 00 00      	! BUNDLE
	ldsminb.acq_rel	%r1, %r2, %r1
	ldsmaxb.acq_rel	%r1, %r2, %r1
	fence.seq_cst

    1740: 10 08 01 41 00 40 13 02 00 00 00 00 00 08 04 28      	! BUNDLE
	ldaddb.relaxed	%r1, %r2, %r1
	fence.seq_cst
	subfiws	%r1, %r1, 0

    1750: 10 08 01 41 00 40 13 02 00 00 40 81 10 10 04 00      	! BUNDLE
	ldaddb.relaxed	%r1, %r2, %r1
	fence.seq_cst
	ldandb.relaxed	%r1, %r2, %r1

    1760: d0 84 00 00 00 60 20 04 04 01 00 4d 08 00 00 00      	! BUNDLE
	fence.seq_cst
	ldorb.relaxed	%r1, %r2, %r1
	fence.seq_cst

    1770: 1c 08 01 41 00 40 13 02 00 00 00 82 10 10 04 00      	! BUNDLE
	ldxorb.relaxed	%r1, %r2, %r1
	fence.seq_cst
	ldsminb.relaxed	%r1, %r2, %r1

    1780: d0 84 00 00 00 90 20 04 04 01 80 03 87 0b 04 02      	! BUNDLE
	fence.seq_cst
	ldsmaxb.relaxed	%r1, %r2, %r1
	slsrai	%r1, %r1, 56, 56

    1790: 00 00 00 80 40 00 00 00 00 00 01 00 00 00 00 04      	! BUNDLE
	retf	0
	nop	0
	nop	0


00000000000017a0 <test_atomic_load_op_u8>:
    17a0: 00 00 80 c1 40 40 20 04 04 01 00 00 00 08 04 28      	! BUNDLE
	alloc	3
	ldaddb.relaxed	%r1, %r2, %r1
	subfiws	%r1, %r1, 0

    17b0: 10 08 01 41 00 50 20 04 04 01 80 81 10 10 04 00      	! BUNDLE
	ldaddb.relaxed	%r1, %r2, %r1
	ldandb.relaxed	%r1, %r2, %r1
	ldorb.relaxed	%r1, %r2, %r1

    17c0: 1c 08 01 41 00 a0 20 04 04 01 c0 82 10 10 04 00      	! BUNDLE
	ldxorb.relaxed	%r1, %r2, %r1
	lduminb.relaxed	%r1, %r2, %r1
	ldumaxb.relaxed	%r1, %r2, %r1

    17d0: 10 28 01 41 00 00 00 00 02 01 0a 81 12 10 04 00      	! BUNDLE
	ldaddb.acquire	%r1, %r2, %r1
	subfiws	%r1, %r1, 0
	ldaddb.acquire	%r1, %r2, %r1

    17e0: 14 28 01 41 00 60 a0 04 04 01 c0 81 12 10 04 00      	! BUNDLE
	ldandb.acquire	%r1, %r2, %r1
	ldorb.acquire	%r1, %r2, %r1
	ldxorb.acquire	%r1, %r2, %r1

    17f0: 28 28 01 41 00 b0 a0 04 04 01 00 81 12 10 04 00      	! BUNDLE
	lduminb.acquire	%r1, %r2, %r1
	ldumaxb.acquire	%r1, %r2, %r1
	ldaddb.acquire	%r1, %r2, %r1

    1800: 00 00 80 40 80 42 a0 04 04 01 40 81 12 10 04 00      	! BUNDLE
	subfiws	%r1, %r1, 0
	ldaddb.acquire	%r1, %r2, %r1
	ldandb.acquire	%r1, %r2, %r1

    1810: 18 28 01 41 00 70 a0 04 04 01 80 82 12 10 04 00      	! BUNDLE
	ldorb.acquire	%r1, %r2, %r1
	ldxorb.acquire	%r1, %r2, %r1
	lduminb.acquire	%r1, %r2, %r1

    1820: 2c 28 01 41 00 40 20 05 04 01 00 00 00 08 04 28      	! BUNDLE
	ldumaxb.acquire	%r1, %r2, %r1
	ldaddb.release	%r1, %r2, %r1
	subfiws	%r1, %r1, 0

    1830: 10 48 01 41 00 50 20 05 04 01 80 81 14 10 04 00      	! BUNDLE
	ldaddb.release	%r1, %r2, %r1
	ldandb.release	%r1, %r2, %r1
	ldorb.release	%r1, %r2, %r1

    1840: 1c 48 01 41 00 a0 20 05 04 01 c0 82 14 10 04 00      	! BUNDLE
	ldxorb.release	%r1, %r2, %r1
	lduminb.release	%r1, %r2, %r1
	ldumaxb.release	%r1, %r2, %r1

    1850: 10 68 01 41 00 00 00 00 02 01 0a 81 16 10 04 00      	! BUNDLE
	ldaddb.acq_rel	%r1, %r2, %r1
	subfiws	%r1, %r1, 0
	ldaddb.acq_rel	%r1, %r2, %r1

    1860: 14 68 01 41 00 60 a0 05 04 01 c0 81 16 10 04 00      	! BUNDLE
	ldandb.acq_rel	%r1, %r2, %r1
	ldorb.acq_rel	%r1, %r2, %r1
	ldxorb.acq_rel	%r1, %r2, %r1

    1870: 28 68 01 41 00 b0 a0 05 04 01 00 4d 08 00 00 00      	! BUNDLE
	lduminb.acq_rel	%r1, %r2, %r1
	ldumaxb.acq_rel	%r1, %r2, %r1
	fence.seq_cst

    1880: 10 08 01 41 00 40 13 02 00 00 00 00 00 08 04 28      	! BUNDLE
	ldaddb.relaxed	%r1, %r2, %r1
	fence.seq_cst
	subfiws	%r1, %r1, 0

    1890: 10 08 01 41 00 40 13 02 00 00 40 81 10 10 04 00      	! BUNDLE
	ldaddb.relaxed	%r1, %r2, %r1
	fence.seq_cst
	ldandb.relaxed	%r1, %r2, %r1

    18a0: d0 84 00 00 00 60 20 04 04 01 00 4d 08 00 00 00      	! BUNDLE
	fence.seq_cst
	ldorb.relaxed	%r1, %r2, %r1
	fence.seq_cst

    18b0: 1c 08 01 41 00 40 13 02 00 00 80 82 10 10 04 00      	! BUNDLE
	ldxorb.relaxed	%r1, %r2, %r1
	fence.seq_cst
	lduminb.relaxed	%r1, %r2, %r1

    18c0: d0 84 00 00 00 b0 20 04 04 01 00 00 00 00 08 04      	! BUNDLE
	fence.seq_cst
	ldumaxb.relaxed	%r1, %r2, %r1
	retf	0


00000000000018d0 <test_atomic_load_op_i16>:
    18d0: 00 00 80 c1 40 40 22 04 04 01 00 00 00 08 04 28      	! BUNDLE
	alloc	3
	ldaddh.relaxed	%r1, %r2, %r1
	subfiws	%r1, %r1, 0

    18e0: 90 08 01 41 00 50 22 04 04 01 80 89 10 10 04 00      	! BUNDLE
	ldaddh.relaxed	%r1, %r2, %r1
	ldandh.relaxed	%r1, %r2, %r1
	ldorh.relaxed	%r1, %r2, %r1

    18f0: 9c 08 01 41 00 80 22 04 04 01 40 8a 10 10 04 00      	! BUNDLE
	ldxorh.relaxed	%r1, %r2, %r1
	ldsminh.relaxed	%r1, %r2, %r1
	ldsmaxh.relaxed	%r1, %r2, %r1

    1900: 90 28 01 41 00 00 00 00 02 01 0a 89 12 10 04 00      	! BUNDLE
	ldaddh.acquire	%r1, %r2, %r1
	subfiws	%r1, %r1, 0
	ldaddh.acquire	%r1, %r2, %r1

    1910: 94 28 01 41 00 60 a2 04 04 01 c0 89 12 10 04 00      	! BUNDLE
	ldandh.acquire	%r1, %r2, %r1
	ldorh.acquire	%r1, %r2, %r1
	ldxorh.acquire	%r1, %r2, %r1

    1920: a0 28 01 41 00 90 a2 04 04 01 00 89 12 10 04 00      	! BUNDLE
	ldsminh.acquire	%r1, %r2, %r1
	ldsmaxh.acquire	%r1, %r2, %r1
	ldaddh.acquire	%r1, %r2, %r1

    1930: 00 00 80 40 80 42 a2 04 04 01 40 89 12 10 04 00      	! BUNDLE
	subfiws	%r1, %r1, 0
	ldaddh.acquire	%r1, %r2, %r1
	ldandh.acquire	%r1, %r2, %r1

    1940: 98 28 01 41 00 70 a2 04 04 01 00 8a 12 10 04 00      	! BUNDLE
	ldorh.acquire	%r1, %r2, %r1
	ldxorh.acquire	%r1, %r2, %r1
	ldsminh.acquire	%r1, %r2, %r1

    1950: a4 28 01 41 00 40 22 05 04 01 00 00 00 08 04 28      	! BUNDLE
	ldsmaxh.acquire	%r1, %r2, %r1
	ldaddh.release	%r1, %r2, %r1
	subfiws	%r1, %r1, 0

    1960: 90 48 01 41 00 50 22 05 04 01 80 89 14 10 04 00      	! BUNDLE
	ldaddh.release	%r1, %r2, %r1
	ldandh.release	%r1, %r2, %r1
	ldorh.release	%r1, %r2, %r1

    1970: 9c 48 01 41 00 80 22 05 04 01 40 8a 14 10 04 00      	! BUNDLE
	ldxorh.release	%r1, %r2, %r1
	ldsminh.release	%r1, %r2, %r1
	ldsmaxh.release	%r1, %r2, %r1

    1980: 90 68 01 41 00 00 00 00 02 01 0a 89 16 10 04 00      	! BUNDLE
	ldaddh.acq_rel	%r1, %r2, %r1
	subfiws	%r1, %r1, 0
	ldaddh.acq_rel	%r1, %r2, %r1

    1990: 94 68 01 41 00 60 a2 05 04 01 c0 89 16 10 04 00      	! BUNDLE
	ldandh.acq_rel	%r1, %r2, %r1
	ldorh.acq_rel	%r1, %r2, %r1
	ldxorh.acq_rel	%r1, %r2, %r1

    19a0: a0 68 01 41 00 90 a2 05 04 01 00 4d 08 00 00 00      	! BUNDLE
	ldsminh.acq_rel	%r1, %r2, %r1
	ldsmaxh.acq_rel	%r1, %r2, %r1
	fence.seq_cst

    19b0: 90 08 01 41 00 40 13 02 00 00 00 00 00 08 04 28      	! BUNDLE
	ldaddh.relaxed	%r1, %r2, %r1
	fence.seq_cst
	subfiws	%r1, %r1, 0

    19c0: 90 08 01 41 00 40 13 02 00 00 40 89 10 10 04 00      	! BUNDLE
	ldaddh.relaxed	%r1, %r2, %r1
	fence.seq_cst
	ldandh.relaxed	%r1, %r2, %r1

    19d0: d0 84 00 00 00 60 22 04 04 01 00 4d 08 00 00 00      	! BUNDLE
	fence.seq_cst
	ldorh.relaxed	%r1, %r2, %r1
	fence.seq_cst

    19e0: 9c 08 01 41 00 40 13 02 00 00 00 8a 10 10 04 00      	! BUNDLE
	ldxorh.relaxed	%r1, %r2, %r1
	fence.seq_cst
	ldsminh.relaxed	%r1, %r2, %r1

    19f0: d0 84 00 00 00 90 22 04 04 01 80 03 06 0b 04 02      	! BUNDLE
	fence.seq_cst
	ldsmaxh.relaxed	%r1, %r2, %r1
	slsrai	%r1, %r1, 48, 48

    1a00: 00 00 00 80 40 00 00 00 00 00 01 00 00 00 00 04      	! BUNDLE
	retf	0
	nop	0
	nop	0


0000000000001a10 <test_atomic_load_op_u16>:
    1a10: 00 00 80 c1 40 40 22 04 04 01 00 00 00 08 04 28      	! BUNDLE
	alloc	3
	ldaddh.relaxed	%r1, %r2, %r1
	subfiws	%r1, %r1, 0

    1a20: 90 08 01 41 00 50 22 04 04 01 80 89 10 10 04 00      	! BUNDLE
	ldaddh.relaxed	%r1, %r2, %r1
	ldandh.relaxed	%r1, %r2, %r1
	ldorh.relaxed	%r1, %r2, %r1

    1a30: 9c 08 01 41 00 a0 22 04 04 01 c0 8a 10 10 04 00      	! BUNDLE
	ldxorh.relaxed	%r1, %r2, %r1
	lduminh.relaxed	%r1, %r2, %r1
	ldumaxh.relaxed	%r1, %r2, %r1

    1a40: 90 28 01 41 00 00 00 00 02 01 0a 89 12 10 04 00      	! BUNDLE
	ldaddh.acquire	%r1, %r2, %r1
	subfiws	%r1, %r1, 0
	ldaddh.acquire	%r1, %r2, %r1

    1a50: 94 28 01 41 00 60 a2 04 04 01 c0 89 12 10 04 00      	! BUNDLE
	ldandh.acquire	%r1, %r2, %r1
	ldorh.acquire	%r1, %r2, %r1
	ldxorh.acquire	%r1, %r2, %r1

    1a60: a8 28 01 41 00 b0 a2 04 04 01 00 89 12 10 04 00      	! BUNDLE
	lduminh.acquire	%r1, %r2, %r1
	ldumaxh.acquire	%r1, %r2, %r1
	ldaddh.acquire	%r1, %r2, %r1

    1a70: 00 00 80 40 80 42 a2 04 04 01 40 89 12 10 04 00      	! BUNDLE
	subfiws	%r1, %r1, 0
	ldaddh.acquire	%r1, %r2, %r1
	ldandh.acquire	%r1, %r2, %r1

    1a80: 98 28 01 41 00 70 a2 04 04 01 80 8a 12 10 04 00      	! BUNDLE
	ldorh.acquire	%r1, %r2, %r1
	ldxorh.acquire	%r1, %r2, %r1
	lduminh.acquire	%r1, %r2, %r1

    1a90: ac 28 01 41 00 40 22 05 04 01 00 00 00 08 04 28      	! BUNDLE
	ldumaxh.acquire	%r1, %r2, %r1
	ldaddh.release	%r1, %r2, %r1
	subfiws	%r1, %r1, 0

    1aa0: 90 48 01 41 00 50 22 05 04 01 80 89 14 10 04 00      	! BUNDLE
	ldaddh.release	%r1, %r2, %r1
	ldandh.release	%r1, %r2, %r1
	ldorh.release	%r1, %r2, %r1

    1ab0: 9c 48 01 41 00 a0 22 05 04 01 c0 8a 14 10 04 00      	! BUNDLE
	ldxorh.release	%r1, %r2, %r1
	lduminh.release	%r1, %r2, %r1
	ldumaxh.release	%r1, %r2, %r1

    1ac0: 90 68 01 41 00 00 00 00 02 01 0a 89 16 10 04 00      	! BUNDLE
	ldaddh.acq_rel	%r1, %r2, %r1
	subfiws	%r1, %r1, 0
	ldaddh.acq_rel	%r1, %r2, %r1

    1ad0: 94 68 01 41 00 60 a2 05 04 01 c0 89 16 10 04 00      	! BUNDLE
	ldandh.acq_rel	%r1, %r2, %r1
	ldorh.acq_rel	%r1, %r2, %r1
	ldxorh.acq_rel	%r1, %r2, %r1

    1ae0: a8 68 01 41 00 b0 a2 05 04 01 00 4d 08 00 00 00      	! BUNDLE
	lduminh.acq_rel	%r1, %r2, %r1
	ldumaxh.acq_rel	%r1, %r2, %r1
	fence.seq_cst

    1af0: 90 08 01 41 00 40 13 02 00 00 00 00 00 08 04 28      	! BUNDLE
	ldaddh.relaxed	%r1, %r2, %r1
	fence.seq_cst
	subfiws	%r1, %r1, 0

    1b00: 90 08 01 41 00 40 13 02 00 00 40 89 10 10 04 00      	! BUNDLE
	ldaddh.relaxed	%r1, %r2, %r1
	fence.seq_cst
	ldandh.relaxed	%r1, %r2, %r1

    1b10: d0 84 00 00 00 60 22 04 04 01 00 4d 08 00 00 00      	! BUNDLE
	fence.seq_cst
	ldorh.relaxed	%r1, %r2, %r1
	fence.seq_cst

    1b20: 9c 08 01 41 00 40 13 02 00 00 80 8a 10 10 04 00      	! BUNDLE
	ldxorh.relaxed	%r1, %r2, %r1
	fence.seq_cst
	lduminh.relaxed	%r1, %r2, %r1

    1b30: d0 84 00 00 00 b0 22 04 04 01 00 00 00 00 08 04      	! BUNDLE
	fence.seq_cst
	ldumaxh.relaxed	%r1, %r2, %r1
	retf	0


0000000000001b40 <test_atomic_load_op_i32>:
    1b40: 00 00 80 c1 40 40 24 04 04 01 00 00 00 08 04 28      	! BUNDLE
	alloc	3
	ldaddw.relaxed	%r1, %r2, %r1
	subfiws	%r1, %r1, 0

    1b50: 10 09 01 41 00 50 24 04 04 01 80 91 10 10 04 00      	! BUNDLE
	ldaddw.relaxed	%r1, %r2, %r1
	ldandw.relaxed	%r1, %r2, %r1
	ldorw.relaxed	%r1, %r2, %r1

    1b60: 1c 09 01 41 00 80 24 04 04 01 40 92 10 10 04 00      	! BUNDLE
	ldxorw.relaxed	%r1, %r2, %r1
	ldsminw.relaxed	%r1, %r2, %r1
	ldsmaxw.relaxed	%r1, %r2, %r1

    1b70: 10 29 01 41 00 00 00 00 02 01 0a 91 12 10 04 00      	! BUNDLE
	ldaddw.acquire	%r1, %r2, %r1
	subfiws	%r1, %r1, 0
	ldaddw.acquire	%r1, %r2, %r1

    1b80: 14 29 01 41 00 60 a4 04 04 01 c0 91 12 10 04 00      	! BUNDLE
	ldandw.acquire	%r1, %r2, %r1
	ldorw.acquire	%r1, %r2, %r1
	ldxorw.acquire	%r1, %r2, %r1

    1b90: 20 29 01 41 00 90 a4 04 04 01 00 91 12 10 04 00      	! BUNDLE
	ldsminw.acquire	%r1, %r2, %r1
	ldsmaxw.acquire	%r1, %r2, %r1
	ldaddw.acquire	%r1, %r2, %r1

    1ba0: 00 00 80 40 80 42 a4 04 04 01 40 91 12 10 04 00      	! BUNDLE
	subfiws	%r1, %r1, 0
	ldaddw.acquire	%r1, %r2, %r1
	ldandw.acquire	%r1, %r2, %r1

    1bb0: 18 29 01 41 00 70 a4 04 04 01 00 92 12 10 04 00      	! BUNDLE
	ldorw.acquire	%r1, %r2, %r1
	ldxorw.acquire	%r1, %r2, %r1
	ldsminw.acquire	%r1, %r2, %r1

    1bc0: 24 29 01 41 00 40 24 05 04 01 00 00 00 08 04 28      	! BUNDLE
	ldsmaxw.acquire	%r1, %r2, %r1
	ldaddw.release	%r1, %r2, %r1
	subfiws	%r1, %r1, 0

    1bd0: 10 49 01 41 00 50 24 05 04 01 80 91 14 10 04 00      	! BUNDLE
	ldaddw.release	%r1, %r2, %r1
	ldandw.release	%r1, %r2, %r1
	ldorw.release	%r1, %r2, %r1

    1be0: 1c 49 01 41 00 80 24 05 04 01 40 92 14 10 04 00      	! BUNDLE
	ldxorw.release	%r1, %r2, %r1
	ldsminw.release	%r1, %r2, %r1
	ldsmaxw.release	%r1, %r2, %r1

    1bf0: 10 69 01 41 00 00 00 00 02 01 0a 91 16 10 04 00      	! BUNDLE
	ldaddw.acq_rel	%r1, %r2, %r1
	subfiws	%r1, %r1, 0
	ldaddw.acq_rel	%r1, %r2, %r1

    1c00: 14 69 01 41 00 60 a4 05 04 01 c0 91 16 10 04 00      	! BUNDLE
	ldandw.acq_rel	%r1, %r2, %r1
	ldorw.acq_rel	%r1, %r2, %r1
	ldxorw.acq_rel	%r1, %r2, %r1

    1c10: 20 69 01 41 00 90 a4 05 04 01 00 4d 08 00 00 00      	! BUNDLE
	ldsminw.acq_rel	%r1, %r2, %r1
	ldsmaxw.acq_rel	%r1, %r2, %r1
	fence.seq_cst

    1c20: 10 09 01 41 00 40 13 02 00 00 00 00 00 08 04 28      	! BUNDLE
	ldaddw.relaxed	%r1, %r2, %r1
	fence.seq_cst
	subfiws	%r1, %r1, 0

    1c30: 10 09 01 41 00 40 13 02 00 00 40 91 10 10 04 00      	! BUNDLE
	ldaddw.relaxed	%r1, %r2, %r1
	fence.seq_cst
	ldandw.relaxed	%r1, %r2, %r1

    1c40: d0 84 00 00 00 60 24 04 04 01 00 4d 08 00 00 00      	! BUNDLE
	fence.seq_cst
	ldorw.relaxed	%r1, %r2, %r1
	fence.seq_cst

    1c50: 1c 09 01 41 00 40 13 02 00 00 00 92 10 10 04 00      	! BUNDLE
	ldxorw.relaxed	%r1, %r2, %r1
	fence.seq_cst
	ldsminw.relaxed	%r1, %r2, %r1

    1c60: d0 84 00 00 00 90 24 04 04 01 00 00 00 00 08 04      	! BUNDLE
	fence.seq_cst
	ldsmaxw.relaxed	%r1, %r2, %r1
	retf	0


0000000000001c70 <test_atomic_load_op_u32>:
    1c70: 00 00 80 c1 40 40 24 04 04 01 00 00 00 08 04 28      	! BUNDLE
	alloc	3
	ldaddw.relaxed	%r1, %r2, %r1
	subfiws	%r1, %r1, 0

    1c80: 10 09 01 41 00 50 24 04 04 01 80 91 10 10 04 00      	! BUNDLE
	ldaddw.relaxed	%r1, %r2, %r1
	ldandw.relaxed	%r1, %r2, %r1
	ldorw.relaxed	%r1, %r2, %r1

    1c90: 1c 09 01 41 00 a0 24 04 04 01 c0 92 10 10 04 00      	! BUNDLE
	ldxorw.relaxed	%r1, %r2, %r1
	lduminw.relaxed	%r1, %r2, %r1
	ldumaxw.relaxed	%r1, %r2, %r1

    1ca0: 10 29 01 41 00 00 00 00 02 01 0a 91 12 10 04 00      	! BUNDLE
	ldaddw.acquire	%r1, %r2, %r1
	subfiws	%r1, %r1, 0
	ldaddw.acquire	%r1, %r2, %r1

    1cb0: 14 29 01 41 00 60 a4 04 04 01 c0 91 12 10 04 00      	! BUNDLE
	ldandw.acquire	%r1, %r2, %r1
	ldorw.acquire	%r1, %r2, %r1
	ldxorw.acquire	%r1, %r2, %r1

    1cc0: 28 29 01 41 00 b0 a4 04 04 01 00 91 12 10 04 00      	! BUNDLE
	lduminw.acquire	%r1, %r2, %r1
	ldumaxw.acquire	%r1, %r2, %r1
	ldaddw.acquire	%r1, %r2, %r1

    1cd0: 00 00 80 40 80 42 a4 04 04 01 40 91 12 10 04 00      	! BUNDLE
	subfiws	%r1, %r1, 0
	ldaddw.acquire	%r1, %r2, %r1
	ldandw.acquire	%r1, %r2, %r1

    1ce0: 18 29 01 41 00 70 a4 04 04 01 80 92 12 10 04 00      	! BUNDLE
	ldorw.acquire	%r1, %r2, %r1
	ldxorw.acquire	%r1, %r2, %r1
	lduminw.acquire	%r1, %r2, %r1

    1cf0: 2c 29 01 41 00 40 24 05 04 01 00 00 00 08 04 28      	! BUNDLE
	ldumaxw.acquire	%r1, %r2, %r1
	ldaddw.release	%r1, %r2, %r1
	subfiws	%r1, %r1, 0

    1d00: 10 49 01 41 00 50 24 05 04 01 80 91 14 10 04 00      	! BUNDLE
	ldaddw.release	%r1, %r2, %r1
	ldandw.release	%r1, %r2, %r1
	ldorw.release	%r1, %r2, %r1

    1d10: 1c 49 01 41 00 a0 24 05 04 01 c0 92 14 10 04 00      	! BUNDLE
	ldxorw.release	%r1, %r2, %r1
	lduminw.release	%r1, %r2, %r1
	ldumaxw.release	%r1, %r2, %r1

    1d20: 10 69 01 41 00 00 00 00 02 01 0a 91 16 10 04 00      	! BUNDLE
	ldaddw.acq_rel	%r1, %r2, %r1
	subfiws	%r1, %r1, 0
	ldaddw.acq_rel	%r1, %r2, %r1

    1d30: 14 69 01 41 00 60 a4 05 04 01 c0 91 16 10 04 00      	! BUNDLE
	ldandw.acq_rel	%r1, %r2, %r1
	ldorw.acq_rel	%r1, %r2, %r1
	ldxorw.acq_rel	%r1, %r2, %r1

    1d40: 28 69 01 41 00 b0 a4 05 04 01 00 4d 08 00 00 00      	! BUNDLE
	lduminw.acq_rel	%r1, %r2, %r1
	ldumaxw.acq_rel	%r1, %r2, %r1
	fence.seq_cst

    1d50: 10 09 01 41 00 40 13 02 00 00 00 00 00 08 04 28      	! BUNDLE
	ldaddw.relaxed	%r1, %r2, %r1
	fence.seq_cst
	subfiws	%r1, %r1, 0

    1d60: 10 09 01 41 00 40 13 02 00 00 40 91 10 10 04 00      	! BUNDLE
	ldaddw.relaxed	%r1, %r2, %r1
	fence.seq_cst
	ldandw.relaxed	%r1, %r2, %r1

    1d70: d0 84 00 00 00 60 24 04 04 01 00 4d 08 00 00 00      	! BUNDLE
	fence.seq_cst
	ldorw.relaxed	%r1, %r2, %r1
	fence.seq_cst

    1d80: 1c 09 01 41 00 40 13 02 00 00 80 92 10 10 04 00      	! BUNDLE
	ldxorw.relaxed	%r1, %r2, %r1
	fence.seq_cst
	lduminw.relaxed	%r1, %r2, %r1

    1d90: d0 84 00 00 00 b0 24 04 04 01 00 00 00 00 08 04      	! BUNDLE
	fence.seq_cst
	ldumaxw.relaxed	%r1, %r2, %r1
	retf	0


0000000000001da0 <test_atomic_load_op_i64>:
    1da0: 00 00 80 c1 40 40 26 04 04 01 00 00 00 08 04 26      	! BUNDLE
	alloc	3
	ldaddd.relaxed	%r1, %r2, %r1
	subfi	%r1, %r1, 0

    1db0: 90 09 01 41 00 50 26 04 04 01 80 99 10 10 04 00      	! BUNDLE
	ldaddd.relaxed	%r1, %r2, %r1
	ldandd.relaxed	%r1, %r2, %r1
	ldord.relaxed	%r1, %r2, %r1

    1dc0: 9c 09 01 41 00 80 26 04 04 01 40 9a 10 10 04 00      	! BUNDLE
	ldxord.relaxed	%r1, %r2, %r1
	ldsmind.relaxed	%r1, %r2, %r1
	ldsmaxd.relaxed	%r1, %r2, %r1

    1dd0: 90 29 01 41 00 00 00 00 02 81 09 99 12 10 04 00      	! BUNDLE
	ldaddd.acquire	%r1, %r2, %r1
	subfi	%r1, %r1, 0
	ldaddd.acquire	%r1, %r2, %r1

    1de0: 94 29 01 41 00 60 a6 04 04 01 c0 99 12 10 04 00      	! BUNDLE
	ldandd.acquire	%r1, %r2, %r1
	ldord.acquire	%r1, %r2, %r1
	ldxord.acquire	%r1, %r2, %r1

    1df0: a0 29 01 41 00 90 a6 04 04 01 00 99 12 10 04 00      	! BUNDLE
	ldsmind.acquire	%r1, %r2, %r1
	ldsmaxd.acquire	%r1, %r2, %r1
	ldaddd.acquire	%r1, %r2, %r1

    1e00: 00 00 80 40 60 42 a6 04 04 01 40 99 12 10 04 00      	! BUNDLE
	subfi	%r1, %r1, 0
	ldaddd.acquire	%r1, %r2, %r1
	ldandd.acquire	%r1, %r2, %r1

    1e10: 98 29 01 41 00 70 a6 04 04 01 00 9a 12 10 04 00      	! BUNDLE
	ldord.acquire	%r1, %r2, %r1
	ldxord.acquire	%r1, %r2, %r1
	ldsmind.acquire	%r1, %r2, %r1

    1e20: a4 29 01 41 00 40 26 05 04 01 00 00 00 08 04 26      	! BUNDLE
	ldsmaxd.acquire	%r1, %r2, %r1
	ldaddd.release	%r1, %r2, %r1
	subfi	%r1, %r1, 0

    1e30: 90 49 01 41 00 50 26 05 04 01 80 99 14 10 04 00      	! BUNDLE
	ldaddd.release	%r1, %r2, %r1
	ldandd.release	%r1, %r2, %r1
	ldord.release	%r1, %r2, %r1

    1e40: 9c 49 01 41 00 80 26 05 04 01 40 9a 14 10 04 00      	! BUNDLE
	ldxord.release	%r1, %r2, %r1
	ldsmind.release	%r1, %r2, %r1
	ldsmaxd.release	%r1, %r2, %r1

    1e50: 90 69 01 41 00 00 00 00 02 81 09 99 16 10 04 00      	! BUNDLE
	ldaddd.acq_rel	%r1, %r2, %r1
	subfi	%r1, %r1, 0
	ldaddd.acq_rel	%r1, %r2, %r1

    1e60: 94 69 01 41 00 60 a6 05 04 01 c0 99 16 10 04 00      	! BUNDLE
	ldandd.acq_rel	%r1, %r2, %r1
	ldord.acq_rel	%r1, %r2, %r1
	ldxord.acq_rel	%r1, %r2, %r1

    1e70: a0 69 01 41 00 90 a6 05 04 01 00 4d 08 00 00 00      	! BUNDLE
	ldsmind.acq_rel	%r1, %r2, %r1
	ldsmaxd.acq_rel	%r1, %r2, %r1
	fence.seq_cst

    1e80: 90 09 01 41 00 40 13 02 00 00 00 00 00 08 04 26      	! BUNDLE
	ldaddd.relaxed	%r1, %r2, %r1
	fence.seq_cst
	subfi	%r1, %r1, 0

    1e90: 90 09 01 41 00 40 13 02 00 00 40 99 10 10 04 00      	! BUNDLE
	ldaddd.relaxed	%r1, %r2, %r1
	fence.seq_cst
	ldandd.relaxed	%r1, %r2, %r1

    1ea0: d0 84 00 00 00 60 26 04 04 01 00 4d 08 00 00 00      	! BUNDLE
	fence.seq_cst
	ldord.relaxed	%r1, %r2, %r1
	fence.seq_cst

    1eb0: 9c 09 01 41 00 40 13 02 00 00 00 9a 10 10 04 00      	! BUNDLE
	ldxord.relaxed	%r1, %r2, %r1
	fence.seq_cst
	ldsmind.relaxed	%r1, %r2, %r1

    1ec0: d0 84 00 00 00 90 26 04 04 01 00 00 00 00 08 04      	! BUNDLE
	fence.seq_cst
	ldsmaxd.relaxed	%r1, %r2, %r1
	retf	0


0000000000001ed0 <test_atomic_load_op_u64>:
    1ed0: 00 00 80 c1 40 40 26 04 04 01 00 00 00 08 04 26      	! BUNDLE
	alloc	3
	ldaddd.relaxed	%r1, %r2, %r1
	subfi	%r1, %r1, 0

    1ee0: 90 09 01 41 00 50 26 04 04 01 80 99 10 10 04 00      	! BUNDLE
	ldaddd.relaxed	%r1, %r2, %r1
	ldandd.relaxed	%r1, %r2, %r1
	ldord.relaxed	%r1, %r2, %r1

    1ef0: 9c 09 01 41 00 a0 26 04 04 01 c0 9a 10 10 04 00      	! BUNDLE
	ldxord.relaxed	%r1, %r2, %r1
	ldumind.relaxed	%r1, %r2, %r1
	ldumaxd.relaxed	%r1, %r2, %r1

    1f00: 90 29 01 41 00 00 00 00 02 81 09 99 12 10 04 00      	! BUNDLE
	ldaddd.acquire	%r1, %r2, %r1
	subfi	%r1, %r1, 0
	ldaddd.acquire	%r1, %r2, %r1

    1f10: 94 29 01 41 00 60 a6 04 04 01 c0 99 12 10 04 00      	! BUNDLE
	ldandd.acquire	%r1, %r2, %r1
	ldord.acquire	%r1, %r2, %r1
	ldxord.acquire	%r1, %r2, %r1

    1f20: a8 29 01 41 00 b0 a6 04 04 01 00 99 12 10 04 00      	! BUNDLE
	ldumind.acquire	%r1, %r2, %r1
	ldumaxd.acquire	%r1, %r2, %r1
	ldaddd.acquire	%r1, %r2, %r1

    1f30: 00 00 80 40 60 42 a6 04 04 01 40 99 12 10 04 00      	! BUNDLE
	subfi	%r1, %r1, 0
	ldaddd.acquire	%r1, %r2, %r1
	ldandd.acquire	%r1, %r2, %r1

    1f40: 98 29 01 41 00 70 a6 04 04 01 80 9a 12 10 04 00      	! BUNDLE
	ldord.acquire	%r1, %r2, %r1
	ldxord.acquire	%r1, %r2, %r1
	ldumind.acquire	%r1, %r2, %r1

    1f50: ac 29 01 41 00 40 26 05 04 01 00 00 00 08 04 26      	! BUNDLE
	ldumaxd.acquire	%r1, %r2, %r1
	ldaddd.release	%r1, %r2, %r1
	subfi	%r1, %r1, 0

    1f60: 90 49 01 41 00 50 26 05 04 01 80 99 14 10 04 00      	! BUNDLE
	ldaddd.release	%r1, %r2, %r1
	ldandd.release	%r1, %r2, %r1
	ldord.release	%r1, %r2, %r1

    1f70: 9c 49 01 41 00 a0 26 05 04 01 c0 9a 14 10 04 00      	! BUNDLE
	ldxord.release	%r1, %r2, %r1
	ldumind.release	%r1, %r2, %r1
	ldumaxd.release	%r1, %r2, %r1

    1f80: 90 69 01 41 00 00 00 00 02 81 09 99 16 10 04 00      	! BUNDLE
	ldaddd.acq_rel	%r1, %r2, %r1
	subfi	%r1, %r1, 0
	ldaddd.acq_rel	%r1, %r2, %r1

    1f90: 94 69 01 41 00 60 a6 05 04 01 c0 99 16 10 04 00      	! BUNDLE
	ldandd.acq_rel	%r1, %r2, %r1
	ldord.acq_rel	%r1, %r2, %r1
	ldxord.acq_rel	%r1, %r2, %r1

    1fa0: a8 69 01 41 00 b0 a6 05 04 01 00 4d 08 00 00 00      	! BUNDLE
	ldumind.acq_rel	%r1, %r2, %r1
	ldumaxd.acq_rel	%r1, %r2, %r1
	fence.seq_cst

    1fb0: 90 09 01 41 00 40 13 02 00 00 00 00 00 08 04 26      	! BUNDLE
	ldaddd.relaxed	%r1, %r2, %r1
	fence.seq_cst
	subfi	%r1, %r1, 0

    1fc0: 90 09 01 41 00 40 13 02 00 00 40 99 10 10 04 00      	! BUNDLE
	ldaddd.relaxed	%r1, %r2, %r1
	fence.seq_cst
	ldandd.relaxed	%r1, %r2, %r1

    1fd0: d0 84 00 00 00 60 26 04 04 01 00 4d 08 00 00 00      	! BUNDLE
	fence.seq_cst
	ldord.relaxed	%r1, %r2, %r1
	fence.seq_cst

    1fe0: 9c 09 01 41 00 40 13 02 00 00 80 9a 10 10 04 00      	! BUNDLE
	ldxord.relaxed	%r1, %r2, %r1
	fence.seq_cst
	ldumind.relaxed	%r1, %r2, %r1

    1ff0: d0 84 00 00 00 b0 26 04 04 01 00 00 00 00 08 04      	! BUNDLE
	fence.seq_cst
	ldumaxd.relaxed	%r1, %r2, %r1
	retf	0


0000000000002000 <test_atomic_store_i8>:
    2000: 00 00 80 c2 40 10 20 00 02 04 40 80 04 10 10 00      	! BUNDLE
	alloc	5
	stab.relaxed	%r4, %r1
	stab.release	%r4, %r2

    2010: 04 88 80 01 01 00 00 00 00 02 01 00 00 00 00 04      	! BUNDLE
	stab.sec_cst	%r4, %r3
	retf	0
	nop	0


0000000000002020 <test_atomic_store_i16>:
    2020: 00 00 80 c2 40 10 22 00 02 04 40 88 04 10 10 00      	! BUNDLE
	alloc	5
	stah.relaxed	%r4, %r1
	stah.release	%r4, %r2

    2030: 84 88 80 01 01 00 00 00 00 02 01 00 00 00 00 04      	! BUNDLE
	stah.sec_cst	%r4, %r3
	retf	0
	nop	0


0000000000002040 <test_atomic_store_i32>:
    2040: 00 00 80 c2 40 10 24 00 02 04 40 90 04 10 10 00      	! BUNDLE
	alloc	5
	staw.relaxed	%r4, %r1
	staw.release	%r4, %r2

    2050: 04 89 80 01 01 00 00 00 00 02 01 00 00 00 00 04      	! BUNDLE
	staw.sec_cst	%r4, %r3
	retf	0
	nop	0


0000000000002060 <test_atomic_store_i64>:
    2060: 00 00 80 c2 40 10 26 00 02 04 40 98 04 10 10 00      	! BUNDLE
	alloc	5
	stad.relaxed	%r4, %r1
	stad.release	%r4, %r2

    2070: 84 89 80 01 01 00 00 00 00 02 01 00 00 00 00 04      	! BUNDLE
	stad.sec_cst	%r4, %r3
	retf	0
	nop	0


0000000000002080 <test_atomic_store_i128>:
    2080: 00 00 80 c2 40 10 28 00 02 04 40 a0 04 10 10 00      	! BUNDLE
	alloc	5
	staq.relaxed	%r4, %r1
	staq.release	%r4, %r2

    2090: 04 8a 80 01 01 00 00 00 00 02 01 00 00 00 00 04      	! BUNDLE
	staq.sec_cst	%r4, %r3
	retf	0
	nop	0


00000000000020a0 <test_i32_inv>:
    20a0: 00 00 00 c1 40 f0 ff ff 03 81 06 00 00 00 08 04      	! BUNDLE
	alloc	2
	xori	%r1, %r1, -1
	retf	0


00000000000020b0 <test_i64_inv>:
    20b0: 00 00 00 c1 40 f0 ff ff 03 81 06 00 00 00 08 04      	! BUNDLE
	alloc	2
	xori	%r1, %r1, -1
	retf	0


00000000000020c0 <test_i128_inv>:
    20c0: 00 00 00 c1 40 f0 ff ff 03 81 06 00 00 00 08 04      	! BUNDLE
	alloc	2
	xori	%r1, %r1, -1
	retf	0


00000000000020d0 <test_i32_and>:
    20d0: 00 00 80 c1 40 80 01 04 04 01 00 00 00 00 08 04      	! BUNDLE
	alloc	3
	and	%r1, %r2, %r1
	retf	0


00000000000020e0 <test_i64_and>:
    20e0: 00 00 80 c1 40 80 01 04 04 01 00 00 00 00 08 04      	! BUNDLE
	alloc	3
	and	%r1, %r2, %r1
	retf	0


00000000000020f0 <test_i128_and>:
    20f0: 00 00 80 c1 40 80 01 04 04 01 00 00 00 00 08 04      	! BUNDLE
	alloc	3
	and	%r1, %r2, %r1
	retf	0


0000000000002100 <test_i32_andi>:
    2100: 00 00 00 c1 40 90 03 03 02 81 05 00 00 00 08 04      	! BUNDLE
	alloc	2
	andi	%r1, %r1, 12345
	retf	0


0000000000002110 <test_i32_andi_ext>:
    2110: 01 00 00 c1 40 50 d1 bc 03 81 85 0e 00 00 00 00      	! BUNDLE
	alloc	2
	andi.l	%r1, %r1, 123456789

    2120: 00 00 00 80 40 00 00 00 00 00 01 00 00 00 00 04      	! BUNDLE
	retf	0
	nop	0
	nop	0


0000000000002130 <test_i64_andi>:
    2130: 00 00 00 c1 40 90 03 03 02 81 05 00 00 00 08 04      	! BUNDLE
	alloc	2
	andi	%r1, %r1, 12345
	retf	0


0000000000002140 <test_i64_andi_ext>:
    2140: 01 00 00 c1 40 50 d1 bc 03 81 85 0e 00 00 00 00      	! BUNDLE
	alloc	2
	andi.l	%r1, %r1, 123456789

    2150: 00 00 00 80 40 00 00 00 00 00 01 00 00 00 00 04      	! BUNDLE
	retf	0
	nop	0
	nop	0


0000000000002160 <test_i128_andi>:
    2160: 00 00 00 c1 40 90 03 03 02 81 05 00 00 00 08 04      	! BUNDLE
	alloc	2
	andi	%r1, %r1, 12345
	retf	0


0000000000002170 <test_i128_andi_ext>:
    2170: 01 00 00 c1 40 50 d1 bc 03 81 85 0e 00 00 00 00      	! BUNDLE
	alloc	2
	andi.l	%r1, %r1, 123456789

    2180: 00 00 00 80 40 00 00 00 00 00 01 00 00 00 00 04      	! BUNDLE
	retf	0
	nop	0
	nop	0


0000000000002190 <test_i32_andn>:
    2190: 00 00 80 c1 40 b0 01 08 02 01 00 00 00 00 08 04      	! BUNDLE
	alloc	3
	andn	%r1, %r1, %r2
	retf	0


00000000000021a0 <test_i64_andn>:
    21a0: 00 00 80 c1 40 b0 01 08 02 01 00 00 00 00 08 04      	! BUNDLE
	alloc	3
	andn	%r1, %r1, %r2
	retf	0


00000000000021b0 <test_i128_andn>:
    21b0: 00 00 80 c1 40 b0 01 08 02 01 00 00 00 00 08 04      	! BUNDLE
	alloc	3
	andn	%r1, %r1, %r2
	retf	0


00000000000021c0 <test_i32_andni>:
    21c0: 00 00 00 c1 40 90 03 03 02 81 04 00 00 00 08 04      	! BUNDLE
	alloc	2
	andni	%r1, %r1, 12345
	retf	0


00000000000021d0 <test_i32_andni_ext>:
    21d0: 01 00 00 c1 40 50 d1 bc 03 81 84 0e 00 00 00 00      	! BUNDLE
	alloc	2
	andni.l	%r1, %r1, 123456789

    21e0: 00 00 00 80 40 00 00 00 00 00 01 00 00 00 00 04      	! BUNDLE
	retf	0
	nop	0
	nop	0


00000000000021f0 <test_i64_andni>:
    21f0: 00 00 00 c1 40 90 03 03 02 81 04 00 00 00 08 04      	! BUNDLE
	alloc	2
	andni	%r1, %r1, 12345
	retf	0


0000000000002200 <test_i64_andni_ext>:
    2200: 01 00 00 c1 40 50 d1 bc 03 81 84 0e 00 00 00 00      	! BUNDLE
	alloc	2
	andni.l	%r1, %r1, 123456789

    2210: 00 00 00 80 40 00 00 00 00 00 01 00 00 00 00 04      	! BUNDLE
	retf	0
	nop	0
	nop	0


0000000000002220 <test_i128_andni>:
    2220: 00 00 00 c1 40 90 03 03 02 81 04 00 00 00 08 04      	! BUNDLE
	alloc	2
	andni	%r1, %r1, 12345
	retf	0


0000000000002230 <test_i128_andni_ext>:
    2230: 01 00 00 c1 40 50 d1 bc 03 81 84 0e 00 00 00 00      	! BUNDLE
	alloc	2
	andni.l	%r1, %r1, 123456789

    2240: 00 00 00 80 40 00 00 00 00 00 01 00 00 00 00 04      	! BUNDLE
	retf	0
	nop	0
	nop	0


0000000000002250 <test_i32_or>:
    2250: 00 00 80 c1 40 90 01 04 04 01 00 00 00 00 08 04      	! BUNDLE
	alloc	3
	or	%r1, %r2, %r1
	retf	0


0000000000002260 <test_i64_or>:
    2260: 00 00 80 c1 40 90 01 04 04 01 00 00 00 00 08 04      	! BUNDLE
	alloc	3
	or	%r1, %r2, %r1
	retf	0


0000000000002270 <test_i128_or>:
    2270: 00 00 80 c1 40 90 01 04 04 01 00 00 00 00 08 04      	! BUNDLE
	alloc	3
	or	%r1, %r2, %r1
	retf	0


0000000000002280 <test_i32_ori>:
    2280: 00 00 00 c1 40 90 03 03 02 01 06 00 00 00 08 04      	! BUNDLE
	alloc	2
	ori	%r1, %r1, 12345
	retf	0


0000000000002290 <test_i32_ori_ext>:
    2290: 01 00 00 c1 40 50 d1 bc 03 01 86 0e 00 00 00 00      	! BUNDLE
	alloc	2
	ori.l	%r1, %r1, 123456789

    22a0: 00 00 00 80 40 00 00 00 00 00 01 00 00 00 00 04      	! BUNDLE
	retf	0
	nop	0
	nop	0


00000000000022b0 <test_i64_ori>:
    22b0: 00 00 00 c1 40 90 03 03 02 01 06 00 00 00 08 04      	! BUNDLE
	alloc	2
	ori	%r1, %r1, 12345
	retf	0


00000000000022c0 <test_i64_ori_ext>:
    22c0: 01 00 00 c1 40 50 d1 bc 03 01 86 0e 00 00 00 00      	! BUNDLE
	alloc	2
	ori.l	%r1, %r1, 123456789

    22d0: 00 00 00 80 40 00 00 00 00 00 01 00 00 00 00 04      	! BUNDLE
	retf	0
	nop	0
	nop	0


00000000000022e0 <test_i128_ori>:
    22e0: 00 00 00 c1 40 90 03 03 02 01 06 00 00 00 08 04      	! BUNDLE
	alloc	2
	ori	%r1, %r1, 12345
	retf	0


00000000000022f0 <test_i128_ori_ext>:
    22f0: 01 00 00 c1 40 50 d1 bc 03 01 86 0e 00 00 00 00      	! BUNDLE
	alloc	2
	ori.l	%r1, %r1, 123456789

    2300: 00 00 00 80 40 00 00 00 00 00 01 00 00 00 00 04      	! BUNDLE
	retf	0
	nop	0
	nop	0


0000000000002310 <test_i32_orn>:
    2310: 00 00 80 c1 40 f0 01 08 02 01 00 00 00 00 08 04      	! BUNDLE
	alloc	3
	orn	%r1, %r1, %r2
	retf	0


0000000000002320 <test_i64_orn>:
    2320: 00 00 80 c1 40 f0 01 08 02 01 00 00 00 00 08 04      	! BUNDLE
	alloc	3
	orn	%r1, %r1, %r2
	retf	0


0000000000002330 <test_i128_orn>:
    2330: 00 00 80 c1 40 f0 01 08 02 01 00 00 00 00 08 04      	! BUNDLE
	alloc	3
	orn	%r1, %r1, %r2
	retf	0


0000000000002340 <test_i32_orni>:
    2340: 00 00 00 c1 40 90 03 03 02 01 05 00 00 00 08 04      	! BUNDLE
	alloc	2
	orni	%r1, %r1, 12345
	retf	0


0000000000002350 <test_i32_orni_ext>:
    2350: 01 00 00 c1 40 50 d1 bc 03 01 85 0e 00 00 00 00      	! BUNDLE
	alloc	2
	orni.l	%r1, %r1, 123456789

    2360: 00 00 00 80 40 00 00 00 00 00 01 00 00 00 00 04      	! BUNDLE
	retf	0
	nop	0
	nop	0


0000000000002370 <test_i64_orni>:
    2370: 00 00 00 c1 40 90 03 03 02 01 05 00 00 00 08 04      	! BUNDLE
	alloc	2
	orni	%r1, %r1, 12345
	retf	0


0000000000002380 <test_i64_orni_ext>:
    2380: 01 00 00 c1 40 50 d1 bc 03 01 85 0e 00 00 00 00      	! BUNDLE
	alloc	2
	orni.l	%r1, %r1, 123456789

    2390: 00 00 00 80 40 00 00 00 00 00 01 00 00 00 00 04      	! BUNDLE
	retf	0
	nop	0
	nop	0


00000000000023a0 <test_i128_orni>:
    23a0: 00 00 00 c1 40 90 03 03 02 01 05 00 00 00 08 04      	! BUNDLE
	alloc	2
	orni	%r1, %r1, 12345
	retf	0


00000000000023b0 <test_i128_orni_ext>:
    23b0: 01 00 00 c1 40 50 d1 bc 03 01 85 0e 00 00 00 00      	! BUNDLE
	alloc	2
	orni.l	%r1, %r1, 123456789

    23c0: 00 00 00 80 40 00 00 00 00 00 01 00 00 00 00 04      	! BUNDLE
	retf	0
	nop	0
	nop	0


00000000000023d0 <test_i32_xor>:
    23d0: 00 00 80 c1 40 a0 01 04 04 01 00 00 00 00 08 04      	! BUNDLE
	alloc	3
	xor	%r1, %r2, %r1
	retf	0


00000000000023e0 <test_i64_xor>:
    23e0: 00 00 80 c1 40 a0 01 04 04 01 00 00 00 00 08 04      	! BUNDLE
	alloc	3
	xor	%r1, %r2, %r1
	retf	0


00000000000023f0 <test_i128_xor>:
    23f0: 00 00 80 c1 40 a0 01 04 04 01 00 00 00 00 08 04      	! BUNDLE
	alloc	3
	xor	%r1, %r2, %r1
	retf	0


0000000000002400 <test_i32_xori>:
    2400: 00 00 00 c1 40 90 03 03 02 81 06 00 00 00 08 04      	! BUNDLE
	alloc	2
	xori	%r1, %r1, 12345
	retf	0


0000000000002410 <test_i32_xori_ext>:
    2410: 01 00 00 c1 40 50 d1 bc 03 81 86 0e 00 00 00 00      	! BUNDLE
	alloc	2
	xori.l	%r1, %r1, 123456789

    2420: 00 00 00 80 40 00 00 00 00 00 01 00 00 00 00 04      	! BUNDLE
	retf	0
	nop	0
	nop	0


0000000000002430 <test_i64_xori>:
    2430: 00 00 00 c1 40 90 03 03 02 81 06 00 00 00 08 04      	! BUNDLE
	alloc	2
	xori	%r1, %r1, 12345
	retf	0


0000000000002440 <test_i64_xori_ext>:
    2440: 01 00 00 c1 40 50 d1 bc 03 81 86 0e 00 00 00 00      	! BUNDLE
	alloc	2
	xori.l	%r1, %r1, 123456789

    2450: 00 00 00 80 40 00 00 00 00 00 01 00 00 00 00 04      	! BUNDLE
	retf	0
	nop	0
	nop	0


0000000000002460 <test_i128_xori>:
    2460: 00 00 00 c1 40 90 03 03 02 81 06 00 00 00 08 04      	! BUNDLE
	alloc	2
	xori	%r1, %r1, 12345
	retf	0


0000000000002470 <test_i128_xori_ext>:
    2470: 01 00 00 c1 40 50 d1 bc 03 81 86 0e 00 00 00 00      	! BUNDLE
	alloc	2
	xori.l	%r1, %r1, 123456789

    2480: 00 00 00 80 40 00 00 00 00 00 01 00 00 00 00 04      	! BUNDLE
	retf	0
	nop	0
	nop	0


0000000000002490 <test_i1_and>:
    2490: 00 00 80 c1 40 80 01 08 02 01 00 00 00 00 08 04      	! BUNDLE
	alloc	3
	and	%r1, %r1, %r2
	retf	0


00000000000024a0 <test_i1_or>:
    24a0: 00 00 80 c1 40 90 01 08 02 01 00 00 00 00 08 04      	! BUNDLE
	alloc	3
	or	%r1, %r1, %r2
	retf	0


00000000000024b0 <test_i1_xor>:
    24b0: 00 00 80 c1 40 a0 01 08 02 01 00 00 00 00 08 04      	! BUNDLE
	alloc	3
	xor	%r1, %r1, %r2
	retf	0


00000000000024c0 <test_i1_not>:
    24c0: 00 00 00 c1 40 10 00 00 02 81 06 00 00 00 08 04      	! BUNDLE
	alloc	2
	xori	%r1, %r1, 1
	retf	0


00000000000024d0 <test_i1_andn>:
    24d0: 00 00 80 c1 40 10 00 00 02 81 06 06 10 10 04 00      	! BUNDLE
	alloc	3
	xori	%r1, %r1, 1
	and	%r1, %r2, %r1

    24e0: 00 00 00 80 40 00 00 00 00 00 01 00 00 00 00 04      	! BUNDLE
	retf	0
	nop	0
	nop	0


00000000000024f0 <test_i1_orn>:
    24f0: 00 00 80 c1 40 10 00 00 02 81 46 06 10 10 04 00      	! BUNDLE
	alloc	3
	xori	%r1, %r1, 1
	or	%r1, %r2, %r1

    2500: 00 00 00 80 40 00 00 00 00 00 01 00 00 00 00 04      	! BUNDLE
	retf	0
	nop	0
	nop	0


0000000000002510 <test_i1_nand>:
    2510: 00 00 80 c1 40 80 01 08 02 01 40 00 00 08 04 1a      	! BUNDLE
	alloc	3
	and	%r1, %r1, %r2
	xori	%r1, %r1, 1

    2520: 00 00 00 80 40 00 00 00 00 00 01 00 00 00 00 04      	! BUNDLE
	retf	0
	nop	0
	nop	0


0000000000002530 <test_i1_to_i32>:
    2530: 00 00 00 c1 40 00 00 00 00 02 01 00 00 00 00 04      	! BUNDLE
	alloc	2
	retf	0
	nop	0


0000000000002540 <test_i1_to_i64>:
    2540: 00 00 00 c1 40 00 00 00 00 02 01 00 00 00 00 04      	! BUNDLE
	alloc	2
	retf	0
	nop	0


0000000000002550 <test_i1_inv>:
    2550: 00 00 00 c1 40 10 00 00 00 01 04 00 00 00 08 04      	! BUNDLE
	alloc	2
	ldi	%r1, 1
	retf	0


0000000000002560 <test_imm_to_i1>:
    2560: 00 00 00 c1 40 10 00 00 00 01 04 00 00 00 08 04      	! BUNDLE
	alloc	2
	ldi	%r1, 1
	retf	0


0000000000002570 <test_write_i1>:
    2570: 00 00 00 c1 40 10 00 00 00 01 04 00 00 00 04 c4      	! BUNDLE
	alloc	2
	ldi	%r1, 1
	stbr	%r1, 0

		0000000000002570:  R_POSTRISC_C_PCREL_FWD	test_bool_true
    2580: 00 00 00 c0 5f 0c 00 00 00 01 31 00 00 00 fc c5      	! BUNDLE
	stbr	%gz, 0
	stbr	%r1, 0
	stbr	%gz, 0

		0000000000002580:  R_POSTRISC_A_PCREL_FWD	test_bool_false
		0000000000002580:  R_POSTRISC_B_PCREL_FWD	test_i8_true
		0000000000002580:  R_POSTRISC_C_PCREL_FWD	test_i8_false
    2590: 00 00 00 40 a0 0c 00 00 00 ff 32 00 00 00 04 d0      	! BUNDLE
	sthr	%r1, 0
	sthr	%gz, 0
	stwr	%r1, 0

		0000000000002590:  R_POSTRISC_A_PCREL_FWD	test_i16_true
		0000000000002590:  R_POSTRISC_B_PCREL_FWD	test_i16_false
		0000000000002590:  R_POSTRISC_C_PCREL_FWD	test_i32_true
    25a0: 00 00 00 c0 1f 0d 00 00 00 81 35 00 00 00 fc d7      	! BUNDLE
	stwr	%gz, 0
	stdr	%r1, 0
	stdr	%gz, 0

		00000000000025a0:  R_POSTRISC_A_PCREL_FWD	test_i32_false
		00000000000025a0:  R_POSTRISC_B_PCREL_FWD	test_i64_true
		00000000000025a0:  R_POSTRISC_C_PCREL_FWD	test_i64_false
    25b0: 00 00 00 80 40 00 00 00 00 00 01 00 00 00 00 04      	! BUNDLE
	retf	0
	nop	0
	nop	0


00000000000025c0 <test_branch_i64_eqi>:
    25c0: 00 00 00 c2 40 10 17 00 2c 81 00 00 00 00 0c 72      	! BUNDLE
	alloc	4
	nuldnei	%r1, 22, 2, 0
	ldafr	%r3, 0

		00000000000025c0:  R_POSTRISC_C_PCREL_FWD	.Lstr.98
    25d0: 00 00 00 80 00 07 00 00 00 02 01 00 00 00 00 04      	! BUNDLE
	callr	%r2, 0
	retf	0
	nop	0

		00000000000025d0:  R_POSTRISC_A_JUMP	puts

00000000000025e0 <test_branch_i64_nei>:
    25e0: 00 00 00 c2 40 00 17 00 2c 81 00 00 00 00 0c 72      	! BUNDLE
	alloc	4
	nuldeqi	%r1, 22, 2, 0
	ldafr	%r3, 0

		00000000000025e0:  R_POSTRISC_C_PCREL_FWD	.Lstr.98
    25f0: 00 00 00 80 00 07 00 00 00 02 01 00 00 00 00 04      	! BUNDLE
	callr	%r2, 0
	retf	0
	nop	0

		00000000000025f0:  R_POSTRISC_A_JUMP	puts

0000000000002600 <test_branch_i64_lti>:
    2600: 00 00 00 c2 40 20 07 02 2c 81 00 00 00 00 0c 72      	! BUNDLE
	alloc	4
	nuldlti	%r1, 22, 0, 2
	ldafr	%r3, 0

		0000000000002600:  R_POSTRISC_C_PCREL_FWD	.Lstr.98
    2610: 00 00 00 80 00 07 00 00 00 02 01 00 00 00 00 04      	! BUNDLE
	callr	%r2, 0
	retf	0
	nop	0

		0000000000002610:  R_POSTRISC_A_JUMP	puts

0000000000002620 <test_branch_i64_lei>:
    2620: 00 00 00 c2 40 20 07 02 2e 81 00 00 00 00 0c 72      	! BUNDLE
	alloc	4
	nuldlti	%r1, 23, 0, 2
	ldafr	%r3, 0

		0000000000002620:  R_POSTRISC_C_PCREL_FWD	.Lstr.98
    2630: 00 00 00 80 00 07 00 00 00 02 01 00 00 00 00 04      	! BUNDLE
	callr	%r2, 0
	retf	0
	nop	0

		0000000000002630:  R_POSTRISC_A_JUMP	puts

0000000000002640 <test_branch_i64_gti>:
    2640: 00 00 00 c2 40 20 17 00 2e 81 00 00 00 00 0c 72      	! BUNDLE
	alloc	4
	nuldlti	%r1, 23, 2, 0
	ldafr	%r3, 0

		0000000000002640:  R_POSTRISC_C_PCREL_FWD	.Lstr.98
    2650: 00 00 00 80 00 07 00 00 00 02 01 00 00 00 00 04      	! BUNDLE
	callr	%r2, 0
	retf	0
	nop	0

		0000000000002650:  R_POSTRISC_A_JUMP	puts

0000000000002660 <test_branch_i64_gei>:
    2660: 00 00 00 c2 40 20 17 00 2c 81 00 00 00 00 0c 72      	! BUNDLE
	alloc	4
	nuldlti	%r1, 22, 2, 0
	ldafr	%r3, 0

		0000000000002660:  R_POSTRISC_C_PCREL_FWD	.Lstr.98
    2670: 00 00 00 80 00 07 00 00 00 02 01 00 00 00 00 04      	! BUNDLE
	callr	%r2, 0
	retf	0
	nop	0

		0000000000002670:  R_POSTRISC_A_JUMP	puts

0000000000002680 <test_branch_ext_i64_eqi>:
    2680: 01 00 00 c2 40 10 17 c0 29 81 00 00 60 bc 00 00      	! BUNDLE
	alloc	4
	nuldnei.l	%r1, 12345678, 2, 0

    2690: 00 00 00 c0 20 07 00 00 00 02 1c 00 00 00 08 04      	! BUNDLE
	ldafr	%r3, 0
	callr	%r2, 0
	retf	0

		0000000000002690:  R_POSTRISC_A_PCREL_FWD	.Lstr.98
		0000000000002690:  R_POSTRISC_B_JUMP	puts

00000000000026a0 <test_branch_ext_i64_nei>:
    26a0: 01 00 00 c2 40 00 17 c0 29 81 00 00 60 bc 00 00      	! BUNDLE
	alloc	4
	nuldeqi.l	%r1, 12345678, 2, 0

    26b0: 00 00 00 c0 20 07 00 00 00 02 1c 00 00 00 08 04      	! BUNDLE
	ldafr	%r3, 0
	callr	%r2, 0
	retf	0

		00000000000026b0:  R_POSTRISC_A_PCREL_FWD	.Lstr.98
		00000000000026b0:  R_POSTRISC_B_JUMP	puts

00000000000026c0 <test_branch_ext_i64_lti>:
    26c0: 01 00 00 c2 40 20 07 c2 29 81 00 00 60 bc 00 00      	! BUNDLE
	alloc	4
	nuldlti.l	%r1, 12345678, 0, 2

    26d0: 00 00 00 c0 20 07 00 00 00 02 1c 00 00 00 08 04      	! BUNDLE
	ldafr	%r3, 0
	callr	%r2, 0
	retf	0

		00000000000026d0:  R_POSTRISC_A_PCREL_FWD	.Lstr.98
		00000000000026d0:  R_POSTRISC_B_JUMP	puts

00000000000026e0 <test_branch_ext_i64_lei>:
    26e0: 01 00 00 c2 40 20 07 e2 29 81 00 00 60 bc 00 00      	! BUNDLE
	alloc	4
	nuldlti.l	%r1, 12345679, 0, 2

    26f0: 00 00 00 c0 20 07 00 00 00 02 1c 00 00 00 08 04      	! BUNDLE
	ldafr	%r3, 0
	callr	%r2, 0
	retf	0

		00000000000026f0:  R_POSTRISC_A_PCREL_FWD	.Lstr.98
		00000000000026f0:  R_POSTRISC_B_JUMP	puts

0000000000002700 <test_branch_ext_i64_gti>:
    2700: 01 00 00 c2 40 20 17 e0 29 81 00 00 60 bc 00 00      	! BUNDLE
	alloc	4
	nuldlti.l	%r1, 12345679, 2, 0

    2710: 00 00 00 c0 20 07 00 00 00 02 1c 00 00 00 08 04      	! BUNDLE
	ldafr	%r3, 0
	callr	%r2, 0
	retf	0

		0000000000002710:  R_POSTRISC_A_PCREL_FWD	.Lstr.98
		0000000000002710:  R_POSTRISC_B_JUMP	puts

0000000000002720 <test_branch_ext_i64_gei>:
    2720: 01 00 00 c2 40 20 17 c0 29 81 00 00 60 bc 00 00      	! BUNDLE
	alloc	4
	nuldlti.l	%r1, 12345678, 2, 0

    2730: 00 00 00 c0 20 07 00 00 00 02 1c 00 00 00 08 04      	! BUNDLE
	ldafr	%r3, 0
	callr	%r2, 0
	retf	0

		0000000000002730:  R_POSTRISC_A_PCREL_FWD	.Lstr.98
		0000000000002730:  R_POSTRISC_B_JUMP	puts

0000000000002740 <test_branch_i32_eqi>:
    2740: 00 00 00 c2 40 90 16 00 2c 81 00 00 00 00 0c 72      	! BUNDLE
	alloc	4
	nulwnei	%r1, 22, 2, 0
	ldafr	%r3, 0

		0000000000002740:  R_POSTRISC_C_PCREL_FWD	.Lstr.98
    2750: 00 00 00 80 00 07 00 00 00 02 01 00 00 00 00 04      	! BUNDLE
	callr	%r2, 0
	retf	0
	nop	0

		0000000000002750:  R_POSTRISC_A_JUMP	puts

0000000000002760 <test_branch_i32_nei>:
    2760: 00 00 00 c2 40 80 16 00 2c 81 00 00 00 00 0c 72      	! BUNDLE
	alloc	4
	nulweqi	%r1, 22, 2, 0
	ldafr	%r3, 0

		0000000000002760:  R_POSTRISC_C_PCREL_FWD	.Lstr.98
    2770: 00 00 00 80 00 07 00 00 00 02 01 00 00 00 00 04      	! BUNDLE
	callr	%r2, 0
	retf	0
	nop	0

		0000000000002770:  R_POSTRISC_A_JUMP	puts

0000000000002780 <test_branch_i32_lti>:
    2780: 00 00 00 c2 40 a0 06 02 2c 81 00 00 00 00 0c 72      	! BUNDLE
	alloc	4
	nulwlti	%r1, 22, 0, 2
	ldafr	%r3, 0

		0000000000002780:  R_POSTRISC_C_PCREL_FWD	.Lstr.98
    2790: 00 00 00 80 00 07 00 00 00 02 01 00 00 00 00 04      	! BUNDLE
	callr	%r2, 0
	retf	0
	nop	0

		0000000000002790:  R_POSTRISC_A_JUMP	puts

00000000000027a0 <test_branch_i32_lei>:
    27a0: 00 00 00 c2 40 a0 06 02 2e 81 00 00 00 00 0c 72      	! BUNDLE
	alloc	4
	nulwlti	%r1, 23, 0, 2
	ldafr	%r3, 0

		00000000000027a0:  R_POSTRISC_C_PCREL_FWD	.Lstr.98
    27b0: 00 00 00 80 00 07 00 00 00 02 01 00 00 00 00 04      	! BUNDLE
	callr	%r2, 0
	retf	0
	nop	0

		00000000000027b0:  R_POSTRISC_A_JUMP	puts

00000000000027c0 <test_branch_i32_gti>:
    27c0: 00 00 00 c2 40 a0 16 00 2e 81 00 00 00 00 0c 72      	! BUNDLE
	alloc	4
	nulwlti	%r1, 23, 2, 0
	ldafr	%r3, 0

		00000000000027c0:  R_POSTRISC_C_PCREL_FWD	.Lstr.98
    27d0: 00 00 00 80 00 07 00 00 00 02 01 00 00 00 00 04      	! BUNDLE
	callr	%r2, 0
	retf	0
	nop	0

		00000000000027d0:  R_POSTRISC_A_JUMP	puts

00000000000027e0 <test_branch_i32_gei>:
    27e0: 00 00 00 c2 40 a0 16 00 2c 81 00 00 00 00 0c 72      	! BUNDLE
	alloc	4
	nulwlti	%r1, 22, 2, 0
	ldafr	%r3, 0

		00000000000027e0:  R_POSTRISC_C_PCREL_FWD	.Lstr.98
    27f0: 00 00 00 80 00 07 00 00 00 02 01 00 00 00 00 04      	! BUNDLE
	callr	%r2, 0
	retf	0
	nop	0

		00000000000027f0:  R_POSTRISC_A_JUMP	puts

0000000000002800 <test_branch_ext_i32_eqi>:
    2800: 01 00 00 c2 40 90 16 c0 29 81 00 00 60 bc 00 00      	! BUNDLE
	alloc	4
	nulwnei.l	%r1, 12345678, 2, 0

    2810: 00 00 00 c0 20 07 00 00 00 02 1c 00 00 00 08 04      	! BUNDLE
	ldafr	%r3, 0
	callr	%r2, 0
	retf	0

		0000000000002810:  R_POSTRISC_A_PCREL_FWD	.Lstr.98
		0000000000002810:  R_POSTRISC_B_JUMP	puts

0000000000002820 <test_branch_ext_i32_nei>:
    2820: 01 00 00 c2 40 80 16 c0 29 81 00 00 60 bc 00 00      	! BUNDLE
	alloc	4
	nulweqi.l	%r1, 12345678, 2, 0

    2830: 00 00 00 c0 20 07 00 00 00 02 1c 00 00 00 08 04      	! BUNDLE
	ldafr	%r3, 0
	callr	%r2, 0
	retf	0

		0000000000002830:  R_POSTRISC_A_PCREL_FWD	.Lstr.98
		0000000000002830:  R_POSTRISC_B_JUMP	puts

0000000000002840 <test_branch_ext_i32_lti>:
    2840: 01 00 00 c2 40 a0 06 c2 29 81 00 00 60 bc 00 00      	! BUNDLE
	alloc	4
	nulwlti.l	%r1, 12345678, 0, 2

    2850: 00 00 00 c0 20 07 00 00 00 02 1c 00 00 00 08 04      	! BUNDLE
	ldafr	%r3, 0
	callr	%r2, 0
	retf	0

		0000000000002850:  R_POSTRISC_A_PCREL_FWD	.Lstr.98
		0000000000002850:  R_POSTRISC_B_JUMP	puts

0000000000002860 <test_branch_ext_i32_lei>:
    2860: 01 00 00 c2 40 a0 06 e2 29 81 00 00 60 bc 00 00      	! BUNDLE
	alloc	4
	nulwlti.l	%r1, 12345679, 0, 2

    2870: 00 00 00 c0 20 07 00 00 00 02 1c 00 00 00 08 04      	! BUNDLE
	ldafr	%r3, 0
	callr	%r2, 0
	retf	0

		0000000000002870:  R_POSTRISC_A_PCREL_FWD	.Lstr.98
		0000000000002870:  R_POSTRISC_B_JUMP	puts

0000000000002880 <test_branch_ext_i32_gti>:
    2880: 01 00 00 c2 40 a0 16 e0 29 81 00 00 60 bc 00 00      	! BUNDLE
	alloc	4
	nulwlti.l	%r1, 12345679, 2, 0

    2890: 00 00 00 c0 20 07 00 00 00 02 1c 00 00 00 08 04      	! BUNDLE
	ldafr	%r3, 0
	callr	%r2, 0
	retf	0

		0000000000002890:  R_POSTRISC_A_PCREL_FWD	.Lstr.98
		0000000000002890:  R_POSTRISC_B_JUMP	puts

00000000000028a0 <test_branch_ext_i32_gei>:
    28a0: 01 00 00 c2 40 a0 16 c0 29 81 00 00 60 bc 00 00      	! BUNDLE
	alloc	4
	nulwlti.l	%r1, 12345678, 2, 0

    28b0: 00 00 00 c0 20 07 00 00 00 02 1c 00 00 00 08 04      	! BUNDLE
	ldafr	%r3, 0
	callr	%r2, 0
	retf	0

		00000000000028b0:  R_POSTRISC_A_PCREL_FWD	.Lstr.98
		00000000000028b0:  R_POSTRISC_B_JUMP	puts

00000000000028c0 <test_bit_1>:
    28c0: 40 00 80 02 41 80 22 c0 05 81 00 02 00 f0 0b 96      	! BUNDLE
	allocsp	5, 16
	nulbs	%r1, %r2, 4, 0
	std	%r2, %sp, 8

    28d0: 00 00 00 00 21 07 00 00 fc 81 25 00 00 00 0c 70      	! BUNDLE
	ldafr	%r4, 0
	std	%r1, %sp, 0
	callr	%r3, 0

		00000000000028d0:  R_POSTRISC_A_PCREL_FWD	.L.str.1
		00000000000028d0:  R_POSTRISC_C_JUMP	printf
    28e0: 40 00 00 80 40 00 00 00 00 00 01 00 00 00 00 04      	! BUNDLE
	retf	16
	nop	0
	nop	0


00000000000028f0 <test_bit_2>:
    28f0: 40 00 80 02 41 80 22 80 05 81 00 02 00 f0 0b 96      	! BUNDLE
	allocsp	5, 16
	nulbc	%r1, %r2, 4, 0
	std	%r2, %sp, 8

    2900: 00 00 00 00 21 07 00 00 fc 81 25 00 00 00 0c 70      	! BUNDLE
	ldafr	%r4, 0
	std	%r1, %sp, 0
	callr	%r3, 0

		0000000000002900:  R_POSTRISC_A_PCREL_FWD	.L.str.2
		0000000000002900:  R_POSTRISC_C_JUMP	printf
    2910: 40 00 00 80 40 00 00 00 00 00 01 00 00 00 00 04      	! BUNDLE
	retf	16
	nop	0
	nop	0


0000000000002920 <test_bit_3>:
    2920: 40 00 80 02 41 80 22 c0 05 81 00 02 00 f0 0b 96      	! BUNDLE
	allocsp	5, 16
	nulbs	%r1, %r2, 4, 0
	std	%r2, %sp, 8

    2930: 00 00 00 00 21 07 00 00 fc 81 25 00 00 00 0c 70      	! BUNDLE
	ldafr	%r4, 0
	std	%r1, %sp, 0
	callr	%r3, 0

		0000000000002930:  R_POSTRISC_A_PCREL_FWD	.L.str.3
		0000000000002930:  R_POSTRISC_C_JUMP	printf
    2940: 40 00 00 80 40 00 00 00 00 00 01 00 00 00 00 04      	! BUNDLE
	retf	16
	nop	0
	nop	0


0000000000002950 <test_bit_4>:
    2950: 40 00 80 02 41 80 22 a0 1f 81 00 02 00 f0 0b 96      	! BUNDLE
	allocsp	5, 16
	nulbci	%r1, 15, 4, 0
	std	%r2, %sp, 8

    2960: 00 00 00 00 21 07 00 00 fc 81 25 00 00 00 0c 70      	! BUNDLE
	ldafr	%r4, 0
	std	%r1, %sp, 0
	callr	%r3, 0

		0000000000002960:  R_POSTRISC_A_PCREL_FWD	.L.str.4
		0000000000002960:  R_POSTRISC_C_JUMP	printf
    2970: 40 00 00 80 40 00 00 00 00 00 01 00 00 00 00 04      	! BUNDLE
	retf	16
	nop	0
	nop	0


0000000000002980 <test_bit_5>:
    2980: 40 00 80 02 41 80 22 e0 1d 81 00 02 00 f0 0b 96      	! BUNDLE
	allocsp	5, 16
	nulbsi	%r1, 14, 4, 0
	std	%r2, %sp, 8

    2990: 00 00 00 00 21 07 00 00 fc 81 25 00 00 00 0c 70      	! BUNDLE
	ldafr	%r4, 0
	std	%r1, %sp, 0
	callr	%r3, 0

		0000000000002990:  R_POSTRISC_A_PCREL_FWD	.L.str.5
		0000000000002990:  R_POSTRISC_C_JUMP	printf
    29a0: 40 00 00 80 40 00 00 00 00 00 01 00 00 00 00 04      	! BUNDLE
	retf	16
	nop	0
	nop	0


00000000000029b0 <test_bit_i32_1>:
    29b0: 40 00 80 02 41 80 22 c0 05 81 00 01 00 f0 0b 90      	! BUNDLE
	allocsp	5, 16
	nulbs	%r1, %r2, 4, 0
	stw	%r2, %sp, 4

    29c0: 00 00 00 00 21 07 00 00 fc 01 24 00 00 00 0c 70      	! BUNDLE
	ldafr	%r4, 0
	stw	%r1, %sp, 0
	callr	%r3, 0

		00000000000029c0:  R_POSTRISC_A_PCREL_FWD	.L.str.6
		00000000000029c0:  R_POSTRISC_C_JUMP	printf
    29d0: 40 00 00 80 40 00 00 00 00 00 01 00 00 00 00 04      	! BUNDLE
	retf	16
	nop	0
	nop	0


00000000000029e0 <test_bit_i32_2>:
    29e0: 40 00 80 02 41 80 22 80 05 81 00 01 00 f0 0b 90      	! BUNDLE
	allocsp	5, 16
	nulbc	%r1, %r2, 4, 0
	stw	%r2, %sp, 4

    29f0: 00 00 00 00 21 07 00 00 fc 01 24 00 00 00 0c 70      	! BUNDLE
	ldafr	%r4, 0
	stw	%r1, %sp, 0
	callr	%r3, 0

		00000000000029f0:  R_POSTRISC_A_PCREL_FWD	.L.str.7
		00000000000029f0:  R_POSTRISC_C_JUMP	printf
    2a00: 40 00 00 80 40 00 00 00 00 00 01 00 00 00 00 04      	! BUNDLE
	retf	16
	nop	0
	nop	0


0000000000002a10 <test_bit_i32_3>:
    2a10: 40 00 80 02 41 80 22 c0 05 81 00 01 00 f0 0b 90      	! BUNDLE
	allocsp	5, 16
	nulbs	%r1, %r2, 4, 0
	stw	%r2, %sp, 4

    2a20: 00 00 00 00 21 07 00 00 fc 01 24 00 00 00 0c 70      	! BUNDLE
	ldafr	%r4, 0
	stw	%r1, %sp, 0
	callr	%r3, 0

		0000000000002a20:  R_POSTRISC_A_PCREL_FWD	.L.str.8
		0000000000002a20:  R_POSTRISC_C_JUMP	printf
    2a30: 40 00 00 80 40 00 00 00 00 00 01 00 00 00 00 04      	! BUNDLE
	retf	16
	nop	0
	nop	0


0000000000002a40 <test_bit_i32_4>:
    2a40: 40 00 80 02 41 80 22 a0 1f 81 00 01 00 f0 0b 90      	! BUNDLE
	allocsp	5, 16
	nulbci	%r1, 15, 4, 0
	stw	%r2, %sp, 4

    2a50: 00 00 00 00 21 07 00 00 fc 01 24 00 00 00 0c 70      	! BUNDLE
	ldafr	%r4, 0
	stw	%r1, %sp, 0
	callr	%r3, 0

		0000000000002a50:  R_POSTRISC_A_PCREL_FWD	.L.str.9
		0000000000002a50:  R_POSTRISC_C_JUMP	printf
    2a60: 40 00 00 80 40 00 00 00 00 00 01 00 00 00 00 04      	! BUNDLE
	retf	16
	nop	0
	nop	0


0000000000002a70 <test_bit_i32_5>:
    2a70: 40 00 80 02 41 80 22 e0 1d 81 00 01 00 f0 0b 90      	! BUNDLE
	allocsp	5, 16
	nulbsi	%r1, 14, 4, 0
	stw	%r2, %sp, 4

    2a80: 00 00 00 00 21 07 00 00 fc 01 24 00 00 00 0c 70      	! BUNDLE
	ldafr	%r4, 0
	stw	%r1, %sp, 0
	callr	%r3, 0

		0000000000002a80:  R_POSTRISC_A_PCREL_FWD	.L.str.10
		0000000000002a80:  R_POSTRISC_C_JUMP	printf
    2a90: 40 00 00 80 40 00 00 00 00 00 01 00 00 00 00 04      	! BUNDLE
	retf	16
	nop	0
	nop	0


0000000000002aa0 <test_ball>:
    2aa0: 40 00 80 02 41 10 00 00 02 02 00 8b 00 80 06 02      	! BUNDLE
	allocsp	5, 16
	mov	%r2, %r1
	nulmall	%r1, 80, 4, 0

    2ab0: 40 1f 00 41 00 02 00 00 00 84 1c 00 00 f0 07 96      	! BUNDLE
	addi	%r1, %r2, 2000
	ldafr	%r4, 0
	std	%r1, %sp, 0

		0000000000002ab0:  R_POSTRISC_B_PCREL_FWD	.L.str.11
    2ac0: 00 00 00 c0 00 d7 22 00 00 82 00 e2 04 08 04 20      	! BUNDLE
	callr	%r3, 0
	nulmnotall	%r2, 0, 4, 0
	addi	%r1, %r1, 5000

		0000000000002ac0:  R_POSTRISC_A_JUMP	printf
    2ad0: 00 00 00 00 21 07 00 00 fc 81 25 00 00 00 0c 70      	! BUNDLE
	ldafr	%r4, 0
	std	%r1, %sp, 0
	callr	%r3, 0

		0000000000002ad0:  R_POSTRISC_A_PCREL_FWD	.L.str.11
		0000000000002ad0:  R_POSTRISC_C_JUMP	printf
    2ae0: b8 08 00 80 20 80 bb 00 02 01 08 00 00 00 10 72      	! BUNDLE
	nulmnone	%r2, 0, 4, 0
	addi	%r1, %r1, 3000
	ldafr	%r4, 0

		0000000000002ae0:  R_POSTRISC_C_PCREL_FWD	.L.str.11
    2af0: 00 00 00 7f 60 09 00 00 00 03 dc 8b 00 00 0a 02      	! BUNDLE
	std	%r1, %sp, 0
	callr	%r3, 0
	nulmany	%r2, 64, 4, 0

		0000000000002af0:  R_POSTRISC_B_JUMP	printf
    2b00: 80 3e 80 40 00 02 00 00 00 84 1c 00 00 f0 07 96      	! BUNDLE
	addi	%r1, %r1, 4000
	ldafr	%r4, 0
	std	%r1, %sp, 0

		0000000000002b00:  R_POSTRISC_B_PCREL_FWD	.L.str.11
    2b10: 00 00 00 c0 00 07 01 00 00 02 01 00 00 00 00 04      	! BUNDLE
	callr	%r3, 0
	retf	16
	nop	0

		0000000000002b10:  R_POSTRISC_A_JUMP	printf

0000000000002b20 <test_builtin_popcount>:
    2b20: 00 00 00 c1 40 a0 06 7c 02 01 00 00 00 00 08 04      	! BUNDLE
	alloc	2
	popc	%r1, %r1, 31
	retf	0


0000000000002b30 <test_builtin_popcountl>:
    2b30: 00 00 00 c1 40 a0 06 fc 02 01 00 00 00 00 08 04      	! BUNDLE
	alloc	2
	popc	%r1, %r1, 63
	retf	0


0000000000002b40 <test_builtin_ctz>:
    2b40: 00 00 00 c1 40 c0 06 7c 02 01 00 00 00 00 08 04      	! BUNDLE
	alloc	2
	cttz	%r1, %r1, 31
	retf	0


0000000000002b50 <test_builtin_ctzl>:
    2b50: 00 00 00 c1 40 c0 06 fc 02 01 00 00 00 00 08 04      	! BUNDLE
	alloc	2
	cttz	%r1, %r1, 63
	retf	0


0000000000002b60 <test_builtin_clz>:
    2b60: 00 00 00 c1 40 b0 06 7c 02 01 00 00 00 00 08 04      	! BUNDLE
	alloc	2
	ctlz	%r1, %r1, 31
	retf	0


0000000000002b70 <test_builtin_clzl>:
    2b70: 00 00 00 c1 40 b0 06 fc 02 01 00 00 00 00 08 04      	! BUNDLE
	alloc	2
	ctlz	%r1, %r1, 63
	retf	0


0000000000002b80 <test_builtin_readcyclecounter>:
    2b80: 00 00 00 c1 40 50 10 5c 00 01 00 00 00 00 08 04      	! BUNDLE
	alloc	2
	mfspr	%r1, %itc
	retf	0


0000000000002b90 <test_builtin_thread_pointer>:
    2b90: 00 00 00 c1 40 10 00 00 f8 01 00 00 00 00 08 04      	! BUNDLE
	alloc	2
	mov	%r1, %tp
	retf	0


0000000000002ba0 <test_builtin_set_thread_pointer>:
    2ba0: 00 00 00 c1 40 10 00 00 02 7c 00 00 00 00 08 04      	! BUNDLE
	alloc	2
	mov	%tp, %r1
	retf	0


0000000000002bb0 <test_frame_buitin>:
    2bb0: 00 00 80 01 41 10 00 00 fa 02 00 00 00 f0 f7 21      	! BUNDLE
	allocsp	3, 0
	mov	%r2, %fp
	addi	%fp, %sp, 0

    2bc0: 80 00 7d 40 00 10 00 00 fa 7e 40 00 00 10 f4 01      	! BUNDLE
	add	%r1, %r0, %fp
	mov	%sp, %fp
	mov	%fp, %r2

    2bd0: 00 00 00 80 40 00 00 00 00 00 01 00 00 00 00 04      	! BUNDLE
	retf	0
	nop	0
	nop	0


0000000000002be0 <test_builtin_stack_pointer>:
    2be0: 00 00 00 c1 40 10 00 00 fc 01 00 00 00 00 08 04      	! BUNDLE
	alloc	2
	mov	%r1, %sp
	retf	0


0000000000002bf0 <test_builtin_bitreverse>:
    2bf0: 40 00 00 03 41 40 02 04 04 01 40 1b f0 09 0c 00      	! BUNDLE
	allocsp	6, 16
	addws	%r1, %r2, %r1
	permb	%r3, %r1, 31

    2c00: 00 00 00 40 21 07 00 00 fc 03 24 00 00 00 10 70      	! BUNDLE
	ldafr	%r5, 0
	stw	%r3, %sp, 0
	callr	%r4, 0

		0000000000002c00:  R_POSTRISC_A_PCREL_FWD	.L.str.12
		0000000000002c00:  R_POSTRISC_C_JUMP	printf
    2c10: 34 01 00 41 00 b0 00 00 02 01 48 1b f0 0b 08 00      	! BUNDLE
	srawi	%r1, %r2, 0
	addi	%r1, %r1, 11
	permb	%r2, %r1, 63

    2c20: 00 00 00 40 21 07 00 00 fc 82 25 00 00 00 10 70      	! BUNDLE
	ldafr	%r5, 0
	std	%r2, %sp, 0
	callr	%r4, 0

		0000000000002c20:  R_POSTRISC_A_PCREL_FWD	.L.str.13
		0000000000002c20:  R_POSTRISC_C_JUMP	printf
    2c30: 00 18 03 41 20 06 01 00 00 02 01 00 00 00 00 04      	! BUNDLE
	ldax.ws	%r1, %r2, %r3, 0, 0
	retf	16
	nop	0


0000000000002c40 <test_builtin_halt>:
    2c40: 00 00 80 c0 40 00 11 00 00 00 00 00 00 00 08 04      	! BUNDLE
	alloc	1
	halt
	retf	0


0000000000002c50 <test_builtin_undef>:
    2c50: 00 00 80 c0 40 00 00 00 00 00 00 00 00 00 08 04      	! BUNDLE
	alloc	1
	undef
	retf	0


0000000000002c60 <test_builtin_rfi>:
    2c60: 00 00 80 c0 40 f0 10 00 00 00 00 00 00 00 08 04      	! BUNDLE
	alloc	1
	rfi
	retf	0


0000000000002c70 <test_builtin_nop>:
    2c70: 00 00 80 c0 40 70 68 2d 01 00 81 00 00 00 00 04      	! BUNDLE
	alloc	1
	nop	1234567
	nop	2

    2c80: 56 7c 41 33 40 a0 4b 9b b6 01 c0 1e 00 00 00 04      	! BUNDLE
	nop.l	123456789123456789
	nop	123

    2c90: ee 01 00 00 40 00 00 00 00 00 00 00 00 00 08 04      	! BUNDLE
	nop.l	123
	retf	0


0000000000002ca0 <test_builtin_tpa>:
    2ca0: 00 00 00 c1 40 10 11 00 02 01 00 00 00 00 08 04      	! BUNDLE
	alloc	2
	tpa	%r1, %r1
	retf	0


0000000000002cb0 <test_builtin_random>:
    2cb0: 00 00 80 c1 40 40 10 00 02 01 00 41 00 f8 0b 00      	! BUNDLE
	alloc	3
	random	%r1, %r1
	random	%r2, %gz

    2cc0: 80 00 01 41 00 00 00 00 00 02 01 00 00 00 00 04      	! BUNDLE
	add	%r1, %r2, %r1
	retf	0
	nop	0


0000000000002cd0 <test_builtin_cache>:
    2cd0: 00 00 00 c1 40 00 00 00 02 11 01 fa 00 08 44 04      	! BUNDLE
	alloc	2
	dcbf	%r1, 0
	dcbf	%r1, 1000

    2ce0: 02 28 eb 40 44 c0 1d 00 00 00 00 00 00 08 40 04      	! BUNDLE
	dcbf.l	%r1, 1000000000
	dcbt	%r1, 0

    2cf0: a1 0f 80 00 44 00 a0 ac 03 10 01 77 00 00 00 00      	! BUNDLE
	dcbt	%r1, 1000
	dcbt.l	%r1, 1000000000

    2d00: 00 00 80 80 44 80 3e 00 02 12 81 00 00 00 00 04      	! BUNDLE
	dcbi	%r1, 0
	dcbi	%r1, 1000
	nop	2

    2d10: 02 28 eb 80 44 c0 1d 00 00 00 00 00 00 08 4c 04      	! BUNDLE
	dcbi.l	%r1, 1000000000
	icbi	%r1, 0

    2d20: a1 0f 80 c0 44 00 a0 ac 03 13 01 77 00 00 00 00      	! BUNDLE
	icbi	%r1, 1000
	icbi.l	%r1, 1000000000

    2d30: 00 00 00 80 40 00 00 00 00 00 01 00 00 00 00 04      	! BUNDLE
	retf	0
	nop	0
	nop	0


0000000000002d40 <test_builtin_get_special_reg>:
    2d40: 00 00 80 c1 40 50 10 00 00 02 00 00 00 00 04 70      	! BUNDLE
	alloc	3
	mfspr	%r2, %ip
	callr	%r1, 0

		0000000000002d40:  R_POSTRISC_C_JUMP	consume_sr64
    2d50: 14 04 01 80 00 00 00 00 00 01 5c 41 20 00 08 00      	! BUNDLE
	mfspr	%r2, %eip
	callr	%r1, 0
	mfspr	%r2, %fpcr

		0000000000002d50:  R_POSTRISC_B_JUMP	consume_sr64
    2d60: 00 00 00 40 00 57 10 0c 00 02 00 00 00 00 04 70      	! BUNDLE
	callr	%r1, 0
	mfspr	%r2, %eca
	callr	%r1, 0

		0000000000002d60:  R_POSTRISC_A_JUMP	consume_sr64
		0000000000002d60:  R_POSTRISC_C_JUMP	consume_sr64
    2d70: 14 04 08 80 00 00 00 00 00 01 5c 41 90 00 08 00      	! BUNDLE
	mfspr	%r2, %rsc
	callr	%r1, 0
	mfspr	%r2, %rsp

		0000000000002d70:  R_POSTRISC_B_JUMP	consume_sr64
    2d80: 00 00 00 40 00 57 10 28 00 02 00 00 00 00 04 70      	! BUNDLE
	callr	%r1, 0
	mfspr	%r2, %bsp
	callr	%r1, 0

		0000000000002d80:  R_POSTRISC_A_JUMP	consume_sr64
		0000000000002d80:  R_POSTRISC_C_JUMP	consume_sr64
    2d90: 14 04 11 80 00 00 00 00 00 01 5c 41 20 01 08 00      	! BUNDLE
	mfspr	%r2, %reip
	callr	%r1, 0
	mfspr	%r2, %kip

		0000000000002d90:  R_POSTRISC_B_JUMP	consume_sr64
    2da0: 00 00 00 40 00 57 10 4c 00 02 00 00 00 00 04 70      	! BUNDLE
	callr	%r1, 0
	mfspr	%r2, %ksp
	callr	%r1, 0

		0000000000002da0:  R_POSTRISC_A_JUMP	consume_sr64
		0000000000002da0:  R_POSTRISC_C_JUMP	consume_sr64
    2db0: 14 04 14 80 00 00 00 00 00 01 5c 41 50 01 08 00      	! BUNDLE
	mfspr	%r2, %krsp
	callr	%r1, 0
	mfspr	%r2, %peb

		0000000000002db0:  R_POSTRISC_B_JUMP	consume_sr64
    2dc0: 00 00 00 40 00 57 10 58 00 02 00 00 00 00 04 70      	! BUNDLE
	callr	%r1, 0
	mfspr	%r2, %teb
	callr	%r1, 0

		0000000000002dc0:  R_POSTRISC_A_JUMP	consume_sr64
		0000000000002dc0:  R_POSTRISC_C_JUMP	consume_sr64
    2dd0: 14 04 17 80 00 00 00 00 00 01 5c 41 80 01 08 00      	! BUNDLE
	mfspr	%r2, %itc
	callr	%r1, 0
	mfspr	%r2, %itm

		0000000000002dd0:  R_POSTRISC_B_JUMP	consume_sr64
    2de0: 00 00 00 40 00 57 10 64 00 02 00 00 00 00 04 70      	! BUNDLE
	callr	%r1, 0
	mfspr	%r2, %pta
	callr	%r1, 0

		0000000000002de0:  R_POSTRISC_A_JUMP	consume_sr64
		0000000000002de0:  R_POSTRISC_C_JUMP	consume_sr64
    2df0: 14 04 1a 80 00 00 00 00 00 01 5c 41 80 02 08 00      	! BUNDLE
	mfspr	%r2, %iva
	callr	%r1, 0
	mfspr	%r2, %iip

		0000000000002df0:  R_POSTRISC_B_JUMP	consume_sr64
    2e00: 00 00 00 40 00 57 10 a4 00 02 00 00 00 00 04 70      	! BUNDLE
	callr	%r1, 0
	mfspr	%r2, %iipa
	callr	%r1, 0

		0000000000002e00:  R_POSTRISC_A_JUMP	consume_sr64
		0000000000002e00:  R_POSTRISC_C_JUMP	consume_sr64
    2e10: 14 04 2b 80 00 00 00 00 00 01 5c 41 c0 02 08 00      	! BUNDLE
	mfspr	%r2, %cause
	callr	%r1, 0
	mfspr	%r2, %ifa

		0000000000002e10:  R_POSTRISC_B_JUMP	consume_sr64
    2e20: 00 00 00 40 00 57 10 00 01 02 00 00 00 00 04 70      	! BUNDLE
	callr	%r1, 0
	mfspr	%r2, %irr0
	callr	%r1, 0

		0000000000002e20:  R_POSTRISC_A_JUMP	consume_sr64
		0000000000002e20:  R_POSTRISC_C_JUMP	consume_sr64
    2e30: 14 04 41 80 00 00 00 00 00 01 5c 41 20 04 08 00      	! BUNDLE
	mfspr	%r2, %irr1
	callr	%r1, 0
	mfspr	%r2, %irr2

		0000000000002e30:  R_POSTRISC_B_JUMP	consume_sr64
    2e40: 00 00 00 40 00 57 10 0c 01 02 00 00 00 00 04 70      	! BUNDLE
	callr	%r1, 0
	mfspr	%r2, %irr3
	callr	%r1, 0

		0000000000002e40:  R_POSTRISC_A_JUMP	consume_sr64
		0000000000002e40:  R_POSTRISC_C_JUMP	consume_sr64
    2e50: 14 04 48 80 00 00 00 00 00 01 5c 41 90 04 08 00      	! BUNDLE
	mfspr	%r2, %isr0
	callr	%r1, 0
	mfspr	%r2, %isr1

		0000000000002e50:  R_POSTRISC_B_JUMP	consume_sr64
    2e60: 00 00 00 40 00 57 10 28 01 02 00 00 00 00 04 70      	! BUNDLE
	callr	%r1, 0
	mfspr	%r2, %isr2
	callr	%r1, 0

		0000000000002e60:  R_POSTRISC_A_JUMP	consume_sr64
		0000000000002e60:  R_POSTRISC_C_JUMP	consume_sr64
    2e70: 14 04 4b 80 00 00 00 00 00 01 5c 41 00 05 08 00      	! BUNDLE
	mfspr	%r2, %isr3
	callr	%r1, 0
	mfspr	%r2, %iv

		0000000000002e70:  R_POSTRISC_B_JUMP	consume_sr64
    2e80: 00 00 00 40 00 57 10 44 01 02 00 00 00 00 04 70      	! BUNDLE
	callr	%r1, 0
	mfspr	%r2, %lid
	callr	%r1, 0

		0000000000002e80:  R_POSTRISC_A_JUMP	consume_sr64
		0000000000002e80:  R_POSTRISC_C_JUMP	consume_sr64
    2e90: 14 04 52 80 00 00 00 00 00 01 5c 41 30 05 08 00      	! BUNDLE
	mfspr	%r2, %tpr
	callr	%r1, 0
	mfspr	%r2, %itcv

		0000000000002e90:  R_POSTRISC_B_JUMP	consume_sr64
    2ea0: 00 00 00 40 00 57 10 50 01 02 00 00 00 00 04 70      	! BUNDLE
	callr	%r1, 0
	mfspr	%r2, %tsv
	callr	%r1, 0

		0000000000002ea0:  R_POSTRISC_A_JUMP	consume_sr64
		0000000000002ea0:  R_POSTRISC_C_JUMP	consume_sr64
    2eb0: 14 04 55 80 00 00 00 00 00 01 5c 41 60 05 08 00      	! BUNDLE
	mfspr	%r2, %pmv
	callr	%r1, 0
	mfspr	%r2, %cmcv

		0000000000002eb0:  R_POSTRISC_B_JUMP	consume_sr64
    2ec0: 00 00 00 40 00 57 10 b4 00 02 00 00 00 00 04 70      	! BUNDLE
	callr	%r1, 0
	mfspr	%r2, %iib
	callr	%r1, 0

		0000000000002ec0:  R_POSTRISC_A_JUMP	consume_sr64
		0000000000002ec0:  R_POSTRISC_C_JUMP	consume_sr128
    2ed0: 14 04 10 80 00 00 00 00 00 01 5c 41 a0 02 08 00      	! BUNDLE
	mfspr	%r2, %psr
	callr	%r1, 0
	mfspr	%r2, %ipsr

		0000000000002ed0:  R_POSTRISC_B_JUMP	consume_sr64
    2ee0: 00 00 00 40 00 07 00 00 00 02 01 00 00 00 00 04      	! BUNDLE
	callr	%r1, 0
	retf	0
	nop	0

		0000000000002ee0:  R_POSTRISC_A_JUMP	consume_sr64

0000000000002ef0 <test_builtin_set_special_reg>:
    2ef0: 00 00 80 c1 40 60 10 00 00 01 80 41 10 00 04 00      	! BUNDLE
	alloc	3
	mtspr	%r1, %ip
	mtspr	%r1, %eip

    2f00: 18 04 02 40 00 60 10 0c 00 01 80 41 80 00 04 00      	! BUNDLE
	mtspr	%r1, %fpcr
	mtspr	%r1, %eca
	mtspr	%r1, %rsc

    2f10: 18 04 09 40 00 60 10 28 00 01 80 41 10 01 04 00      	! BUNDLE
	mtspr	%r1, %rsp
	mtspr	%r1, %bsp
	mtspr	%r1, %reip

    2f20: 18 04 12 40 00 60 10 4c 00 01 80 41 40 01 04 00      	! BUNDLE
	mtspr	%r1, %kip
	mtspr	%r1, %ksp
	mtspr	%r1, %krsp

    2f30: 18 04 15 40 00 60 10 58 00 01 80 41 70 01 04 00      	! BUNDLE
	mtspr	%r1, %peb
	mtspr	%r1, %teb
	mtspr	%r1, %itc

    2f40: 18 04 18 40 00 60 10 64 00 01 80 41 a0 01 04 00      	! BUNDLE
	mtspr	%r1, %itm
	mtspr	%r1, %pta
	mtspr	%r1, %iva

    2f50: 18 04 28 40 00 60 10 a4 00 01 80 41 b0 02 04 00      	! BUNDLE
	mtspr	%r1, %iip
	mtspr	%r1, %iipa
	mtspr	%r1, %cause

    2f60: 18 04 2c 40 00 60 10 00 01 01 80 41 10 04 04 00      	! BUNDLE
	mtspr	%r1, %ifa
	mtspr	%r1, %irr0
	mtspr	%r1, %irr1

    2f70: 18 04 42 40 00 60 10 0c 01 01 80 41 80 04 04 00      	! BUNDLE
	mtspr	%r1, %irr2
	mtspr	%r1, %irr3
	mtspr	%r1, %isr0

    2f80: 18 04 49 40 00 60 10 28 01 01 80 41 b0 04 04 00      	! BUNDLE
	mtspr	%r1, %isr1
	mtspr	%r1, %isr2
	mtspr	%r1, %isr3

    2f90: 18 04 50 40 00 60 10 44 01 01 80 41 20 05 04 00      	! BUNDLE
	mtspr	%r1, %iv
	mtspr	%r1, %lid
	mtspr	%r1, %tpr

    2fa0: 18 04 53 40 00 60 10 50 01 01 80 41 50 05 04 00      	! BUNDLE
	mtspr	%r1, %itcv
	mtspr	%r1, %tsv
	mtspr	%r1, %pmv

    2fb0: 18 04 56 40 00 60 10 40 00 01 80 41 d0 02 08 00      	! BUNDLE
	mtspr	%r1, %cmcv
	mtspr	%r1, %psr
	mtspr	%r2, %iib

    2fc0: 18 04 2a 40 00 00 00 00 00 02 01 00 00 00 00 04      	! BUNDLE
	mtspr	%r1, %ipsr
	retf	0
	nop	0


0000000000002fd0 <test_i128_load_store>:
    2fd0: 00 00 80 c1 40 00 01 00 02 02 26 00 00 08 08 9a      	! BUNDLE
	alloc	3
	ldq	%r2, %r1, 16
	stq	%r2, %r1, 0

    2fe0: c0 00 80 40 80 09 00 00 00 02 01 00 00 00 00 04      	! BUNDLE
	ldq	%r1, %r1, 48
	retf	0
	nop	0


0000000000002ff0 <test_builtin_va>:
    2ff0: 40 00 80 03 41 00 01 00 fc 02 08 01 00 10 08 18      	! BUNDLE
	allocsp	7, 16
	addi	%r2, %sp, 16
	ori	%r2, %r2, 4

    3000: 20 00 00 bf 60 09 01 00 fc 02 a3 47 10 30 14 02      	! BUNDLE
	std	%r2, %sp, 8
	ldwz	%r2, %sp, 16
	mov2	%r5, %r6, %r1, %r2

    3010: 00 00 00 00 01 87 00 00 fc 81 e4 67 00 08 04 02      	! BUNDLE
	callr	%r4, 0
	lddz	%r1, %sp, 8
	algnup	%r1, %r1, 0, 3

		0000000000003010:  R_POSTRISC_A_JUMP	test_builtin_va_consume_i32
    3020: 20 00 80 c0 00 82 00 00 fc 83 25 00 00 08 18 92      	! BUNDLE
	addi	%r3, %r1, 8
	std	%r3, %sp, 8
	lddz	%r6, %r1, 0

    3030: 00 00 00 40 01 87 00 00 fc 81 e4 87 00 08 04 02      	! BUNDLE
	callr	%r5, 0
	lddz	%r1, %sp, 8
	algnup	%r1, %r1, 0, 4

		0000000000003030:  R_POSTRISC_A_JUMP	test_builtin_va_consume_f64
    3040: 40 00 80 c0 00 82 00 00 fc 83 25 00 00 08 18 98      	! BUNDLE
	addi	%r3, %r1, 16
	std	%r3, %sp, 8
	ldq	%r6, %r1, 0

    3050: 00 00 00 40 01 17 00 00 04 01 00 04 00 00 08 04      	! BUNDLE
	callr	%r5, 0
	mov	%r1, %r2
	retf	16

		0000000000003050:  R_POSTRISC_A_JUMP	test_builtin_va_consume_f128

0000000000003060 <test_test_builtin_va>:
    3060: 40 04 00 03 41 00 10 00 fc 83 26 3c 00 f0 07 90      	! BUNDLE
	allocsp	6, 272
	stq	%r3, %sp, 256
	stw	%r1, %sp, 240

    3070: a0 03 00 bf 60 09 0e 00 fc 01 24 34 00 f0 0f 9a      	! BUNDLE
	std	%r2, %sp, 232
	stw	%r1, %sp, 224
	stq	%r3, %sp, 208

    3080: 20 03 00 bf 60 09 0c 00 fc 01 24 2c 00 f0 0f 9a      	! BUNDLE
	std	%r2, %sp, 200
	stw	%r1, %sp, 192
	stq	%r3, %sp, 176

    3090: a0 02 00 bf 60 09 0a 00 fc 01 24 24 00 f0 0f 9a      	! BUNDLE
	std	%r2, %sp, 168
	stw	%r1, %sp, 160
	stq	%r3, %sp, 144

    30a0: 20 02 00 bf 60 09 08 00 fc 01 24 1c 00 f0 0f 9a      	! BUNDLE
	std	%r2, %sp, 136
	stw	%r1, %sp, 128
	stq	%r3, %sp, 112

    30b0: a0 01 00 bf 60 09 06 00 fc 01 24 14 00 f0 0f 9a      	! BUNDLE
	std	%r2, %sp, 104
	stw	%r1, %sp, 96
	stq	%r3, %sp, 80

    30c0: 20 01 00 bf 60 09 04 00 fc 01 24 0c 00 f0 0f 9a      	! BUNDLE
	std	%r2, %sp, 72
	stw	%r1, %sp, 64
	stq	%r3, %sp, 48

    30d0: a0 00 00 bf 60 09 02 00 fc 01 24 04 00 f0 0f 9a      	! BUNDLE
	std	%r2, %sp, 40
	stw	%r1, %sp, 32
	stq	%r3, %sp, 16

    30e0: 20 00 00 bf 60 09 00 00 00 85 1c 00 00 f0 07 90      	! BUNDLE
	std	%r2, %sp, 8
	ldafr	%r5, 0
	stw	%r1, %sp, 0

		00000000000030e0:  R_POSTRISC_B_PCREL_FWD	.L.str.14
    30f0: 00 00 00 00 01 17 00 00 0a 01 00 44 00 00 08 04      	! BUNDLE
	callr	%r4, 0
	mov	%r1, %r5
	retf	272

		00000000000030f0:  R_POSTRISC_A_JUMP	test_builtin_va

0000000000003100 <test_builtin_vector_i8>:
    3100: 00 00 80 c1 40 80 50 08 02 02 80 41 11 10 08 00      	! BUNDLE
	alloc	3
	vaddcb	%r2, %r1, %r2
	vaddob	%r2, %r2, %r1

    3110: 2c 14 01 81 00 a0 50 04 04 02 00 41 11 10 08 00      	! BUNDLE
	vaddssb	%r2, %r2, %r1
	vaddusb	%r2, %r2, %r1
	vaddub	%r2, %r2, %r1

    3120: 3c 14 01 81 00 e0 50 04 04 02 00 44 11 10 08 00      	! BUNDLE
	vavgub	%r2, %r2, %r1
	vavgsb	%r2, %r2, %r1
	vcmpeqb	%r2, %r2, %r1

    3130: 44 14 01 81 00 20 51 04 04 02 00 40 11 10 08 00      	! BUNDLE
	vcmpltb	%r2, %r2, %r1
	vcmpltub	%r2, %r2, %r1
	vmaxsb	%r2, %r2, %r1

    3140: 04 14 01 81 00 20 50 04 04 02 c0 40 11 10 08 00      	! BUNDLE
	vmaxub	%r2, %r2, %r1
	vminsb	%r2, %r2, %r1
	vminub	%r2, %r2, %r1

    3150: 64 14 01 81 00 a0 51 04 04 02 c0 44 11 10 08 00      	! BUNDLE
	vrolb	%r2, %r2, %r1
	vrorb	%r2, %r2, %r1
	vsllb	%r2, %r2, %r1

    3160: 5c 14 01 81 00 50 51 04 04 02 40 42 11 10 08 00      	! BUNDLE
	vsrab	%r2, %r2, %r1
	vsrlb	%r2, %r2, %r1
	vsubbb	%r2, %r2, %r1

    3170: 1c 14 01 81 00 50 50 04 04 02 00 43 11 10 08 00      	! BUNDLE
	vsubob	%r2, %r2, %r1
	vsubub	%r2, %r2, %r1
	vsubssb	%r2, %r2, %r1

    3180: 34 14 01 41 00 00 00 00 00 02 01 00 00 00 00 04      	! BUNDLE
	vsubusb	%r1, %r2, %r1
	retf	0
	nop	0


0000000000003190 <test_builtin_vector_i16>:
    3190: 00 00 80 c1 40 80 58 08 02 02 80 61 11 10 08 00      	! BUNDLE
	alloc	3
	vaddch	%r2, %r1, %r2
	vaddoh	%r2, %r2, %r1

    31a0: 2c 16 01 81 00 a0 58 04 04 02 00 61 11 10 08 00      	! BUNDLE
	vaddssh	%r2, %r2, %r1
	vaddush	%r2, %r2, %r1
	vadduh	%r2, %r2, %r1

    31b0: 3c 16 01 81 00 e0 58 04 04 02 00 64 11 10 08 00      	! BUNDLE
	vavguh	%r2, %r2, %r1
	vavgsh	%r2, %r2, %r1
	vcmpeqh	%r2, %r2, %r1

    31c0: 44 16 01 81 00 20 59 04 04 02 00 60 11 10 08 00      	! BUNDLE
	vcmplth	%r2, %r2, %r1
	vcmpltuh	%r2, %r2, %r1
	vmaxsh	%r2, %r2, %r1

    31d0: 04 16 01 81 00 20 58 04 04 02 c0 60 11 10 08 00      	! BUNDLE
	vmaxuh	%r2, %r2, %r1
	vminsh	%r2, %r2, %r1
	vminuh	%r2, %r2, %r1

    31e0: 64 16 01 81 00 a0 59 04 04 02 c0 64 11 10 08 00      	! BUNDLE
	vrolh	%r2, %r2, %r1
	vrorh	%r2, %r2, %r1
	vsllh	%r2, %r2, %r1

    31f0: 5c 16 01 81 00 50 59 04 04 02 40 62 11 10 08 00      	! BUNDLE
	vsrah	%r2, %r2, %r1
	vsrlh	%r2, %r2, %r1
	vsubbh	%r2, %r2, %r1

    3200: 1c 16 01 81 00 50 58 04 04 02 00 63 11 10 08 00      	! BUNDLE
	vsuboh	%r2, %r2, %r1
	vsubuh	%r2, %r2, %r1
	vsubssh	%r2, %r2, %r1

    3210: 34 16 01 41 00 00 00 00 00 02 01 00 00 00 00 04      	! BUNDLE
	vsubush	%r1, %r2, %r1
	retf	0
	nop	0


0000000000003220 <test_builtin_vector_i32>:
    3220: 00 00 80 c1 40 80 60 08 02 02 80 81 11 10 08 00      	! BUNDLE
	alloc	3
	vaddcw	%r2, %r1, %r2
	vaddow	%r2, %r2, %r1

    3230: 2c 18 01 81 00 a0 60 04 04 02 00 81 11 10 08 00      	! BUNDLE
	vaddssw	%r2, %r2, %r1
	vaddusw	%r2, %r2, %r1
	vadduw	%r2, %r2, %r1

    3240: 3c 18 01 81 00 e0 60 04 04 02 00 84 11 10 08 00      	! BUNDLE
	vavguw	%r2, %r2, %r1
	vavgsw	%r2, %r2, %r1
	vcmpeqw	%r2, %r2, %r1

    3250: 44 18 01 81 00 20 61 04 04 02 00 80 11 10 08 00      	! BUNDLE
	vcmpltw	%r2, %r2, %r1
	vcmpltuw	%r2, %r2, %r1
	vmaxsw	%r2, %r2, %r1

    3260: 04 18 01 81 00 20 60 04 04 02 c0 80 11 10 08 00      	! BUNDLE
	vmaxuw	%r2, %r2, %r1
	vminsw	%r2, %r2, %r1
	vminuw	%r2, %r2, %r1

    3270: 64 18 01 81 00 a0 61 04 04 02 c0 84 11 10 08 00      	! BUNDLE
	vrolw	%r2, %r2, %r1
	vrorw	%r2, %r2, %r1
	vsllw	%r2, %r2, %r1

    3280: 5c 18 01 81 00 50 61 04 04 02 40 82 11 10 08 00      	! BUNDLE
	vsraw	%r2, %r2, %r1
	vsrlw	%r2, %r2, %r1
	vsubbw	%r2, %r2, %r1

    3290: 1c 18 01 81 00 50 60 04 04 02 00 83 11 10 08 00      	! BUNDLE
	vsubow	%r2, %r2, %r1
	vsubuw	%r2, %r2, %r1
	vsubssw	%r2, %r2, %r1

    32a0: 34 18 01 41 00 00 00 00 00 02 01 00 00 00 00 04      	! BUNDLE
	vsubusw	%r1, %r2, %r1
	retf	0
	nop	0


00000000000032b0 <test_builtin_vector_i64>:
    32b0: 00 00 80 c1 40 80 68 08 02 02 80 a1 11 10 08 00      	! BUNDLE
	alloc	3
	vaddcd	%r2, %r1, %r2
	vaddod	%r2, %r2, %r1

    32c0: 2c 1a 01 81 00 a0 68 04 04 02 00 a1 11 10 08 00      	! BUNDLE
	vaddssd	%r2, %r2, %r1
	vaddusd	%r2, %r2, %r1
	vaddud	%r2, %r2, %r1

    32d0: 3c 1a 01 81 00 e0 68 04 04 02 00 a4 11 10 08 00      	! BUNDLE
	vavgud	%r2, %r2, %r1
	vavgsd	%r2, %r2, %r1
	vcmpeqd	%r2, %r2, %r1

    32e0: 44 1a 01 81 00 20 69 04 04 02 00 a0 11 10 08 00      	! BUNDLE
	vcmpltd	%r2, %r2, %r1
	vcmpltud	%r2, %r2, %r1
	vmaxsd	%r2, %r2, %r1

    32f0: 04 1a 01 81 00 20 68 04 04 02 c0 a0 11 10 08 00      	! BUNDLE
	vmaxud	%r2, %r2, %r1
	vminsd	%r2, %r2, %r1
	vminud	%r2, %r2, %r1

    3300: 64 1a 01 81 00 a0 69 04 04 02 c0 a4 11 10 08 00      	! BUNDLE
	vrold	%r2, %r2, %r1
	vrord	%r2, %r2, %r1
	vslld	%r2, %r2, %r1

    3310: 5c 1a 01 81 00 50 69 04 04 02 40 a2 11 10 08 00      	! BUNDLE
	vsrad	%r2, %r2, %r1
	vsrld	%r2, %r2, %r1
	vsubbd	%r2, %r2, %r1

    3320: 1c 1a 01 81 00 50 68 04 04 02 00 a3 11 10 08 00      	! BUNDLE
	vsubod	%r2, %r2, %r1
	vsubud	%r2, %r2, %r1
	vsubssd	%r2, %r2, %r1

    3330: 34 1a 01 41 00 00 00 00 00 02 01 00 00 00 00 04      	! BUNDLE
	vsubusd	%r1, %r2, %r1
	retf	0
	nop	0


0000000000003340 <test_builtin_vector_mixed>:
    3340: 00 00 80 c4 40 b0 51 08 02 01 00 47 21 08 04 00      	! BUNDLE
	alloc	9
	vmrghb	%r1, %r1, %r2
	vmrglb	%r1, %r1, %r2

    3350: 6c 16 84 40 00 c0 59 10 02 01 c0 86 61 08 04 00      	! BUNDLE
	vmrghh	%r1, %r1, %r4
	vmrglh	%r1, %r1, %r4
	vmrghw	%r1, %r1, %r6

    3360: 70 18 86 40 00 b0 69 20 02 01 00 a7 81 08 04 00      	! BUNDLE
	vmrglw	%r1, %r1, %r6
	vmrghd	%r1, %r1, %r8
	vmrgld	%r1, %r1, %r8

    3370: 88 16 87 40 00 20 62 14 02 01 40 a8 71 08 04 00      	! BUNDLE
	vpksssh	%r1, %r1, %r7
	vpksssw	%r1, %r1, %r5
	vpksssd	%r1, %r1, %r7

    3380: 8c 16 83 40 00 30 62 18 02 01 80 a8 81 08 04 00      	! BUNDLE
	vpksush	%r1, %r1, %r3
	vpksusw	%r1, %r1, %r6
	vpksusd	%r1, %r1, %r8

    3390: 90 16 84 40 00 40 62 18 02 01 00 a9 81 08 04 00      	! BUNDLE
	vpkuumh	%r1, %r1, %r4
	vpkuumw	%r1, %r1, %r6
	vpkuumd	%r1, %r1, %r8

    33a0: 94 16 84 40 00 50 62 18 02 01 40 a9 81 08 04 00      	! BUNDLE
	vpkuush	%r1, %r1, %r4
	vpkuusw	%r1, %r1, %r6
	vpkuusd	%r1, %r1, %r8

    33b0: 84 14 80 40 00 10 5a 00 02 01 40 88 01 08 04 00      	! BUNDLE
	vupkhsb	%r1, %r1
	vupkhsh	%r1, %r1
	vupkhsw	%r1, %r1

    33c0: 80 14 80 40 00 00 5a 00 02 01 00 88 01 08 04 00      	! BUNDLE
	vupklsb	%r1, %r1
	vupklsh	%r1, %r1
	vupklsw	%r1, %r1

    33d0: 00 00 00 80 40 00 00 00 00 00 01 00 00 00 00 04      	! BUNDLE
	retf	0
	nop	0
	nop	0


00000000000033e0 <test_clmul>:
    33e0: 00 00 00 c2 40 00 12 08 02 03 40 48 30 08 04 00      	! BUNDLE
	alloc	4
	clmulll	%r3, %r1, %r2
	clmulhl	%r1, %r1, %r3

    33f0: 88 04 82 40 00 00 00 00 00 02 01 00 00 00 00 04      	! BUNDLE
	clmulhh	%r1, %r1, %r2
	retf	0
	nop	0


0000000000003400 <test_bool_eq>:
    3400: 00 00 80 c1 40 a0 01 08 02 01 40 00 00 08 04 1a      	! BUNDLE
	alloc	3
	xor	%r1, %r1, %r2
	xori	%r1, %r1, 1

    3410: 00 00 00 80 40 00 00 00 00 00 01 00 00 00 00 04      	! BUNDLE
	retf	0
	nop	0
	nop	0


0000000000003420 <test_bool_ne>:
    3420: 00 00 80 c1 40 a0 01 08 02 01 00 00 00 00 08 04      	! BUNDLE
	alloc	3
	xor	%r1, %r1, %r2
	retf	0


0000000000003430 <test_bool_lt>:
    3430: 00 00 80 c1 40 10 00 00 02 81 06 06 10 10 04 00      	! BUNDLE
	alloc	3
	xori	%r1, %r1, 1
	and	%r1, %r2, %r1

    3440: 00 00 00 80 40 00 00 00 00 00 01 00 00 00 00 04      	! BUNDLE
	retf	0
	nop	0
	nop	0


0000000000003450 <test_bool_le>:
    3450: 00 00 80 c1 40 10 00 00 02 81 46 06 10 10 04 00      	! BUNDLE
	alloc	3
	xori	%r1, %r1, 1
	or	%r1, %r2, %r1

    3460: 00 00 00 80 40 00 00 00 00 00 01 00 00 00 00 04      	! BUNDLE
	retf	0
	nop	0
	nop	0


0000000000003470 <test_bool_gt>:
    3470: 00 00 80 c1 40 10 00 00 04 82 06 06 20 08 04 00      	! BUNDLE
	alloc	3
	xori	%r2, %r2, 1
	and	%r1, %r1, %r2

    3480: 00 00 00 80 40 00 00 00 00 00 01 00 00 00 00 04      	! BUNDLE
	retf	0
	nop	0
	nop	0


0000000000003490 <test_bool_ge>:
    3490: 00 00 80 c1 40 10 00 00 04 82 46 06 20 08 04 00      	! BUNDLE
	alloc	3
	xori	%r2, %r2, 1
	or	%r1, %r1, %r2

    34a0: 00 00 00 80 40 00 00 00 00 00 01 00 00 00 00 04      	! BUNDLE
	retf	0
	nop	0
	nop	0


00000000000034b0 <test_ptr_eq>:
    34b0: 00 00 80 c1 40 80 00 08 02 01 00 00 00 00 08 04      	! BUNDLE
	alloc	3
	cmpdeq	%r1, %r1, %r2
	retf	0


00000000000034c0 <test_ptr_ne>:
    34c0: 00 00 80 c1 40 90 00 08 02 01 00 00 00 00 08 04      	! BUNDLE
	alloc	3
	cmpdne	%r1, %r1, %r2
	retf	0


00000000000034d0 <test_ptr_lt>:
    34d0: 00 00 80 c1 40 c0 00 08 02 01 00 00 00 00 08 04      	! BUNDLE
	alloc	3
	cmpdltu	%r1, %r1, %r2
	retf	0


00000000000034e0 <test_ptr_le>:
    34e0: 00 00 80 c1 40 d0 00 08 02 01 00 00 00 00 08 04      	! BUNDLE
	alloc	3
	cmpdleu	%r1, %r1, %r2
	retf	0


00000000000034f0 <test_ptr_gt>:
    34f0: 00 00 80 c1 40 c0 00 04 04 01 00 00 00 00 08 04      	! BUNDLE
	alloc	3
	cmpdltu	%r1, %r2, %r1
	retf	0


0000000000003500 <test_ptr_ge>:
    3500: 00 00 80 c1 40 d0 00 04 04 01 00 00 00 00 08 04      	! BUNDLE
	alloc	3
	cmpdleu	%r1, %r2, %r1
	retf	0


0000000000003510 <test_i64_eq>:
    3510: 00 00 80 c1 40 80 00 08 02 01 00 00 00 00 08 04      	! BUNDLE
	alloc	3
	cmpdeq	%r1, %r1, %r2
	retf	0


0000000000003520 <test_i64_ne>:
    3520: 00 00 80 c1 40 90 00 08 02 01 00 00 00 00 08 04      	! BUNDLE
	alloc	3
	cmpdne	%r1, %r1, %r2
	retf	0


0000000000003530 <test_i64_lt>:
    3530: 00 00 80 c1 40 a0 00 08 02 01 00 00 00 00 08 04      	! BUNDLE
	alloc	3
	cmpdlt	%r1, %r1, %r2
	retf	0


0000000000003540 <test_i64_le>:
    3540: 00 00 80 c1 40 b0 00 08 02 01 00 00 00 00 08 04      	! BUNDLE
	alloc	3
	cmpdle	%r1, %r1, %r2
	retf	0


0000000000003550 <test_i64_gt>:
    3550: 00 00 80 c1 40 a0 00 04 04 01 00 00 00 00 08 04      	! BUNDLE
	alloc	3
	cmpdlt	%r1, %r2, %r1
	retf	0


0000000000003560 <test_i64_ge>:
    3560: 00 00 80 c1 40 b0 00 04 04 01 00 00 00 00 08 04      	! BUNDLE
	alloc	3
	cmpdle	%r1, %r2, %r1
	retf	0


0000000000003570 <test_u64_lt>:
    3570: 00 00 80 c1 40 c0 00 08 02 01 00 00 00 00 08 04      	! BUNDLE
	alloc	3
	cmpdltu	%r1, %r1, %r2
	retf	0


0000000000003580 <test_u64_le>:
    3580: 00 00 80 c1 40 d0 00 08 02 01 00 00 00 00 08 04      	! BUNDLE
	alloc	3
	cmpdleu	%r1, %r1, %r2
	retf	0


0000000000003590 <test_u64_gt>:
    3590: 00 00 80 c1 40 c0 00 04 04 01 00 00 00 00 08 04      	! BUNDLE
	alloc	3
	cmpdltu	%r1, %r2, %r1
	retf	0


00000000000035a0 <test_u64_ge>:
    35a0: 00 00 80 c1 40 d0 00 04 04 01 00 00 00 00 08 04      	! BUNDLE
	alloc	3
	cmpdleu	%r1, %r2, %r1
	retf	0


00000000000035b0 <test_i64_eq_imm>:
    35b0: 00 00 00 c1 40 20 4d 00 02 01 10 00 00 00 08 04      	! BUNDLE
	alloc	2
	cmpdeqi	%r1, %r1, 1234
	retf	0


00000000000035c0 <test_i64_ne_imm>:
    35c0: 00 00 00 c1 40 20 4d 00 02 81 10 00 00 00 08 04      	! BUNDLE
	alloc	2
	cmpdnei	%r1, %r1, 1234
	retf	0


00000000000035d0 <test_i64_lt_imm>:
    35d0: 00 00 00 c1 40 20 4d 00 02 01 11 00 00 00 08 04      	! BUNDLE
	alloc	2
	cmpdlti	%r1, %r1, 1234
	retf	0


00000000000035e0 <test_i64_gt_imm>:
    35e0: 00 00 00 c1 40 20 4d 00 02 01 12 00 00 00 08 04      	! BUNDLE
	alloc	2
	cmpdgti	%r1, %r1, 1234
	retf	0


00000000000035f0 <test_i64_le_imm>:
    35f0: 00 00 00 c1 40 30 4d 00 02 01 11 00 00 00 08 04      	! BUNDLE
	alloc	2
	cmpdlti	%r1, %r1, 1235
	retf	0


0000000000003600 <test_i64_ge_imm>:
    3600: 00 00 00 c1 40 10 4d 00 02 01 12 00 00 00 08 04      	! BUNDLE
	alloc	2
	cmpdgti	%r1, %r1, 1233
	retf	0


0000000000003610 <test_u64_lt_imm>:
    3610: 00 00 00 c1 40 20 4d 00 02 81 11 00 00 00 08 04      	! BUNDLE
	alloc	2
	cmpdltui	%r1, %r1, 1234
	retf	0


0000000000003620 <test_u64_gt_imm>:
    3620: 00 00 00 c1 40 20 4d 00 02 81 12 00 00 00 08 04      	! BUNDLE
	alloc	2
	cmpdgtui	%r1, %r1, 1234
	retf	0


0000000000003630 <test_u64_le_imm>:
    3630: 00 00 00 c1 40 30 4d 00 02 81 11 00 00 00 08 04      	! BUNDLE
	alloc	2
	cmpdltui	%r1, %r1, 1235
	retf	0


0000000000003640 <test_u64_ge_imm>:
    3640: 00 00 00 c1 40 10 4d 00 02 81 12 00 00 00 08 04      	! BUNDLE
	alloc	2
	cmpdgtui	%r1, %r1, 1233
	retf	0


0000000000003650 <test_i32_eq>:
    3650: 00 00 80 c1 40 00 01 08 02 01 00 00 00 00 08 04      	! BUNDLE
	alloc	3
	cmpweq	%r1, %r1, %r2
	retf	0


0000000000003660 <test_i32_ne>:
    3660: 00 00 80 c1 40 10 01 08 02 01 00 00 00 00 08 04      	! BUNDLE
	alloc	3
	cmpwne	%r1, %r1, %r2
	retf	0


0000000000003670 <test_i32_lt>:
    3670: 00 00 80 c1 40 20 01 08 02 01 00 00 00 00 08 04      	! BUNDLE
	alloc	3
	cmpwlt	%r1, %r1, %r2
	retf	0


0000000000003680 <test_i32_le>:
    3680: 00 00 80 c1 40 30 01 08 02 01 00 00 00 00 08 04      	! BUNDLE
	alloc	3
	cmpwle	%r1, %r1, %r2
	retf	0


0000000000003690 <test_i32_gt>:
    3690: 00 00 80 c1 40 20 01 04 04 01 00 00 00 00 08 04      	! BUNDLE
	alloc	3
	cmpwlt	%r1, %r2, %r1
	retf	0


00000000000036a0 <test_i32_ge>:
    36a0: 00 00 80 c1 40 30 01 04 04 01 00 00 00 00 08 04      	! BUNDLE
	alloc	3
	cmpwle	%r1, %r2, %r1
	retf	0


00000000000036b0 <test_u32_lt>:
    36b0: 00 00 80 c1 40 40 01 08 02 01 00 00 00 00 08 04      	! BUNDLE
	alloc	3
	cmpwltu	%r1, %r1, %r2
	retf	0


00000000000036c0 <test_u32_le>:
    36c0: 00 00 80 c1 40 50 01 08 02 01 00 00 00 00 08 04      	! BUNDLE
	alloc	3
	cmpwleu	%r1, %r1, %r2
	retf	0


00000000000036d0 <test_u32_gt>:
    36d0: 00 00 80 c1 40 40 01 04 04 01 00 00 00 00 08 04      	! BUNDLE
	alloc	3
	cmpwltu	%r1, %r2, %r1
	retf	0


00000000000036e0 <test_u32_ge>:
    36e0: 00 00 80 c1 40 50 01 04 04 01 00 00 00 00 08 04      	! BUNDLE
	alloc	3
	cmpwleu	%r1, %r2, %r1
	retf	0


00000000000036f0 <test_i32_eq_imm>:
    36f0: 00 00 00 c1 40 20 4d 00 02 01 14 00 00 00 08 04      	! BUNDLE
	alloc	2
	cmpweqi	%r1, %r1, 1234
	retf	0


0000000000003700 <test_i32_ne_imm>:
    3700: 00 00 00 c1 40 20 4d 00 02 81 14 00 00 00 08 04      	! BUNDLE
	alloc	2
	cmpwnei	%r1, %r1, 1234
	retf	0


0000000000003710 <test_i32_lt_imm>:
    3710: 00 00 00 c1 40 20 4d 00 02 01 15 00 00 00 08 04      	! BUNDLE
	alloc	2
	cmpwlti	%r1, %r1, 1234
	retf	0


0000000000003720 <test_i32_gt_imm>:
    3720: 00 00 00 c1 40 20 4d 00 02 01 16 00 00 00 08 04      	! BUNDLE
	alloc	2
	cmpwgti	%r1, %r1, 1234
	retf	0


0000000000003730 <test_i32_le_imm>:
    3730: 00 00 00 c1 40 30 4d 00 02 01 15 00 00 00 08 04      	! BUNDLE
	alloc	2
	cmpwlti	%r1, %r1, 1235
	retf	0


0000000000003740 <test_i32_ge_imm>:
    3740: 00 00 00 c1 40 10 4d 00 02 01 16 00 00 00 08 04      	! BUNDLE
	alloc	2
	cmpwgti	%r1, %r1, 1233
	retf	0


0000000000003750 <test_u32_lt_imm>:
    3750: 00 00 00 c1 40 20 4d 00 02 81 15 00 00 00 08 04      	! BUNDLE
	alloc	2
	cmpwltui	%r1, %r1, 1234
	retf	0


0000000000003760 <test_u32_gt_imm>:
    3760: 00 00 00 c1 40 20 4d 00 02 81 16 00 00 00 08 04      	! BUNDLE
	alloc	2
	cmpwgtui	%r1, %r1, 1234
	retf	0


0000000000003770 <test_u32_le_imm>:
    3770: 00 00 00 c1 40 30 4d 00 02 81 15 00 00 00 08 04      	! BUNDLE
	alloc	2
	cmpwltui	%r1, %r1, 1235
	retf	0


0000000000003780 <test_u32_ge_imm>:
    3780: 00 00 00 c1 40 10 4d 00 02 81 16 00 00 00 08 04      	! BUNDLE
	alloc	2
	cmpwgtui	%r1, %r1, 1233
	retf	0


0000000000003790 <test_cpuid>:
    3790: 00 00 00 c2 40 10 90 10 02 02 40 40 00 08 0c 00      	! BUNDLE
	alloc	4
	cpuid	%r2, %r1, 33
	cpuid	%r3, %r1, 0

    37a0: 40 9c 80 40 00 12 10 00 02 01 00 20 20 18 04 02      	! BUNDLE
	addi	%r1, %r1, 10000
	cpuid	%r1, %r1, 0
	addadd	%r1, %r3, %r2, %r1

    37b0: 00 00 00 80 40 00 00 00 00 00 01 00 00 00 00 04      	! BUNDLE
	retf	0
	nop	0
	nop	0


00000000000037c0 <test_crc32c>:
    37c0: 00 00 00 c2 40 10 1a 08 02 81 00 00 00 00 08 04      	! BUNDLE
	alloc	4
	crc32c	%r1, %r1, %r2, %r3
	retf	0


00000000000037d0 <TestDebugRegisters>:
    37d0: 00 00 80 c1 40 c0 90 00 02 02 c0 42 02 08 08 00      	! BUNDLE
	alloc	3
	mfmr	%r2, %r1, 1
	mtmr	%r2, %r1, 1

    37e0: 28 44 80 80 00 90 90 00 02 02 00 42 02 08 08 00      	! BUNDLE
	mfibr	%r2, %r1, 2
	mtibr	%r2, %r1, 1
	mfdbr	%r2, %r1, 1

    37f0: 1c 44 80 80 00 00 00 00 00 02 01 00 00 00 00 04      	! BUNDLE
	mtdbr	%r2, %r1, 2
	retf	0
	nop	0


0000000000003800 <test_fma_f16>:
    3800: 00 00 00 c2 40 90 1b 08 02 83 c0 6e 20 08 0c 02      	! BUNDLE
	alloc	4
	fmaddsh	%r3, %r1, %r2, %r3
	fnmaddsh	%r3, %r1, %r2, %r3

    3810: e8 06 82 80 20 c0 13 08 02 81 00 00 00 00 08 04      	! BUNDLE
	fmsubsh	%r2, %r1, %r2, %r3
	fnmsubsh	%r1, %r1, %r2, %r2
	retf	0


0000000000003820 <test_fma_f32>:
    3820: 00 00 00 c2 40 10 1c 08 02 83 c0 70 20 08 0c 02      	! BUNDLE
	alloc	4
	fmaddss	%r3, %r1, %r2, %r3
	fnmaddss	%r3, %r1, %r2, %r3

    3830: 08 07 82 80 20 40 14 08 02 81 00 00 00 00 08 04      	! BUNDLE
	fmsubss	%r2, %r1, %r2, %r3
	fnmsubss	%r1, %r1, %r2, %r2
	retf	0


0000000000003840 <test_fma_f64>:
    3840: 00 00 00 c2 40 90 1c 08 02 83 c0 72 20 08 0c 02      	! BUNDLE
	alloc	4
	fmaddsd	%r3, %r1, %r2, %r3
	fnmaddsd	%r3, %r1, %r2, %r3

    3850: 28 07 82 80 20 c0 14 08 02 81 00 00 00 00 08 04      	! BUNDLE
	fmsubsd	%r2, %r1, %r2, %r3
	fnmsubsd	%r1, %r1, %r2, %r2
	retf	0


0000000000003860 <test_fma_f128>:
    3860: 00 00 00 c2 40 10 1d 08 02 83 c0 74 20 08 0c 02      	! BUNDLE
	alloc	4
	fmaddsq	%r3, %r1, %r2, %r3
	fnmaddsq	%r3, %r1, %r2, %r3

    3870: 48 07 82 80 20 40 15 08 02 81 00 00 00 00 08 04      	! BUNDLE
	fmsubsq	%r2, %r1, %r2, %r3
	fnmsubsq	%r1, %r1, %r2, %r2
	retf	0


0000000000003880 <test_fma_v8f16>:
    3880: 00 00 00 c2 40 90 1f 08 02 83 c0 7e 20 08 0c 02      	! BUNDLE
	alloc	4
	fmaddph	%r3, %r1, %r2, %r3
	fnmaddph	%r3, %r1, %r2, %r3

    3890: e8 07 82 80 20 c0 17 08 02 81 00 00 00 00 08 04      	! BUNDLE
	fmsubph	%r2, %r1, %r2, %r3
	fnmsubph	%r1, %r1, %r2, %r2
	retf	0


00000000000038a0 <test_fma_v4f32>:
    38a0: 00 00 00 c2 40 90 1d 08 02 83 c0 76 20 08 0c 02      	! BUNDLE
	alloc	4
	fmaddps	%r3, %r1, %r2, %r3
	fnmaddps	%r3, %r1, %r2, %r3

    38b0: 68 07 82 80 20 c0 15 08 02 81 00 00 00 00 08 04      	! BUNDLE
	fmsubps	%r2, %r1, %r2, %r3
	fnmsubps	%r1, %r1, %r2, %r2
	retf	0


00000000000038c0 <test_fma_v2f64>:
    38c0: 00 00 00 c2 40 10 1e 08 02 83 c0 78 20 08 0c 02      	! BUNDLE
	alloc	4
	fmaddpd	%r3, %r1, %r2, %r3
	fnmaddpd	%r3, %r1, %r2, %r3

    38d0: 88 07 82 80 20 40 16 08 02 81 00 00 00 00 08 04      	! BUNDLE
	fmsubpd	%r2, %r1, %r2, %r3
	fnmsubpd	%r1, %r1, %r2, %r2
	retf	0


00000000000038e0 <ffff>:
    38e0: 00 00 80 c1 40 00 00 00 fc 81 24 00 00 08 08 8c      	! BUNDLE
	alloc	3
	lddz	%r1, %sp, 0
	ldwz	%r2, %r1, 0

    38f0: 10 00 80 40 c0 38 30 08 02 01 00 00 00 00 08 04      	! BUNDLE
	ldwz	%r1, %r1, 4
	faddss	%r1, %r1, %r2
	retf	0


0000000000003900 <i64_test>:
    3900: 80 01 80 05 41 00 02 04 04 03 00 16 00 f0 0f 96      	! BUNDLE
	allocsp	11, 96
	add	%r3, %r2, %r1
	std	%r3, %sp, 88

    3910: 84 00 82 c0 00 00 05 00 fc 83 25 fa 00 10 0c 26      	! BUNDLE
	sub	%r3, %r1, %r2
	std	%r3, %sp, 80
	subfi	%r3, %r2, 1000

    3920: 21 01 00 ff 60 09 a0 ac 05 83 09 77 00 00 00 00      	! BUNDLE
	std	%r3, %sp, 72
	subfi.l	%r3, %r2, 1000000000

    3930: 00 01 00 ff 60 c9 f9 ff 03 03 08 0e 00 f0 0f 96      	! BUNDLE
	std	%r3, %sp, 64
	addi	%r3, %r1, -100
	std	%r3, %sp, 56

    3940: c0 00 00 ff 60 89 05 00 fc 83 24 14 00 f0 13 92      	! BUNDLE
	std	%r3, %sp, 48
	lddz	%r3, %sp, 88
	lddz	%r4, %sp, 80

    3950: 20 01 00 7f 21 09 04 00 fc 86 24 0e 00 f0 1f 92      	! BUNDLE
	lddz	%r5, %sp, 72
	lddz	%r6, %sp, 64
	lddz	%r7, %sp, 56

    3960: c0 00 00 3f 22 09 38 14 08 84 40 80 60 18 0c 02      	! BUNDLE
	lddz	%r8, %sp, 48
	addadd	%r4, %r4, %r5, %r7
	addsub	%r3, %r3, %r6, %r4

    3970: 80 00 88 c1 00 80 02 00 fc 83 25 02 80 09 08 06      	! BUNDLE
	add	%r3, %r3, %r8
	std	%r3, %sp, 40
	bdle	%r2, %r1, 128

    3980: 60 01 00 bf 20 79 00 60 02 82 01 0a 00 f0 07 92      	! BUNDLE
	lddz	%r2, %sp, 88
	bdle	%r2, %r1, 112
	lddz	%r1, %sp, 40

    3990: fc ff ff 40 00 02 00 00 00 8a 1c 00 00 f0 07 96      	! BUNDLE
	addi	%r1, %r1, -1
	ldafr	%r10, 0
	std	%r1, %sp, 0

		0000000000003990:  R_POSTRISC_B_PCREL_FWD	.L.str.15
    39a0: 00 00 00 40 02 87 05 00 fc 81 24 14 00 f0 0b 92      	! BUNDLE
	callr	%r9, 0
	lddz	%r1, %sp, 88
	lddz	%r2, %sp, 80

		00000000000039a0:  R_POSTRISC_A_JUMP	printf
    39b0: 00 01 00 ff 20 19 18 04 04 81 00 08 00 f0 07 96      	! BUNDLE
	lddz	%r3, %sp, 64
	addsub	%r1, %r2, %r1, %r3
	std	%r1, %sp, 32

    39c0: 60 01 00 7f 20 09 05 00 fc 82 24 10 00 f0 0f 92      	! BUNDLE
	lddz	%r1, %sp, 88
	lddz	%r2, %sp, 80
	lddz	%r3, %sp, 64

    39d0: 08 06 82 40 20 80 01 00 fc 81 25 0a 00 f0 07 92      	! BUNDLE
	subsub	%r1, %r1, %r2, %r3
	std	%r1, %sp, 24
	lddz	%r1, %sp, 40

    39e0: 80 01 00 80 40 00 00 00 00 00 01 00 00 00 00 04      	! BUNDLE
	retf	96
	nop	0
	nop	0

    39f0: a0 00 00 7f 20 19 00 00 02 01 08 00 00 00 28 72      	! BUNDLE
	lddz	%r1, %sp, 40
	addi	%r1, %r1, 1
	ldafr	%r10, 0

		00000000000039f0:  R_POSTRISC_C_PCREL_FWD	.L.str.16
    3a00: 00 00 00 7f 60 09 00 00 00 09 5c 00 00 f8 2b 00      	! BUNDLE
	std	%r1, %sp, 0
	callr	%r9, 0
	mov	%r10, %gz

		0000000000003a00:  R_POSTRISC_B_JUMP	printf
    3a10: 00 00 00 40 02 07 00 00 00 00 01 00 00 00 00 04      	! BUNDLE
	callr	%r9, 0
	nop	0
	nop	0

		0000000000003a10:  R_POSTRISC_A_JUMP	exit

0000000000003a20 <NeverReturn>:
    3a20: 40 00 80 03 41 40 00 c0 fe 81 01 00 00 00 0c 72      	! BUNDLE
	allocsp	7, 16
	bweq	%r1, %gz, 64
	ldafr	%r3, 0

		0000000000003a20:  R_POSTRISC_C_PCREL_FWD	.L.str.17
    3a30: 00 00 00 7f 00 19 00 00 06 06 00 00 00 00 14 70      	! BUNDLE
	stw	%r1, %sp, 0
	mov	%r6, %r3
	callr	%r5, 0

		0000000000003a30:  R_POSTRISC_C_JUMP	printf
    3a40: 00 00 00 00 21 1d 00 00 08 04 c8 ff ff 0f 04 22      	! BUNDLE
	lddzr	%r4, 0
	addi	%r4, %r4, 1
	addiws	%r1, %r1, -1

		0000000000003a40:  R_POSTRISC_A_PCREL_FWD	uglbx
    3a50: 00 00 00 00 61 ed ff ff fe 81 01 00 00 00 00 04      	! BUNDLE
	stdr	%r4, 0
	bwne	%r1, %gz, -32
	nop	0

		0000000000003a50:  R_POSTRISC_A_PCREL_FWD	uglbx
    3a60: 00 00 00 40 20 07 00 00 00 00 01 00 00 00 00 04      	! BUNDLE
	ldafr	%r1, 0
	nop	0
	nop	0

		0000000000003a60:  R_POSTRISC_A_PCREL_FWD	.L.str.18
    3a70: 00 00 00 bf 00 19 00 00 02 06 00 00 00 00 14 70      	! BUNDLE
	stw	%r2, %sp, 0
	mov	%r6, %r1
	callr	%r5, 0

		0000000000003a70:  R_POSTRISC_C_JUMP	printf
    3a80: 00 00 00 c0 c0 fc ff ff 05 82 c8 ff ff 1f 0c 22      	! BUNDLE
	ldwzr	%r3, 0
	addiws	%r2, %r2, -1
	addiws	%r3, %r3, -1

		0000000000003a80:  R_POSTRISC_A_PCREL_FWD	glbx
    3a90: 00 00 00 c0 00 ed ff ff ff 01 01 00 00 00 00 04      	! BUNDLE
	stwr	%r3, 0
	jmp	-32
	nop	0

		0000000000003a90:  R_POSTRISC_A_PCREL_FWD	glbx

0000000000003aa0 <i64_add>:
    3aa0: 00 00 80 c1 40 00 00 00 00 82 b3 00 00 00 00 04      	! BUNDLE
	alloc	3
	ldwsr	%r2, 0
	nop	2

		0000000000003aa0:  R_POSTRISC_B_PCREL_FWD	glbx
    3ab0: 4a 03 82 40 20 26 00 00 00 00 00 00 00 00 04 d0      	! BUNDLE
	ldax.l	%r1, %r1, %r2, 0, 1234
	stwr	%r1, 0

		0000000000003ab0:  R_POSTRISC_C_PCREL_FWD	glbx
    3ac0: 00 00 00 80 40 00 00 00 00 00 01 00 00 00 00 04      	! BUNDLE
	retf	0
	nop	0
	nop	0


0000000000003ad0 <i32_add>:
    3ad0: 00 00 00 c3 40 00 00 00 00 03 73 00 00 08 14 00      	! BUNDLE
	alloc	6
	ldwzr	%r3, 0
	mov	%r5, %r1

		0000000000003ad0:  R_POSTRISC_B_PCREL_FWD	glb
    3ae0: 00 00 00 00 01 07 00 00 00 02 18 09 10 10 04 00      	! BUNDLE
	callr	%r4, 0
	ldar	%r2, 0
	addws	%r1, %r2, %r1

		0000000000003ae0:  R_POSTRISC_A_JUMP	cccc
		0000000000003ae0:  R_POSTRISC_B_JUMP	cccc
    3af0: 90 00 83 40 00 40 02 14 02 01 40 0e 0c 08 04 22      	! BUNDLE
	addws	%r1, %r1, %r3
	addws	%r1, %r1, %r5
	addiws	%r1, %r1, 12345

    3b00: 00 00 00 80 40 00 00 00 00 00 01 00 00 00 00 04      	! BUNDLE
	retf	0
	nop	0
	nop	0


0000000000003b10 <u32_add>:
    3b10: 00 00 80 c1 40 00 00 00 00 02 33 09 10 10 04 00      	! BUNDLE
	alloc	3
	ldwzr	%r2, 0
	addws	%r1, %r2, %r1

		0000000000003b10:  R_POSTRISC_B_PCREL_FWD	uglb
    3b20: 00 00 00 80 40 00 00 00 00 00 01 00 00 00 00 04      	! BUNDLE
	retf	0
	nop	0
	nop	0


0000000000003b30 <float_test>:
    3b30: 40 00 80 02 41 30 00 60 02 02 03 00 00 00 10 72      	! BUNDLE
	allocsp	5, 16
	bfsdole	%r2, %r1, 48
	ldafr	%r4, 0

		0000000000003b30:  R_POSTRISC_C_PCREL_FWD	.L.str.19
    3b40: 00 00 00 7f 60 09 00 00 00 03 5c 00 00 20 04 00      	! BUNDLE
	std	%r1, %sp, 0
	callr	%r3, 0
	mov	%r1, %r4

		0000000000003b40:  R_POSTRISC_B_JUMP	printf
    3b50: 40 00 00 80 40 00 00 00 00 00 01 00 00 00 00 04      	! BUNDLE
	retf	16
	nop	0
	nop	0

    3b60: 08 00 00 40 00 01 01 00 00 02 01 00 00 00 00 04      	! BUNDLE
	ldi	%r1, 2
	retf	16
	nop	0


0000000000003b70 <main>:
    3b70: 00 00 00 c1 40 10 00 00 fe 01 00 00 00 00 08 04      	! BUNDLE
	alloc	2
	mov	%r1, %gz
	retf	0


0000000000003b80 <test_fp_arithmetic_f16>:
    3b80: 00 00 00 c2 40 30 48 04 04 03 00 21 21 08 04 00      	! BUNDLE
	alloc	4
	faddsh	%r3, %r2, %r1
	fsubsh	%r1, %r1, %r2

    3b90: 18 12 81 41 00 80 48 08 02 01 00 00 00 00 08 04      	! BUNDLE
	fmulsh	%r1, %r3, %r1
	fdivsh	%r1, %r1, %r2
	retf	0


0000000000003ba0 <test_fp_arithmetic_f32>:
    3ba0: 00 00 00 c2 40 30 30 04 04 03 00 c1 20 08 04 00      	! BUNDLE
	alloc	4
	faddss	%r3, %r2, %r1
	fsubss	%r1, %r1, %r2

    3bb0: 18 0c 81 41 00 80 30 08 02 01 00 00 00 00 08 04      	! BUNDLE
	fmulss	%r1, %r3, %r1
	fdivss	%r1, %r1, %r2
	retf	0


0000000000003bc0 <test_fp_arithmetic_f64>:
    3bc0: 00 00 00 c2 40 30 38 04 04 03 00 e1 20 08 04 00      	! BUNDLE
	alloc	4
	faddsd	%r3, %r2, %r1
	fsubsd	%r1, %r1, %r2

    3bd0: 18 0e 81 41 00 80 38 08 02 01 00 00 00 00 08 04      	! BUNDLE
	fmulsd	%r1, %r3, %r1
	fdivsd	%r1, %r1, %r2
	retf	0


0000000000003be0 <test_fp_arithmetic_f128>:
    3be0: 00 00 00 c2 40 30 40 04 04 03 00 01 21 08 04 00      	! BUNDLE
	alloc	4
	faddsq	%r3, %r2, %r1
	fsubsq	%r1, %r1, %r2

    3bf0: 18 10 81 41 00 80 40 08 02 01 00 00 00 00 08 04      	! BUNDLE
	fmulsq	%r1, %r3, %r1
	fdivsq	%r1, %r1, %r2
	retf	0


0000000000003c00 <test_fp_bitcast_i16_to_f16>:
    3c00: 40 00 00 01 41 e0 00 00 fc 81 a2 03 00 f0 07 86      	! BUNDLE
	allocsp	2, 16
	sth	%r1, %sp, 14
	ldhz	%r1, %sp, 14

    3c10: 40 00 00 80 40 00 00 00 00 00 01 00 00 00 00 04      	! BUNDLE
	retf	16
	nop	0
	nop	0


0000000000003c20 <test_fp_bitcast_f16_to_i16>:
    3c20: 40 00 00 01 41 e0 00 00 fc 81 a2 03 00 f0 07 88      	! BUNDLE
	allocsp	2, 16
	sth	%r1, %sp, 14
	ldhs	%r1, %sp, 14

    3c30: 40 00 00 80 40 00 00 00 00 00 01 00 00 00 00 04      	! BUNDLE
	retf	16
	nop	0
	nop	0


0000000000003c40 <test_fp_bitcast_i32_to_f32>:
    3c40: 00 00 00 c1 40 00 00 00 00 02 01 00 00 00 00 04      	! BUNDLE
	alloc	2
	retf	0
	nop	0


0000000000003c50 <test_fp_bitcast_f32_to_i32>:
    3c50: 00 00 00 c1 40 00 00 00 00 02 01 00 00 00 00 04      	! BUNDLE
	alloc	2
	retf	0
	nop	0


0000000000003c60 <test_fp_bitcast_i64_to_f64>:
    3c60: 00 00 00 c1 40 00 00 00 00 02 01 00 00 00 00 04      	! BUNDLE
	alloc	2
	retf	0
	nop	0


0000000000003c70 <test_fp_bitcast_f64_to_i64>:
    3c70: 00 00 00 c1 40 00 00 00 00 02 01 00 00 00 00 04      	! BUNDLE
	alloc	2
	retf	0
	nop	0


0000000000003c80 <test_fp_bitcast_i128_to_f128>:
    3c80: 00 00 00 c1 40 00 00 00 00 02 01 00 00 00 00 04      	! BUNDLE
	alloc	2
	retf	0
	nop	0


0000000000003c90 <test_fp_bitcast_f128_to_i128>:
    3c90: 00 00 00 c1 40 00 00 00 00 02 01 00 00 00 00 04      	! BUNDLE
	alloc	2
	retf	0
	nop	0


0000000000003ca0 <test_fp_branch_f32_eq>:
    3ca0: 00 00 80 c2 40 90 12 00 04 81 00 00 00 00 10 72      	! BUNDLE
	alloc	5
	nulfssoeq	%r1, %r2, 2, 0
	ldafr	%r4, 0

		0000000000003ca0:  R_POSTRISC_C_PCREL_FWD	.Lstr.99
    3cb0: 00 00 00 c0 00 07 00 00 00 02 01 00 00 00 00 04      	! BUNDLE
	callr	%r3, 0
	retf	0
	nop	0

		0000000000003cb0:  R_POSTRISC_A_JUMP	puts

0000000000003cc0 <test_fp_branch_f32_ne>:
    3cc0: 00 00 80 c2 40 90 12 20 04 81 00 00 00 00 10 72      	! BUNDLE
	alloc	5
	nulfssone	%r1, %r2, 2, 0
	ldafr	%r4, 0

		0000000000003cc0:  R_POSTRISC_C_PCREL_FWD	.Lstr.100
    3cd0: 00 00 00 c0 00 07 00 00 00 02 01 00 00 00 00 04      	! BUNDLE
	callr	%r3, 0
	retf	0
	nop	0

		0000000000003cd0:  R_POSTRISC_A_JUMP	puts

0000000000003ce0 <test_fp_branch_f32_lt>:
    3ce0: 00 00 80 c2 40 90 12 40 04 81 00 00 00 00 10 72      	! BUNDLE
	alloc	5
	nulfssolt	%r1, %r2, 2, 0
	ldafr	%r4, 0

		0000000000003ce0:  R_POSTRISC_C_PCREL_FWD	.Lstr.101
    3cf0: 00 00 00 c0 00 07 00 00 00 02 01 00 00 00 00 04      	! BUNDLE
	callr	%r3, 0
	retf	0
	nop	0

		0000000000003cf0:  R_POSTRISC_A_JUMP	puts

0000000000003d00 <test_fp_branch_f32_le>:
    3d00: 00 00 80 c2 40 90 12 60 04 81 00 00 00 00 10 72      	! BUNDLE
	alloc	5
	nulfssole	%r1, %r2, 2, 0
	ldafr	%r4, 0

		0000000000003d00:  R_POSTRISC_C_PCREL_FWD	.Lstr.102
    3d10: 00 00 00 c0 00 07 00 00 00 02 01 00 00 00 00 04      	! BUNDLE
	callr	%r3, 0
	retf	0
	nop	0

		0000000000003d10:  R_POSTRISC_A_JUMP	puts

0000000000003d20 <test_fp_branch_f32_gt>:
    3d20: 00 00 80 c2 40 90 12 40 02 82 00 00 00 00 10 72      	! BUNDLE
	alloc	5
	nulfssolt	%r2, %r1, 2, 0
	ldafr	%r4, 0

		0000000000003d20:  R_POSTRISC_C_PCREL_FWD	.Lstr.103
    3d30: 00 00 00 c0 00 07 00 00 00 02 01 00 00 00 00 04      	! BUNDLE
	callr	%r3, 0
	retf	0
	nop	0

		0000000000003d30:  R_POSTRISC_A_JUMP	puts

0000000000003d40 <test_fp_branch_f32_ge>:
    3d40: 00 00 80 c2 40 90 12 60 02 82 00 00 00 00 10 72      	! BUNDLE
	alloc	5
	nulfssole	%r2, %r1, 2, 0
	ldafr	%r4, 0

		0000000000003d40:  R_POSTRISC_C_PCREL_FWD	.Lstr.104
    3d50: 00 00 00 c0 00 07 00 00 00 02 01 00 00 00 00 04      	! BUNDLE
	callr	%r3, 0
	retf	0
	nop	0

		0000000000003d50:  R_POSTRISC_A_JUMP	puts

0000000000003d60 <test_fp_branch_f64_eq>:
    3d60: 00 00 80 c2 40 a0 12 00 04 81 00 00 00 00 10 72      	! BUNDLE
	alloc	5
	nulfsdoeq	%r1, %r2, 2, 0
	ldafr	%r4, 0

		0000000000003d60:  R_POSTRISC_C_PCREL_FWD	.Lstr.105
    3d70: 00 00 00 c0 00 07 00 00 00 02 01 00 00 00 00 04      	! BUNDLE
	callr	%r3, 0
	retf	0
	nop	0

		0000000000003d70:  R_POSTRISC_A_JUMP	puts

0000000000003d80 <test_fp_branch_f64_ne>:
    3d80: 00 00 80 c2 40 a0 12 20 04 81 00 00 00 00 10 72      	! BUNDLE
	alloc	5
	nulfsdone	%r1, %r2, 2, 0
	ldafr	%r4, 0

		0000000000003d80:  R_POSTRISC_C_PCREL_FWD	.Lstr.106
    3d90: 00 00 00 c0 00 07 00 00 00 02 01 00 00 00 00 04      	! BUNDLE
	callr	%r3, 0
	retf	0
	nop	0

		0000000000003d90:  R_POSTRISC_A_JUMP	puts

0000000000003da0 <test_fp_branch_f64_lt>:
    3da0: 00 00 80 c2 40 a0 12 40 04 81 00 00 00 00 10 72      	! BUNDLE
	alloc	5
	nulfsdolt	%r1, %r2, 2, 0
	ldafr	%r4, 0

		0000000000003da0:  R_POSTRISC_C_PCREL_FWD	.Lstr.107
    3db0: 00 00 00 c0 00 07 00 00 00 02 01 00 00 00 00 04      	! BUNDLE
	callr	%r3, 0
	retf	0
	nop	0

		0000000000003db0:  R_POSTRISC_A_JUMP	puts

0000000000003dc0 <test_fp_branch_f64_le>:
    3dc0: 00 00 80 c2 40 a0 12 60 04 81 00 00 00 00 10 72      	! BUNDLE
	alloc	5
	nulfsdole	%r1, %r2, 2, 0
	ldafr	%r4, 0

		0000000000003dc0:  R_POSTRISC_C_PCREL_FWD	.Lstr.108
    3dd0: 00 00 00 c0 00 07 00 00 00 02 01 00 00 00 00 04      	! BUNDLE
	callr	%r3, 0
	retf	0
	nop	0

		0000000000003dd0:  R_POSTRISC_A_JUMP	puts

0000000000003de0 <test_fp_branch_f64_gt>:
    3de0: 00 00 80 c2 40 a0 12 40 02 82 00 00 00 00 10 72      	! BUNDLE
	alloc	5
	nulfsdolt	%r2, %r1, 2, 0
	ldafr	%r4, 0

		0000000000003de0:  R_POSTRISC_C_PCREL_FWD	.Lstr.109
    3df0: 00 00 00 c0 00 07 00 00 00 02 01 00 00 00 00 04      	! BUNDLE
	callr	%r3, 0
	retf	0
	nop	0

		0000000000003df0:  R_POSTRISC_A_JUMP	puts

0000000000003e00 <test_fp_branch_f64_ge>:
    3e00: 00 00 80 c2 40 a0 12 60 02 82 00 00 00 00 10 72      	! BUNDLE
	alloc	5
	nulfsdole	%r2, %r1, 2, 0
	ldafr	%r4, 0

		0000000000003e00:  R_POSTRISC_C_PCREL_FWD	.Lstr.110
    3e10: 00 00 00 c0 00 07 00 00 00 02 01 00 00 00 00 04      	! BUNDLE
	callr	%r3, 0
	retf	0
	nop	0

		0000000000003e10:  R_POSTRISC_A_JUMP	puts

0000000000003e20 <test_fp_branch_f128_eq>:
    3e20: 00 00 80 c2 40 b0 12 00 04 81 00 00 00 00 10 72      	! BUNDLE
	alloc	5
	nulfsqoeq	%r1, %r2, 2, 0
	ldafr	%r4, 0

		0000000000003e20:  R_POSTRISC_C_PCREL_FWD	.Lstr.111
    3e30: 00 00 00 c0 00 07 00 00 00 02 01 00 00 00 00 04      	! BUNDLE
	callr	%r3, 0
	retf	0
	nop	0

		0000000000003e30:  R_POSTRISC_A_JUMP	puts

0000000000003e40 <test_fp_branch_f128_ne>:
    3e40: 00 00 80 c2 40 b0 12 20 04 81 00 00 00 00 10 72      	! BUNDLE
	alloc	5
	nulfsqone	%r1, %r2, 2, 0
	ldafr	%r4, 0

		0000000000003e40:  R_POSTRISC_C_PCREL_FWD	.Lstr.112
    3e50: 00 00 00 c0 00 07 00 00 00 02 01 00 00 00 00 04      	! BUNDLE
	callr	%r3, 0
	retf	0
	nop	0

		0000000000003e50:  R_POSTRISC_A_JUMP	puts

0000000000003e60 <test_fp_branch_f128_lt>:
    3e60: 00 00 80 c2 40 b0 12 40 04 81 00 00 00 00 10 72      	! BUNDLE
	alloc	5
	nulfsqolt	%r1, %r2, 2, 0
	ldafr	%r4, 0

		0000000000003e60:  R_POSTRISC_C_PCREL_FWD	.Lstr.113
    3e70: 00 00 00 c0 00 07 00 00 00 02 01 00 00 00 00 04      	! BUNDLE
	callr	%r3, 0
	retf	0
	nop	0

		0000000000003e70:  R_POSTRISC_A_JUMP	puts

0000000000003e80 <test_fp_branch_f128_le>:
    3e80: 00 00 80 c2 40 b0 12 60 04 81 00 00 00 00 10 72      	! BUNDLE
	alloc	5
	nulfsqole	%r1, %r2, 2, 0
	ldafr	%r4, 0

		0000000000003e80:  R_POSTRISC_C_PCREL_FWD	.Lstr.114
    3e90: 00 00 00 c0 00 07 00 00 00 02 01 00 00 00 00 04      	! BUNDLE
	callr	%r3, 0
	retf	0
	nop	0

		0000000000003e90:  R_POSTRISC_A_JUMP	puts

0000000000003ea0 <test_fp_branch_f128_gt>:
    3ea0: 00 00 80 c2 40 b0 12 40 02 82 00 00 00 00 10 72      	! BUNDLE
	alloc	5
	nulfsqolt	%r2, %r1, 2, 0
	ldafr	%r4, 0

		0000000000003ea0:  R_POSTRISC_C_PCREL_FWD	.Lstr.115
    3eb0: 00 00 00 c0 00 07 00 00 00 02 01 00 00 00 00 04      	! BUNDLE
	callr	%r3, 0
	retf	0
	nop	0

		0000000000003eb0:  R_POSTRISC_A_JUMP	puts

0000000000003ec0 <test_fp_branch_f128_ge>:
    3ec0: 00 00 80 c2 40 b0 12 60 02 82 00 00 00 00 10 72      	! BUNDLE
	alloc	5
	nulfsqole	%r2, %r1, 2, 0
	ldafr	%r4, 0

		0000000000003ec0:  R_POSTRISC_C_PCREL_FWD	.Lstr.116
    3ed0: 00 00 00 c0 00 07 00 00 00 02 01 00 00 00 00 04      	! BUNDLE
	callr	%r3, 0
	retf	0
	nop	0

		0000000000003ed0:  R_POSTRISC_A_JUMP	puts

0000000000003ee0 <test_builtin_f32_isnan>:
    3ee0: 00 00 00 c1 40 10 00 00 fe 01 00 00 00 00 08 04      	! BUNDLE
	alloc	2
	mov	%r1, %gz
	retf	0


0000000000003ef0 <test_builtin_f32_copysign>:
    3ef0: 00 00 80 c1 40 00 0c 04 04 81 00 00 00 00 08 04      	! BUNDLE
	alloc	3
	fmergess	%r1, %r2, %r1, %r1
	retf	0


0000000000003f00 <test_builtin_f64_copysign>:
    3f00: 00 00 80 c1 40 80 0c 04 04 81 00 00 00 00 08 04      	! BUNDLE
	alloc	3
	fmergesd	%r1, %r2, %r1, %r1
	retf	0


0000000000003f10 <test_builtin_f128_copysign>:
    3f10: 00 00 80 c1 40 00 0d 04 04 81 00 00 00 00 08 04      	! BUNDLE
	alloc	3
	fmergesq	%r1, %r2, %r1, %r1
	retf	0


0000000000003f20 <test_compare_f16_eq>:
    3f20: 00 00 80 c1 40 50 49 08 02 01 00 00 00 00 08 04      	! BUNDLE
	alloc	3
	fcmpshoeq	%r1, %r1, %r2
	retf	0


0000000000003f30 <test_compare_f16_ne>:
    3f30: 00 00 80 c1 40 60 49 08 02 01 00 00 00 00 08 04      	! BUNDLE
	alloc	3
	fcmpshone	%r1, %r1, %r2
	retf	0


0000000000003f40 <test_compare_f16_lt>:
    3f40: 00 00 80 c1 40 70 49 08 02 01 00 00 00 00 08 04      	! BUNDLE
	alloc	3
	fcmpsholt	%r1, %r1, %r2
	retf	0


0000000000003f50 <test_compare_f16_le>:
    3f50: 00 00 80 c1 40 80 49 08 02 01 00 00 00 00 08 04      	! BUNDLE
	alloc	3
	fcmpshole	%r1, %r1, %r2
	retf	0


0000000000003f60 <test_compare_f16_gt>:
    3f60: 00 00 80 c1 40 70 49 04 04 01 00 00 00 00 08 04      	! BUNDLE
	alloc	3
	fcmpsholt	%r1, %r2, %r1
	retf	0


0000000000003f70 <test_compare_f16_ge>:
    3f70: 00 00 80 c1 40 80 49 04 04 01 00 00 00 00 08 04      	! BUNDLE
	alloc	3
	fcmpshole	%r1, %r2, %r1
	retf	0


0000000000003f80 <test_compare_f32_eq>:
    3f80: 00 00 80 c1 40 50 31 08 02 01 00 00 00 00 08 04      	! BUNDLE
	alloc	3
	fcmpssoeq	%r1, %r1, %r2
	retf	0


0000000000003f90 <test_compare_f32_ne>:
    3f90: 00 00 80 c1 40 60 31 08 02 01 00 00 00 00 08 04      	! BUNDLE
	alloc	3
	fcmpssone	%r1, %r1, %r2
	retf	0


0000000000003fa0 <test_compare_f32_lt>:
    3fa0: 00 00 80 c1 40 70 31 08 02 01 00 00 00 00 08 04      	! BUNDLE
	alloc	3
	fcmpssolt	%r1, %r1, %r2
	retf	0


0000000000003fb0 <test_compare_f32_le>:
    3fb0: 00 00 80 c1 40 80 31 08 02 01 00 00 00 00 08 04      	! BUNDLE
	alloc	3
	fcmpssole	%r1, %r1, %r2
	retf	0


0000000000003fc0 <test_compare_f32_gt>:
    3fc0: 00 00 80 c1 40 70 31 04 04 01 00 00 00 00 08 04      	! BUNDLE
	alloc	3
	fcmpssolt	%r1, %r2, %r1
	retf	0


0000000000003fd0 <test_compare_f32_ge>:
    3fd0: 00 00 80 c1 40 80 31 04 04 01 00 00 00 00 08 04      	! BUNDLE
	alloc	3
	fcmpssole	%r1, %r2, %r1
	retf	0


0000000000003fe0 <test_compare_f64_eq>:
    3fe0: 00 00 80 c1 40 50 39 08 02 01 00 00 00 00 08 04      	! BUNDLE
	alloc	3
	fcmpsdoeq	%r1, %r1, %r2
	retf	0


0000000000003ff0 <test_compare_f64_ne>:
    3ff0: 00 00 80 c1 40 60 39 08 02 01 00 00 00 00 08 04      	! BUNDLE
	alloc	3
	fcmpsdone	%r1, %r1, %r2
	retf	0


0000000000004000 <test_compare_f64_lt>:
    4000: 00 00 80 c1 40 70 39 08 02 01 00 00 00 00 08 04      	! BUNDLE
	alloc	3
	fcmpsdolt	%r1, %r1, %r2
	retf	0


0000000000004010 <test_compare_f64_le>:
    4010: 00 00 80 c1 40 80 39 08 02 01 00 00 00 00 08 04      	! BUNDLE
	alloc	3
	fcmpsdole	%r1, %r1, %r2
	retf	0


0000000000004020 <test_compare_f64_gt>:
    4020: 00 00 80 c1 40 70 39 04 04 01 00 00 00 00 08 04      	! BUNDLE
	alloc	3
	fcmpsdolt	%r1, %r2, %r1
	retf	0


0000000000004030 <test_compare_f64_ge>:
    4030: 00 00 80 c1 40 80 39 04 04 01 00 00 00 00 08 04      	! BUNDLE
	alloc	3
	fcmpsdole	%r1, %r2, %r1
	retf	0


0000000000004040 <test_compare_f128_eq>:
    4040: 00 00 80 c1 40 50 41 08 02 01 00 00 00 00 08 04      	! BUNDLE
	alloc	3
	fcmpsqoeq	%r1, %r1, %r2
	retf	0


0000000000004050 <test_compare_f128_ne>:
    4050: 00 00 80 c1 40 60 41 08 02 01 00 00 00 00 08 04      	! BUNDLE
	alloc	3
	fcmpsqone	%r1, %r1, %r2
	retf	0


0000000000004060 <test_compare_f128_lt>:
    4060: 00 00 80 c1 40 70 41 08 02 01 00 00 00 00 08 04      	! BUNDLE
	alloc	3
	fcmpsqolt	%r1, %r1, %r2
	retf	0


0000000000004070 <test_compare_f128_le>:
    4070: 00 00 80 c1 40 80 41 08 02 01 00 00 00 00 08 04      	! BUNDLE
	alloc	3
	fcmpsqole	%r1, %r1, %r2
	retf	0


0000000000004080 <test_compare_f128_gt>:
    4080: 00 00 80 c1 40 70 41 04 04 01 00 00 00 00 08 04      	! BUNDLE
	alloc	3
	fcmpsqolt	%r1, %r2, %r1
	retf	0


0000000000004090 <test_compare_f128_ge>:
    4090: 00 00 80 c1 40 80 41 04 04 01 00 00 00 00 08 04      	! BUNDLE
	alloc	3
	fcmpsqole	%r1, %r2, %r1
	retf	0


00000000000040a0 <test_conv_f16_to_f32>:
    40a0: 00 00 00 c1 40 80 4b 00 02 01 00 00 00 00 08 04      	! BUNDLE
	alloc	2
	fextsh2ss	%r1, %r1
	retf	0


00000000000040b0 <test_conv_f16_to_f64>:
    40b0: 00 00 00 c1 40 90 4b 00 02 01 00 00 00 00 08 04      	! BUNDLE
	alloc	2
	fextsh2sd	%r1, %r1
	retf	0


00000000000040c0 <test_conv_f16_to_f128>:
    40c0: 00 00 00 c1 40 a0 4b 00 02 01 00 00 00 00 08 04      	! BUNDLE
	alloc	2
	fextsh2sq	%r1, %r1
	retf	0


00000000000040d0 <test_conv_f64_to_f128>:
    40d0: 00 00 00 c1 40 a0 43 00 02 01 00 00 00 00 08 04      	! BUNDLE
	alloc	2
	fextsd2sq	%r1, %r1
	retf	0


00000000000040e0 <test_conv_f32_to_f64>:
    40e0: 00 00 00 c1 40 90 3b 00 02 01 00 00 00 00 08 04      	! BUNDLE
	alloc	2
	fextss2sd	%r1, %r1
	retf	0


00000000000040f0 <test_conv_f32_to_f128>:
    40f0: 00 00 00 c1 40 90 43 00 02 01 00 00 00 00 08 04      	! BUNDLE
	alloc	2
	fextss2sq	%r1, %r1
	retf	0


0000000000004100 <test_conv_f32_to_f16>:
    4100: 00 00 00 c1 40 b0 4b 00 02 01 00 00 00 00 08 04      	! BUNDLE
	alloc	2
	fcvtss2sh	%r1, %r1, 0
	retf	0


0000000000004110 <test_conv_f64_to_f16>:
    4110: 00 00 00 c1 40 c0 4b 00 02 01 00 00 00 00 08 04      	! BUNDLE
	alloc	2
	fcvtsd2sh	%r1, %r1, 0
	retf	0


0000000000004120 <test_conv_f64_to_f32>:
    4120: 00 00 00 c1 40 80 3b 00 02 01 00 00 00 00 08 04      	! BUNDLE
	alloc	2
	fcvtsd2ss	%r1, %r1, 0
	retf	0


0000000000004130 <test_conv_f128_to_f16>:
    4130: 00 00 00 c1 40 d0 4b 00 02 01 00 00 00 00 08 04      	! BUNDLE
	alloc	2
	fcvtsq2sh	%r1, %r1, 0
	retf	0


0000000000004140 <test_conv_f128_to_f32>:
    4140: 00 00 00 c1 40 c0 43 00 02 01 00 00 00 00 08 04      	! BUNDLE
	alloc	2
	fcvtsq2ss	%r1, %r1, 0
	retf	0


0000000000004150 <test_conv_f128_to_f64>:
    4150: 00 00 00 c1 40 b0 43 00 02 01 00 00 00 00 08 04      	! BUNDLE
	alloc	2
	fcvtsq2sd	%r1, %r1, 0
	retf	0


0000000000004160 <test_conv_f16_to_i32>:
    4160: 00 00 00 c1 40 f0 49 00 02 01 00 00 00 00 08 04      	! BUNDLE
	alloc	2
	fcvtsh2iw	%r1, %r1, 0
	retf	0


0000000000004170 <test_conv_f16_to_u32>:
    4170: 00 00 00 c1 40 00 4a 00 02 01 00 00 00 00 08 04      	! BUNDLE
	alloc	2
	fcvtsh2uw	%r1, %r1, 0
	retf	0


0000000000004180 <test_conv_f16_to_i64>:
    4180: 00 00 00 c1 40 30 4a 00 02 01 00 00 00 00 08 04      	! BUNDLE
	alloc	2
	fcvtsh2id	%r1, %r1, 0
	retf	0


0000000000004190 <test_conv_f16_to_u64>:
    4190: 00 00 00 c1 40 40 4a 00 02 01 00 00 00 00 08 04      	! BUNDLE
	alloc	2
	fcvtsh2ud	%r1, %r1, 0
	retf	0


00000000000041a0 <test_conv_f16_to_i128>:
    41a0: 00 00 00 c1 40 70 4a 00 02 01 00 00 00 00 08 04      	! BUNDLE
	alloc	2
	fcvtsh2iq	%r1, %r1, 0
	retf	0


00000000000041b0 <test_conv_f16_to_u128>:
    41b0: 00 00 00 c1 40 80 4a 00 02 01 00 00 00 00 08 04      	! BUNDLE
	alloc	2
	fcvtsh2uq	%r1, %r1, 0
	retf	0


00000000000041c0 <test_conv_i32_to_f16>:
    41c0: 00 00 00 c1 40 10 4a 00 02 01 00 00 00 00 08 04      	! BUNDLE
	alloc	2
	fcvtiw2sh	%r1, %r1, 0
	retf	0


00000000000041d0 <test_conv_u32_to_f16>:
    41d0: 00 00 00 c1 40 20 4a 00 02 01 00 00 00 00 08 04      	! BUNDLE
	alloc	2
	fcvtuw2sh	%r1, %r1, 0
	retf	0


00000000000041e0 <test_conv_i64_to_f16>:
    41e0: 00 00 00 c1 40 50 4a 00 02 01 00 00 00 00 08 04      	! BUNDLE
	alloc	2
	fcvtid2sh	%r1, %r1, 0
	retf	0


00000000000041f0 <test_conv_u64_to_f16>:
    41f0: 00 00 00 c1 40 60 4a 00 02 01 00 00 00 00 08 04      	! BUNDLE
	alloc	2
	fcvtud2sh	%r1, %r1, 0
	retf	0


0000000000004200 <test_conv_i128_to_f16>:
    4200: 00 00 00 c1 40 90 4a 00 02 01 00 00 00 00 08 04      	! BUNDLE
	alloc	2
	fcvtiq2sh	%r1, %r1, 0
	retf	0


0000000000004210 <test_conv_u128_to_f16>:
    4210: 00 00 00 c1 40 a0 4a 00 02 01 00 00 00 00 08 04      	! BUNDLE
	alloc	2
	fcvtuq2sh	%r1, %r1, 0
	retf	0


0000000000004220 <test_conv_f32_to_i32>:
    4220: 00 00 00 c1 40 f0 31 00 02 01 00 00 00 00 08 04      	! BUNDLE
	alloc	2
	fcvtss2iw	%r1, %r1, 0
	retf	0


0000000000004230 <test_conv_f32_to_u32>:
    4230: 00 00 00 c1 40 00 32 00 02 01 00 00 00 00 08 04      	! BUNDLE
	alloc	2
	fcvtss2uw	%r1, %r1, 0
	retf	0


0000000000004240 <test_conv_f32_to_i64>:
    4240: 00 00 00 c1 40 30 32 00 02 01 00 00 00 00 08 04      	! BUNDLE
	alloc	2
	fcvtss2id	%r1, %r1, 0
	retf	0


0000000000004250 <test_conv_f32_to_u64>:
    4250: 00 00 00 c1 40 40 32 00 02 01 00 00 00 00 08 04      	! BUNDLE
	alloc	2
	fcvtss2ud	%r1, %r1, 0
	retf	0


0000000000004260 <test_conv_f32_to_i128>:
    4260: 00 00 00 c1 40 70 32 00 02 01 00 00 00 00 08 04      	! BUNDLE
	alloc	2
	fcvtss2iq	%r1, %r1, 0
	retf	0


0000000000004270 <test_conv_f32_to_u128>:
    4270: 00 00 00 c1 40 80 32 00 02 01 00 00 00 00 08 04      	! BUNDLE
	alloc	2
	fcvtss2uq	%r1, %r1, 0
	retf	0


0000000000004280 <test_conv_i32_to_f32>:
    4280: 00 00 00 c1 40 10 32 00 02 01 00 00 00 00 08 04      	! BUNDLE
	alloc	2
	fcvtiw2ss	%r1, %r1, 0
	retf	0


0000000000004290 <test_conv_u32_to_f32>:
    4290: 00 00 00 c1 40 20 32 00 02 01 00 00 00 00 08 04      	! BUNDLE
	alloc	2
	fcvtuw2ss	%r1, %r1, 0
	retf	0


00000000000042a0 <test_conv_i64_to_f32>:
    42a0: 00 00 00 c1 40 50 32 00 02 01 00 00 00 00 08 04      	! BUNDLE
	alloc	2
	fcvtid2ss	%r1, %r1, 0
	retf	0


00000000000042b0 <test_conv_u64_to_f32>:
    42b0: 00 00 00 c1 40 60 32 00 02 01 00 00 00 00 08 04      	! BUNDLE
	alloc	2
	fcvtud2ss	%r1, %r1, 0
	retf	0


00000000000042c0 <test_conv_i128_to_f32>:
    42c0: 00 00 00 c1 40 90 32 00 02 01 00 00 00 00 08 04      	! BUNDLE
	alloc	2
	fcvtiq2ss	%r1, %r1, 0
	retf	0


00000000000042d0 <test_conv_u128_to_f32>:
    42d0: 00 00 00 c1 40 a0 32 00 02 01 00 00 00 00 08 04      	! BUNDLE
	alloc	2
	fcvtuq2ss	%r1, %r1, 0
	retf	0


00000000000042e0 <test_conv_f64_to_i32>:
    42e0: 00 00 00 c1 40 f0 39 00 02 01 00 00 00 00 08 04      	! BUNDLE
	alloc	2
	fcvtsd2iw	%r1, %r1, 0
	retf	0


00000000000042f0 <test_conv_f64_to_u32>:
    42f0: 00 00 00 c1 40 00 3a 00 02 01 00 00 00 00 08 04      	! BUNDLE
	alloc	2
	fcvtsd2uw	%r1, %r1, 0
	retf	0


0000000000004300 <test_conv_f64_to_i64>:
    4300: 00 00 00 c1 40 30 3a 00 02 01 00 00 00 00 08 04      	! BUNDLE
	alloc	2
	fcvtsd2id	%r1, %r1, 0
	retf	0


0000000000004310 <test_conv_f64_to_u64>:
    4310: 00 00 00 c1 40 40 3a 00 02 01 00 00 00 00 08 04      	! BUNDLE
	alloc	2
	fcvtsd2ud	%r1, %r1, 0
	retf	0


0000000000004320 <test_conv_f64_to_i128>:
    4320: 00 00 00 c1 40 70 3a 00 02 01 00 00 00 00 08 04      	! BUNDLE
	alloc	2
	fcvtsd2iq	%r1, %r1, 0
	retf	0


0000000000004330 <test_conv_f64_to_u128>:
    4330: 00 00 00 c1 40 80 3a 00 02 01 00 00 00 00 08 04      	! BUNDLE
	alloc	2
	fcvtsd2uq	%r1, %r1, 0
	retf	0


0000000000004340 <test_conv_i32_to_f64>:
    4340: 00 00 00 c1 40 10 3a 00 02 01 00 00 00 00 08 04      	! BUNDLE
	alloc	2
	fcvtiw2sd	%r1, %r1, 0
	retf	0


0000000000004350 <test_conv_u32_to_f64>:
    4350: 00 00 00 c1 40 20 3a 00 02 01 00 00 00 00 08 04      	! BUNDLE
	alloc	2
	fcvtuw2sd	%r1, %r1, 0
	retf	0


0000000000004360 <test_conv_i64_to_f64>:
    4360: 00 00 00 c1 40 50 3a 00 02 01 00 00 00 00 08 04      	! BUNDLE
	alloc	2
	fcvtid2sd	%r1, %r1, 0
	retf	0


0000000000004370 <test_conv_u64_to_f64>:
    4370: 00 00 00 c1 40 60 3a 00 02 01 00 00 00 00 08 04      	! BUNDLE
	alloc	2
	fcvtud2sd	%r1, %r1, 0
	retf	0


0000000000004380 <test_conv_i128_to_f64>:
    4380: 00 00 00 c1 40 90 3a 00 02 01 00 00 00 00 08 04      	! BUNDLE
	alloc	2
	fcvtiq2sd	%r1, %r1, 0
	retf	0


0000000000004390 <test_conv_u128_to_f64>:
    4390: 00 00 00 c1 40 a0 3a 00 02 01 00 00 00 00 08 04      	! BUNDLE
	alloc	2
	fcvtuq2sd	%r1, %r1, 0
	retf	0


00000000000043a0 <test_conv_f128_to_i32>:
    43a0: 00 00 00 c1 40 f0 41 00 02 01 00 00 00 00 08 04      	! BUNDLE
	alloc	2
	fcvtsq2iw	%r1, %r1, 0
	retf	0


00000000000043b0 <test_conv_f128_to_u32>:
    43b0: 00 00 00 c1 40 00 42 00 02 01 00 00 00 00 08 04      	! BUNDLE
	alloc	2
	fcvtsq2uw	%r1, %r1, 0
	retf	0


00000000000043c0 <test_conv_f128_to_i64>:
    43c0: 00 00 00 c1 40 30 42 00 02 01 00 00 00 00 08 04      	! BUNDLE
	alloc	2
	fcvtsq2id	%r1, %r1, 0
	retf	0


00000000000043d0 <test_conv_f128_to_u64>:
    43d0: 00 00 00 c1 40 40 42 00 02 01 00 00 00 00 08 04      	! BUNDLE
	alloc	2
	fcvtsq2ud	%r1, %r1, 0
	retf	0


00000000000043e0 <test_conv_f128_to_i128>:
    43e0: 00 00 00 c1 40 70 42 00 02 01 00 00 00 00 08 04      	! BUNDLE
	alloc	2
	fcvtsq2iq	%r1, %r1, 0
	retf	0


00000000000043f0 <test_conv_f128_to_u128>:
    43f0: 00 00 00 c1 40 80 42 00 02 01 00 00 00 00 08 04      	! BUNDLE
	alloc	2
	fcvtsq2uq	%r1, %r1, 0
	retf	0


0000000000004400 <test_conv_i32_to_f128>:
    4400: 00 00 00 c1 40 10 42 00 02 01 00 00 00 00 08 04      	! BUNDLE
	alloc	2
	fcvtiw2sq	%r1, %r1, 0
	retf	0


0000000000004410 <test_conv_u32_to_f128>:
    4410: 00 00 00 c1 40 20 42 00 02 01 00 00 00 00 08 04      	! BUNDLE
	alloc	2
	fcvtuw2sq	%r1, %r1, 0
	retf	0


0000000000004420 <test_conv_i64_to_f128>:
    4420: 00 00 00 c1 40 50 42 00 02 01 00 00 00 00 08 04      	! BUNDLE
	alloc	2
	fcvtid2sq	%r1, %r1, 0
	retf	0


0000000000004430 <test_conv_u64_to_f128>:
    4430: 00 00 00 c1 40 60 42 00 02 01 00 00 00 00 08 04      	! BUNDLE
	alloc	2
	fcvtud2sq	%r1, %r1, 0
	retf	0


0000000000004440 <test_conv_i128_to_f128>:
    4440: 00 00 00 c1 40 90 42 00 02 01 00 00 00 00 08 04      	! BUNDLE
	alloc	2
	fcvtiq2sq	%r1, %r1, 0
	retf	0


0000000000004450 <test_conv_u128_to_f128>:
    4450: 00 00 00 c1 40 a0 42 00 02 01 00 00 00 00 08 04      	! BUNDLE
	alloc	2
	fcvtuq2sq	%r1, %r1, 0
	retf	0


0000000000004460 <test_fp_immediate_f16>:
    4460: 00 00 00 c1 40 70 fe 02 00 01 04 00 00 00 08 04      	! BUNDLE
	alloc	2
	ldi	%r1, 12263
	retf	0


0000000000004470 <test_fp_immediate_f32>:
    4470: 01 00 00 c1 40 00 68 cd df 01 c4 00 00 00 00 00      	! BUNDLE
	alloc	2
	ldi.l	%r1, 1039980160

    4480: 00 00 00 80 40 00 00 00 00 00 01 00 00 00 00 04      	! BUNDLE
	retf	0
	nop	0
	nop	0


0000000000004490 <test_fp_immediate_f64>:
    4490: 01 00 00 c1 40 f0 6b eb a7 01 c4 3f 6b fe fe 02      	! BUNDLE
	alloc	2
	ldi.l	%r1, -4629811673862064449

    44a0: 00 00 00 80 40 00 00 00 00 00 01 00 00 00 00 04      	! BUNDLE
	retf	0
	nop	0
	nop	0


00000000000044b0 <test_fp_immediate_f128>:
    44b0: 01 00 00 c1 40 30 64 ae 0c 01 84 6a 83 13 d1 03      	! BUNDLE
	alloc	2
	ldi.l	%r1, -845303600433666493

    44c0: ae ad 9f 7e c0 f2 ac f9 fb 3f 00 00 00 00 08 04      	! BUNDLE
	ldih.l	%r1, 4610553164962720619
	retf	0


00000000000044d0 <test_fp_immediate_f128_int>:
    44d0: 00 00 00 c1 40 00 00 00 00 01 84 00 00 00 00 04      	! BUNDLE
	alloc	2
	ldi	%r1, 0
	nop	2

    44e0: 02 00 00 40 c0 02 00 60 03 40 00 00 00 00 08 04      	! BUNDLE
	ldih.l	%r1, 4612635996473786368
	retf	0


00000000000044f0 <test_fp_immediate_f128_denorm>:
    44f0: 00 00 00 c1 40 00 00 00 00 01 84 00 00 00 00 04      	! BUNDLE
	alloc	2
	ldi	%r1, 0
	nop	2

    4500: 02 00 00 40 c0 02 00 00 a4 83 00 00 00 00 08 04      	! BUNDLE
	ldih.l	%r1, -8961037358560444416
	retf	0


0000000000004510 <test_round_f32>:
    4510: 00 00 00 c1 40 40 31 00 02 01 00 00 00 00 08 04      	! BUNDLE
	alloc	2
	frndss.even	%r1, %r1
	retf	0


0000000000004520 <test_floor_f32>:
    4520: 00 00 00 c1 40 40 b1 00 02 01 00 00 00 00 08 04      	! BUNDLE
	alloc	2
	frndss.floor	%r1, %r1
	retf	0


0000000000004530 <test_ceil_f32>:
    4530: 00 00 00 c1 40 40 31 01 02 01 00 00 00 00 08 04      	! BUNDLE
	alloc	2
	frndss.ceil	%r1, %r1
	retf	0


0000000000004540 <test_trunc_f32>:
    4540: 00 00 00 c1 40 40 b1 01 02 01 00 00 00 00 08 04      	! BUNDLE
	alloc	2
	frndss.trunc	%r1, %r1
	retf	0


0000000000004550 <test_nearbyint_f32>:
    4550: 00 00 00 c1 40 40 31 02 02 01 00 00 00 00 08 04      	! BUNDLE
	alloc	2
	frndss.dyn	%r1, %r1
	retf	0


0000000000004560 <test_rint_f32>:
    4560: 00 00 00 c1 40 40 31 02 02 01 00 00 00 00 08 04      	! BUNDLE
	alloc	2
	frndss.dyn	%r1, %r1
	retf	0


0000000000004570 <test_round_f64>:
    4570: 00 00 00 c1 40 40 39 00 02 01 00 00 00 00 08 04      	! BUNDLE
	alloc	2
	frndsd.even	%r1, %r1
	retf	0


0000000000004580 <test_floor_f64>:
    4580: 00 00 00 c1 40 40 b9 00 02 01 00 00 00 00 08 04      	! BUNDLE
	alloc	2
	frndsd.floor	%r1, %r1
	retf	0


0000000000004590 <test_ceil_f64>:
    4590: 00 00 00 c1 40 40 39 01 02 01 00 00 00 00 08 04      	! BUNDLE
	alloc	2
	frndsd.ceil	%r1, %r1
	retf	0


00000000000045a0 <test_trunc_f64>:
    45a0: 00 00 00 c1 40 40 b9 01 02 01 00 00 00 00 08 04      	! BUNDLE
	alloc	2
	frndsd.trunc	%r1, %r1
	retf	0


00000000000045b0 <test_nearbyint_f64>:
    45b0: 00 00 00 c1 40 40 39 02 02 01 00 00 00 00 08 04      	! BUNDLE
	alloc	2
	frndsd.dyn	%r1, %r1
	retf	0


00000000000045c0 <test_rint_f64>:
    45c0: 00 00 00 c1 40 40 39 02 02 01 00 00 00 00 08 04      	! BUNDLE
	alloc	2
	frndsd.dyn	%r1, %r1
	retf	0


00000000000045d0 <test_round_f128>:
    45d0: 00 00 00 c1 40 40 41 00 02 01 00 00 00 00 08 04      	! BUNDLE
	alloc	2
	frndsq.even	%r1, %r1
	retf	0


00000000000045e0 <test_floor_f128>:
    45e0: 00 00 00 c1 40 40 c1 00 02 01 00 00 00 00 08 04      	! BUNDLE
	alloc	2
	frndsq.floor	%r1, %r1
	retf	0


00000000000045f0 <test_ceil_f128>:
    45f0: 00 00 00 c1 40 40 41 01 02 01 00 00 00 00 08 04      	! BUNDLE
	alloc	2
	frndsq.ceil	%r1, %r1
	retf	0


0000000000004600 <test_trunc_f128>:
    4600: 00 00 00 c1 40 40 c1 01 02 01 00 00 00 00 08 04      	! BUNDLE
	alloc	2
	frndsq.trunc	%r1, %r1
	retf	0


0000000000004610 <test_nearbyint_f128>:
    4610: 00 00 00 c1 40 40 41 02 02 01 00 00 00 00 08 04      	! BUNDLE
	alloc	2
	frndsq.dyn	%r1, %r1
	retf	0


0000000000004620 <test_rint_f128>:
    4620: 00 00 00 c1 40 40 41 02 02 01 00 00 00 00 08 04      	! BUNDLE
	alloc	2
	frndsq.dyn	%r1, %r1
	retf	0


0000000000004630 <test_fneg_f32>:
    4630: 00 00 00 c1 40 90 30 00 02 01 00 00 00 00 08 04      	! BUNDLE
	alloc	2
	fnegss	%r1, %r1
	retf	0


0000000000004640 <test_fabs_f32>:
    4640: 00 00 00 c1 40 a0 30 00 02 01 00 00 00 00 08 04      	! BUNDLE
	alloc	2
	fabsss	%r1, %r1
	retf	0


0000000000004650 <test_fnabs_f32>:
    4650: 00 00 00 c1 40 b0 30 00 02 01 00 00 00 00 08 04      	! BUNDLE
	alloc	2
	fnabsss	%r1, %r1
	retf	0


0000000000004660 <test_fabsd_f32>:
    4660: 00 00 80 c1 40 c0 30 08 02 01 00 00 00 00 08 04      	! BUNDLE
	alloc	3
	fabsdss	%r1, %r1, %r2
	retf	0


0000000000004670 <test_fnabsd_f32>:
    4670: 00 00 80 c1 40 d0 30 08 02 01 00 00 00 00 08 04      	! BUNDLE
	alloc	3
	fnabsdss	%r1, %r1, %r2
	retf	0


0000000000004680 <test_fneg_f64>:
    4680: 00 00 00 c1 40 90 38 00 02 01 00 00 00 00 08 04      	! BUNDLE
	alloc	2
	fnegsd	%r1, %r1
	retf	0


0000000000004690 <test_fabs_f64>:
    4690: 00 00 00 c1 40 a0 38 00 02 01 00 00 00 00 08 04      	! BUNDLE
	alloc	2
	fabssd	%r1, %r1
	retf	0


00000000000046a0 <test_fnabs_f64>:
    46a0: 00 00 00 c1 40 b0 38 00 02 01 00 00 00 00 08 04      	! BUNDLE
	alloc	2
	fnabssd	%r1, %r1
	retf	0


00000000000046b0 <test_fabsd_f64>:
    46b0: 00 00 80 c1 40 c0 38 08 02 01 00 00 00 00 08 04      	! BUNDLE
	alloc	3
	fabsdsd	%r1, %r1, %r2
	retf	0


00000000000046c0 <test_fnabsd_f64>:
    46c0: 00 00 80 c1 40 d0 38 08 02 01 00 00 00 00 08 04      	! BUNDLE
	alloc	3
	fnabsdsd	%r1, %r1, %r2
	retf	0


00000000000046d0 <test_fneg_f128>:
    46d0: 00 00 00 c1 40 90 40 00 02 01 00 00 00 00 08 04      	! BUNDLE
	alloc	2
	fnegsq	%r1, %r1
	retf	0


00000000000046e0 <test_fabs_f128>:
    46e0: 00 00 00 c1 40 a0 40 00 02 01 00 00 00 00 08 04      	! BUNDLE
	alloc	2
	fabssq	%r1, %r1
	retf	0


00000000000046f0 <test_fnabs_f128>:
    46f0: 00 00 00 c1 40 b0 40 00 02 01 00 00 00 00 08 04      	! BUNDLE
	alloc	2
	fnabssq	%r1, %r1
	retf	0


0000000000004700 <test_fabsd_f128>:
    4700: 00 00 80 c1 40 c0 40 08 02 01 00 00 00 00 08 04      	! BUNDLE
	alloc	3
	fabsdsq	%r1, %r1, %r2
	retf	0


0000000000004710 <test_fnabsd_f128>:
    4710: 00 00 80 c1 40 d0 40 08 02 01 00 00 00 00 08 04      	! BUNDLE
	alloc	3
	fnabsdsq	%r1, %r1, %r2
	retf	0


0000000000004720 <fp_store_zero_dummy_return>:
    4720: 00 00 00 c3 40 00 00 00 00 81 31 00 0f 00 08 10      	! BUNDLE
	alloc	6
	ldhzr	%r1, 0
	ldi	%r2, 15360

		0000000000004720:  R_POSTRISC_B_PCREL_FWD	f16_zero
    4730: 00 00 00 c0 c0 3c 48 08 02 01 00 00 00 00 04 ca      	! BUNDLE
	ldwzr	%r3, 0
	faddsh	%r1, %r1, %r2
	sthr	%r1, 0

		0000000000004730:  R_POSTRISC_A_PCREL_FWD	f32_zero
		0000000000004730:  R_POSTRISC_C_PCREL_FWD	f16_zero
    4740: 02 00 00 be 00 31 00 00 00 00 00 00 00 00 10 d2      	! BUNDLE
	ldi.l	%r2, 1065353216
	lddzr	%r4, 0

		0000000000004740:  R_POSTRISC_C_PCREL_FWD	f64_zero
    4750: 0c 0c 82 81 00 00 00 00 00 03 36 00 00 00 08 d0      	! BUNDLE
	faddss	%r2, %r3, %r2
	ldqr	%r3, 0
	stwr	%r2, 0

		0000000000004750:  R_POSTRISC_B_PCREL_FWD	f128_zero
		0000000000004750:  R_POSTRISC_C_PCREL_FWD	f32_zero
    4760: 02 00 00 40 01 01 00 00 f0 3f c0 e0 50 20 10 00      	! BUNDLE
	ldi.l	%r5, 4607182418800017408
	faddsd	%r4, %r4, %r5

    4770: 00 00 00 40 01 01 00 00 00 84 b5 00 00 00 00 04      	! BUNDLE
	ldi	%r5, 0
	stdr	%r4, 0
	nop	2

		0000000000004770:  R_POSTRISC_B_PCREL_FWD	f64_zero
    4780: 02 00 00 40 c1 02 00 00 ff 3f c0 00 51 18 0c 00      	! BUNDLE
	ldih.l	%r5, 4611404543450677248
	faddsq	%r3, %r3, %r5

    4790: e0 12 80 40 00 30 30 04 04 01 40 ee 00 08 04 00      	! BUNDLE
	fextsh2ss	%r1, %r1
	faddss	%r1, %r2, %r1
	fextss2sd	%r1, %r1

    47a0: 0c 0e 01 42 00 a0 43 00 02 01 c0 00 11 18 04 00      	! BUNDLE
	faddsd	%r1, %r4, %r1
	fextsd2sq	%r1, %r1
	faddsq	%r1, %r3, %r1

    47b0: ec 10 80 40 00 00 00 00 00 83 36 00 00 00 08 04      	! BUNDLE
	fcvtsq2sd	%r1, %r1, 0
	stqr	%r3, 0
	retf	0

		00000000000047b0:  R_POSTRISC_B_PCREL_FWD	f128_zero

00000000000047c0 <test_store_based_f16_zero>:
    47c0: 00 00 00 c2 40 00 f4 01 02 ff 22 00 00 00 fc cb      	! BUNDLE
	alloc	4
	sth	%gz, %r1, 8000
	sthr	%gz, 0

		00000000000047c0:  R_POSTRISC_C_PCREL_FWD	f16_zero
    47d0: 50 20 82 c0 bf 4a e1 0c 02 ff 2a 00 00 00 08 04      	! BUNDLE
	sthx	%gz, %r1, %r2, 1, 20
	sthx.ws	%gz, %r1, %r3, 1, 20
	retf	0


00000000000047e0 <test_store_based_f32_zero>:
    47e0: 00 00 00 c2 40 00 e8 03 02 7f 24 00 00 00 fc d1      	! BUNDLE
	alloc	4
	stw	%gz, %r1, 16000
	stwr	%gz, 0

		00000000000047e0:  R_POSTRISC_C_PCREL_FWD	f32_zero
    47f0: a0 40 82 c0 1f 8b 62 0d 02 7f 2c 00 00 00 08 04      	! BUNDLE
	stwx	%gz, %r1, %r2, 2, 40
	stwx.ws	%gz, %r1, %r3, 2, 40
	retf	0


0000000000004800 <test_store_based_f64_zero>:
    4800: 00 00 00 c2 40 00 d0 07 02 ff 25 00 00 00 fc d7      	! BUNDLE
	alloc	4
	std	%gz, %r1, 32000
	stdr	%gz, 0

		0000000000004800:  R_POSTRISC_C_PCREL_FWD	f64_zero
    4810: 40 61 82 c0 7f 0b e5 0d 02 ff 2d 00 00 00 08 04      	! BUNDLE
	stdx	%gz, %r1, %r2, 3, 80
	stdx.ws	%gz, %r1, %r3, 3, 80
	retf	0


0000000000004820 <test_store_based_f128_zero>:
    4820: 00 00 00 c2 40 00 a0 0f 02 ff 26 00 00 00 fc db      	! BUNDLE
	alloc	4
	stq	%gz, %r1, 64000
	stqr	%gz, 0

		0000000000004820:  R_POSTRISC_C_PCREL_FWD	f128_zero
    4830: 80 82 82 c0 bf 0b 6a 0e 02 ff 2e 00 00 00 08 04      	! BUNDLE
	stqx	%gz, %r1, %r2, 4, 160
	stqx.ws	%gz, %r1, %r3, 4, 160
	retf	0


0000000000004840 <test_function_pointer>:
    4840: 00 00 80 c2 40 10 00 00 04 04 c0 18 f0 0f 0c 00      	! BUNDLE
	alloc	5
	mov	%r4, %r2
	callri	%r3, %r1, %gz

    4850: 90 00 02 42 00 00 00 00 00 02 01 00 00 00 00 04      	! BUNDLE
	addws	%r1, %r4, %r2
	retf	0
	nop	0


0000000000004860 <test_function_call>:
    4860: 00 00 80 c2 40 10 00 00 04 04 00 00 00 00 0c 70      	! BUNDLE
	alloc	5
	mov	%r4, %r2
	callr	%r3, 0

		0000000000004860:  R_POSTRISC_C_JUMP	ccc
    4870: 90 00 02 42 00 00 00 00 00 02 01 00 00 00 00 04      	! BUNDLE
	addws	%r1, %r4, %r2
	retf	0
	nop	0


0000000000004880 <test_function>:
    4880: 00 00 80 c2 40 10 00 00 02 04 00 00 00 00 0c 70      	! BUNDLE
	alloc	5
	mov	%r4, %r1
	callr	%r3, 0

		0000000000004880:  R_POSTRISC_C_JUMP	xprintf
    4890: 90 00 02 42 00 00 00 00 00 02 01 00 00 00 00 04      	! BUNDLE
	addws	%r1, %r4, %r2
	retf	0
	nop	0


00000000000048a0 <test_callmi>:
    48a0: 00 00 80 c2 40 00 19 04 04 82 00 19 00 10 0c 00      	! BUNDLE
	alloc	5
	sladd	%r2, %r2, %r1, 3
	callmi	%r3, %r2, 0

    48b0: 90 00 01 42 00 00 00 00 00 02 01 00 00 00 00 04      	! BUNDLE
	addws	%r1, %r4, %r1
	retf	0
	nop	0


00000000000048c0 <test_callmi_folding>:
    48c0: 00 00 80 c2 40 10 00 00 04 04 00 19 60 08 0c 00      	! BUNDLE
	alloc	5
	mov	%r4, %r2
	callmi	%r3, %r1, 48

    48d0: 08 00 00 42 20 02 00 00 00 02 01 00 00 00 00 04      	! BUNDLE
	addiws	%r1, %r4, 2
	retf	0
	nop	0


00000000000048e0 <test_callplt_folding>:
    48e0: 00 00 00 c2 40 10 00 00 02 03 00 00 00 00 08 74      	! BUNDLE
	alloc	4
	mov	%r3, %r1
	callplt	%r2, 0

		00000000000048e0:  R_POSTRISC_C_PCREL_FWD	gftable+0x28
    48f0: 08 00 80 41 20 02 00 00 00 02 01 00 00 00 00 04      	! BUNDLE
	addiws	%r1, %r3, 2
	retf	0
	nop	0


0000000000004900 <test_global_function_pointer_target>:
    4900: 00 00 00 c1 40 10 00 00 02 81 08 00 00 00 08 04      	! BUNDLE
	alloc	2
	addiws	%r1, %r1, 1
	retf	0


0000000000004910 <test_static_function_pointer_materialize>:
    4910: 00 00 00 c1 40 00 00 00 00 01 18 00 00 00 08 04      	! BUNDLE
	alloc	2
	ldar	%r1, 0
	retf	0

		0000000000004910:  R_POSTRISC_B_JUMP	test_static_function_pointer_target

0000000000004920 <test_static_function_pointer_target>:
    4920: 00 00 00 c1 40 10 00 00 02 81 08 00 00 00 08 04      	! BUNDLE
	alloc	2
	addiws	%r1, %r1, 1
	retf	0


0000000000004930 <test_global_function_pointer_materialize>:
    4930: 00 00 00 c1 40 00 00 00 00 01 18 00 00 00 08 04      	! BUNDLE
	alloc	2
	ldar	%r1, 0
	retf	0

		0000000000004930:  R_POSTRISC_B_JUMP	test_global_function_pointer_target

0000000000004940 <test_extern_function_pointer_materialize>:
    4940: 00 00 00 c1 40 00 00 00 00 01 18 00 00 00 08 04      	! BUNDLE
	alloc	2
	ldar	%r1, 0
	retf	0

		0000000000004940:  R_POSTRISC_B_JUMP	test_extern_function_pointer_target

0000000000004950 <test_fshr_u32>:
    4950: 00 00 80 c1 40 70 a0 04 04 81 00 00 00 00 08 04      	! BUNDLE
	alloc	3
	srpiw	%r1, %r2, %r1, 20
	retf	0


0000000000004960 <test_fshr_u64>:
    4960: 00 00 80 c1 40 a0 a0 04 04 81 00 00 00 00 08 04      	! BUNDLE
	alloc	3
	srpi	%r1, %r2, %r1, 20
	retf	0


0000000000004970 <test_fshr_u128>:
    4970: 00 00 80 c1 40 c0 a1 04 04 81 00 00 00 00 08 04      	! BUNDLE
	alloc	3
	srpiq	%r1, %r2, %r1, 20
	retf	0


0000000000004980 <test_rotate_u32>:
    4980: 00 00 00 c1 40 70 a0 04 02 81 00 00 00 00 08 04      	! BUNDLE
	alloc	2
	srpiw	%r1, %r1, %r1, 20
	retf	0


0000000000004990 <test_rotate_u64>:
    4990: 00 00 00 c1 40 a0 a0 04 02 81 00 00 00 00 08 04      	! BUNDLE
	alloc	2
	srpi	%r1, %r1, %r1, 20
	retf	0


00000000000049a0 <test_rotate_u128>:
    49a0: 00 00 00 c1 40 c0 a1 04 02 81 00 00 00 00 08 04      	! BUNDLE
	alloc	2
	srpiq	%r1, %r1, %r1, 20
	retf	0


00000000000049b0 <test_global_data>:
    49b0: 00 00 80 c1 40 00 00 00 00 82 74 00 00 10 08 20      	! BUNDLE
	alloc	3
	lddzr	%r2, 0
	addi	%r2, %r2, 1

		00000000000049b0:  R_POSTRISC_B_PCREL_FWD	x_bss
    49c0: 00 00 00 80 60 0d 00 00 00 82 74 00 00 10 08 20      	! BUNDLE
	stdr	%r2, 0
	lddzr	%r2, 0
	addi	%r2, %r2, 1

		00000000000049c0:  R_POSTRISC_A_PCREL_FWD	x_bss
		00000000000049c0:  R_POSTRISC_B_PCREL_FWD	x_bss_extern
    49d0: 00 00 00 80 60 0d 00 00 00 02 01 00 00 00 00 04      	! BUNDLE
	stdr	%r2, 0
	retf	0
	nop	0

		00000000000049d0:  R_POSTRISC_A_PCREL_FWD	x_bss_extern

00000000000049e0 <test_global_i8_ptr>:
    49e0: 00 00 00 c1 40 00 00 00 00 81 1c 00 00 00 08 04      	! BUNDLE
	alloc	2
	ldafr	%r1, 0
	retf	0

		00000000000049e0:  R_POSTRISC_B_PCREL_FWD	global_i8

00000000000049f0 <test_global_i8>:
    49f0: 00 00 00 c1 40 00 00 00 00 81 30 00 00 00 08 04      	! BUNDLE
	alloc	2
	ldbsr	%r1, 0
	retf	0

		00000000000049f0:  R_POSTRISC_B_PCREL_FWD	global_i8

0000000000004a00 <test_global_u8>:
    4a00: 00 00 00 c1 40 00 00 00 00 01 30 00 00 00 08 04      	! BUNDLE
	alloc	2
	ldbzr	%r1, 0
	retf	0

		0000000000004a00:  R_POSTRISC_B_PCREL_FWD	global_u8

0000000000004a10 <test_global_i16>:
    4a10: 00 00 00 c1 40 00 00 00 00 01 32 00 00 00 08 04      	! BUNDLE
	alloc	2
	ldhsr	%r1, 0
	retf	0

		0000000000004a10:  R_POSTRISC_B_PCREL_FWD	global_i16

0000000000004a20 <test_global_u16>:
    4a20: 00 00 00 c1 40 00 00 00 00 81 31 00 00 00 08 04      	! BUNDLE
	alloc	2
	ldhzr	%r1, 0
	retf	0

		0000000000004a20:  R_POSTRISC_B_PCREL_FWD	global_u16

0000000000004a30 <test_global_i8_to_i16>:
    4a30: 00 00 00 c1 40 00 00 00 00 81 30 00 00 00 08 04      	! BUNDLE
	alloc	2
	ldbsr	%r1, 0
	retf	0

		0000000000004a30:  R_POSTRISC_B_PCREL_FWD	global_i8

0000000000004a40 <test_global_u8_to_u16>:
    4a40: 00 00 00 c1 40 00 00 00 00 01 30 00 00 00 08 04      	! BUNDLE
	alloc	2
	ldbzr	%r1, 0
	retf	0

		0000000000004a40:  R_POSTRISC_B_PCREL_FWD	global_u8

0000000000004a50 <test_global_i32>:
    4a50: 00 00 00 c1 40 00 00 00 00 01 33 00 00 00 08 04      	! BUNDLE
	alloc	2
	ldwzr	%r1, 0
	retf	0

		0000000000004a50:  R_POSTRISC_B_PCREL_FWD	global_i32

0000000000004a60 <test_global_u32>:
    4a60: 00 00 00 c1 40 00 00 00 00 01 33 00 00 00 08 04      	! BUNDLE
	alloc	2
	ldwzr	%r1, 0
	retf	0

		0000000000004a60:  R_POSTRISC_B_PCREL_FWD	global_u32

0000000000004a70 <test_global_i8_to_i32>:
    4a70: 00 00 00 c1 40 00 00 00 00 81 30 00 00 00 08 04      	! BUNDLE
	alloc	2
	ldbsr	%r1, 0
	retf	0

		0000000000004a70:  R_POSTRISC_B_PCREL_FWD	global_i8

0000000000004a80 <test_global_u8_to_u32>:
    4a80: 00 00 00 c1 40 00 00 00 00 01 30 00 00 00 08 04      	! BUNDLE
	alloc	2
	ldbzr	%r1, 0
	retf	0

		0000000000004a80:  R_POSTRISC_B_PCREL_FWD	global_u8

0000000000004a90 <test_global_i16_to_i32>:
    4a90: 00 00 00 c1 40 00 00 00 00 01 32 00 00 00 08 04      	! BUNDLE
	alloc	2
	ldhsr	%r1, 0
	retf	0

		0000000000004a90:  R_POSTRISC_B_PCREL_FWD	global_i16

0000000000004aa0 <test_global_u16_to_u32>:
    4aa0: 00 00 00 c1 40 00 00 00 00 81 31 00 00 00 08 04      	! BUNDLE
	alloc	2
	ldhzr	%r1, 0
	retf	0

		0000000000004aa0:  R_POSTRISC_B_PCREL_FWD	global_u16

0000000000004ab0 <test_global_i8_to_i64>:
    4ab0: 00 00 00 c1 40 00 00 00 00 81 30 00 00 00 08 04      	! BUNDLE
	alloc	2
	ldbsr	%r1, 0
	retf	0

		0000000000004ab0:  R_POSTRISC_B_PCREL_FWD	global_i8

0000000000004ac0 <test_global_u8_to_u64>:
    4ac0: 00 00 00 c1 40 00 00 00 00 01 30 00 00 00 08 04      	! BUNDLE
	alloc	2
	ldbzr	%r1, 0
	retf	0

		0000000000004ac0:  R_POSTRISC_B_PCREL_FWD	global_u8

0000000000004ad0 <test_global_i16_to_i64>:
    4ad0: 00 00 00 c1 40 00 00 00 00 01 32 00 00 00 08 04      	! BUNDLE
	alloc	2
	ldhsr	%r1, 0
	retf	0

		0000000000004ad0:  R_POSTRISC_B_PCREL_FWD	global_i16

0000000000004ae0 <test_global_u16_to_u64>:
    4ae0: 00 00 00 c1 40 00 00 00 00 81 31 00 00 00 08 04      	! BUNDLE
	alloc	2
	ldhzr	%r1, 0
	retf	0

		0000000000004ae0:  R_POSTRISC_B_PCREL_FWD	global_u16

0000000000004af0 <test_global_i32_to_i64>:
    4af0: 00 00 00 c1 40 00 00 00 00 81 33 00 00 00 08 04      	! BUNDLE
	alloc	2
	ldwsr	%r1, 0
	retf	0

		0000000000004af0:  R_POSTRISC_B_PCREL_FWD	global_i32

0000000000004b00 <test_global_u32_to_u64>:
    4b00: 00 00 00 c1 40 00 00 00 00 01 33 00 00 00 08 04      	! BUNDLE
	alloc	2
	ldwzr	%r1, 0
	retf	0

		0000000000004b00:  R_POSTRISC_B_PCREL_FWD	global_u32

0000000000004b10 <test_global_i64>:
    4b10: 00 00 00 c1 40 00 00 00 00 81 34 00 00 00 08 04      	! BUNDLE
	alloc	2
	lddzr	%r1, 0
	retf	0

		0000000000004b10:  R_POSTRISC_B_PCREL_FWD	global_i64

0000000000004b20 <test_global_u64>:
    4b20: 00 00 00 c1 40 00 00 00 00 81 34 00 00 00 08 04      	! BUNDLE
	alloc	2
	lddzr	%r1, 0
	retf	0

		0000000000004b20:  R_POSTRISC_B_PCREL_FWD	global_u64

0000000000004b30 <test_global_array_folding_i8>:
    4b30: 00 00 00 c1 40 00 00 00 00 81 30 00 00 00 08 04      	! BUNDLE
	alloc	2
	ldbsr	%r1, 0
	retf	0

		0000000000004b30:  R_POSTRISC_B_PCREL_FWD	global_array_i8+0x5

0000000000004b40 <test_global_array_folding_i16>:
    4b40: 00 00 00 c1 40 00 00 00 00 01 32 00 00 00 08 04      	! BUNDLE
	alloc	2
	ldhsr	%r1, 0
	retf	0

		0000000000004b40:  R_POSTRISC_B_PCREL_FWD	global_array_i16+0xa

0000000000004b50 <test_global_array_folding_i32>:
    4b50: 00 00 00 c1 40 00 00 00 00 01 33 00 00 00 08 04      	! BUNDLE
	alloc	2
	ldwzr	%r1, 0
	retf	0

		0000000000004b50:  R_POSTRISC_B_PCREL_FWD	global_array_i32+0x14

0000000000004b60 <test_global_array_folding_i64>:
    4b60: 00 00 00 c1 40 00 00 00 00 81 34 00 00 00 08 04      	! BUNDLE
	alloc	2
	lddzr	%r1, 0
	retf	0

		0000000000004b60:  R_POSTRISC_B_PCREL_FWD	global_array_i64+0x28

0000000000004b70 <test_ldi128>:
    4b70: 00 00 00 c1 40 20 1b c6 0b 01 04 00 00 00 08 04      	! BUNDLE
	alloc	2
	ldi	%r1, 12345778
	retf	0


0000000000004b80 <test_ldi128_long>:
    4b80: 01 00 00 c1 40 50 71 17 b7 01 04 7d 69 d3 36 00      	! BUNDLE
	alloc	2
	ldi.l	%r1, 987654321123456789

    4b90: 00 00 00 80 40 00 00 00 00 00 01 00 00 00 00 04      	! BUNDLE
	retf	0
	nop	0
	nop	0


0000000000004ba0 <test_ldi128_verylong>:
    4ba0: 01 00 00 c1 40 f0 ff ff 23 01 c4 ff ff ff ff 03      	! BUNDLE
	alloc	2
	ldi.l	%r1, -230686721

    4bb0: fe ff 3f 40 c0 02 00 00 00 00 00 00 00 00 08 04      	! BUNDLE
	ldih.l	%r1, 1048575
	retf	0


0000000000004bc0 <test_subfi_i128>:
    4bc0: 00 00 80 c1 40 20 4d 00 00 02 c4 16 10 10 04 00      	! BUNDLE
	alloc	3
	ldi	%r2, 1234
	subq	%r1, %r2, %r1

    4bd0: 00 00 00 80 40 00 00 00 00 00 01 00 00 00 00 04      	! BUNDLE
	retf	0
	nop	0
	nop	0


0000000000004be0 <test_addi_i128>:
    4be0: 01 00 80 c1 40 50 f1 05 cd 02 84 2e 6d da 06 00      	! BUNDLE
	alloc	3
	ldi.l	%r2, 123456789123456789

    4bf0: 69 01 82 40 00 f0 fa af ff 02 84 fe eb bf fe 01      	! BUNDLE
	addq	%r1, %r1, %r2
	ldi.l	%r2, 9200848539817279407

    4c00: 64 00 82 40 00 00 00 00 00 02 01 00 00 00 00 04      	! BUNDLE
	or	%r1, %r1, %r2
	retf	0
	nop	0


0000000000004c10 <test_andi_i128>:
    4c10: 01 00 00 c1 40 50 f1 05 03 81 85 59 97 36 6d 03      	! BUNDLE
	alloc	2
	andi.l	%r1, %r1, 123456789123456789

    4c20: 00 00 00 80 40 00 00 00 00 00 01 00 00 00 00 04      	! BUNDLE
	retf	0
	nop	0
	nop	0


0000000000004c30 <test_ori_i128>:
    4c30: 01 00 00 c1 40 50 71 17 03 01 c6 96 be b4 69 1b      	! BUNDLE
	alloc	2
	ori.l	%r1, %r1, 987654321123456789

    4c40: 00 00 00 80 40 00 00 00 00 00 01 00 00 00 00 04      	! BUNDLE
	retf	0
	nop	0
	nop	0


0000000000004c50 <test_add_i128>:
    4c50: 00 00 80 c1 40 a0 05 04 04 01 00 00 00 00 08 04      	! BUNDLE
	alloc	3
	addq	%r1, %r2, %r1
	retf	0


0000000000004c60 <test_sub_i128>:
    4c60: 00 00 80 c1 40 b0 05 08 02 01 00 00 00 00 08 04      	! BUNDLE
	alloc	3
	subq	%r1, %r1, %r2
	retf	0


0000000000004c70 <test_immediate_i32>:
    4c70: 00 00 00 c1 40 b0 2e 43 8a 01 04 00 00 00 08 04      	! BUNDLE
	alloc	2
	ldi	%r1, -123456789
	retf	0


0000000000004c80 <test_immediate_u32>:
    4c80: 00 00 00 c1 40 50 d1 bc 75 01 04 00 00 00 08 04      	! BUNDLE
	alloc	2
	ldi	%r1, 123456789
	retf	0


0000000000004c90 <test_immediate_i32_long>:
    4c90: 01 00 00 c1 40 e0 d2 9f 66 01 c4 fe ff ff ff 03      	! BUNDLE
	alloc	2
	ldi.l	%r1, -1234567890

    4ca0: 00 00 00 80 40 00 00 00 00 00 01 00 00 00 00 04      	! BUNDLE
	retf	0
	nop	0
	nop	0


0000000000004cb0 <test_immediate_u32_long>:
    4cb0: 01 00 00 c1 40 20 2d 60 99 01 04 01 00 00 00 00      	! BUNDLE
	alloc	2
	ldi.l	%r1, 1234567890

    4cc0: 00 00 00 80 40 00 00 00 00 00 01 00 00 00 00 04      	! BUNDLE
	retf	0
	nop	0
	nop	0


0000000000004cd0 <test_immediate_i64>:
    4cd0: 00 00 00 c1 40 20 eb 39 f4 01 04 00 00 00 08 04      	! BUNDLE
	alloc	2
	ldi	%r1, -12345678
	retf	0


0000000000004ce0 <test_immediate_u64>:
    4ce0: 00 00 00 c1 40 e0 14 c6 0b 01 04 00 00 00 08 04      	! BUNDLE
	alloc	2
	ldi	%r1, 12345678
	retf	0


0000000000004cf0 <test_immediate_i64_long>:
    4cf0: 01 00 00 c1 40 50 b3 4f e0 01 04 82 fb ff ff 03      	! BUNDLE
	alloc	2
	ldi.l	%r1, -1234567890123

    4d00: 00 00 00 80 40 00 00 00 00 00 01 00 00 00 00 04      	! BUNDLE
	retf	0
	nop	0
	nop	0


0000000000004d10 <test_immediate_u64_long>:
    4d10: 01 00 00 c1 40 b0 4c b0 1f 01 c4 7d 04 00 00 00      	! BUNDLE
	alloc	2
	ldi.l	%r1, 1234567890123

    4d20: 00 00 00 80 40 00 00 00 00 00 01 00 00 00 00 04      	! BUNDLE
	retf	0
	nop	0
	nop	0


0000000000004d30 <test_immediate_size_max>:
    4d30: 01 00 00 c1 40 f0 ff ff ff 01 c4 ff ff ff ff 01      	! BUNDLE
	alloc	2
	ldi.l	%r1, 9223372036854775807

    4d40: 00 00 00 80 40 00 00 00 00 00 01 00 00 00 00 04      	! BUNDLE
	retf	0
	nop	0
	nop	0


0000000000004d50 <test_load_based_u32>:
    4d50: 00 00 00 c1 40 00 e8 03 02 01 23 00 00 00 08 04      	! BUNDLE
	alloc	2
	ldwz	%r1, %r1, 16000
	retf	0


0000000000004d60 <test_load_based_u16>:
    4d60: 00 00 00 c1 40 00 f4 01 02 81 21 00 00 00 08 04      	! BUNDLE
	alloc	2
	ldhz	%r1, %r1, 8000
	retf	0


0000000000004d70 <test_load_based_u8>:
    4d70: 00 00 00 c1 40 00 fa 00 02 01 20 00 00 00 08 04      	! BUNDLE
	alloc	2
	ldbz	%r1, %r1, 4000
	retf	0


0000000000004d80 <test_load_based_i32>:
    4d80: 00 00 00 c1 40 00 e8 03 02 01 23 00 00 00 08 04      	! BUNDLE
	alloc	2
	ldwz	%r1, %r1, 16000
	retf	0


0000000000004d90 <test_load_based_i16>:
    4d90: 00 00 00 c1 40 00 f4 01 02 01 22 00 00 00 08 04      	! BUNDLE
	alloc	2
	ldhs	%r1, %r1, 8000
	retf	0


0000000000004da0 <test_load_based_i8>:
    4da0: 00 00 00 c1 40 00 fa 00 02 81 20 00 00 00 08 04      	! BUNDLE
	alloc	2
	ldbs	%r1, %r1, 4000
	retf	0


0000000000004db0 <test_base_index_u32_u32>:
    4db0: 00 00 00 c2 40 30 03 0c 04 02 00 80 26 08 04 b2      	! BUNDLE
	alloc	4
	divuw	%r2, %r2, %r3
	lddzx.wz	%r1, %r1, %r2, 3, 0

    4dc0: 00 00 00 80 40 00 00 00 00 00 01 00 00 00 00 04      	! BUNDLE
	retf	0
	nop	0
	nop	0


0000000000004dd0 <test_base_address>:
    4dd0: 01 00 00 c4 40 00 00 74 03 85 64 87 74 01 00 00      	! BUNDLE
	alloc	8
	lddz.l	%r5, %r1, 800000000000

    4de0: 01 7d 80 80 21 09 80 09 02 87 2c e1 f5 05 00 00      	! BUNDLE
	lddz	%r6, %r1, 8000
	lddzx.l	%r7, %r1, %r2, 3, 800000000

    4df0: 40 61 84 40 20 0b 0a 0a 06 82 ac 00 00 00 00 04      	! BUNDLE
	lddzx	%r1, %r1, %r4, 3, 80
	lddzx	%r2, %r3, %r2, 4, 160
	nop	2

    4e00: 22 81 84 c1 20 3b 00 00 00 00 00 08 50 30 10 00      	! BUNDLE
	lddzx.l	%r3, %r3, %r4, 4, 1608
	add	%r4, %r6, %r5

    4e10: 00 02 07 42 20 00 18 08 02 81 00 00 00 00 08 04      	! BUNDLE
	addadd	%r1, %r4, %r7, %r1
	addadd	%r1, %r1, %r2, %r3
	retf	0


0000000000004e20 <MemoryIndexed>:
    4e20: 00 00 80 c2 40 30 00 20 00 03 39 0a 00 10 08 20      	! BUNDLE
	alloc	5
	bdlti	%r3, 1, 48
	addi	%r2, %r2, 40

    4e30: 00 00 80 00 21 09 00 12 04 84 2c 00 00 08 10 96      	! BUNDLE
	lddz	%r4, %r1, 0
	lddzx	%r4, %r2, %r4, 4, 0
	std	%r4, %r1, 0

    4e40: fc ff ff c1 00 82 00 00 02 01 c8 ff ff f8 0f 06      	! BUNDLE
	addi	%r3, %r3, -1
	addi	%r1, %r1, 8
	bdne	%r3, %gz, -16

    4e50: 00 00 00 80 40 00 00 00 00 00 01 00 00 00 00 04      	! BUNDLE
	retf	0
	nop	0
	nop	0


0000000000004e60 <test_base_index_i32>:
    4e60: 00 00 80 c1 40 00 e0 09 02 81 2c 00 00 00 08 04      	! BUNDLE
	alloc	3
	lddzx.ws	%r1, %r1, %r2, 3, 0
	retf	0


0000000000004e70 <test_base_index_i32_offset>:
    4e70: 00 00 80 c1 40 00 ea 09 02 81 2c 00 00 00 08 04      	! BUNDLE
	alloc	3
	lddzx.ws	%r1, %r1, %r2, 3, 160
	retf	0


0000000000004e80 <test_base_index_u32>:
    4e80: 00 00 80 c1 40 00 a0 09 02 81 2c 00 00 00 08 04      	! BUNDLE
	alloc	3
	lddzx.wz	%r1, %r1, %r2, 3, 0
	retf	0


0000000000004e90 <test_base_index_u32_offset>:
    4e90: 00 00 80 c1 40 40 01 00 04 82 08 80 26 08 04 b2      	! BUNDLE
	alloc	3
	addiws	%r2, %r2, 20
	lddzx.wz	%r1, %r1, %r2, 3, 0

    4ea0: 00 00 00 80 40 00 00 00 00 00 01 00 00 00 00 04      	! BUNDLE
	retf	0
	nop	0
	nop	0


0000000000004eb0 <test_base_index_i64>:
    4eb0: 00 00 80 c1 40 00 8a 09 02 81 2c 00 00 00 08 04      	! BUNDLE
	alloc	3
	lddzx	%r1, %r1, %r2, 3, 160
	retf	0


0000000000004ec0 <test_base_index_i32_struct>:
    4ec0: 01 00 80 c1 40 80 74 0a 02 81 2c 00 00 00 00 00      	! BUNDLE
	alloc	3
	lddzx.ws.l	%r1, %r1, %r2, 4, 328

    4ed0: 00 00 00 80 40 00 00 00 00 00 01 00 00 00 00 04      	! BUNDLE
	retf	0
	nop	0
	nop	0


0000000000004ee0 <test_base_index_u32_struct>:
    4ee0: 00 00 80 c1 40 40 01 00 04 82 08 82 28 08 04 b2      	! BUNDLE
	alloc	3
	addiws	%r2, %r2, 20
	lddzx.wz	%r1, %r1, %r2, 4, 8

    4ef0: 00 00 00 80 40 00 00 00 00 00 01 00 00 00 00 04      	! BUNDLE
	retf	0
	nop	0
	nop	0


0000000000004f00 <for_loop>:
    4f00: 00 00 80 c3 40 10 00 00 fe 04 00 01 80 00 04 e4      	! BUNDLE
	alloc	7
	mov	%r4, %gz
	bdlti	%r1, 1, 64

    4f10: 40 01 80 41 01 02 00 00 00 00 01 00 00 00 00 04      	! BUNDLE
	addi	%r5, %r3, 80
	nop	0
	nop	0

    4f20: 00 00 80 82 21 09 02 10 0c 04 c0 ff ff 0f 04 20      	! BUNDLE
	lddz	%r6, %r5, 0
	add	%r4, %r6, %r4
	addi	%r1, %r1, -1

    4f30: 20 00 80 42 01 f2 ff 3f fe 81 01 00 00 00 00 04      	! BUNDLE
	addi	%r5, %r5, 8
	bdne	%r1, %gz, -16
	nop	0

    4f40: a0 62 82 41 20 0b 02 10 02 01 00 00 00 00 08 04      	! BUNDLE
	lddzx	%r1, %r3, %r2, 3, 168
	add	%r1, %r1, %r4
	retf	0


0000000000004f50 <for_loop_32>:
    4f50: 00 00 80 c3 40 10 00 00 fe 04 00 01 80 00 04 f0      	! BUNDLE
	alloc	7
	mov	%r4, %gz
	bwlti	%r1, 1, 64

    4f60: a0 00 80 41 01 e2 04 00 02 01 00 00 00 00 00 04      	! BUNDLE
	addi	%r5, %r3, 40
	srlwi	%r1, %r1, 0
	nop	0

    4f70: 00 00 80 82 c1 48 02 10 0c 04 c0 ff ff 0f 04 20      	! BUNDLE
	ldwz	%r6, %r5, 0
	addws	%r4, %r6, %r4
	addi	%r1, %r1, -1

    4f80: 10 00 80 42 01 f2 ff 3f fe 81 01 00 00 00 00 04      	! BUNDLE
	addi	%r5, %r5, 4
	bdne	%r1, %gz, -16
	nop	0

    4f90: 50 59 82 41 c0 4a 02 10 02 01 00 00 00 00 08 04      	! BUNDLE
	ldwzx.ws	%r1, %r3, %r2, 2, 84
	addws	%r1, %r1, %r4
	retf	0


0000000000004fa0 <test_i64_min_lt>:
    4fa0: 00 00 80 c1 40 a0 03 08 02 01 00 00 00 00 08 04      	! BUNDLE
	alloc	3
	mins	%r1, %r1, %r2
	retf	0


0000000000004fb0 <test_u64_min_lt>:
    4fb0: 00 00 80 c1 40 b0 03 08 02 01 00 00 00 00 08 04      	! BUNDLE
	alloc	3
	minu	%r1, %r1, %r2
	retf	0


0000000000004fc0 <test_i64_min_le>:
    4fc0: 00 00 80 c1 40 a0 03 08 02 01 00 00 00 00 08 04      	! BUNDLE
	alloc	3
	mins	%r1, %r1, %r2
	retf	0


0000000000004fd0 <test_u64_min_le>:
    4fd0: 00 00 80 c1 40 b0 03 08 02 01 00 00 00 00 08 04      	! BUNDLE
	alloc	3
	minu	%r1, %r1, %r2
	retf	0


0000000000004fe0 <test_i64_min_gt>:
    4fe0: 00 00 80 c1 40 a0 03 04 04 01 00 00 00 00 08 04      	! BUNDLE
	alloc	3
	mins	%r1, %r2, %r1
	retf	0


0000000000004ff0 <test_u64_min_gt>:
    4ff0: 00 00 80 c1 40 b0 03 04 04 01 00 00 00 00 08 04      	! BUNDLE
	alloc	3
	minu	%r1, %r2, %r1
	retf	0


0000000000005000 <test_i64_min_ge>:
    5000: 00 00 80 c1 40 a0 03 04 04 01 00 00 00 00 08 04      	! BUNDLE
	alloc	3
	mins	%r1, %r2, %r1
	retf	0


0000000000005010 <test_u64_min_ge>:
    5010: 00 00 80 c1 40 b0 03 04 04 01 00 00 00 00 08 04      	! BUNDLE
	alloc	3
	minu	%r1, %r2, %r1
	retf	0


0000000000005020 <test_i64_max_lt>:
    5020: 00 00 80 c1 40 80 03 08 02 01 00 00 00 00 08 04      	! BUNDLE
	alloc	3
	maxs	%r1, %r1, %r2
	retf	0


0000000000005030 <test_u64_max_lt>:
    5030: 00 00 80 c1 40 90 03 08 02 01 00 00 00 00 08 04      	! BUNDLE
	alloc	3
	maxu	%r1, %r1, %r2
	retf	0


0000000000005040 <test_i64_max_le>:
    5040: 00 00 80 c1 40 80 03 08 02 01 00 00 00 00 08 04      	! BUNDLE
	alloc	3
	maxs	%r1, %r1, %r2
	retf	0


0000000000005050 <test_u64_max_le>:
    5050: 00 00 80 c1 40 90 03 08 02 01 00 00 00 00 08 04      	! BUNDLE
	alloc	3
	maxu	%r1, %r1, %r2
	retf	0


0000000000005060 <test_i64_max_gt>:
    5060: 00 00 80 c1 40 80 03 04 04 01 00 00 00 00 08 04      	! BUNDLE
	alloc	3
	maxs	%r1, %r2, %r1
	retf	0


0000000000005070 <test_u64_max_gt>:
    5070: 00 00 80 c1 40 90 03 04 04 01 00 00 00 00 08 04      	! BUNDLE
	alloc	3
	maxu	%r1, %r2, %r1
	retf	0


0000000000005080 <test_i64_max_ge>:
    5080: 00 00 80 c1 40 80 03 04 04 01 00 00 00 00 08 04      	! BUNDLE
	alloc	3
	maxs	%r1, %r2, %r1
	retf	0


0000000000005090 <test_u64_max_ge>:
    5090: 00 00 80 c1 40 90 03 04 04 01 00 00 00 00 08 04      	! BUNDLE
	alloc	3
	maxu	%r1, %r2, %r1
	retf	0


00000000000050a0 <test_i32_min_lt>:
    50a0: 00 00 80 c1 40 e0 03 08 02 01 00 00 00 00 08 04      	! BUNDLE
	alloc	3
	minsw	%r1, %r1, %r2
	retf	0


00000000000050b0 <test_u32_min_lt>:
    50b0: 00 00 80 c1 40 f0 03 08 02 01 00 00 00 00 08 04      	! BUNDLE
	alloc	3
	minuw	%r1, %r1, %r2
	retf	0


00000000000050c0 <test_i32_min_le>:
    50c0: 00 00 80 c1 40 e0 03 08 02 01 00 00 00 00 08 04      	! BUNDLE
	alloc	3
	minsw	%r1, %r1, %r2
	retf	0


00000000000050d0 <test_u32_min_le>:
    50d0: 00 00 80 c1 40 f0 03 08 02 01 00 00 00 00 08 04      	! BUNDLE
	alloc	3
	minuw	%r1, %r1, %r2
	retf	0


00000000000050e0 <test_i32_min_gt>:
    50e0: 00 00 80 c1 40 e0 03 04 04 01 00 00 00 00 08 04      	! BUNDLE
	alloc	3
	minsw	%r1, %r2, %r1
	retf	0


00000000000050f0 <test_u32_min_gt>:
    50f0: 00 00 80 c1 40 f0 03 04 04 01 00 00 00 00 08 04      	! BUNDLE
	alloc	3
	minuw	%r1, %r2, %r1
	retf	0


0000000000005100 <test_i32_min_ge>:
    5100: 00 00 80 c1 40 e0 03 04 04 01 00 00 00 00 08 04      	! BUNDLE
	alloc	3
	minsw	%r1, %r2, %r1
	retf	0


0000000000005110 <test_u32_min_ge>:
    5110: 00 00 80 c1 40 f0 03 04 04 01 00 00 00 00 08 04      	! BUNDLE
	alloc	3
	minuw	%r1, %r2, %r1
	retf	0


0000000000005120 <test_i32_max_lt>:
    5120: 00 00 80 c1 40 c0 03 08 02 01 00 00 00 00 08 04      	! BUNDLE
	alloc	3
	maxsw	%r1, %r1, %r2
	retf	0


0000000000005130 <test_u32_max_lt>:
    5130: 00 00 80 c1 40 d0 03 08 02 01 00 00 00 00 08 04      	! BUNDLE
	alloc	3
	maxuw	%r1, %r1, %r2
	retf	0


0000000000005140 <test_i32_max_le>:
    5140: 00 00 80 c1 40 c0 03 08 02 01 00 00 00 00 08 04      	! BUNDLE
	alloc	3
	maxsw	%r1, %r1, %r2
	retf	0


0000000000005150 <test_u32_max_le>:
    5150: 00 00 80 c1 40 d0 03 08 02 01 00 00 00 00 08 04      	! BUNDLE
	alloc	3
	maxuw	%r1, %r1, %r2
	retf	0


0000000000005160 <test_i32_max_gt>:
    5160: 00 00 80 c1 40 c0 03 04 04 01 00 00 00 00 08 04      	! BUNDLE
	alloc	3
	maxsw	%r1, %r2, %r1
	retf	0


0000000000005170 <test_u32_max_gt>:
    5170: 00 00 80 c1 40 d0 03 04 04 01 00 00 00 00 08 04      	! BUNDLE
	alloc	3
	maxuw	%r1, %r2, %r1
	retf	0


0000000000005180 <test_i32_max_ge>:
    5180: 00 00 80 c1 40 c0 03 04 04 01 00 00 00 00 08 04      	! BUNDLE
	alloc	3
	maxsw	%r1, %r2, %r1
	retf	0


0000000000005190 <test_u32_max_ge>:
    5190: 00 00 80 c1 40 d0 03 04 04 01 00 00 00 00 08 04      	! BUNDLE
	alloc	3
	maxuw	%r1, %r2, %r1
	retf	0


00000000000051a0 <test_mov2>:
    51a0: 00 00 80 c5 40 e0 21 0c 10 87 80 27 20 50 24 02      	! BUNDLE
	alloc	11
	mov2	%r7, %r8, %r3, %r4
	mov2	%r9, %r10, %r2, %r1

    51b0: 00 00 00 80 01 47 02 04 0e 05 80 87 30 40 1c 02      	! BUNDLE
	callr	%r6, 0
	addws	%r5, %r7, %r1
	mov2	%r7, %r8, %r3, %r4

		00000000000051b0:  R_POSTRISC_A_JUMP	test_mov2_callback
    51c0: 78 fe 02 45 22 00 00 00 00 06 1c 09 70 28 08 00      	! BUNDLE
	mov2	%r9, %r10, %r2, %gz
	callr	%r6, 0
	addws	%r2, %r5, %r7

		00000000000051c0:  R_POSTRISC_B_JUMP	test_mov2_callback
    51d0: 78 08 03 c4 21 e0 f9 ff 15 89 00 00 00 00 18 70      	! BUNDLE
	mov2	%r7, %r8, %r3, %r4
	mov2	%r9, %r10, %gz, %gz
	callr	%r6, 0

		00000000000051d0:  R_POSTRISC_C_JUMP	test_mov2_callback
    51e0: 90 00 07 81 00 e0 f9 0f 10 87 80 e7 ff 57 24 02      	! BUNDLE
	addws	%r2, %r2, %r7
	mov2	%r7, %r8, %r3, %gz
	mov2	%r9, %r10, %gz, %gz

    51f0: 00 00 00 80 01 47 02 1c 04 02 80 e7 ff 47 1c 02      	! BUNDLE
	callr	%r6, 0
	addws	%r2, %r2, %r7
	mov2	%r7, %r8, %gz, %gz

		00000000000051f0:  R_POSTRISC_A_JUMP	test_mov2_callback
    5200: 78 fe 7f 45 22 00 00 00 00 06 1c 09 70 10 04 00      	! BUNDLE
	mov2	%r9, %r10, %gz, %gz
	callr	%r6, 0
	addws	%r1, %r2, %r7

		0000000000005200:  R_POSTRISC_B_JUMP	test_mov2_callback
    5210: 00 00 00 80 40 00 00 00 00 00 01 00 00 00 00 04      	! BUNDLE
	retf	0
	nop	0
	nop	0


0000000000005220 <test_after_naked>:
0000000000005220 <test_naked>:
    5220: 00 00 80 c0 40 00 00 00 00 02 01 00 00 00 00 04      	! BUNDLE
	alloc	1
	retf	0
	nop	0


0000000000005230 <test_nullify_bool>:
    5230: 00 00 00 c2 40 80 12 a3 01 81 00 00 00 00 08 d2      	! BUNDLE
	alloc	4
	nulbci	%r1, 0, 2, 3
	lddzr	%r2, 0

		0000000000005230:  R_POSTRISC_C_PCREL_FWD	left_bool
    5240: 80 00 01 41 00 00 00 00 00 82 34 08 10 10 04 00      	! BUNDLE
	add	%r1, %r2, %r1
	lddzr	%r2, 0
	add	%r1, %r2, %r1

		0000000000005240:  R_POSTRISC_B_PCREL_FWD	right_bool
    5250: 40 60 81 c1 7f 0b 05 00 06 82 24 08 10 10 04 00      	! BUNDLE
	stdx	%gz, %r3, %r1, 3, 16
	lddz	%r2, %r3, 80
	add	%r1, %r2, %r1

    5260: 00 00 00 80 40 00 00 00 00 00 01 00 00 00 00 04      	! BUNDLE
	retf	0
	nop	0
	nop	0


0000000000005270 <test_nullify_bool_not>:
    5270: 00 00 00 c2 40 80 12 e3 01 81 00 00 00 00 08 d2      	! BUNDLE
	alloc	4
	nulbsi	%r1, 0, 2, 3
	lddzr	%r2, 0

		0000000000005270:  R_POSTRISC_C_PCREL_FWD	left_bool
    5280: 80 00 01 41 00 00 00 00 00 82 34 08 10 10 04 00      	! BUNDLE
	add	%r1, %r2, %r1
	lddzr	%r2, 0
	add	%r1, %r2, %r1

		0000000000005280:  R_POSTRISC_B_PCREL_FWD	right_bool
    5290: 40 60 81 c1 7f 0b 05 00 06 82 24 08 10 10 04 00      	! BUNDLE
	stdx	%gz, %r3, %r1, 3, 16
	lddz	%r2, %r3, 80
	add	%r1, %r2, %r1

    52a0: 00 00 00 80 40 00 00 00 00 00 01 00 00 00 00 04      	! BUNDLE
	retf	0
	nop	0
	nop	0


00000000000052b0 <test_nullify_bool_and>:
    52b0: 00 00 00 c2 40 20 00 a0 01 81 81 00 80 06 08 06      	! BUNDLE
	alloc	4
	bbci	%r1, 0, 32
	bbci	%r2, 0, 32

    52c0: 00 00 00 80 20 0d 02 04 04 01 80 00 00 00 04 04      	! BUNDLE
	lddzr	%r2, 0
	add	%r1, %r2, %r1
	jmp	32

		00000000000052c0:  R_POSTRISC_A_PCREL_FWD	left_bool
    52d0: 00 00 00 80 20 0d 02 04 04 01 00 04 16 18 fc b7      	! BUNDLE
	lddzr	%r2, 0
	add	%r1, %r2, %r1
	stdx	%gz, %r3, %r1, 3, 16

		00000000000052d0:  R_POSTRISC_A_PCREL_FWD	right_bool
    52e0: 40 01 80 81 20 09 02 04 04 01 00 00 00 00 08 04      	! BUNDLE
	lddz	%r2, %r3, 80
	add	%r1, %r2, %r1
	retf	0


00000000000052f0 <test_nullify_bool_or>:
    52f0: 00 00 00 c2 40 30 00 e0 01 81 c1 00 80 07 08 06      	! BUNDLE
	alloc	4
	bbsi	%r1, 0, 48
	bbsi	%r2, 0, 48

    5300: 00 00 00 80 20 0d 02 04 04 01 00 04 16 18 fc b7      	! BUNDLE
	lddzr	%r2, 0
	add	%r1, %r2, %r1
	stdx	%gz, %r3, %r1, 3, 16

		0000000000005300:  R_POSTRISC_A_PCREL_FWD	right_bool
    5310: 08 00 00 40 40 00 00 00 00 00 01 00 00 00 00 04      	! BUNDLE
	jmp	32
	nop	0
	nop	0

    5320: 00 00 00 80 20 0d 02 04 04 01 00 00 00 00 00 04      	! BUNDLE
	lddzr	%r2, 0
	add	%r1, %r2, %r1
	nop	0

		0000000000005320:  R_POSTRISC_A_PCREL_FWD	left_bool
    5330: 40 01 80 81 20 09 02 04 04 01 00 00 00 00 08 04      	! BUNDLE
	lddz	%r2, %r3, 80
	add	%r1, %r2, %r1
	retf	0


0000000000005340 <test_nullification_i64_le>:
    5340: 00 00 80 c2 40 00 01 00 04 84 24 6a 90 09 10 02      	! BUNDLE
	alloc	5
	lddz	%r4, %r2, 16
	nuldle	%r4, %r1, 3, 4

    5350: 20 60 01 81 20 5b 00 00 04 84 0b f4 01 00 08 10      	! BUNDLE
	lddzx	%r2, %r2, %r1, 3, 8
	muli	%r4, %r2, 5
	ldi	%r2, 2000

    5360: 40 60 81 01 21 3b 00 00 08 84 0b 00 16 10 fc b7      	! BUNDLE
	lddzx	%r4, %r3, %r1, 3, 16
	muli	%r4, %r4, 3
	stdx	%gz, %r2, %r1, 3, 0

    5370: e0 2e 00 80 00 81 82 05 06 83 2c 08 20 08 04 00      	! BUNDLE
	ldi	%r2, 3000
	lddzx	%r3, %r3, %r1, 3, 40
	add	%r1, %r1, %r2

    5380: 00 06 84 40 20 00 00 00 00 02 01 00 00 00 00 04      	! BUNDLE
	addadd	%r1, %r1, %r4, %r3
	retf	0
	nop	0


0000000000005390 <test_nullification_i64_lt>:
    5390: 00 00 80 c2 40 00 01 00 04 84 24 6a 10 09 10 02      	! BUNDLE
	alloc	5
	lddz	%r4, %r2, 16
	nuldlt	%r4, %r1, 3, 4

    53a0: 20 60 01 81 20 5b 00 00 04 84 0b f4 01 00 08 10      	! BUNDLE
	lddzx	%r2, %r2, %r1, 3, 8
	muli	%r4, %r2, 5
	ldi	%r2, 2000

    53b0: 40 60 81 01 21 3b 00 00 08 84 0b 00 16 10 fc b7      	! BUNDLE
	lddzx	%r4, %r3, %r1, 3, 16
	muli	%r4, %r4, 3
	stdx	%gz, %r2, %r1, 3, 0

    53c0: e0 2e 00 80 00 81 82 05 06 83 2c 08 20 08 04 00      	! BUNDLE
	ldi	%r2, 3000
	lddzx	%r3, %r3, %r1, 3, 40
	add	%r1, %r1, %r2

    53d0: 00 06 84 40 20 00 00 00 00 02 01 00 00 00 00 04      	! BUNDLE
	addadd	%r1, %r1, %r4, %r3
	retf	0
	nop	0


00000000000053e0 <test_nuldleu>:
    53e0: 00 00 00 c2 40 80 12 a3 02 82 00 00 00 00 08 d2      	! BUNDLE
	alloc	4
	nuldleu	%r2, %r1, 2, 3
	lddzr	%r2, 0

		00000000000053e0:  R_POSTRISC_C_PCREL_FWD	left
    53f0: 80 00 01 41 00 00 00 00 00 82 34 08 10 10 04 00      	! BUNDLE
	add	%r1, %r2, %r1
	lddzr	%r2, 0
	add	%r1, %r2, %r1

		00000000000053f0:  R_POSTRISC_B_PCREL_FWD	right
    5400: 40 60 81 c1 7f 0b 05 00 06 82 24 08 10 10 04 00      	! BUNDLE
	stdx	%gz, %r3, %r1, 3, 16
	lddz	%r2, %r3, 80
	add	%r1, %r2, %r1

    5410: 00 00 00 80 40 00 00 00 00 00 01 00 00 00 00 04      	! BUNDLE
	retf	0
	nop	0
	nop	0


0000000000005420 <test_nullify_f128_eq>:
    5420: 00 00 00 c2 40 b0 12 24 04 81 00 00 00 00 08 d8      	! BUNDLE
	alloc	4
	nulfsqone	%r1, %r2, 2, 4
	ldqr	%r2, 0

		0000000000005420:  R_POSTRISC_C_PCREL_FWD	left_f128
    5430: 0c 10 01 41 00 00 00 00 00 02 f6 00 11 10 04 00      	! BUNDLE
	faddsq	%r1, %r2, %r1
	ldqr	%r2, 0
	faddsq	%r1, %r2, %r1

		0000000000005430:  R_POSTRISC_B_PCREL_FWD	right_f128
    5440: 8c 10 80 80 00 00 02 0a 06 ff 2e 28 00 18 08 98      	! BUNDLE
	fcvtsq2id	%r2, %r1, 0
	stqx	%gz, %r3, %r2, 4, 32
	ldq	%r2, %r3, 160

    5450: 0c 10 01 41 00 00 00 00 00 02 01 00 00 00 00 04      	! BUNDLE
	faddsq	%r1, %r2, %r1
	retf	0
	nop	0


0000000000005460 <test_nullify_f128_ne>:
    5460: 00 00 00 c2 40 b0 12 04 04 81 00 00 00 00 08 d8      	! BUNDLE
	alloc	4
	nulfsqoeq	%r1, %r2, 2, 4
	ldqr	%r2, 0

		0000000000005460:  R_POSTRISC_C_PCREL_FWD	left_f128
    5470: 0c 10 01 41 00 00 00 00 00 02 f6 00 11 10 04 00      	! BUNDLE
	faddsq	%r1, %r2, %r1
	ldqr	%r2, 0
	faddsq	%r1, %r2, %r1

		0000000000005470:  R_POSTRISC_B_PCREL_FWD	right_f128
    5480: 8c 10 80 80 00 00 02 0a 06 ff 2e 28 00 18 08 98      	! BUNDLE
	fcvtsq2id	%r2, %r1, 0
	stqx	%gz, %r3, %r2, 4, 32
	ldq	%r2, %r3, 160

    5490: 0c 10 01 41 00 00 00 00 00 02 01 00 00 00 00 04      	! BUNDLE
	faddsq	%r1, %r2, %r1
	retf	0
	nop	0


00000000000054a0 <test_nullify_f128_lt>:
    54a0: 00 00 00 c2 40 b0 12 64 02 82 00 00 00 00 08 d8      	! BUNDLE
	alloc	4
	nulfsqole	%r2, %r1, 2, 4
	ldqr	%r2, 0

		00000000000054a0:  R_POSTRISC_C_PCREL_FWD	left_f128
    54b0: 0c 10 01 41 00 00 00 00 00 02 f6 00 11 10 04 00      	! BUNDLE
	faddsq	%r1, %r2, %r1
	ldqr	%r2, 0
	faddsq	%r1, %r2, %r1

		00000000000054b0:  R_POSTRISC_B_PCREL_FWD	right_f128
    54c0: 8c 10 80 80 00 00 02 0a 06 ff 2e 28 00 18 08 98      	! BUNDLE
	fcvtsq2id	%r2, %r1, 0
	stqx	%gz, %r3, %r2, 4, 32
	ldq	%r2, %r3, 160

    54d0: 0c 10 01 41 00 00 00 00 00 02 01 00 00 00 00 04      	! BUNDLE
	faddsq	%r1, %r2, %r1
	retf	0
	nop	0


00000000000054e0 <test_nullify_f128_le>:
    54e0: 00 00 00 c2 40 b0 12 44 02 82 00 00 00 00 08 d8      	! BUNDLE
	alloc	4
	nulfsqolt	%r2, %r1, 2, 4
	ldqr	%r2, 0

		00000000000054e0:  R_POSTRISC_C_PCREL_FWD	left_f128
    54f0: 0c 10 01 41 00 00 00 00 00 02 f6 00 11 10 04 00      	! BUNDLE
	faddsq	%r1, %r2, %r1
	ldqr	%r2, 0
	faddsq	%r1, %r2, %r1

		00000000000054f0:  R_POSTRISC_B_PCREL_FWD	right_f128
    5500: 8c 10 80 80 00 00 02 0a 06 ff 2e 28 00 18 08 98      	! BUNDLE
	fcvtsq2id	%r2, %r1, 0
	stqx	%gz, %r3, %r2, 4, 32
	ldq	%r2, %r3, 160

    5510: 0c 10 01 41 00 00 00 00 00 02 01 00 00 00 00 04      	! BUNDLE
	faddsq	%r1, %r2, %r1
	retf	0
	nop	0


0000000000005520 <test_nullify_f128_gt>:
    5520: 00 00 00 c2 40 b0 12 64 04 81 00 00 00 00 08 d8      	! BUNDLE
	alloc	4
	nulfsqole	%r1, %r2, 2, 4
	ldqr	%r2, 0

		0000000000005520:  R_POSTRISC_C_PCREL_FWD	left_f128
    5530: 0c 10 01 41 00 00 00 00 00 02 f6 00 11 10 04 00      	! BUNDLE
	faddsq	%r1, %r2, %r1
	ldqr	%r2, 0
	faddsq	%r1, %r2, %r1

		0000000000005530:  R_POSTRISC_B_PCREL_FWD	right_f128
    5540: 8c 10 80 80 00 00 02 0a 06 ff 2e 28 00 18 08 98      	! BUNDLE
	fcvtsq2id	%r2, %r1, 0
	stqx	%gz, %r3, %r2, 4, 32
	ldq	%r2, %r3, 160

    5550: 0c 10 01 41 00 00 00 00 00 02 01 00 00 00 00 04      	! BUNDLE
	faddsq	%r1, %r2, %r1
	retf	0
	nop	0


0000000000005560 <test_nullify_f128_ge>:
    5560: 00 00 00 c2 40 b0 12 44 04 81 00 00 00 00 08 d8      	! BUNDLE
	alloc	4
	nulfsqolt	%r1, %r2, 2, 4
	ldqr	%r2, 0

		0000000000005560:  R_POSTRISC_C_PCREL_FWD	left_f128
    5570: 0c 10 01 41 00 00 00 00 00 02 f6 00 11 10 04 00      	! BUNDLE
	faddsq	%r1, %r2, %r1
	ldqr	%r2, 0
	faddsq	%r1, %r2, %r1

		0000000000005570:  R_POSTRISC_B_PCREL_FWD	right_f128
    5580: 8c 10 80 80 00 00 02 0a 06 ff 2e 28 00 18 08 98      	! BUNDLE
	fcvtsq2id	%r2, %r1, 0
	stqx	%gz, %r3, %r2, 4, 32
	ldq	%r2, %r3, 160

    5590: 0c 10 01 41 00 00 00 00 00 02 01 00 00 00 00 04      	! BUNDLE
	faddsq	%r1, %r2, %r1
	retf	0
	nop	0


00000000000055a0 <test_nullify_f32_eq>:
    55a0: 00 00 00 c2 40 90 12 24 04 81 00 00 00 00 08 cc      	! BUNDLE
	alloc	4
	nulfssone	%r1, %r2, 2, 4
	ldwzr	%r2, 0

		00000000000055a0:  R_POSTRISC_C_PCREL_FWD	left_f32
    55b0: 0c 0c 01 41 00 00 00 00 00 02 f3 c0 10 10 04 00      	! BUNDLE
	faddss	%r1, %r2, %r1
	ldwzr	%r2, 0
	faddss	%r1, %r2, %r1

		00000000000055b0:  R_POSTRISC_B_PCREL_FWD	right_f32
    55c0: 8c 0c 80 80 00 80 00 09 06 7f 2c 0a 00 18 08 8c      	! BUNDLE
	fcvtss2id	%r2, %r1, 0
	stwx	%gz, %r3, %r2, 2, 8
	ldwz	%r2, %r3, 40

    55d0: 0c 0c 01 41 00 00 00 00 00 02 01 00 00 00 00 04      	! BUNDLE
	faddss	%r1, %r2, %r1
	retf	0
	nop	0


00000000000055e0 <test_nullify_f32_ne>:
    55e0: 00 00 00 c2 40 90 12 04 04 81 00 00 00 00 08 cc      	! BUNDLE
	alloc	4
	nulfssoeq	%r1, %r2, 2, 4
	ldwzr	%r2, 0

		00000000000055e0:  R_POSTRISC_C_PCREL_FWD	left_f32
    55f0: 0c 0c 01 41 00 00 00 00 00 02 f3 c0 10 10 04 00      	! BUNDLE
	faddss	%r1, %r2, %r1
	ldwzr	%r2, 0
	faddss	%r1, %r2, %r1

		00000000000055f0:  R_POSTRISC_B_PCREL_FWD	right_f32
    5600: 8c 0c 80 80 00 80 00 09 06 7f 2c 0a 00 18 08 8c      	! BUNDLE
	fcvtss2id	%r2, %r1, 0
	stwx	%gz, %r3, %r2, 2, 8
	ldwz	%r2, %r3, 40

    5610: 0c 0c 01 41 00 00 00 00 00 02 01 00 00 00 00 04      	! BUNDLE
	faddss	%r1, %r2, %r1
	retf	0
	nop	0


0000000000005620 <test_nullify_f32_lt>:
    5620: 00 00 00 c2 40 90 12 64 02 82 00 00 00 00 08 cc      	! BUNDLE
	alloc	4
	nulfssole	%r2, %r1, 2, 4
	ldwzr	%r2, 0

		0000000000005620:  R_POSTRISC_C_PCREL_FWD	left_f32
    5630: 0c 0c 01 41 00 00 00 00 00 02 f3 c0 10 10 04 00      	! BUNDLE
	faddss	%r1, %r2, %r1
	ldwzr	%r2, 0
	faddss	%r1, %r2, %r1

		0000000000005630:  R_POSTRISC_B_PCREL_FWD	right_f32
    5640: 8c 0c 80 80 00 80 00 09 06 7f 2c 0a 00 18 08 8c      	! BUNDLE
	fcvtss2id	%r2, %r1, 0
	stwx	%gz, %r3, %r2, 2, 8
	ldwz	%r2, %r3, 40

    5650: 0c 0c 01 41 00 00 00 00 00 02 01 00 00 00 00 04      	! BUNDLE
	faddss	%r1, %r2, %r1
	retf	0
	nop	0


0000000000005660 <test_nullify_f32_le>:
    5660: 00 00 00 c2 40 90 12 44 02 82 00 00 00 00 08 cc      	! BUNDLE
	alloc	4
	nulfssolt	%r2, %r1, 2, 4
	ldwzr	%r2, 0

		0000000000005660:  R_POSTRISC_C_PCREL_FWD	left_f32
    5670: 0c 0c 01 41 00 00 00 00 00 02 f3 c0 10 10 04 00      	! BUNDLE
	faddss	%r1, %r2, %r1
	ldwzr	%r2, 0
	faddss	%r1, %r2, %r1

		0000000000005670:  R_POSTRISC_B_PCREL_FWD	right_f32
    5680: 8c 0c 80 80 00 80 00 09 06 7f 2c 0a 00 18 08 8c      	! BUNDLE
	fcvtss2id	%r2, %r1, 0
	stwx	%gz, %r3, %r2, 2, 8
	ldwz	%r2, %r3, 40

    5690: 0c 0c 01 41 00 00 00 00 00 02 01 00 00 00 00 04      	! BUNDLE
	faddss	%r1, %r2, %r1
	retf	0
	nop	0


00000000000056a0 <test_nullify_f32_gt>:
    56a0: 00 00 00 c2 40 90 12 64 04 81 00 00 00 00 08 cc      	! BUNDLE
	alloc	4
	nulfssole	%r1, %r2, 2, 4
	ldwzr	%r2, 0

		00000000000056a0:  R_POSTRISC_C_PCREL_FWD	left_f32
    56b0: 0c 0c 01 41 00 00 00 00 00 02 f3 c0 10 10 04 00      	! BUNDLE
	faddss	%r1, %r2, %r1
	ldwzr	%r2, 0
	faddss	%r1, %r2, %r1

		00000000000056b0:  R_POSTRISC_B_PCREL_FWD	right_f32
    56c0: 8c 0c 80 80 00 80 00 09 06 7f 2c 0a 00 18 08 8c      	! BUNDLE
	fcvtss2id	%r2, %r1, 0
	stwx	%gz, %r3, %r2, 2, 8
	ldwz	%r2, %r3, 40

    56d0: 0c 0c 01 41 00 00 00 00 00 02 01 00 00 00 00 04      	! BUNDLE
	faddss	%r1, %r2, %r1
	retf	0
	nop	0


00000000000056e0 <test_nullify_f32_ge>:
    56e0: 00 00 00 c2 40 90 12 44 04 81 00 00 00 00 08 cc      	! BUNDLE
	alloc	4
	nulfssolt	%r1, %r2, 2, 4
	ldwzr	%r2, 0

		00000000000056e0:  R_POSTRISC_C_PCREL_FWD	left_f32
    56f0: 0c 0c 01 41 00 00 00 00 00 02 f3 c0 10 10 04 00      	! BUNDLE
	faddss	%r1, %r2, %r1
	ldwzr	%r2, 0
	faddss	%r1, %r2, %r1

		00000000000056f0:  R_POSTRISC_B_PCREL_FWD	right_f32
    5700: 8c 0c 80 80 00 80 00 09 06 7f 2c 0a 00 18 08 8c      	! BUNDLE
	fcvtss2id	%r2, %r1, 0
	stwx	%gz, %r3, %r2, 2, 8
	ldwz	%r2, %r3, 40

    5710: 0c 0c 01 41 00 00 00 00 00 02 01 00 00 00 00 04      	! BUNDLE
	faddss	%r1, %r2, %r1
	retf	0
	nop	0


0000000000005720 <test_nullify_f64_eq>:
    5720: 00 00 00 c2 40 a0 12 24 04 81 00 00 00 00 08 d2      	! BUNDLE
	alloc	4
	nulfsdone	%r1, %r2, 2, 4
	lddzr	%r2, 0

		0000000000005720:  R_POSTRISC_C_PCREL_FWD	left_f64
    5730: 0c 0e 01 41 00 00 00 00 00 82 f4 e0 10 10 04 00      	! BUNDLE
	faddsd	%r1, %r2, %r1
	lddzr	%r2, 0
	faddsd	%r1, %r2, %r1

		0000000000005730:  R_POSTRISC_B_PCREL_FWD	right_f64
    5740: 8c 0e 80 80 00 00 81 09 06 ff 2d 14 00 18 08 92      	! BUNDLE
	fcvtsd2id	%r2, %r1, 0
	stdx	%gz, %r3, %r2, 3, 16
	lddz	%r2, %r3, 80

    5750: 0c 0e 01 41 00 00 00 00 00 02 01 00 00 00 00 04      	! BUNDLE
	faddsd	%r1, %r2, %r1
	retf	0
	nop	0


0000000000005760 <test_nullify_f64_ne>:
    5760: 00 00 00 c2 40 a0 12 04 04 81 00 00 00 00 08 d2      	! BUNDLE
	alloc	4
	nulfsdoeq	%r1, %r2, 2, 4
	lddzr	%r2, 0

		0000000000005760:  R_POSTRISC_C_PCREL_FWD	left_f64
    5770: 0c 0e 01 41 00 00 00 00 00 82 f4 e0 10 10 04 00      	! BUNDLE
	faddsd	%r1, %r2, %r1
	lddzr	%r2, 0
	faddsd	%r1, %r2, %r1

		0000000000005770:  R_POSTRISC_B_PCREL_FWD	right_f64
    5780: 8c 0e 80 80 00 00 81 09 06 ff 2d 14 00 18 08 92      	! BUNDLE
	fcvtsd2id	%r2, %r1, 0
	stdx	%gz, %r3, %r2, 3, 16
	lddz	%r2, %r3, 80

    5790: 0c 0e 01 41 00 00 00 00 00 02 01 00 00 00 00 04      	! BUNDLE
	faddsd	%r1, %r2, %r1
	retf	0
	nop	0


00000000000057a0 <test_nullify_f64_lt>:
    57a0: 00 00 00 c2 40 a0 12 64 02 82 00 00 00 00 08 d2      	! BUNDLE
	alloc	4
	nulfsdole	%r2, %r1, 2, 4
	lddzr	%r2, 0

		00000000000057a0:  R_POSTRISC_C_PCREL_FWD	left_f64
    57b0: 0c 0e 01 41 00 00 00 00 00 82 f4 e0 10 10 04 00      	! BUNDLE
	faddsd	%r1, %r2, %r1
	lddzr	%r2, 0
	faddsd	%r1, %r2, %r1

		00000000000057b0:  R_POSTRISC_B_PCREL_FWD	right_f64
    57c0: 8c 0e 80 80 00 00 81 09 06 ff 2d 14 00 18 08 92      	! BUNDLE
	fcvtsd2id	%r2, %r1, 0
	stdx	%gz, %r3, %r2, 3, 16
	lddz	%r2, %r3, 80

    57d0: 0c 0e 01 41 00 00 00 00 00 02 01 00 00 00 00 04      	! BUNDLE
	faddsd	%r1, %r2, %r1
	retf	0
	nop	0


00000000000057e0 <test_nullify_f64_le>:
    57e0: 00 00 00 c2 40 a0 12 44 02 82 00 00 00 00 08 d2      	! BUNDLE
	alloc	4
	nulfsdolt	%r2, %r1, 2, 4
	lddzr	%r2, 0

		00000000000057e0:  R_POSTRISC_C_PCREL_FWD	left_f64
    57f0: 0c 0e 01 41 00 00 00 00 00 82 f4 e0 10 10 04 00      	! BUNDLE
	faddsd	%r1, %r2, %r1
	lddzr	%r2, 0
	faddsd	%r1, %r2, %r1

		00000000000057f0:  R_POSTRISC_B_PCREL_FWD	right_f64
    5800: 8c 0e 80 80 00 00 81 09 06 ff 2d 14 00 18 08 92      	! BUNDLE
	fcvtsd2id	%r2, %r1, 0
	stdx	%gz, %r3, %r2, 3, 16
	lddz	%r2, %r3, 80

    5810: 0c 0e 01 41 00 00 00 00 00 02 01 00 00 00 00 04      	! BUNDLE
	faddsd	%r1, %r2, %r1
	retf	0
	nop	0


0000000000005820 <test_nullify_f64_gt>:
    5820: 00 00 00 c2 40 a0 12 64 04 81 00 00 00 00 08 d2      	! BUNDLE
	alloc	4
	nulfsdole	%r1, %r2, 2, 4
	lddzr	%r2, 0

		0000000000005820:  R_POSTRISC_C_PCREL_FWD	left_f64
    5830: 0c 0e 01 41 00 00 00 00 00 82 f4 e0 10 10 04 00      	! BUNDLE
	faddsd	%r1, %r2, %r1
	lddzr	%r2, 0
	faddsd	%r1, %r2, %r1

		0000000000005830:  R_POSTRISC_B_PCREL_FWD	right_f64
    5840: 8c 0e 80 80 00 00 81 09 06 ff 2d 14 00 18 08 92      	! BUNDLE
	fcvtsd2id	%r2, %r1, 0
	stdx	%gz, %r3, %r2, 3, 16
	lddz	%r2, %r3, 80

    5850: 0c 0e 01 41 00 00 00 00 00 02 01 00 00 00 00 04      	! BUNDLE
	faddsd	%r1, %r2, %r1
	retf	0
	nop	0


0000000000005860 <test_nullify_f64_ge>:
    5860: 00 00 00 c2 40 a0 12 44 04 81 00 00 00 00 08 d2      	! BUNDLE
	alloc	4
	nulfsdolt	%r1, %r2, 2, 4
	lddzr	%r2, 0

		0000000000005860:  R_POSTRISC_C_PCREL_FWD	left_f64
    5870: 0c 0e 01 41 00 00 00 00 00 82 f4 e0 10 10 04 00      	! BUNDLE
	faddsd	%r1, %r2, %r1
	lddzr	%r2, 0
	faddsd	%r1, %r2, %r1

		0000000000005870:  R_POSTRISC_B_PCREL_FWD	right_f64
    5880: 8c 0e 80 80 00 00 81 09 06 ff 2d 14 00 18 08 92      	! BUNDLE
	fcvtsd2id	%r2, %r1, 0
	stdx	%gz, %r3, %r2, 3, 16
	lddz	%r2, %r3, 80

    5890: 0c 0e 01 41 00 00 00 00 00 02 01 00 00 00 00 04      	! BUNDLE
	faddsd	%r1, %r2, %r1
	retf	0
	nop	0


00000000000058a0 <test_sign_extend_32>:
    58a0: 00 00 00 c1 40 d0 04 00 02 01 00 00 00 00 08 04      	! BUNDLE
	alloc	2
	srawi	%r1, %r1, 0
	retf	0


00000000000058b0 <test_sign_extend_16>:
    58b0: 00 00 00 c1 40 e0 80 c1 02 81 00 00 00 00 08 04      	! BUNDLE
	alloc	2
	slsrai	%r1, %r1, 48, 48
	retf	0


00000000000058c0 <test_sign_extend_8>:
    58c0: 00 00 00 c1 40 e0 c0 e1 02 81 00 00 00 00 08 04      	! BUNDLE
	alloc	2
	slsrai	%r1, %r1, 56, 56
	retf	0


00000000000058d0 <test_zero_extend_32>:
    58d0: 00 00 00 c1 40 e0 04 00 02 01 00 00 00 00 08 04      	! BUNDLE
	alloc	2
	srlwi	%r1, %r1, 0
	retf	0


00000000000058e0 <test_zero_extend_16>:
    58e0: 00 00 00 c1 40 f0 ff 0f 02 81 05 00 00 00 08 04      	! BUNDLE
	alloc	2
	andi	%r1, %r1, 65535
	retf	0


00000000000058f0 <test_zero_extend_8>:
    58f0: 00 00 00 c1 40 f0 0f 00 02 81 05 00 00 00 08 04      	! BUNDLE
	alloc	2
	andi	%r1, %r1, 255
	retf	0


0000000000005900 <test_store_based_u32>:
    5900: 00 00 80 c1 40 00 e8 03 02 02 24 00 00 00 08 04      	! BUNDLE
	alloc	3
	stw	%r2, %r1, 16000
	retf	0


0000000000005910 <test_store_based_u16>:
    5910: 00 00 80 c1 40 00 f4 01 02 82 22 00 00 00 08 04      	! BUNDLE
	alloc	3
	sth	%r2, %r1, 8000
	retf	0


0000000000005920 <test_store_based_u8>:
    5920: 00 00 80 c1 40 00 fa 00 02 02 21 00 00 00 08 04      	! BUNDLE
	alloc	3
	stb	%r2, %r1, 4000
	retf	0


0000000000005930 <test_store_based_i32>:
    5930: 00 00 80 c1 40 00 e8 03 02 02 24 00 00 00 08 04      	! BUNDLE
	alloc	3
	stw	%r2, %r1, 16000
	retf	0


0000000000005940 <test_store_based_i16>:
    5940: 00 00 80 c1 40 00 f4 01 02 82 22 00 00 00 08 04      	! BUNDLE
	alloc	3
	sth	%r2, %r1, 8000
	retf	0


0000000000005950 <test_store_based_i8>:
    5950: 00 00 80 c1 40 00 fa 00 02 02 21 00 00 00 08 04      	! BUNDLE
	alloc	3
	stb	%r2, %r1, 4000
	retf	0


0000000000005960 <test_store_indexed_u32_u32>:
    5960: 00 00 80 c2 40 30 03 0c 04 02 00 80 26 08 10 b6      	! BUNDLE
	alloc	5
	divuw	%r2, %r2, %r3
	stdx.wz	%r4, %r1, %r2, 3, 0

    5970: 00 00 00 80 40 00 00 00 00 00 01 00 00 00 00 04      	! BUNDLE
	retf	0
	nop	0
	nop	0


0000000000005980 <test_store_indexed_i32>:
    5980: 00 00 00 c2 40 00 e0 09 02 83 2d 00 00 00 08 04      	! BUNDLE
	alloc	4
	stdx.ws	%r3, %r1, %r2, 3, 0
	retf	0


0000000000005990 <test_store_indexed_i32_offset>:
    5990: 00 00 00 c2 40 00 ea 09 02 83 2d 00 00 00 08 04      	! BUNDLE
	alloc	4
	stdx.ws	%r3, %r1, %r2, 3, 160
	retf	0


00000000000059a0 <test_store_indexed_u32>:
    59a0: 00 00 00 c2 40 00 a0 09 02 83 2d 00 00 00 08 04      	! BUNDLE
	alloc	4
	stdx.wz	%r3, %r1, %r2, 3, 0
	retf	0


00000000000059b0 <test_store_indexed_u32_offset>:
    59b0: 00 00 00 c2 40 40 01 00 04 82 08 80 26 08 0c b6      	! BUNDLE
	alloc	4
	addiws	%r2, %r2, 20
	stdx.wz	%r3, %r1, %r2, 3, 0

    59c0: 00 00 00 80 40 00 00 00 00 00 01 00 00 00 00 04      	! BUNDLE
	retf	0
	nop	0
	nop	0


00000000000059d0 <test_store_indexed_i64>:
    59d0: 00 00 00 c2 40 00 8a 09 02 83 2d 00 00 00 08 04      	! BUNDLE
	alloc	4
	stdx	%r3, %r1, %r2, 3, 160
	retf	0


00000000000059e0 <test_store_indexed_i32_struct>:
    59e0: 01 00 00 c2 40 80 74 0a 02 83 2d 00 00 00 00 00      	! BUNDLE
	alloc	4
	stdx.ws.l	%r3, %r1, %r2, 4, 328

    59f0: 00 00 00 80 40 00 00 00 00 00 01 00 00 00 00 04      	! BUNDLE
	retf	0
	nop	0
	nop	0


0000000000005a00 <dummy_return>:
    5a00: 00 00 00 c6 40 00 00 00 00 01 30 00 00 00 08 c0      	! BUNDLE
	alloc	12
	ldbzr	%r1, 0
	ldbzr	%r2, 0

		0000000000005a00:  R_POSTRISC_B_PCREL_FWD	i8_zero
		0000000000005a00:  R_POSTRISC_C_PCREL_FWD	u8_zero
    5a10: 04 00 80 40 20 02 00 00 00 01 31 00 00 00 0c c6      	! BUNDLE
	addiws	%r1, %r1, 1
	stbr	%r1, 0
	ldhzr	%r3, 0

		0000000000005a10:  R_POSTRISC_B_PCREL_FWD	i8_zero
		0000000000005a10:  R_POSTRISC_C_PCREL_FWD	i16_zero
    5a20: 04 00 00 81 20 02 00 00 00 02 31 00 00 00 10 c6      	! BUNDLE
	addiws	%r2, %r2, 1
	stbr	%r2, 0
	ldhzr	%r4, 0

		0000000000005a20:  R_POSTRISC_B_PCREL_FWD	u8_zero
		0000000000005a20:  R_POSTRISC_C_PCREL_FWD	u16_zero
    5a30: 04 00 80 c1 20 02 00 00 00 83 32 00 00 00 14 cc      	! BUNDLE
	addiws	%r3, %r3, 1
	sthr	%r3, 0
	ldwzr	%r5, 0

		0000000000005a30:  R_POSTRISC_B_PCREL_FWD	i16_zero
		0000000000005a30:  R_POSTRISC_C_PCREL_FWD	i32_zero
    5a40: 04 00 00 02 21 02 00 00 00 84 32 00 00 00 18 cc      	! BUNDLE
	addiws	%r4, %r4, 1
	sthr	%r4, 0
	ldwzr	%r6, 0

		0000000000005a40:  R_POSTRISC_B_PCREL_FWD	u16_zero
		0000000000005a40:  R_POSTRISC_C_PCREL_FWD	u32_zero
    5a50: 04 00 80 42 21 02 00 00 00 05 34 00 00 00 1c d2      	! BUNDLE
	addiws	%r5, %r5, 1
	stwr	%r5, 0
	lddzr	%r7, 0

		0000000000005a50:  R_POSTRISC_B_PCREL_FWD	i32_zero
		0000000000005a50:  R_POSTRISC_C_PCREL_FWD	i64_zero
    5a60: 04 00 00 83 21 02 00 00 00 06 34 00 00 00 20 d2      	! BUNDLE
	addiws	%r6, %r6, 1
	stwr	%r6, 0
	lddzr	%r8, 0

		0000000000005a60:  R_POSTRISC_B_PCREL_FWD	u32_zero
		0000000000005a60:  R_POSTRISC_C_PCREL_FWD	u64_zero
    5a70: 04 00 80 43 02 02 00 00 00 89 35 00 00 00 24 d8      	! BUNDLE
	addi	%r9, %r7, 1
	stdr	%r9, 0
	ldqr	%r9, 0

		0000000000005a70:  R_POSTRISC_B_PCREL_FWD	i64_zero
		0000000000005a70:  R_POSTRISC_C_PCREL_FWD	i128_zero
    5a80: 04 00 00 84 02 02 00 00 00 0b 36 00 00 00 28 d6      	! BUNDLE
	addi	%r10, %r8, 1
	ldqr	%r11, 0
	stdr	%r10, 0

		0000000000005a80:  R_POSTRISC_B_PCREL_FWD	u128_zero
		0000000000005a80:  R_POSTRISC_C_PCREL_FWD	u64_zero
    5a90: 04 00 80 44 a2 01 00 00 00 89 76 00 00 58 28 1a      	! BUNDLE
	xori	%r9, %r9, 1
	stqr	%r9, 0
	xori	%r10, %r11, 1

		0000000000005a90:  R_POSTRISC_B_PCREL_FWD	i128_zero
    5aa0: 00 00 00 80 a2 ed c0 e1 02 81 c0 3f 00 10 08 16      	! BUNDLE
	stqr	%r10, 0
	slsrai	%r1, %r1, 56, 56
	andi	%r2, %r2, 255

		0000000000005aa0:  R_POSTRISC_A_PCREL_FWD	u128_zero
    5ab0: 90 00 01 41 00 e0 80 c1 06 82 00 09 20 08 04 00      	! BUNDLE
	addws	%r1, %r2, %r1
	slsrai	%r2, %r3, 48, 48
	addws	%r1, %r1, %r2

    5ac0: fc ff 03 82 60 41 02 08 02 01 00 09 50 08 04 00      	! BUNDLE
	andi	%r2, %r4, 65535
	addws	%r1, %r1, %r2
	addws	%r1, %r1, %r5

    5ad0: 90 00 86 40 00 10 20 04 0e 81 58 00 10 40 04 62      	! BUNDLE
	addws	%r1, %r1, %r6
	ldax.wz	%r1, %r7, %r1, 0, 1
	ldax	%r1, %r8, %r1, 0, 1

    5ae0: 68 00 81 44 00 a0 01 28 02 01 00 00 00 00 08 04      	! BUNDLE
	xor	%r1, %r9, %r1
	xor	%r1, %r1, %r10
	retf	0


0000000000005af0 <test_store_based_i8_zero>:
    5af0: 00 00 00 c2 40 00 fa 00 02 7f 21 00 00 00 fc c5      	! BUNDLE
	alloc	4
	stb	%gz, %r1, 4000
	stbr	%gz, 0

		0000000000005af0:  R_POSTRISC_C_PCREL_FWD	i8_zero
    5b00: 28 00 82 c0 5f aa 60 0c 02 7f 29 00 00 00 08 04      	! BUNDLE
	stbx	%gz, %r1, %r2, 0, 10
	stbx.ws	%gz, %r1, %r3, 0, 10
	retf	0


0000000000005b10 <test_store_based_u8_zero>:
    5b10: 00 00 00 c2 40 00 fa 00 02 7f 21 00 00 00 fc c5      	! BUNDLE
	alloc	4
	stb	%gz, %r1, 4000
	stbr	%gz, 0

		0000000000005b10:  R_POSTRISC_C_PCREL_FWD	u8_zero
    5b20: 28 00 82 c0 5f aa 60 0c 02 7f 29 00 00 00 08 04      	! BUNDLE
	stbx	%gz, %r1, %r2, 0, 10
	stbx.ws	%gz, %r1, %r3, 0, 10
	retf	0


0000000000005b30 <test_store_based_i16_zero>:
    5b30: 00 00 00 c2 40 00 f4 01 02 ff 22 00 00 00 fc cb      	! BUNDLE
	alloc	4
	sth	%gz, %r1, 8000
	sthr	%gz, 0

		0000000000005b30:  R_POSTRISC_C_PCREL_FWD	i16_zero
    5b40: 50 20 82 c0 bf 4a e1 0c 02 ff 2a 00 00 00 08 04      	! BUNDLE
	sthx	%gz, %r1, %r2, 1, 20
	sthx.ws	%gz, %r1, %r3, 1, 20
	retf	0


0000000000005b50 <test_store_based_u16_zero>:
    5b50: 00 00 00 c2 40 00 f4 01 02 ff 22 00 00 00 fc cb      	! BUNDLE
	alloc	4
	sth	%gz, %r1, 8000
	sthr	%gz, 0

		0000000000005b50:  R_POSTRISC_C_PCREL_FWD	u16_zero
    5b60: 50 20 82 c0 bf 4a e1 0c 02 ff 2a 00 00 00 08 04      	! BUNDLE
	sthx	%gz, %r1, %r2, 1, 20
	sthx.ws	%gz, %r1, %r3, 1, 20
	retf	0


0000000000005b70 <test_store_based_i32_zero>:
    5b70: 00 00 00 c2 40 00 e8 03 02 7f 24 00 00 00 fc d1      	! BUNDLE
	alloc	4
	stw	%gz, %r1, 16000
	stwr	%gz, 0

		0000000000005b70:  R_POSTRISC_C_PCREL_FWD	i32_zero
    5b80: a0 40 82 c0 1f 8b 62 0d 02 7f 2c 00 00 00 08 04      	! BUNDLE
	stwx	%gz, %r1, %r2, 2, 40
	stwx.ws	%gz, %r1, %r3, 2, 40
	retf	0


0000000000005b90 <test_store_based_u32_zero>:
    5b90: 00 00 00 c2 40 00 e8 03 02 7f 24 00 00 00 fc d1      	! BUNDLE
	alloc	4
	stw	%gz, %r1, 16000
	stwr	%gz, 0

		0000000000005b90:  R_POSTRISC_C_PCREL_FWD	u32_zero
    5ba0: a0 40 82 c0 1f 8b 62 0d 02 7f 2c 00 00 00 08 04      	! BUNDLE
	stwx	%gz, %r1, %r2, 2, 40
	stwx.ws	%gz, %r1, %r3, 2, 40
	retf	0


0000000000005bb0 <test_store_based_i64_zero>:
    5bb0: 00 00 00 c2 40 00 d0 07 02 ff 25 00 00 00 fc d7      	! BUNDLE
	alloc	4
	std	%gz, %r1, 32000
	stdr	%gz, 0

		0000000000005bb0:  R_POSTRISC_C_PCREL_FWD	i64_zero
    5bc0: 40 61 82 c0 7f 0b e5 0d 02 ff 2d 00 00 00 08 04      	! BUNDLE
	stdx	%gz, %r1, %r2, 3, 80
	stdx.ws	%gz, %r1, %r3, 3, 80
	retf	0


0000000000005bd0 <test_store_based_u64_zero>:
    5bd0: 00 00 00 c2 40 00 d0 07 02 ff 25 00 00 00 fc d7      	! BUNDLE
	alloc	4
	std	%gz, %r1, 32000
	stdr	%gz, 0

		0000000000005bd0:  R_POSTRISC_C_PCREL_FWD	u64_zero
    5be0: 40 61 82 c0 7f 0b e5 0d 02 ff 2d 00 00 00 08 04      	! BUNDLE
	stdx	%gz, %r1, %r2, 3, 80
	stdx.ws	%gz, %r1, %r3, 3, 80
	retf	0


0000000000005bf0 <test_store_based_i128_zero>:
    5bf0: 00 00 00 c2 40 00 a0 0f 02 ff 26 00 00 00 fc db      	! BUNDLE
	alloc	4
	stq	%gz, %r1, 64000
	stqr	%gz, 0

		0000000000005bf0:  R_POSTRISC_C_PCREL_FWD	i128_zero
    5c00: 80 82 82 c0 bf 0b 6a 0e 02 ff 2e 00 00 00 08 04      	! BUNDLE
	stqx	%gz, %r1, %r2, 4, 160
	stqx.ws	%gz, %r1, %r3, 4, 160
	retf	0


0000000000005c10 <test_store_based_u128_zero>:
    5c10: 00 00 00 c2 40 00 a0 0f 02 ff 26 00 00 00 fc db      	! BUNDLE
	alloc	4
	stq	%gz, %r1, 64000
	stqr	%gz, 0

		0000000000005c10:  R_POSTRISC_C_PCREL_FWD	u128_zero
    5c20: 80 82 82 c0 bf 0b 6a 0e 02 ff 2e 00 00 00 08 04      	! BUNDLE
	stqx	%gz, %r1, %r2, 4, 160
	stqx.ws	%gz, %r1, %r3, 4, 160
	retf	0


0000000000005c30 <test_struct_memset>:
    5c30: c0 03 00 02 41 00 04 00 fc ff 26 14 00 f0 ff 9b      	! BUNDLE
	allocsp	4, 240
	stq	%gz, %sp, 64
	stq	%gz, %sp, 80

    5c40: 00 02 00 ff bf 09 09 00 fc ff 26 34 00 f0 ff 9b      	! BUNDLE
	stq	%gz, %sp, 128
	stq	%gz, %sp, 144
	stq	%gz, %sp, 208

    5c50: 80 03 00 ff 7f 09 0c 00 fc ff 26 2c 00 f0 ff 9b      	! BUNDLE
	std	%gz, %sp, 224
	stq	%gz, %sp, 192
	stq	%gz, %sp, 176

    5c60: 80 02 00 ff bf 09 07 00 fc ff 26 18 00 f0 ff 9b      	! BUNDLE
	stq	%gz, %sp, 160
	stq	%gz, %sp, 112
	stq	%gz, %sp, 96

    5c70: c0 00 00 ff bf 09 02 00 fc ff 26 04 00 f0 ff 9b      	! BUNDLE
	stq	%gz, %sp, 48
	stq	%gz, %sp, 32
	stq	%gz, %sp, 16

    5c80: 00 00 00 ff bf 09 00 00 00 01 18 12 00 f0 07 96      	! BUNDLE
	stq	%gz, %sp, 0
	ldar	%r1, 0
	std	%r1, %sp, 72

		0000000000005c80:  R_POSTRISC_B_JUMP	sn_write
    5c90: bc 03 00 7f 00 82 05 00 fc 81 e5 ff ff ff 07 10      	! BUNDLE
	addi	%r1, %sp, 239
	std	%r1, %sp, 88
	ldi	%r1, -1

    5ca0: 30 02 00 7f 00 09 09 00 fc 01 24 00 00 f0 0f 20      	! BUNDLE
	stw	%r1, %sp, 140
	stw	%r1, %sp, 144
	addi	%r3, %sp, 0

    5cb0: 40 03 00 ff 60 09 00 00 00 02 5c 00 00 18 04 00      	! BUNDLE
	std	%r3, %sp, 208
	callr	%r2, 0
	mov	%r1, %r3

		0000000000005cb0:  R_POSTRISC_B_JUMP	test_struct_memset_consumer
    5cc0: c0 03 00 80 40 00 00 00 00 00 01 00 00 00 00 04      	! BUNDLE
	retf	240
	nop	0
	nop	0


0000000000005cd0 <sn_write>:
    5cd0: 00 00 80 c3 40 80 09 00 02 82 24 0a 00 08 10 92      	! BUNDLE
	alloc	7
	lddz	%r2, %r1, 152
	lddz	%r4, %r1, 40

    5ce0: e0 00 80 80 21 89 00 00 04 85 64 08 60 20 10 00      	! BUNDLE
	lddz	%r6, %r1, 56
	lddz	%r5, %r2, 8
	sub	%r4, %r4, %r6

    5cf0: ec 00 84 82 01 00 00 00 04 84 24 8a 00 f8 1b 02      	! BUNDLE
	minu	%r6, %r5, %r4
	lddz	%r4, %r2, 0
	nuldeq	%r6, %gz, 4, 0

    5d00: 80 00 06 02 01 00 00 00 04 84 65 08 60 28 14 00      	! BUNDLE
	add	%r4, %r4, %r6
	std	%r4, %r2, 0
	sub	%r5, %r5, %r6

    5d10: 20 00 00 41 61 b9 03 0c 0a 06 00 8a 00 f8 1b 02      	! BUNDLE
	std	%r5, %r2, 8
	minu	%r6, %r5, %r3
	nuldeq	%r6, %gz, 4, 0

    5d20: 80 00 06 02 01 00 00 00 04 84 65 08 60 28 14 00      	! BUNDLE
	add	%r4, %r4, %r6
	std	%r4, %r2, 0
	sub	%r5, %r5, %r6

    5d30: 20 00 00 41 61 09 00 00 08 7f 21 16 00 08 08 92      	! BUNDLE
	std	%r5, %r2, 8
	stb	%gz, %r4, 0
	lddz	%r2, %r1, 88

    5d40: e0 00 80 80 60 89 02 00 02 82 65 00 00 18 04 00      	! BUNDLE
	std	%r2, %r1, 56
	std	%r2, %r1, 40
	mov	%r1, %r3

    5d50: 00 00 00 80 40 00 00 00 00 00 01 00 00 00 00 04      	! BUNDLE
	retf	0
	nop	0
	nop	0


0000000000005d60 <test_switch_table_i64>:
    5d60: 40 00 80 02 41 e0 00 c0 00 81 3a 00 00 00 08 72      	! BUNDLE
	allocsp	5, 16
	bdgeui	%r1, 6, 224
	ldafr	%r2, 0

		0000000000005d60:  R_POSTRISC_C_PCREL_FWD	.LJTI614_0
    5d70: 84 01 01 01 00 00 00 00 00 00 01 00 00 00 00 04      	! BUNDLE
	jmpt	%r2, %r1
	nop	0
	nop	0

    5d80: 04 00 00 40 00 01 00 00 00 84 dc 02 00 00 04 04      	! BUNDLE
	ldi	%r1, 1
	ldafr	%r4, 0
	jmp	176

		0000000000005d80:  R_POSTRISC_B_PCREL_FWD	.L.str.38
    5d90: 20 00 00 40 00 81 00 00 fc 81 65 01 00 00 04 10      	! BUNDLE
	ldi	%r1, 8
	std	%r1, %sp, 8
	ldi	%r1, 5

    5da0: 00 00 00 00 21 97 00 00 00 01 01 00 00 00 00 04      	! BUNDLE
	ldafr	%r4, 0
	jmp	144
	nop	0

		0000000000005da0:  R_POSTRISC_A_PCREL_FWD	.L.str.42
    5db0: 08 00 00 40 00 81 00 00 fc 81 e5 00 00 00 04 10      	! BUNDLE
	ldi	%r1, 2
	std	%r1, %sp, 8
	ldi	%r1, 3

    5dc0: 00 00 00 00 21 77 00 00 00 01 01 00 00 00 00 04      	! BUNDLE
	ldafr	%r4, 0
	jmp	112
	nop	0

		0000000000005dc0:  R_POSTRISC_A_PCREL_FWD	.L.str.40
    5dd0: 04 00 00 40 00 81 00 00 fc 81 25 01 00 00 04 10      	! BUNDLE
	ldi	%r1, 1
	std	%r1, %sp, 8
	ldi	%r1, 4

    5de0: 00 00 00 00 21 57 00 00 00 01 01 00 00 00 00 04      	! BUNDLE
	ldafr	%r4, 0
	jmp	80
	nop	0

		0000000000005de0:  R_POSTRISC_A_PCREL_FWD	.L.str.41
    5df0: 20 00 00 ff 7f 29 00 00 00 01 04 00 00 00 10 72      	! BUNDLE
	std	%gz, %sp, 8
	ldi	%r1, 2
	ldafr	%r4, 0

		0000000000005df0:  R_POSTRISC_C_PCREL_FWD	.L.str.39
    5e00: 0c 00 00 40 40 00 00 00 00 00 01 00 00 00 00 04      	! BUNDLE
	jmp	48
	nop	0
	nop	0

    5e10: 6c 00 00 40 00 81 00 00 fc 81 a5 01 00 00 04 10      	! BUNDLE
	ldi	%r1, 27
	std	%r1, %sp, 8
	ldi	%r1, 6

    5e20: 00 00 00 00 21 07 00 00 00 00 01 00 00 00 00 04      	! BUNDLE
	ldafr	%r4, 0
	nop	0
	nop	0

		0000000000005e20:  R_POSTRISC_A_PCREL_FWD	.L.str.43
    5e30: 00 00 00 7f 60 09 00 00 00 03 1c 00 00 00 00 04      	! BUNDLE
	std	%r1, %sp, 0
	callr	%r3, 0
	nop	0

		0000000000005e30:  R_POSTRISC_B_JUMP	printf
    5e40: 04 00 80 7f 00 00 01 00 00 02 01 00 00 00 00 04      	! BUNDLE
	mov	%r1, %gz
	retf	16
	nop	0


0000000000005e50 <test_switch_table_i32>:
    5e50: 40 00 80 02 41 e0 00 c0 00 81 bd 13 00 08 04 00      	! BUNDLE
	allocsp	5, 16
	bwgeui	%r1, 6, 224
	srlwi	%r1, %r1, 0

    5e60: 00 00 00 80 20 17 06 04 04 00 00 00 00 00 00 04      	! BUNDLE
	ldafr	%r2, 0
	jmpt	%r2, %r1
	nop	0

		0000000000005e60:  R_POSTRISC_A_PCREL_FWD	.LJTI615_0
    5e70: 04 00 00 40 00 01 00 00 00 84 dc 02 00 00 04 04      	! BUNDLE
	ldi	%r1, 1
	ldafr	%r4, 0
	jmp	176

		0000000000005e70:  R_POSTRISC_B_PCREL_FWD	.L.str.44
    5e80: 20 00 00 40 00 41 00 00 fc 01 64 01 00 00 04 10      	! BUNDLE
	ldi	%r1, 8
	stw	%r1, %sp, 4
	ldi	%r1, 5

    5e90: 00 00 00 00 21 97 00 00 00 01 01 00 00 00 00 04      	! BUNDLE
	ldafr	%r4, 0
	jmp	144
	nop	0

		0000000000005e90:  R_POSTRISC_A_PCREL_FWD	.L.str.48
    5ea0: 08 00 00 40 00 41 00 00 fc 01 e4 00 00 00 04 10      	! BUNDLE
	ldi	%r1, 2
	stw	%r1, %sp, 4
	ldi	%r1, 3

    5eb0: 00 00 00 00 21 77 00 00 00 01 01 00 00 00 00 04      	! BUNDLE
	ldafr	%r4, 0
	jmp	112
	nop	0

		0000000000005eb0:  R_POSTRISC_A_PCREL_FWD	.L.str.46
    5ec0: 04 00 00 40 00 41 00 00 fc 01 24 01 00 00 04 10      	! BUNDLE
	ldi	%r1, 1
	stw	%r1, %sp, 4
	ldi	%r1, 4

    5ed0: 00 00 00 00 21 57 00 00 00 01 01 00 00 00 00 04      	! BUNDLE
	ldafr	%r4, 0
	jmp	80
	nop	0

		0000000000005ed0:  R_POSTRISC_A_PCREL_FWD	.L.str.47
    5ee0: 10 00 00 ff 1f 29 00 00 00 01 04 00 00 00 10 72      	! BUNDLE
	stw	%gz, %sp, 4
	ldi	%r1, 2
	ldafr	%r4, 0

		0000000000005ee0:  R_POSTRISC_C_PCREL_FWD	.L.str.45
    5ef0: 0c 00 00 40 40 00 00 00 00 00 01 00 00 00 00 04      	! BUNDLE
	jmp	48
	nop	0
	nop	0

    5f00: 6c 00 00 40 00 41 00 00 fc 01 a4 01 00 00 04 10      	! BUNDLE
	ldi	%r1, 27
	stw	%r1, %sp, 4
	ldi	%r1, 6

    5f10: 00 00 00 00 21 07 00 00 00 00 01 00 00 00 00 04      	! BUNDLE
	ldafr	%r4, 0
	nop	0
	nop	0

		0000000000005f10:  R_POSTRISC_A_PCREL_FWD	.L.str.49
    5f20: 00 00 00 7f 00 09 00 00 00 03 1c 00 00 00 00 04      	! BUNDLE
	stw	%r1, %sp, 0
	callr	%r3, 0
	nop	0

		0000000000005f20:  R_POSTRISC_B_JUMP	printf
    5f30: 04 00 80 7f 00 00 01 00 00 02 01 00 00 00 00 04      	! BUNDLE
	mov	%r1, %gz
	retf	16
	nop	0


0000000000005f40 <test_switch_table_u32>:
    5f40: 40 00 80 02 41 e0 00 c0 00 81 bd 13 00 08 04 00      	! BUNDLE
	allocsp	5, 16
	bwgeui	%r1, 6, 224
	srlwi	%r1, %r1, 0

    5f50: 00 00 00 80 20 17 06 04 04 00 00 00 00 00 00 04      	! BUNDLE
	ldafr	%r2, 0
	jmpt	%r2, %r1
	nop	0

		0000000000005f50:  R_POSTRISC_A_PCREL_FWD	.LJTI616_0
    5f60: 04 00 00 40 00 01 00 00 00 84 dc 02 00 00 04 04      	! BUNDLE
	ldi	%r1, 1
	ldafr	%r4, 0
	jmp	176

		0000000000005f60:  R_POSTRISC_B_PCREL_FWD	.L.str.50
    5f70: 20 00 00 40 00 41 00 00 fc 01 64 01 00 00 04 10      	! BUNDLE
	ldi	%r1, 8
	stw	%r1, %sp, 4
	ldi	%r1, 5

    5f80: 00 00 00 00 21 97 00 00 00 01 01 00 00 00 00 04      	! BUNDLE
	ldafr	%r4, 0
	jmp	144
	nop	0

		0000000000005f80:  R_POSTRISC_A_PCREL_FWD	.L.str.54
    5f90: 08 00 00 40 00 41 00 00 fc 01 e4 00 00 00 04 10      	! BUNDLE
	ldi	%r1, 2
	stw	%r1, %sp, 4
	ldi	%r1, 3

    5fa0: 00 00 00 00 21 77 00 00 00 01 01 00 00 00 00 04      	! BUNDLE
	ldafr	%r4, 0
	jmp	112
	nop	0

		0000000000005fa0:  R_POSTRISC_A_PCREL_FWD	.L.str.52
    5fb0: 04 00 00 40 00 41 00 00 fc 01 24 01 00 00 04 10      	! BUNDLE
	ldi	%r1, 1
	stw	%r1, %sp, 4
	ldi	%r1, 4

    5fc0: 00 00 00 00 21 57 00 00 00 01 01 00 00 00 00 04      	! BUNDLE
	ldafr	%r4, 0
	jmp	80
	nop	0

		0000000000005fc0:  R_POSTRISC_A_PCREL_FWD	.L.str.53
    5fd0: 10 00 00 ff 1f 29 00 00 00 01 04 00 00 00 10 72      	! BUNDLE
	stw	%gz, %sp, 4
	ldi	%r1, 2
	ldafr	%r4, 0

		0000000000005fd0:  R_POSTRISC_C_PCREL_FWD	.L.str.51
    5fe0: 0c 00 00 40 40 00 00 00 00 00 01 00 00 00 00 04      	! BUNDLE
	jmp	48
	nop	0
	nop	0

    5ff0: 6c 00 00 40 00 41 00 00 fc 01 a4 01 00 00 04 10      	! BUNDLE
	ldi	%r1, 27
	stw	%r1, %sp, 4
	ldi	%r1, 6

    6000: 00 00 00 00 21 07 00 00 00 00 01 00 00 00 00 04      	! BUNDLE
	ldafr	%r4, 0
	nop	0
	nop	0

		0000000000006000:  R_POSTRISC_A_PCREL_FWD	.L.str.55
    6010: 00 00 00 7f 00 09 00 00 00 03 1c 00 00 00 00 04      	! BUNDLE
	stw	%r1, %sp, 0
	callr	%r3, 0
	nop	0

		0000000000006010:  R_POSTRISC_B_JUMP	printf
    6020: 04 00 80 7f 00 00 01 00 00 02 01 00 00 00 00 04      	! BUNDLE
	mov	%r1, %gz
	retf	16
	nop	0


0000000000006030 <test_switch_table_nonzero_i64>:
    6030: 40 00 80 02 41 60 ff ff 03 01 88 03 00 03 04 ea      	! BUNDLE
	allocsp	5, 16
	addi	%r1, %r1, -10
	bdgeui	%r1, 6, 224

    6040: 00 00 00 80 20 17 06 04 04 00 00 00 00 00 00 04      	! BUNDLE
	ldafr	%r2, 0
	jmpt	%r2, %r1
	nop	0

		0000000000006040:  R_POSTRISC_A_PCREL_FWD	.LJTI617_0
    6050: 2c 00 00 40 00 01 00 00 00 84 dc 02 00 00 04 04      	! BUNDLE
	ldi	%r1, 11
	ldafr	%r4, 0
	jmp	176

		0000000000006050:  R_POSTRISC_B_PCREL_FWD	.L.str.56
    6060: 70 00 00 40 00 81 00 00 fc 81 e5 03 00 00 04 10      	! BUNDLE
	ldi	%r1, 28
	std	%r1, %sp, 8
	ldi	%r1, 15

    6070: 00 00 00 00 21 97 00 00 00 01 01 00 00 00 00 04      	! BUNDLE
	ldafr	%r4, 0
	jmp	144
	nop	0

		0000000000006070:  R_POSTRISC_A_PCREL_FWD	.L.str.60
    6080: 38 00 00 40 00 81 00 00 fc 81 65 03 00 00 04 10      	! BUNDLE
	ldi	%r1, 14
	std	%r1, %sp, 8
	ldi	%r1, 13

    6090: 00 00 00 00 21 77 00 00 00 01 01 00 00 00 00 04      	! BUNDLE
	ldafr	%r4, 0
	jmp	112
	nop	0

		0000000000006090:  R_POSTRISC_A_PCREL_FWD	.L.str.58
    60a0: 3c 00 00 40 00 81 00 00 fc 81 a5 03 00 00 04 10      	! BUNDLE
	ldi	%r1, 15
	std	%r1, %sp, 8
	ldi	%r1, 14

    60b0: 00 00 00 00 21 57 00 00 00 01 01 00 00 00 00 04      	! BUNDLE
	ldafr	%r4, 0
	jmp	80
	nop	0

		00000000000060b0:  R_POSTRISC_A_PCREL_FWD	.L.str.59
    60c0: 28 00 00 40 00 81 00 00 fc 81 25 03 00 00 04 10      	! BUNDLE
	ldi	%r1, 10
	std	%r1, %sp, 8
	ldi	%r1, 12

    60d0: 00 00 00 00 21 37 00 00 00 01 01 00 00 00 00 04      	! BUNDLE
	ldafr	%r4, 0
	jmp	48
	nop	0

		00000000000060d0:  R_POSTRISC_A_PCREL_FWD	.L.str.57
    60e0: 94 00 00 40 00 81 00 00 fc 81 25 04 00 00 04 10      	! BUNDLE
	ldi	%r1, 37
	std	%r1, %sp, 8
	ldi	%r1, 16

    60f0: 00 00 00 00 21 07 00 00 00 00 01 00 00 00 00 04      	! BUNDLE
	ldafr	%r4, 0
	nop	0
	nop	0

		00000000000060f0:  R_POSTRISC_A_PCREL_FWD	.L.str.61
    6100: 00 00 00 7f 60 09 00 00 00 03 1c 00 00 00 00 04      	! BUNDLE
	std	%r1, %sp, 0
	callr	%r3, 0
	nop	0

		0000000000006100:  R_POSTRISC_B_JUMP	printf
    6110: 04 00 80 7f 00 00 01 00 00 02 01 00 00 00 00 04      	! BUNDLE
	mov	%r1, %gz
	retf	16
	nop	0


0000000000006120 <test_switch_table_nonzero_i32>:
    6120: 40 00 80 02 41 60 ff ff 03 82 88 03 00 03 08 f6      	! BUNDLE
	allocsp	5, 16
	addiws	%r2, %r1, -10
	bwgeui	%r2, 6, 224

    6130: d8 ff ff 40 40 02 00 00 00 82 5c 18 10 10 00 00      	! BUNDLE
	addiwz	%r1, %r1, -10
	ldafr	%r2, 0
	jmpt	%r2, %r1

		0000000000006130:  R_POSTRISC_B_PCREL_FWD	.LJTI618_0
    6140: 2c 00 00 40 00 01 00 00 00 84 dc 02 00 00 04 04      	! BUNDLE
	ldi	%r1, 11
	ldafr	%r4, 0
	jmp	176

		0000000000006140:  R_POSTRISC_B_PCREL_FWD	.L.str.62
    6150: 70 00 00 40 00 41 00 00 fc 01 e4 03 00 00 04 10      	! BUNDLE
	ldi	%r1, 28
	stw	%r1, %sp, 4
	ldi	%r1, 15

    6160: 00 00 00 00 21 97 00 00 00 01 01 00 00 00 00 04      	! BUNDLE
	ldafr	%r4, 0
	jmp	144
	nop	0

		0000000000006160:  R_POSTRISC_A_PCREL_FWD	.L.str.66
    6170: 38 00 00 40 00 41 00 00 fc 01 64 03 00 00 04 10      	! BUNDLE
	ldi	%r1, 14
	stw	%r1, %sp, 4
	ldi	%r1, 13

    6180: 00 00 00 00 21 77 00 00 00 01 01 00 00 00 00 04      	! BUNDLE
	ldafr	%r4, 0
	jmp	112
	nop	0

		0000000000006180:  R_POSTRISC_A_PCREL_FWD	.L.str.64
    6190: 3c 00 00 40 00 41 00 00 fc 01 a4 03 00 00 04 10      	! BUNDLE
	ldi	%r1, 15
	stw	%r1, %sp, 4
	ldi	%r1, 14

    61a0: 00 00 00 00 21 57 00 00 00 01 01 00 00 00 00 04      	! BUNDLE
	ldafr	%r4, 0
	jmp	80
	nop	0

		00000000000061a0:  R_POSTRISC_A_PCREL_FWD	.L.str.65
    61b0: 28 00 00 40 00 41 00 00 fc 01 24 03 00 00 04 10      	! BUNDLE
	ldi	%r1, 10
	stw	%r1, %sp, 4
	ldi	%r1, 12

    61c0: 00 00 00 00 21 37 00 00 00 01 01 00 00 00 00 04      	! BUNDLE
	ldafr	%r4, 0
	jmp	48
	nop	0

		00000000000061c0:  R_POSTRISC_A_PCREL_FWD	.L.str.63
    61d0: 94 00 00 40 00 41 00 00 fc 01 24 04 00 00 04 10      	! BUNDLE
	ldi	%r1, 37
	stw	%r1, %sp, 4
	ldi	%r1, 16

    61e0: 00 00 00 00 21 07 00 00 00 00 01 00 00 00 00 04      	! BUNDLE
	ldafr	%r4, 0
	nop	0
	nop	0

		00000000000061e0:  R_POSTRISC_A_PCREL_FWD	.L.str.67
    61f0: 00 00 00 7f 00 09 00 00 00 03 1c 00 00 00 00 04      	! BUNDLE
	stw	%r1, %sp, 0
	callr	%r3, 0
	nop	0

		00000000000061f0:  R_POSTRISC_B_JUMP	printf
    6200: 04 00 80 7f 00 00 01 00 00 02 01 00 00 00 00 04      	! BUNDLE
	mov	%r1, %gz
	retf	16
	nop	0


0000000000006210 <test_switch_table_nonzero_u32>:
    6210: 40 00 80 02 41 60 ff ff 03 82 88 03 00 03 08 f6      	! BUNDLE
	allocsp	5, 16
	addiws	%r2, %r1, -10
	bwgeui	%r2, 6, 224

    6220: d8 ff ff 40 40 02 00 00 00 82 5c 18 10 10 00 00      	! BUNDLE
	addiwz	%r1, %r1, -10
	ldafr	%r2, 0
	jmpt	%r2, %r1

		0000000000006220:  R_POSTRISC_B_PCREL_FWD	.LJTI619_0
    6230: 2c 00 00 40 00 01 00 00 00 84 dc 02 00 00 04 04      	! BUNDLE
	ldi	%r1, 11
	ldafr	%r4, 0
	jmp	176

		0000000000006230:  R_POSTRISC_B_PCREL_FWD	.L.str.68
    6240: 70 00 00 40 00 41 00 00 fc 01 e4 03 00 00 04 10      	! BUNDLE
	ldi	%r1, 28
	stw	%r1, %sp, 4
	ldi	%r1, 15

    6250: 00 00 00 00 21 97 00 00 00 01 01 00 00 00 00 04      	! BUNDLE
	ldafr	%r4, 0
	jmp	144
	nop	0

		0000000000006250:  R_POSTRISC_A_PCREL_FWD	.L.str.72
    6260: 38 00 00 40 00 41 00 00 fc 01 64 03 00 00 04 10      	! BUNDLE
	ldi	%r1, 14
	stw	%r1, %sp, 4
	ldi	%r1, 13

    6270: 00 00 00 00 21 77 00 00 00 01 01 00 00 00 00 04      	! BUNDLE
	ldafr	%r4, 0
	jmp	112
	nop	0

		0000000000006270:  R_POSTRISC_A_PCREL_FWD	.L.str.70
    6280: 3c 00 00 40 00 41 00 00 fc 01 a4 03 00 00 04 10      	! BUNDLE
	ldi	%r1, 15
	stw	%r1, %sp, 4
	ldi	%r1, 14

    6290: 00 00 00 00 21 57 00 00 00 01 01 00 00 00 00 04      	! BUNDLE
	ldafr	%r4, 0
	jmp	80
	nop	0

		0000000000006290:  R_POSTRISC_A_PCREL_FWD	.L.str.71
    62a0: 28 00 00 40 00 41 00 00 fc 01 24 03 00 00 04 10      	! BUNDLE
	ldi	%r1, 10
	stw	%r1, %sp, 4
	ldi	%r1, 12

    62b0: 00 00 00 00 21 37 00 00 00 01 01 00 00 00 00 04      	! BUNDLE
	ldafr	%r4, 0
	jmp	48
	nop	0

		00000000000062b0:  R_POSTRISC_A_PCREL_FWD	.L.str.69
    62c0: 94 00 00 40 00 41 00 00 fc 01 24 04 00 00 04 10      	! BUNDLE
	ldi	%r1, 37
	stw	%r1, %sp, 4
	ldi	%r1, 16

    62d0: 00 00 00 00 21 07 00 00 00 00 01 00 00 00 00 04      	! BUNDLE
	ldafr	%r4, 0
	nop	0
	nop	0

		00000000000062d0:  R_POSTRISC_A_PCREL_FWD	.L.str.73
    62e0: 00 00 00 7f 00 09 00 00 00 03 1c 00 00 00 00 04      	! BUNDLE
	stw	%r1, %sp, 0
	callr	%r3, 0
	nop	0

		00000000000062e0:  R_POSTRISC_B_JUMP	printf
    62f0: 04 00 80 7f 00 00 01 00 00 02 01 00 00 00 00 04      	! BUNDLE
	mov	%r1, %gz
	retf	16
	nop	0


0000000000006300 <test_syscall_2>:
    6300: 00 00 00 c1 40 30 10 00 00 00 00 00 00 00 08 04      	! BUNDLE
	alloc	2
	syscall
	retf	0


0000000000006310 <test_syscall>:
    6310: 00 00 80 c0 40 30 10 00 00 00 80 45 00 00 00 00      	! BUNDLE
	alloc	1
	syscall
	sysret

    6320: 00 00 00 80 40 00 00 00 00 00 01 00 00 00 00 04      	! BUNDLE
	retf	0
	nop	0
	nop	0


0000000000006330 <test_call_global_tailcall>:
    6330: 00 00 80 c2 40 10 00 00 02 83 88 02 00 08 10 22      	! BUNDLE
	alloc	5
	addiws	%r3, %r1, 1
	addiws	%r4, %r1, 10

    6340: 00 00 00 80 00 17 00 00 06 01 00 00 00 00 08 04      	! BUNDLE
	callr	%r2, 0
	mov	%r1, %r3
	retf	0

		0000000000006340:  R_POSTRISC_A_JUMP	tail_call

0000000000006350 <test_ptr_tailcall>:
    6350: 00 00 80 c2 40 10 00 00 04 04 00 19 60 08 0c 00      	! BUNDLE
	alloc	5
	mov	%r4, %r2
	callmi	%r3, %r1, 48

    6360: 04 00 00 42 00 00 00 00 00 02 01 00 00 00 00 04      	! BUNDLE
	mov	%r1, %r4
	retf	0
	nop	0


0000000000006370 <test_call_global_ptr_table_tailcall>:
    6370: 00 00 00 c2 40 10 00 00 02 03 00 00 00 00 08 74      	! BUNDLE
	alloc	4
	mov	%r3, %r1
	callplt	%r2, 0

		0000000000006370:  R_POSTRISC_C_PCREL_FWD	global_ftable+0x28
    6380: 04 00 80 41 00 00 00 00 00 02 01 00 00 00 00 04      	! BUNDLE
	mov	%r1, %r3
	retf	0
	nop	0


0000000000006390 <test_builtin_tlb_purge>:
    6390: 00 00 00 c2 40 20 11 0c 04 01 00 00 00 00 08 04      	! BUNDLE
	alloc	4
	ptc	%r1, %r2, %r3
	retf	0


00000000000063a0 <test_local_tls>:
    63a0: 40 00 80 02 41 00 00 00 00 84 1c 00 00 00 0c 70      	! BUNDLE
	allocsp	5, 16
	ldafr	%r4, 0
	callr	%r3, 0

		00000000000063a0:  R_POSTRISC_B_TLS_LD_GOT_OFFSET	x_tls
		00000000000063a0:  R_POSTRISC_C_JUMP	__tls_get_addr
    63b0: 00 00 00 82 20 09 02 04 04 01 00 04 00 00 08 04      	! BUNDLE
	lddz	%r2, %r4, 0
	add	%r1, %r2, %r1
	retf	16

		00000000000063b0:  R_POSTRISC_A_TLS_LD_OFFSET	x_tls

00000000000063c0 <test_extern_tls>:
    63c0: 40 00 80 02 41 00 00 00 00 84 1c 00 00 00 0c 70      	! BUNDLE
	allocsp	5, 16
	ldafr	%r4, 0
	callr	%r3, 0

		00000000000063c0:  R_POSTRISC_B_TLS_LD_GOT_OFFSET	x_tls_extern
		00000000000063c0:  R_POSTRISC_C_JUMP	__tls_get_addr
    63d0: 00 00 00 82 20 09 02 04 04 01 00 04 00 00 08 04      	! BUNDLE
	lddz	%r2, %r4, 0
	add	%r1, %r2, %r1
	retf	16

		00000000000063d0:  R_POSTRISC_A_TLS_LD_OFFSET	x_tls_extern

00000000000063e0 <test_va_start>:
    63e0: 40 02 80 03 41 00 09 00 fc 06 08 02 00 f0 1b 96      	! BUNDLE
	allocsp	7, 144
	addi	%r6, %sp, 144
	std	%r6, %sp, 8

    63f0: 04 00 80 c0 20 f2 ff ff 03 84 08 04 00 f0 17 20      	! BUNDLE
	addiws	%r3, %r1, 1
	addiws	%r4, %r1, -1
	addi	%r5, %sp, 16

    6400: 00 00 00 80 00 17 00 00 06 01 00 24 00 00 08 04      	! BUNDLE
	callr	%r2, 0
	mov	%r1, %r3
	retf	144

		0000000000006400:  R_POSTRISC_A_JUMP	test_va_list_callback

0000000000006410 <test_va_start_end>:
    6410: 40 02 00 04 41 00 09 00 fc 01 08 02 00 f0 07 96      	! BUNDLE
	allocsp	8, 144
	addi	%r1, %sp, 144
	std	%r1, %sp, 8

    6420: a0 0f 00 00 40 80 00 00 fc 81 e4 47 00 08 04 02      	! BUNDLE
	nop	1000
	lddz	%r1, %sp, 8
	algnup	%r1, %r1, 0, 2

    6430: 10 00 80 80 00 82 00 00 fc 82 25 00 00 08 10 8c      	! BUNDLE
	addi	%r2, %r1, 4
	std	%r2, %sp, 8
	ldwz	%r4, %r1, 0

    6440: a4 0f 00 00 40 80 00 00 fc 81 e4 67 00 08 04 02      	! BUNDLE
	nop	1001
	lddz	%r1, %sp, 8
	algnup	%r1, %r1, 0, 3

    6450: 20 00 80 80 00 82 00 00 fc 82 25 00 00 08 14 92      	! BUNDLE
	addi	%r2, %r1, 8
	std	%r2, %sp, 8
	lddz	%r5, %r1, 0

    6460: a8 0f 00 00 40 b0 3e 00 00 00 01 04 00 f0 1b 20      	! BUNDLE
	nop	1002
	nop	1003
	addi	%r6, %sp, 16

    6470: 20 00 00 ff 01 02 00 00 00 03 5c 00 00 20 04 00      	! BUNDLE
	addi	%r7, %sp, 8
	callr	%r3, 0
	mov	%r1, %r4

		0000000000006470:  R_POSTRISC_B_JUMP	test_va_callback
    6480: 40 02 00 80 40 00 00 00 00 00 01 00 00 00 00 04      	! BUNDLE
	retf	144
	nop	0
	nop	0


0000000000006490 <test_printf_valist>:
    6490: 40 00 00 03 41 80 00 00 fc 82 25 00 00 f0 0b 96      	! BUNDLE
	allocsp	6, 16
	std	%r2, %sp, 8
	std	%r2, %sp, 0

    64a0: 90 01 00 00 01 01 00 00 fc 01 48 00 00 08 14 00      	! BUNDLE
	ldi	%r4, 100
	addi	%r1, %sp, 0
	mov	%r5, %r1

    64b0: 00 00 00 c0 00 87 0c 00 00 04 44 00 00 08 14 00      	! BUNDLE
	callr	%r3, 0
	ldi	%r4, 200
	mov	%r5, %r1

		00000000000064b0:  R_POSTRISC_A_JUMP	test_printf_callback
    64c0: 00 00 00 c0 00 17 00 00 08 01 00 04 00 00 08 04      	! BUNDLE
	callr	%r3, 0
	mov	%r1, %r4
	retf	16

		00000000000064c0:  R_POSTRISC_A_JUMP	test_printf_callback

00000000000064d0 <test_vprintf_valist>:
    64d0: 80 00 00 03 41 80 01 00 fc 82 25 04 00 f0 0b 96      	! BUNDLE
	allocsp	6, 32
	std	%r2, %sp, 24
	std	%r2, %sp, 16

    64e0: 20 00 00 bf 60 49 06 00 00 04 04 04 00 f0 17 20      	! BUNDLE
	std	%r2, %sp, 8
	ldi	%r4, 100
	addi	%r5, %sp, 16

    64f0: 00 00 00 c0 00 87 0c 00 00 04 04 02 00 f0 17 20      	! BUNDLE
	callr	%r3, 0
	ldi	%r4, 200
	addi	%r5, %sp, 8

		00000000000064f0:  R_POSTRISC_A_JUMP	test_vprintf_callback
    6500: 00 00 00 c0 00 17 00 00 08 01 00 08 00 00 08 04      	! BUNDLE
	callr	%r3, 0
	mov	%r1, %r4
	retf	32

		0000000000006500:  R_POSTRISC_A_JUMP	test_vprintf_callback

0000000000006510 <test_vacopy>:
    6510: 40 00 80 02 41 80 00 00 fc 82 25 00 00 f0 0b 96      	! BUNDLE
	allocsp	5, 16
	std	%r2, %sp, 8
	std	%r2, %sp, 0

    6520: 00 00 00 7f 00 12 00 00 02 04 00 00 00 00 0c 70      	! BUNDLE
	addi	%r1, %sp, 0
	mov	%r4, %r1
	callr	%r3, 0

		0000000000006520:  R_POSTRISC_C_JUMP	test_valist_callback
    6530: 04 00 80 00 01 00 00 00 00 03 5c 00 00 20 04 00      	! BUNDLE
	mov	%r4, %r1
	callr	%r3, 0
	mov	%r1, %r4

		0000000000006530:  R_POSTRISC_B_JUMP	test_valist_callback
    6540: 40 00 00 80 40 00 00 00 00 00 01 00 00 00 00 04      	! BUNDLE
	retf	16
	nop	0
	nop	0


0000000000006550 <test_vector_bitcast_v2i64_to_v4i32>:
    6550: 00 00 00 c1 40 00 00 00 00 02 01 00 00 00 00 04      	! BUNDLE
	alloc	2
	retf	0
	nop	0


0000000000006560 <test_vector_bitcast_v2i64_to_v8i16>:
    6560: 00 00 00 c1 40 00 00 00 00 02 01 00 00 00 00 04      	! BUNDLE
	alloc	2
	retf	0
	nop	0


0000000000006570 <test_vector_bitcast_v2i64_to_v16i8>:
    6570: 00 00 00 c1 40 00 00 00 00 02 01 00 00 00 00 04      	! BUNDLE
	alloc	2
	retf	0
	nop	0


0000000000006580 <test_vector_bitcast_v4i32_to_v2i64>:
    6580: 00 00 00 c1 40 00 00 00 00 02 01 00 00 00 00 04      	! BUNDLE
	alloc	2
	retf	0
	nop	0


0000000000006590 <test_vector_bitcast_v4i32_to_v8i16>:
    6590: 00 00 00 c1 40 00 00 00 00 02 01 00 00 00 00 04      	! BUNDLE
	alloc	2
	retf	0
	nop	0


00000000000065a0 <test_vector_bitcast_v4i32_to_v16i8>:
    65a0: 00 00 00 c1 40 00 00 00 00 02 01 00 00 00 00 04      	! BUNDLE
	alloc	2
	retf	0
	nop	0


00000000000065b0 <test_vector_bitcast_v8i16_to_v2i64>:
    65b0: 00 00 00 c1 40 00 00 00 00 02 01 00 00 00 00 04      	! BUNDLE
	alloc	2
	retf	0
	nop	0


00000000000065c0 <test_vector_bitcast_v8i16_to_v4i32>:
    65c0: 00 00 00 c1 40 00 00 00 00 02 01 00 00 00 00 04      	! BUNDLE
	alloc	2
	retf	0
	nop	0


00000000000065d0 <test_vector_bitcast_v8i16_to_v16i8>:
    65d0: 00 00 00 c1 40 00 00 00 00 02 01 00 00 00 00 04      	! BUNDLE
	alloc	2
	retf	0
	nop	0


00000000000065e0 <test_vector_bitcast_v16i8_to_v2i64>:
    65e0: 00 00 00 c1 40 00 00 00 00 02 01 00 00 00 00 04      	! BUNDLE
	alloc	2
	retf	0
	nop	0


00000000000065f0 <test_vector_bitcast_v16i8_to_v4i32>:
    65f0: 00 00 00 c1 40 00 00 00 00 02 01 00 00 00 00 04      	! BUNDLE
	alloc	2
	retf	0
	nop	0


0000000000006600 <test_vector_bitcast_v16i8_to_v8i16>:
    6600: 00 00 00 c1 40 00 00 00 00 02 01 00 00 00 00 04      	! BUNDLE
	alloc	2
	retf	0
	nop	0


0000000000006610 <test_vector_bitcast_f128_to_v16i8>:
    6610: 00 00 00 c1 40 00 00 00 00 02 01 00 00 00 00 04      	! BUNDLE
	alloc	2
	retf	0
	nop	0


0000000000006620 <test_vector_bitcast_f128_to_v8i16>:
    6620: 00 00 00 c1 40 00 00 00 00 02 01 00 00 00 00 04      	! BUNDLE
	alloc	2
	retf	0
	nop	0


0000000000006630 <test_vector_bitcast_f128_to_v4i32>:
    6630: 00 00 00 c1 40 00 00 00 00 02 01 00 00 00 00 04      	! BUNDLE
	alloc	2
	retf	0
	nop	0


0000000000006640 <test_vector_bitcast_f128_to_v2i64>:
    6640: 00 00 00 c1 40 00 00 00 00 02 01 00 00 00 00 04      	! BUNDLE
	alloc	2
	retf	0
	nop	0


0000000000006650 <test_vector_bitcast_v16i8_to_f128>:
    6650: 00 00 00 c1 40 00 00 00 00 02 01 00 00 00 00 04      	! BUNDLE
	alloc	2
	retf	0
	nop	0


0000000000006660 <test_vector_bitcast_v8i16_to_f128>:
    6660: 00 00 00 c1 40 00 00 00 00 02 01 00 00 00 00 04      	! BUNDLE
	alloc	2
	retf	0
	nop	0


0000000000006670 <test_vector_bitcast_v4i32_to_f128>:
    6670: 00 00 00 c1 40 00 00 00 00 02 01 00 00 00 00 04      	! BUNDLE
	alloc	2
	retf	0
	nop	0


0000000000006680 <test_vector_bitcast_v2i64_to_f128>:
    6680: 00 00 00 c1 40 00 00 00 00 02 01 00 00 00 00 04      	! BUNDLE
	alloc	2
	retf	0
	nop	0


0000000000006690 <test_vector_bitcast_i128_to_v16i8>:
    6690: 00 00 00 c1 40 00 00 00 00 02 01 00 00 00 00 04      	! BUNDLE
	alloc	2
	retf	0
	nop	0


00000000000066a0 <test_vector_bitcast_i128_to_v8i16>:
    66a0: 00 00 00 c1 40 00 00 00 00 02 01 00 00 00 00 04      	! BUNDLE
	alloc	2
	retf	0
	nop	0


00000000000066b0 <test_vector_bitcast_i128_to_v4i32>:
    66b0: 00 00 00 c1 40 00 00 00 00 02 01 00 00 00 00 04      	! BUNDLE
	alloc	2
	retf	0
	nop	0


00000000000066c0 <test_vector_bitcast_i128_to_v2i64>:
    66c0: 00 00 00 c1 40 00 00 00 00 02 01 00 00 00 00 04      	! BUNDLE
	alloc	2
	retf	0
	nop	0


00000000000066d0 <test_vector_bitcast_v16i8_to_i128>:
    66d0: 00 00 00 c1 40 00 00 00 00 02 01 00 00 00 00 04      	! BUNDLE
	alloc	2
	retf	0
	nop	0


00000000000066e0 <test_vector_bitcast_v8i16_to_i128>:
    66e0: 00 00 00 c1 40 00 00 00 00 02 01 00 00 00 00 04      	! BUNDLE
	alloc	2
	retf	0
	nop	0


00000000000066f0 <test_vector_bitcast_v4i32_to_i128>:
    66f0: 00 00 00 c1 40 00 00 00 00 02 01 00 00 00 00 04      	! BUNDLE
	alloc	2
	retf	0
	nop	0


0000000000006700 <test_vector_bitcast_v2i64_to_i128>:
    6700: 00 00 00 c1 40 00 00 00 00 02 01 00 00 00 00 04      	! BUNDLE
	alloc	2
	retf	0
	nop	0


0000000000006710 <test_stack_array>:
    6710: 40 00 80 06 41 10 00 00 fa 05 00 04 00 f0 f7 21      	! BUNDLE
	allocsp	13, 16
	mov	%r5, %fp
	addi	%fp, %sp, 16

    6720: c0 ff 7f bf 1f 02 00 00 00 8c 1c 00 00 f0 07 96      	! BUNDLE
	addi	%sp, %sp, -16
	ldafr	%r12, 0
	std	%r1, %sp, 0

		0000000000006720:  R_POSTRISC_B_PCREL_FWD	.L.str.74
    6730: 00 00 00 c0 02 07 01 00 fc 7e c8 87 30 08 10 02      	! BUNDLE
	callr	%r11, 0
	addi	%sp, %sp, 16
	algnup	%r4, %r1, 3, 4

		0000000000006730:  R_POSTRISC_A_JUMP	printf
    6740: 84 00 04 3f 01 10 00 00 08 7e 00 08 10 10 24 00      	! BUNDLE
	sub	%r4, %sp, %r4
	mov	%sp, %r4
	add	%r9, %r2, %r1

    6750: 36 05 83 04 22 06 00 00 00 00 40 08 20 08 0c 00      	! BUNDLE
	ldax.l	%r8, %r9, %r3, 0, 333
	sub	%r3, %r1, %r2

    6760: b0 00 80 81 02 02 09 04 04 8b 00 24 20 08 30 02      	! BUNDLE
	addi	%r10, %r3, 44
	sladd	%r11, %r2, %r1, 1
	sladd	%r12, %r1, %r2, 1

    6770: 04 00 00 c2 01 00 00 00 00 06 1c fe ff ef 1f 96      	! BUNDLE
	mov	%r7, %r4
	callr	%r6, 0
	std	%r7, %fp, -8

		0000000000006770:  R_POSTRISC_B_JUMP	stack_array_consumer
    6780: 00 00 00 c2 20 89 ff ff fb 84 24 80 20 18 08 02      	! BUNDLE
	lddz	%r3, %r4, 0
	lddz	%r4, %fp, -8
	addadd	%r2, %r3, %r2, %r4

    6790: e0 ff ff be 60 89 ff ff fb 82 24 fc ff f7 fb 21      	! BUNDLE
	std	%r2, %fp, -8
	lddz	%r2, %fp, -8
	addi	%sp, %sp, -16

    67a0: 00 00 00 00 23 07 00 00 fc 82 25 00 00 00 2c 70      	! BUNDLE
	ldafr	%r12, 0
	std	%r2, %sp, 0
	callr	%r11, 0

		00000000000067a0:  R_POSTRISC_A_PCREL_FWD	.L.str.75
		00000000000067a0:  R_POSTRISC_C_JUMP	printf
    67b0: 40 00 00 bf 1f 82 ff ff fb 82 24 08 10 10 04 00      	! BUNDLE
	addi	%sp, %sp, 16
	lddz	%r2, %fp, -8
	add	%r1, %r2, %r1

    67c0: 04 00 80 be 1f 10 00 00 0a 7d 00 00 00 00 08 04      	! BUNDLE
	mov	%sp, %fp
	mov	%fp, %r5
	retf	0


Disassembly of section .text.unlikely.:

0000000000000000 <test_int>:
       0: 00 00 00 c1 40 20 10 00 02 00 80 40 c8 f8 03 00      	! BUNDLE
	alloc	2
	int	%r1, 0
	int	%gz, 100

      10: 08 04 99 3f 00 20 90 7f fe 00 80 40 c6 f8 03 00      	! BUNDLE
	int	%gz, 200
	int	%gz, 255
	int	%gz, 99

      20: 08 24 80 3f 00 20 90 02 fe 00 00 00 00 00 00 04      	! BUNDLE
	int	%gz, 1
	int	%gz, 5
	nop	0

