
<stdin>:	file format elf64-postrisc
architecture: postrisc
start address: 0x0000000000000000

Program Header:

Dynamic Section:

Sections:
Idx Name            Size     VMA              LMA              Type
  0                 00000000 0000000000000000 0000000000000000 
  1 .strtab         00002edf 0000000000000000 0000000000000000 
  2 .text           00005960 0000000000000000 0000000000000000 TEXT
  3 .rela.text      00001b48 0000000000000000 0000000000000000 
  4 .rodata         0000001c 0000000000000000 0000000000000000 DATA
  5 .rela.rodata    00000090 0000000000000000 0000000000000000 
  6 .rodata.cst4    00000004 0000000000000000 0000000000000000 DATA
  7 .rodata.cst8    00000008 0000000000000000 0000000000000000 DATA
  8 .rodata.cst16   00000010 0000000000000000 0000000000000000 DATA
  9 .rodata.str1.1  00000272 0000000000000000 0000000000000000 DATA
 10 .data           00000008 0000000000000000 0000000000000000 DATA
 11 .bss            00000050 0000000000000000 0000000000000000 BSS
 12 .tbss           00000008 0000000000000000 0000000000000000 BSS
 13 .comment        00000019 0000000000000000 0000000000000000 
 14 .note.GNU-stack 00000000 0000000000000000 0000000000000000 
 15 .symtab         00003d38 0000000000000000 0000000000000000 

SYMBOL TABLE:
0000000000000000 l    df *ABS*	0000000000000000 foo.temp.c
0000000000000000 l    d  .text	0000000000000000 .text
000000000000018c l     O .rodata.str1.1	0000000000000008 .Lstr.68
0000000000000000 l     O .rodata.str1.1	0000000000000019 .L.str.1
0000000000000019 l     O .rodata.str1.1	0000000000000018 .L.str.2
0000000000000031 l     O .rodata.str1.1	0000000000000019 .L.str.3
000000000000004a l     O .rodata.str1.1	0000000000000019 .L.str.4
0000000000000063 l     O .rodata.str1.1	0000000000000019 .L.str.5
000000000000007c l     O .rodata.str1.1	0000000000000015 .L.str.6
0000000000000091 l     O .rodata.str1.1	0000000000000014 .L.str.7
00000000000000a5 l     O .rodata.str1.1	0000000000000015 .L.str.8
00000000000000ba l     O .rodata.str1.1	0000000000000015 .L.str.9
00000000000000cf l     O .rodata.str1.1	0000000000000015 .L.str.10
00000000000000e4 l     O .rodata.str1.1	0000000000000005 .L.str.11
00000000000000e9 l     O .rodata.str1.1	0000000000000005 .L.str.12
00000000000000ee l     O .rodata.str1.1	0000000000000007 .L.str.13
00000000000000f5 l     O .rodata.str1.1	0000000000000009 .L.str.14
00000000000000fe l     O .rodata.str1.1	000000000000000b .L.str.15
0000000000000109 l     O .rodata.str1.1	000000000000000e .L.str.16
0000000000000117 l     O .rodata.str1.1	0000000000000007 .L.str.17
0000000000000000 l     O .data	0000000000000008 uglbx
000000000000011e l     O .rodata.str1.1	0000000000000007 .L.str.18
0000000000000125 l     O .rodata.str1.1	0000000000000007 .L.str.19
0000000000000194 l     O .rodata.str1.1	000000000000000c .Lstr.69
00000000000001a0 l     O .rodata.str1.1	000000000000000c .Lstr.70
00000000000001ac l     O .rodata.str1.1	000000000000000c .Lstr.71
00000000000001b8 l     O .rodata.str1.1	000000000000000c .Lstr.72
00000000000001c4 l     O .rodata.str1.1	000000000000000c .Lstr.73
00000000000001d0 l     O .rodata.str1.1	000000000000000c .Lstr.74
00000000000001dc l     O .rodata.str1.1	000000000000000c .Lstr.75
00000000000001e8 l     O .rodata.str1.1	000000000000000c .Lstr.76
00000000000001f4 l     O .rodata.str1.1	000000000000000c .Lstr.77
0000000000000200 l     O .rodata.str1.1	000000000000000c .Lstr.78
000000000000020c l     O .rodata.str1.1	000000000000000c .Lstr.79
0000000000000218 l     O .rodata.str1.1	000000000000000c .Lstr.80
0000000000000224 l     O .rodata.str1.1	000000000000000d .Lstr.81
0000000000000231 l     O .rodata.str1.1	000000000000000d .Lstr.82
000000000000023e l     O .rodata.str1.1	000000000000000d .Lstr.83
000000000000024b l     O .rodata.str1.1	000000000000000d .Lstr.84
0000000000000258 l     O .rodata.str1.1	000000000000000d .Lstr.85
0000000000000265 l     O .rodata.str1.1	000000000000000d .Lstr.86
0000000000000000 l       .rodata	0000000000000000 .LCPI317_0
0000000000000000 l       .rodata.cst4	0000000000000000 .LCPI318_0
0000000000000000 l       .rodata.cst8	0000000000000000 .LCPI319_0
0000000000000000 l       .rodata.cst16	0000000000000000 .LCPI320_0
0000000000004610 l     F .text	0000000000000010 test_static_function_pointer_target
0000000000000008 l     O .bss	0000000000000001 i8_zero
0000000000000009 l     O .bss	0000000000000001 u8_zero
000000000000000a l     O .bss	0000000000000002 i16_zero
000000000000000c l     O .bss	0000000000000002 u16_zero
0000000000000010 l     O .bss	0000000000000004 i32_zero
0000000000000014 l     O .bss	0000000000000004 u32_zero
0000000000000018 l     O .bss	0000000000000008 i64_zero
0000000000000020 l     O .bss	0000000000000008 u64_zero
0000000000000030 l     O .bss	0000000000000010 i128_zero
0000000000000040 l     O .bss	0000000000000010 u128_zero
00000000000052d0 l     F .text	0000000000000090 sn_write
0000000000000004 l       .rodata	0000000000000000 .LJTI492_0
000000000000012c l     O .rodata.str1.1	000000000000000a .L.str.38
000000000000015d l     O .rodata.str1.1	000000000000000d .L.str.42
0000000000000143 l     O .rodata.str1.1	000000000000000d .L.str.40
0000000000000150 l     O .rodata.str1.1	000000000000000d .L.str.41
0000000000000136 l     O .rodata.str1.1	000000000000000d .L.str.39
000000000000016a l     O .rodata.str1.1	000000000000000d .L.str.43
0000000000000177 l     O .rodata.str1.1	000000000000000a .L.str.44
0000000000000181 l     O .rodata.str1.1	000000000000000b .L.str.45
0000000000000000 g     F .text	0000000000000010 test_i64_abs
0000000000000010 g     F .text	0000000000000010 test_i32_abs
0000000000000020 g     F .text	0000000000000010 test_i64_abs_difference
0000000000000030 g     F .text	0000000000000010 test_i32_abs_difference
0000000000000040 g     F .text	0000000000000030 test_aes
0000000000000070 g     F .text	0000000000000010 test_ldi32
0000000000000080 g     F .text	0000000000000020 test_ldi32_long
00000000000000a0 g     F .text	0000000000000010 test_ldi64
00000000000000b0 g     F .text	0000000000000020 test_ldi64_long
00000000000000d0 g     F .text	0000000000000010 test_subfi_i32
00000000000000e0 g     F .text	0000000000000010 test_subfi_i64
00000000000000f0 g     F .text	0000000000000030 test_addil
0000000000000120 g     F .text	0000000000000020 test_andil
0000000000000140 g     F .text	0000000000000020 test_oril
0000000000000160 g     F .text	0000000000000010 test_addadd
0000000000000170 g     F .text	0000000000000010 test_addsub
0000000000000180 g     F .text	0000000000000010 test_subsub
0000000000000190 g     F .text	0000000000000350 test_atomic_compare_exchange_i8
00000000000004e0 g     F .text	0000000000000350 test_atomic_compare_exchange_i16
0000000000000830 g     F .text	0000000000000350 test_atomic_compare_exchange_i32
0000000000000b80 g     F .text	0000000000000350 test_atomic_compare_exchange_i64
0000000000000ed0 g     F .text	0000000000000350 test_atomic_compare_exchange_i128
0000000000001220 g     F .text	0000000000000040 test_atomic_exchange_i8
0000000000001260 g     F .text	0000000000000040 test_atomic_exchange_i16
00000000000012a0 g     F .text	0000000000000030 test_atomic_exchange_i32
00000000000012d0 g     F .text	0000000000000030 test_atomic_exchange_i64
0000000000001300 g     F .text	0000000000000030 test_atomic_exchange_i128
0000000000001330 g     F .text	0000000000000010 test_fence_acquire
0000000000001340 g     F .text	0000000000000010 test_fence_release
0000000000001350 g     F .text	0000000000000010 test_fence_acq_rel
0000000000001360 g     F .text	0000000000000010 test_fence_seq_cst
0000000000001370 g     F .text	0000000000000010 test_compiler_fence
0000000000001380 g     F .text	0000000000000030 test_atomic_load_u8_u8
00000000000013b0 g     F .text	0000000000000030 test_atomic_load_u8_u16
00000000000013e0 g     F .text	0000000000000030 test_atomic_load_u8_u32
0000000000001410 g     F .text	0000000000000040 test_atomic_load_u8_u64
0000000000001450 g     F .text	0000000000000030 test_atomic_load_u16_u16
0000000000001480 g     F .text	0000000000000030 test_atomic_load_u16_u32
00000000000014b0 g     F .text	0000000000000040 test_atomic_load_u16_u64
00000000000014f0 g     F .text	0000000000000030 test_atomic_load_u32_u32
0000000000001520 g     F .text	0000000000000040 test_atomic_load_u32_u64
0000000000001560 g     F .text	0000000000000030 test_atomic_load_u64_u64
0000000000001590 g     F .text	0000000000000030 test_atomic_load_u128_u128
00000000000015c0 g     F .text	0000000000000140 test_atomic_load_op_i8
0000000000001700 g     F .text	0000000000000130 test_atomic_load_op_u8
0000000000001830 g     F .text	0000000000000140 test_atomic_load_op_i16
0000000000001970 g     F .text	0000000000000130 test_atomic_load_op_u16
0000000000001aa0 g     F .text	0000000000000130 test_atomic_load_op_i32
0000000000001bd0 g     F .text	0000000000000130 test_atomic_load_op_u32
0000000000001d00 g     F .text	0000000000000130 test_atomic_load_op_i64
0000000000001e30 g     F .text	0000000000000130 test_atomic_load_op_u64
0000000000001f60 g     F .text	0000000000000020 test_atomic_store_i8
0000000000001f80 g     F .text	0000000000000020 test_atomic_store_i16
0000000000001fa0 g     F .text	0000000000000020 test_atomic_store_i32
0000000000001fc0 g     F .text	0000000000000020 test_atomic_store_i64
0000000000001fe0 g     F .text	0000000000000020 test_atomic_store_i128
0000000000002000 g     F .text	0000000000000010 test_i32_inv
0000000000002010 g     F .text	0000000000000010 test_i64_inv
0000000000002020 g     F .text	0000000000000010 test_i32_and
0000000000002030 g     F .text	0000000000000010 test_i64_and
0000000000002040 g     F .text	0000000000000010 test_i32_andi
0000000000002050 g     F .text	0000000000000010 test_i64_andi
0000000000002060 g     F .text	0000000000000010 test_i32_or
0000000000002070 g     F .text	0000000000000010 test_i64_or
0000000000002080 g     F .text	0000000000000010 test_i32_ori
0000000000002090 g     F .text	0000000000000010 test_i64_ori
00000000000020a0 g     F .text	0000000000000010 test_i32_xor
00000000000020b0 g     F .text	0000000000000010 test_i64_xor
00000000000020c0 g     F .text	0000000000000010 test_i32_xori
00000000000020d0 g     F .text	0000000000000020 test_i32_xori_ext
00000000000020f0 g     F .text	0000000000000020 test_i64_xori_ext
0000000000002110 g     F .text	0000000000000020 test_i1_and
0000000000002130 g     F .text	0000000000000020 test_i1_or
0000000000002150 g     F .text	0000000000000020 test_i1_xor
0000000000002170 g     F .text	0000000000000020 test_i1_not
0000000000002190 g     F .text	0000000000000020 test_i1_andn
00000000000021b0 g     F .text	0000000000000020 test_i1_orn
00000000000021d0 g     F .text	0000000000000020 test_i1_nand
00000000000021f0 g     F .text	0000000000000010 test_i1_to_i32
0000000000002200 g     F .text	0000000000000010 test_i1_to_i64
0000000000002210 g     F .text	0000000000000010 test_i1_inv
0000000000002220 g     F .text	0000000000000010 test_imm_to_i1
0000000000002230 g     F .text	0000000000000050 test_write_i1
0000000000000000         *UND*	0000000000000000 test_bool_true
0000000000000000         *UND*	0000000000000000 test_bool_false
0000000000000000         *UND*	0000000000000000 test_i8_true
0000000000000000         *UND*	0000000000000000 test_i8_false
0000000000000000         *UND*	0000000000000000 test_i16_true
0000000000000000         *UND*	0000000000000000 test_i16_false
0000000000000000         *UND*	0000000000000000 test_i32_true
0000000000000000         *UND*	0000000000000000 test_i32_false
0000000000000000         *UND*	0000000000000000 test_i64_true
0000000000000000         *UND*	0000000000000000 test_i64_false
0000000000002280 g     F .text	0000000000000020 test_branch_i64_eqi
0000000000000000         *UND*	0000000000000000 puts
00000000000022a0 g     F .text	0000000000000020 test_branch_i64_nei
00000000000022c0 g     F .text	0000000000000020 test_branch_i64_lti
00000000000022e0 g     F .text	0000000000000020 test_branch_i64_lei
0000000000002300 g     F .text	0000000000000020 test_branch_i64_gti
0000000000002320 g     F .text	0000000000000020 test_branch_i64_gei
0000000000002340 g     F .text	0000000000000020 test_branch_ext_i64_eqi
0000000000002360 g     F .text	0000000000000020 test_branch_ext_i64_nei
0000000000002380 g     F .text	0000000000000020 test_branch_ext_i64_lti
00000000000023a0 g     F .text	0000000000000020 test_branch_ext_i64_lei
00000000000023c0 g     F .text	0000000000000020 test_branch_ext_i64_gti
00000000000023e0 g     F .text	0000000000000020 test_branch_ext_i64_gei
0000000000002400 g     F .text	0000000000000020 test_branch_i32_eqi
0000000000002420 g     F .text	0000000000000020 test_branch_i32_nei
0000000000002440 g     F .text	0000000000000020 test_branch_i32_lti
0000000000002460 g     F .text	0000000000000020 test_branch_i32_lei
0000000000002480 g     F .text	0000000000000020 test_branch_i32_gti
00000000000024a0 g     F .text	0000000000000020 test_branch_i32_gei
00000000000024c0 g     F .text	0000000000000020 test_branch_ext_i32_eqi
00000000000024e0 g     F .text	0000000000000020 test_branch_ext_i32_nei
0000000000002500 g     F .text	0000000000000020 test_branch_ext_i32_lti
0000000000002520 g     F .text	0000000000000020 test_branch_ext_i32_lei
0000000000002540 g     F .text	0000000000000020 test_branch_ext_i32_gti
0000000000002560 g     F .text	0000000000000020 test_branch_ext_i32_gei
0000000000002580 g     F .text	0000000000000030 test_bit_1
0000000000000000         *UND*	0000000000000000 printf
00000000000025b0 g     F .text	0000000000000030 test_bit_2
00000000000025e0 g     F .text	0000000000000030 test_bit_3
0000000000002610 g     F .text	0000000000000030 test_bit_4
0000000000002640 g     F .text	0000000000000030 test_bit_5
0000000000002670 g     F .text	0000000000000030 test_bit_i32_1
00000000000026a0 g     F .text	0000000000000030 test_bit_i32_2
00000000000026d0 g     F .text	0000000000000030 test_bit_i32_3
0000000000002700 g     F .text	0000000000000030 test_bit_i32_4
0000000000002730 g     F .text	0000000000000030 test_bit_i32_5
0000000000002760 g     F .text	0000000000000080 test_ball
00000000000027e0 g     F .text	00000000000001b0 test_builtin_get_special_reg
0000000000000000         *UND*	0000000000000000 consume_sr64
0000000000000000         *UND*	0000000000000000 consume_sr128
0000000000002990 g     F .text	00000000000000e0 test_builtin_set_special_reg
0000000000002a70 g     F .text	0000000000000020 test_i128_load_store
0000000000002a90 g     F .text	0000000000000080 test_builtin_va
0000000000000000         *UND*	0000000000000000 test_builtin_va_consume_i32
0000000000000000         *UND*	0000000000000000 test_builtin_va_consume_f64
0000000000000000         *UND*	0000000000000000 test_builtin_va_consume_f128
0000000000002b10 g     F .text	00000000000000a0 test_test_builtin_va
0000000000002bb0 g     F .text	0000000000000090 test_builtin_vector_i8
0000000000002c40 g     F .text	0000000000000090 test_builtin_vector_i16
0000000000002cd0 g     F .text	0000000000000090 test_builtin_vector_i32
0000000000002d60 g     F .text	0000000000000090 test_builtin_vector_i64
0000000000002df0 g     F .text	00000000000000a0 test_builtin_vector_mixed
0000000000002e90 g     F .text	0000000000000010 test_builtin_popcount
0000000000002ea0 g     F .text	0000000000000010 test_builtin_popcountl
0000000000002eb0 g     F .text	0000000000000010 test_builtin_ctz
0000000000002ec0 g     F .text	0000000000000010 test_builtin_ctzl
0000000000002ed0 g     F .text	0000000000000010 test_builtin_clz
0000000000002ee0 g     F .text	0000000000000010 test_builtin_clzl
0000000000002ef0 g     F .text	0000000000000010 test_builtin_readcyclecounter
0000000000002f00 g     F .text	0000000000000010 test_builtin_thread_pointer
0000000000002f10 g     F .text	0000000000000030 test_frame_buitin
0000000000002f40 g     F .text	0000000000000010 test_builtin_stack_pointer
0000000000002f50 g     F .text	0000000000000050 test_builtin_bitreverse
0000000000002fa0 g     F .text	0000000000000010 test_builtin_halt
0000000000002fb0 g     F .text	0000000000000010 test_builtin_undef
0000000000002fc0 g     F .text	0000000000000010 test_builtin_rfi
0000000000002fd0 g     F .text	0000000000000030 test_builtin_nop
0000000000003000 g     F .text	0000000000000010 test_builtin_tpa
0000000000003010 g     F .text	0000000000000020 test_clmul
0000000000003030 g     F .text	0000000000000020 test_i64_eq
0000000000003050 g     F .text	0000000000000020 test_i64_ne
0000000000003070 g     F .text	0000000000000020 test_i64_lt
0000000000003090 g     F .text	0000000000000020 test_i64_le
00000000000030b0 g     F .text	0000000000000020 test_i64_gt
00000000000030d0 g     F .text	0000000000000020 test_i64_ge
00000000000030f0 g     F .text	0000000000000020 test_u64_lt
0000000000003110 g     F .text	0000000000000020 test_u64_le
0000000000003130 g     F .text	0000000000000020 test_u64_gt
0000000000003150 g     F .text	0000000000000020 test_u64_ge
0000000000003170 g     F .text	0000000000000020 test_i64_eq_imm
0000000000003190 g     F .text	0000000000000020 test_i64_ne_imm
00000000000031b0 g     F .text	0000000000000020 test_i64_lt_imm
00000000000031d0 g     F .text	0000000000000020 test_i64_gt_imm
00000000000031f0 g     F .text	0000000000000020 test_i64_le_imm
0000000000003210 g     F .text	0000000000000020 test_i64_ge_imm
0000000000003230 g     F .text	0000000000000020 test_u64_lt_imm
0000000000003250 g     F .text	0000000000000020 test_u64_gt_imm
0000000000003270 g     F .text	0000000000000020 test_u64_le_imm
0000000000003290 g     F .text	0000000000000020 test_u64_ge_imm
00000000000032b0 g     F .text	0000000000000020 test_i32_eq
00000000000032d0 g     F .text	0000000000000020 test_i32_ne
00000000000032f0 g     F .text	0000000000000020 test_i32_lt
0000000000003310 g     F .text	0000000000000020 test_i32_le
0000000000003330 g     F .text	0000000000000020 test_i32_gt
0000000000003350 g     F .text	0000000000000020 test_i32_ge
0000000000003370 g     F .text	0000000000000020 test_u32_lt
0000000000003390 g     F .text	0000000000000020 test_u32_le
00000000000033b0 g     F .text	0000000000000020 test_u32_gt
00000000000033d0 g     F .text	0000000000000020 test_u32_ge
00000000000033f0 g     F .text	0000000000000020 test_i32_eq_imm
0000000000003410 g     F .text	0000000000000020 test_i32_ne_imm
0000000000003430 g     F .text	0000000000000020 test_i32_lt_imm
0000000000003450 g     F .text	0000000000000020 test_i32_gt_imm
0000000000003470 g     F .text	0000000000000020 test_i32_le_imm
0000000000003490 g     F .text	0000000000000020 test_i32_ge_imm
00000000000034b0 g     F .text	0000000000000020 test_u32_lt_imm
00000000000034d0 g     F .text	0000000000000020 test_u32_gt_imm
00000000000034f0 g     F .text	0000000000000020 test_u32_le_imm
0000000000003510 g     F .text	0000000000000020 test_u32_ge_imm
0000000000003530 g     F .text	0000000000000030 test_cpuid
0000000000003560 g     F .text	0000000000000010 test_crc32c
0000000000003570 g     F .text	0000000000000030 TestDebugRegisters
00000000000035a0 g     F .text	0000000000000010 test_fma_f32
00000000000035b0 g     F .text	0000000000000010 test_fma_f64
00000000000035c0 g     F .text	0000000000000020 test_fma_f128
00000000000035e0 g     F .text	0000000000000020 ffff
0000000000003600 g     F .text	0000000000000120 i64_test
0000000000000000         *UND*	0000000000000000 exit
0000000000003720 g     F .text	0000000000000080 NeverReturn
0000000000000000         *UND*	0000000000000000 glbx
00000000000037a0 g     F .text	0000000000000030 i64_add
00000000000037d0 g     F .text	0000000000000040 i32_add
0000000000000000         *UND*	0000000000000000 glb
0000000000000000         *UND*	0000000000000000 cccc
0000000000003810 g     F .text	0000000000000020 u32_add
0000000000000000         *UND*	0000000000000000 uglb
0000000000003830 g     F .text	0000000000000040 float_test
0000000000003870 g     F .text	0000000000000010 main
0000000000003880 g     F .text	0000000000000020 test_fp_arithmetic_f16
00000000000038a0 g     F .text	0000000000000020 test_fp_arithmetic_f32
00000000000038c0 g     F .text	0000000000000020 test_fp_arithmetic_f64
00000000000038e0 g     F .text	0000000000000020 test_fp_arithmetic_f128
0000000000003900 g     F .text	0000000000000020 test_fp_bitcast_i16_to_f16
0000000000003920 g     F .text	0000000000000020 test_fp_bitcast_f16_to_i16
0000000000003940 g     F .text	0000000000000010 test_fp_bitcast_i32_to_f32
0000000000003950 g     F .text	0000000000000010 test_fp_bitcast_f32_to_i32
0000000000003960 g     F .text	0000000000000010 test_fp_bitcast_i64_to_f64
0000000000003970 g     F .text	0000000000000010 test_fp_bitcast_f64_to_i64
0000000000003980 g     F .text	0000000000000010 test_fp_bitcast_i128_to_f128
0000000000003990 g     F .text	0000000000000010 test_fp_bitcast_f128_to_i128
00000000000039a0 g     F .text	0000000000000020 test_fp_branch_f32_eq
00000000000039c0 g     F .text	0000000000000020 test_fp_branch_f32_ne
00000000000039e0 g     F .text	0000000000000020 test_fp_branch_f32_lt
0000000000003a00 g     F .text	0000000000000020 test_fp_branch_f32_le
0000000000003a20 g     F .text	0000000000000020 test_fp_branch_f32_gt
0000000000003a40 g     F .text	0000000000000020 test_fp_branch_f32_ge
0000000000003a60 g     F .text	0000000000000020 test_fp_branch_f64_eq
0000000000003a80 g     F .text	0000000000000020 test_fp_branch_f64_ne
0000000000003aa0 g     F .text	0000000000000020 test_fp_branch_f64_lt
0000000000003ac0 g     F .text	0000000000000020 test_fp_branch_f64_le
0000000000003ae0 g     F .text	0000000000000020 test_fp_branch_f64_gt
0000000000003b00 g     F .text	0000000000000020 test_fp_branch_f64_ge
0000000000003b20 g     F .text	0000000000000020 test_fp_branch_f128_eq
0000000000003b40 g     F .text	0000000000000020 test_fp_branch_f128_ne
0000000000003b60 g     F .text	0000000000000020 test_fp_branch_f128_lt
0000000000003b80 g     F .text	0000000000000020 test_fp_branch_f128_le
0000000000003ba0 g     F .text	0000000000000020 test_fp_branch_f128_gt
0000000000003bc0 g     F .text	0000000000000020 test_fp_branch_f128_ge
0000000000003be0 g     F .text	0000000000000010 test_builtin_f32_isnan
0000000000003bf0 g     F .text	0000000000000010 test_builtin_f32_copysign
0000000000003c00 g     F .text	0000000000000010 test_builtin_f64_copysign
0000000000003c10 g     F .text	0000000000000010 test_builtin_f128_copysign
0000000000003c20 g     F .text	0000000000000020 test_compare_f16_eq
0000000000003c40 g     F .text	0000000000000020 test_compare_f16_ne
0000000000003c60 g     F .text	0000000000000020 test_compare_f16_lt
0000000000003c80 g     F .text	0000000000000020 test_compare_f16_le
0000000000003ca0 g     F .text	0000000000000020 test_compare_f16_gt
0000000000003cc0 g     F .text	0000000000000020 test_compare_f16_ge
0000000000003ce0 g     F .text	0000000000000020 test_compare_f32_eq
0000000000003d00 g     F .text	0000000000000020 test_compare_f32_ne
0000000000003d20 g     F .text	0000000000000020 test_compare_f32_lt
0000000000003d40 g     F .text	0000000000000020 test_compare_f32_le
0000000000003d60 g     F .text	0000000000000020 test_compare_f32_gt
0000000000003d80 g     F .text	0000000000000020 test_compare_f32_ge
0000000000003da0 g     F .text	0000000000000020 test_compare_f64_eq
0000000000003dc0 g     F .text	0000000000000020 test_compare_f64_ne
0000000000003de0 g     F .text	0000000000000020 test_compare_f64_lt
0000000000003e00 g     F .text	0000000000000020 test_compare_f64_le
0000000000003e20 g     F .text	0000000000000020 test_compare_f64_gt
0000000000003e40 g     F .text	0000000000000020 test_compare_f64_ge
0000000000003e60 g     F .text	0000000000000020 test_compare_f128_eq
0000000000003e80 g     F .text	0000000000000020 test_compare_f128_ne
0000000000003ea0 g     F .text	0000000000000020 test_compare_f128_lt
0000000000003ec0 g     F .text	0000000000000020 test_compare_f128_le
0000000000003ee0 g     F .text	0000000000000020 test_compare_f128_gt
0000000000003f00 g     F .text	0000000000000020 test_compare_f128_ge
0000000000003f20 g     F .text	0000000000000010 test_conv_f16_to_f32
0000000000003f30 g     F .text	0000000000000010 test_conv_f16_to_f64
0000000000003f40 g     F .text	0000000000000010 test_conv_f16_to_f128
0000000000003f50 g     F .text	0000000000000010 test_conv_f64_to_f128
0000000000003f60 g     F .text	0000000000000010 test_conv_f32_to_f64
0000000000003f70 g     F .text	0000000000000010 test_conv_f32_to_f128
0000000000003f80 g     F .text	0000000000000010 test_conv_f32_to_f16
0000000000003f90 g     F .text	0000000000000010 test_conv_f64_to_f16
0000000000003fa0 g     F .text	0000000000000010 test_conv_f64_to_f32
0000000000003fb0 g     F .text	0000000000000010 test_conv_f128_to_f16
0000000000003fc0 g     F .text	0000000000000010 test_conv_f128_to_f32
0000000000003fd0 g     F .text	0000000000000010 test_conv_f128_to_f64
0000000000003fe0 g     F .text	0000000000000010 test_conv_f16_to_i32
0000000000003ff0 g     F .text	0000000000000010 test_conv_f16_to_u32
0000000000004000 g     F .text	0000000000000010 test_conv_f16_to_i64
0000000000004010 g     F .text	0000000000000010 test_conv_f16_to_u64
0000000000004020 g     F .text	0000000000000010 test_conv_f16_to_i128
0000000000004030 g     F .text	0000000000000010 test_conv_f16_to_u128
0000000000004040 g     F .text	0000000000000010 test_conv_i32_to_f16
0000000000004050 g     F .text	0000000000000010 test_conv_u32_to_f16
0000000000004060 g     F .text	0000000000000010 test_conv_i64_to_f16
0000000000004070 g     F .text	0000000000000010 test_conv_u64_to_f16
0000000000004080 g     F .text	0000000000000010 test_conv_i128_to_f16
0000000000004090 g     F .text	0000000000000010 test_conv_u128_to_f16
00000000000040a0 g     F .text	0000000000000010 test_conv_f32_to_i32
00000000000040b0 g     F .text	0000000000000010 test_conv_f32_to_u32
00000000000040c0 g     F .text	0000000000000010 test_conv_f32_to_i64
00000000000040d0 g     F .text	0000000000000010 test_conv_f32_to_u64
00000000000040e0 g     F .text	0000000000000010 test_conv_f32_to_i128
00000000000040f0 g     F .text	0000000000000010 test_conv_f32_to_u128
0000000000004100 g     F .text	0000000000000010 test_conv_i32_to_f32
0000000000004110 g     F .text	0000000000000010 test_conv_u32_to_f32
0000000000004120 g     F .text	0000000000000010 test_conv_i64_to_f32
0000000000004130 g     F .text	0000000000000010 test_conv_u64_to_f32
0000000000004140 g     F .text	0000000000000010 test_conv_i128_to_f32
0000000000004150 g     F .text	0000000000000010 test_conv_u128_to_f32
0000000000004160 g     F .text	0000000000000010 test_conv_f64_to_i32
0000000000004170 g     F .text	0000000000000010 test_conv_f64_to_u32
0000000000004180 g     F .text	0000000000000010 test_conv_f64_to_i64
0000000000004190 g     F .text	0000000000000010 test_conv_f64_to_u64
00000000000041a0 g     F .text	0000000000000010 test_conv_f64_to_i128
00000000000041b0 g     F .text	0000000000000010 test_conv_f64_to_u128
00000000000041c0 g     F .text	0000000000000010 test_conv_i32_to_f64
00000000000041d0 g     F .text	0000000000000010 test_conv_u32_to_f64
00000000000041e0 g     F .text	0000000000000010 test_conv_i64_to_f64
00000000000041f0 g     F .text	0000000000000010 test_conv_u64_to_f64
0000000000004200 g     F .text	0000000000000010 test_conv_i128_to_f64
0000000000004210 g     F .text	0000000000000010 test_conv_u128_to_f64
0000000000004220 g     F .text	0000000000000010 test_conv_f128_to_i32
0000000000004230 g     F .text	0000000000000010 test_conv_f128_to_u32
0000000000004240 g     F .text	0000000000000010 test_conv_f128_to_i64
0000000000004250 g     F .text	0000000000000010 test_conv_f128_to_u64
0000000000004260 g     F .text	0000000000000010 test_conv_f128_to_i128
0000000000004270 g     F .text	0000000000000010 test_conv_f128_to_u128
0000000000004280 g     F .text	0000000000000010 test_conv_i32_to_f128
0000000000004290 g     F .text	0000000000000010 test_conv_u32_to_f128
00000000000042a0 g     F .text	0000000000000010 test_conv_i64_to_f128
00000000000042b0 g     F .text	0000000000000010 test_conv_u64_to_f128
00000000000042c0 g     F .text	0000000000000010 test_conv_i128_to_f128
00000000000042d0 g     F .text	0000000000000010 test_conv_u128_to_f128
00000000000042e0 g     F .text	0000000000000010 test_fp_immediate_f16
00000000000042f0 g     F .text	0000000000000010 test_fp_immediate_f32
0000000000004300 g     F .text	0000000000000010 test_fp_immediate_f64
0000000000004310 g     F .text	0000000000000010 test_fp_immediate_f128
0000000000004320 g     F .text	0000000000000010 test_round_f32
0000000000004330 g     F .text	0000000000000010 test_floor_f32
0000000000004340 g     F .text	0000000000000010 test_ceil_f32
0000000000004350 g     F .text	0000000000000010 test_trunc_f32
0000000000004360 g     F .text	0000000000000010 test_nearbyint_f32
0000000000004370 g     F .text	0000000000000010 test_rint_f32
0000000000004380 g     F .text	0000000000000010 test_round_f64
0000000000004390 g     F .text	0000000000000010 test_floor_f64
00000000000043a0 g     F .text	0000000000000010 test_ceil_f64
00000000000043b0 g     F .text	0000000000000010 test_trunc_f64
00000000000043c0 g     F .text	0000000000000010 test_nearbyint_f64
00000000000043d0 g     F .text	0000000000000010 test_rint_f64
00000000000043e0 g     F .text	0000000000000010 test_round_f128
00000000000043f0 g     F .text	0000000000000010 test_floor_f128
0000000000004400 g     F .text	0000000000000010 test_ceil_f128
0000000000004410 g     F .text	0000000000000010 test_trunc_f128
0000000000004420 g     F .text	0000000000000010 test_nearbyint_f128
0000000000004430 g     F .text	0000000000000010 test_rint_f128
0000000000004440 g     F .text	0000000000000010 test_fneg_f32
0000000000004450 g     F .text	0000000000000010 test_fabs_f32
0000000000004460 g     F .text	0000000000000010 test_fnabs_f32
0000000000004470 g     F .text	0000000000000010 test_fabsd_f32
0000000000004480 g     F .text	0000000000000010 test_fnabsd_f32
0000000000004490 g     F .text	0000000000000010 test_fneg_f64
00000000000044a0 g     F .text	0000000000000010 test_fabs_f64
00000000000044b0 g     F .text	0000000000000010 test_fnabs_f64
00000000000044c0 g     F .text	0000000000000010 test_fabsd_f64
00000000000044d0 g     F .text	0000000000000010 test_fnabsd_f64
00000000000044e0 g     F .text	0000000000000010 test_fneg_f128
00000000000044f0 g     F .text	0000000000000010 test_fabs_f128
0000000000004500 g     F .text	0000000000000010 test_fnabs_f128
0000000000004510 g     F .text	0000000000000010 test_fabsd_f128
0000000000004520 g     F .text	0000000000000010 test_fnabsd_f128
0000000000004530 g     F .text	0000000000000020 test_function_pointer
0000000000004550 g     F .text	0000000000000020 test_function_call
0000000000000000         *UND*	0000000000000000 ccc
0000000000004570 g     F .text	0000000000000020 test_function
0000000000000000         *UND*	0000000000000000 xprintf
0000000000004590 g     F .text	0000000000000020 test_callmi
00000000000045b0 g     F .text	0000000000000020 test_callmi_folding
00000000000045d0 g     F .text	0000000000000020 test_callplt_folding
0000000000000000         *UND*	0000000000000000 gftable
00000000000045f0 g     F .text	0000000000000010 test_global_function_pointer_target
0000000000004600 g     F .text	0000000000000010 test_static_function_pointer_materialize
0000000000004620 g     F .text	0000000000000010 test_global_function_pointer_materialize
0000000000004630 g     F .text	0000000000000010 test_extern_function_pointer_materialize
0000000000000000         *UND*	0000000000000000 test_extern_function_pointer_target
0000000000004640 g     F .text	0000000000000030 test_global_data
0000000000000000 g     O .bss	0000000000000008 x_bss
0000000000000000         *UND*	0000000000000000 x_bss_extern
0000000000004670 g     F .text	0000000000000010 test_global_i8_ptr
0000000000000000         *UND*	0000000000000000 global_i8
0000000000004680 g     F .text	0000000000000010 test_global_i8
0000000000004690 g     F .text	0000000000000010 test_global_u8
0000000000000000         *UND*	0000000000000000 global_u8
00000000000046a0 g     F .text	0000000000000010 test_global_i16
0000000000000000         *UND*	0000000000000000 global_i16
00000000000046b0 g     F .text	0000000000000010 test_global_u16
0000000000000000         *UND*	0000000000000000 global_u16
00000000000046c0 g     F .text	0000000000000010 test_global_i8_to_i16
00000000000046d0 g     F .text	0000000000000010 test_global_u8_to_u16
00000000000046e0 g     F .text	0000000000000010 test_global_i32
0000000000000000         *UND*	0000000000000000 global_i32
00000000000046f0 g     F .text	0000000000000010 test_global_u32
0000000000000000         *UND*	0000000000000000 global_u32
0000000000004700 g     F .text	0000000000000010 test_global_i8_to_i32
0000000000004710 g     F .text	0000000000000010 test_global_u8_to_u32
0000000000004720 g     F .text	0000000000000010 test_global_i16_to_i32
0000000000004730 g     F .text	0000000000000010 test_global_u16_to_u32
0000000000004740 g     F .text	0000000000000010 test_global_i8_to_i64
0000000000004750 g     F .text	0000000000000010 test_global_u8_to_u64
0000000000004760 g     F .text	0000000000000010 test_global_i16_to_i64
0000000000004770 g     F .text	0000000000000010 test_global_u16_to_u64
0000000000004780 g     F .text	0000000000000010 test_global_i32_to_i64
0000000000004790 g     F .text	0000000000000010 test_global_u32_to_u64
00000000000047a0 g     F .text	0000000000000010 test_global_i64
0000000000000000         *UND*	0000000000000000 global_i64
00000000000047b0 g     F .text	0000000000000010 test_global_u64
0000000000000000         *UND*	0000000000000000 global_u64
00000000000047c0 g     F .text	0000000000000010 test_global_array_folding_i8
0000000000000000         *UND*	0000000000000000 global_array_i8
00000000000047d0 g     F .text	0000000000000010 test_global_array_folding_i16
0000000000000000         *UND*	0000000000000000 global_array_i16
00000000000047e0 g     F .text	0000000000000010 test_global_array_folding_i32
0000000000000000         *UND*	0000000000000000 global_array_i32
00000000000047f0 g     F .text	0000000000000010 test_global_array_folding_i64
0000000000000000         *UND*	0000000000000000 global_array_i64
0000000000004800 g     F .text	0000000000000010 test_ldi128
0000000000004810 g     F .text	0000000000000020 test_ldi128_long
0000000000004830 g     F .text	0000000000000020 test_subfi_i128
0000000000004850 g     F .text	0000000000000030 test_addi_i128
0000000000004880 g     F .text	0000000000000020 test_andi_i128
00000000000048a0 g     F .text	0000000000000020 test_ori_i128
00000000000048c0 g     F .text	0000000000000010 test_add_i128
00000000000048d0 g     F .text	0000000000000010 test_sub_i128
00000000000048e0 g     F .text	0000000000000010 test_immediate_i32
00000000000048f0 g     F .text	0000000000000010 test_immediate_u32
0000000000004900 g     F .text	0000000000000020 test_immediate_i32_long
0000000000004920 g     F .text	0000000000000020 test_immediate_u32_long
0000000000004940 g     F .text	0000000000000010 test_immediate_i64
0000000000004950 g     F .text	0000000000000010 test_immediate_u64
0000000000004960 g     F .text	0000000000000020 test_immediate_i64_long
0000000000004980 g     F .text	0000000000000020 test_immediate_u64_long
00000000000049a0 g     F .text	0000000000000020 test_immediate_size_max
00000000000049c0 g     F .text	0000000000000010 test_load_based_u32
00000000000049d0 g     F .text	0000000000000010 test_load_based_u16
00000000000049e0 g     F .text	0000000000000010 test_load_based_u8
00000000000049f0 g     F .text	0000000000000010 test_load_based_i32
0000000000004a00 g     F .text	0000000000000010 test_load_based_i16
0000000000004a10 g     F .text	0000000000000010 test_load_based_i8
0000000000004a20 g     F .text	0000000000000020 test_base_index_u32_u32
0000000000004a40 g     F .text	0000000000000050 test_base_address
0000000000004a90 g     F .text	0000000000000040 MemoryIndexed
0000000000004ad0 g     F .text	0000000000000010 test_base_index_i32
0000000000004ae0 g     F .text	0000000000000010 test_base_index_i32_offset
0000000000004af0 g     F .text	0000000000000010 test_base_index_u32
0000000000004b00 g     F .text	0000000000000020 test_base_index_u32_offset
0000000000004b20 g     F .text	0000000000000010 test_base_index_i64
0000000000004b30 g     F .text	0000000000000020 test_base_index_i32_struct
0000000000004b50 g     F .text	0000000000000050 for_loop
0000000000004ba0 g     F .text	0000000000000050 for_loop_32
0000000000004bf0 g     F .text	0000000000000010 test_i64_min_lt
0000000000004c00 g     F .text	0000000000000010 test_u64_min_lt
0000000000004c10 g     F .text	0000000000000010 test_i64_min_le
0000000000004c20 g     F .text	0000000000000010 test_u64_min_le
0000000000004c30 g     F .text	0000000000000010 test_i64_min_gt
0000000000004c40 g     F .text	0000000000000010 test_u64_min_gt
0000000000004c50 g     F .text	0000000000000010 test_i64_min_ge
0000000000004c60 g     F .text	0000000000000010 test_u64_min_ge
0000000000004c70 g     F .text	0000000000000010 test_i64_max_lt
0000000000004c80 g     F .text	0000000000000010 test_u64_max_lt
0000000000004c90 g     F .text	0000000000000010 test_i64_max_le
0000000000004ca0 g     F .text	0000000000000010 test_u64_max_le
0000000000004cb0 g     F .text	0000000000000010 test_i64_max_gt
0000000000004cc0 g     F .text	0000000000000010 test_u64_max_gt
0000000000004cd0 g     F .text	0000000000000010 test_i64_max_ge
0000000000004ce0 g     F .text	0000000000000010 test_u64_max_ge
0000000000004cf0 g     F .text	0000000000000010 test_i32_min_lt
0000000000004d00 g     F .text	0000000000000010 test_u32_min_lt
0000000000004d10 g     F .text	0000000000000010 test_i32_min_le
0000000000004d20 g     F .text	0000000000000010 test_u32_min_le
0000000000004d30 g     F .text	0000000000000010 test_i32_min_gt
0000000000004d40 g     F .text	0000000000000010 test_u32_min_gt
0000000000004d50 g     F .text	0000000000000010 test_i32_min_ge
0000000000004d60 g     F .text	0000000000000010 test_u32_min_ge
0000000000004d70 g     F .text	0000000000000010 test_i32_max_lt
0000000000004d80 g     F .text	0000000000000010 test_u32_max_lt
0000000000004d90 g     F .text	0000000000000010 test_i32_max_le
0000000000004da0 g     F .text	0000000000000010 test_u32_max_le
0000000000004db0 g     F .text	0000000000000010 test_i32_max_gt
0000000000004dc0 g     F .text	0000000000000010 test_u32_max_gt
0000000000004dd0 g     F .text	0000000000000010 test_i32_max_ge
0000000000004de0 g     F .text	0000000000000010 test_u32_max_ge
0000000000004df0 g     F .text	0000000000000000 test_naked
0000000000004df0 g     F .text	0000000000000010 test_after_naked
0000000000004e00 g     F .text	0000000000000050 test_nullification
0000000000004e50 g     F .text	0000000000000010 test_sign_extend_32
0000000000004e60 g     F .text	0000000000000010 test_sign_extend_16
0000000000004e70 g     F .text	0000000000000010 test_sign_extend_8
0000000000004e80 g     F .text	0000000000000010 test_zero_extend_32
0000000000004e90 g     F .text	0000000000000010 test_zero_extend_16
0000000000004ea0 g     F .text	0000000000000010 test_zero_extend_8
0000000000004eb0 g     F .text	0000000000000010 test_store_based_u32
0000000000004ec0 g     F .text	0000000000000010 test_store_based_u16
0000000000004ed0 g     F .text	0000000000000010 test_store_based_u8
0000000000004ee0 g     F .text	0000000000000010 test_store_based_i32
0000000000004ef0 g     F .text	0000000000000010 test_store_based_i16
0000000000004f00 g     F .text	0000000000000010 test_store_based_i8
0000000000004f10 g     F .text	0000000000000020 test_store_indexed_u32_u32
0000000000004f30 g     F .text	0000000000000010 test_store_indexed_i32
0000000000004f40 g     F .text	0000000000000010 test_store_indexed_i32_offset
0000000000004f50 g     F .text	0000000000000010 test_store_indexed_u32
0000000000004f60 g     F .text	0000000000000020 test_store_indexed_u32_offset
0000000000004f80 g     F .text	0000000000000010 test_store_indexed_i64
0000000000004f90 g     F .text	0000000000000020 test_store_indexed_i32_struct
0000000000004fb0 g     F .text	0000000000000100 dummy_return
00000000000050b0 g     F .text	0000000000000020 test_store_based_i8_zero
00000000000050d0 g     F .text	0000000000000020 test_store_based_u8_zero
00000000000050f0 g     F .text	0000000000000020 test_store_based_i16_zero
0000000000005110 g     F .text	0000000000000020 test_store_based_u16_zero
0000000000005130 g     F .text	0000000000000020 test_store_based_i32_zero
0000000000005150 g     F .text	0000000000000020 test_store_based_u32_zero
0000000000005170 g     F .text	0000000000000020 test_store_based_i64_zero
0000000000005190 g     F .text	0000000000000020 test_store_based_u64_zero
00000000000051b0 g     F .text	0000000000000020 test_store_based_i128_zero
00000000000051d0 g     F .text	0000000000000020 test_store_based_u128_zero
00000000000051f0 g     F .text	00000000000000e0 test_struct_memset
0000000000000000         *UND*	0000000000000000 test_struct_memset_consumer
0000000000005360 g     F .text	0000000000000100 test_switch_table
0000000000005460 g     F .text	0000000000000010 test_syscall_2
0000000000005470 g     F .text	0000000000000020 test_syscall
0000000000005490 g     F .text	0000000000000030 test_int
00000000000054c0 g     F .text	0000000000000020 test_call_global_tailcall
0000000000000000         *UND*	0000000000000000 tail_call
00000000000054e0 g     F .text	0000000000000020 test_ptr_tailcall
0000000000005500 g     F .text	0000000000000020 test_call_global_ptr_table_tailcall
0000000000000000         *UND*	0000000000000000 global_ftable
0000000000005520 g     F .text	0000000000000010 test_builtin_tlb_purge
0000000000005530 g     F .text	0000000000000020 test_local_tls
0000000000000000 g       .tbss	0000000000000008 x_tls
0000000000000000         *UND*	0000000000000000 __tls_get_addr
0000000000005550 g     F .text	0000000000000020 test_extern_tls
0000000000000000         *UND*	0000000000000000 x_tls_extern
0000000000005570 g     F .text	0000000000000030 test_va_start
0000000000000000         *UND*	0000000000000000 test_va_list_callback
00000000000055a0 g     F .text	0000000000000080 test_va_start_end
0000000000000000         *UND*	0000000000000000 test_va_callback
0000000000005620 g     F .text	0000000000000040 test_printf_valist
0000000000000000         *UND*	0000000000000000 test_printf_callback
0000000000005660 g     F .text	0000000000000040 test_vprintf_valist
0000000000000000         *UND*	0000000000000000 test_vprintf_callback
00000000000056a0 g     F .text	0000000000000040 test_vacopy
0000000000000000         *UND*	0000000000000000 test_valist_callback
00000000000056e0 g     F .text	0000000000000010 test_vector_bitcast_v2i64_to_v4i32
00000000000056f0 g     F .text	0000000000000010 test_vector_bitcast_v2i64_to_v8i16
0000000000005700 g     F .text	0000000000000010 test_vector_bitcast_v2i64_to_v16i8
0000000000005710 g     F .text	0000000000000010 test_vector_bitcast_v4i32_to_v2i64
0000000000005720 g     F .text	0000000000000010 test_vector_bitcast_v4i32_to_v8i16
0000000000005730 g     F .text	0000000000000010 test_vector_bitcast_v4i32_to_v16i8
0000000000005740 g     F .text	0000000000000010 test_vector_bitcast_v8i16_to_v2i64
0000000000005750 g     F .text	0000000000000010 test_vector_bitcast_v8i16_to_v4i32
0000000000005760 g     F .text	0000000000000010 test_vector_bitcast_v8i16_to_v16i8
0000000000005770 g     F .text	0000000000000010 test_vector_bitcast_v16i8_to_v2i64
0000000000005780 g     F .text	0000000000000010 test_vector_bitcast_v16i8_to_v4i32
0000000000005790 g     F .text	0000000000000010 test_vector_bitcast_v16i8_to_v8i16
00000000000057a0 g     F .text	0000000000000010 test_vector_bitcast_f128_to_v16i8
00000000000057b0 g     F .text	0000000000000010 test_vector_bitcast_f128_to_v8i16
00000000000057c0 g     F .text	0000000000000010 test_vector_bitcast_f128_to_v4i32
00000000000057d0 g     F .text	0000000000000010 test_vector_bitcast_f128_to_v2i64
00000000000057e0 g     F .text	0000000000000010 test_vector_bitcast_v16i8_to_f128
00000000000057f0 g     F .text	0000000000000010 test_vector_bitcast_v8i16_to_f128
0000000000005800 g     F .text	0000000000000010 test_vector_bitcast_v4i32_to_f128
0000000000005810 g     F .text	0000000000000010 test_vector_bitcast_v2i64_to_f128
0000000000005820 g     F .text	0000000000000010 test_vector_bitcast_i128_to_v16i8
0000000000005830 g     F .text	0000000000000010 test_vector_bitcast_i128_to_v8i16
0000000000005840 g     F .text	0000000000000010 test_vector_bitcast_i128_to_v4i32
0000000000005850 g     F .text	0000000000000010 test_vector_bitcast_i128_to_v2i64
0000000000005860 g     F .text	0000000000000010 test_vector_bitcast_v16i8_to_i128
0000000000005870 g     F .text	0000000000000010 test_vector_bitcast_v8i16_to_i128
0000000000005880 g     F .text	0000000000000010 test_vector_bitcast_v4i32_to_i128
0000000000005890 g     F .text	0000000000000010 test_vector_bitcast_v2i64_to_i128
00000000000058a0 g     F .text	00000000000000c0 test_stack_array
0000000000000000         *UND*	0000000000000000 stack_array_consumer

DYNAMIC SYMBOL TABLE:

Disassembly of section .text:

0000000000000000 <test_i64_abs>:
       0: 00 00 00 c1 40 00 05 fc 03 01 00 00 00 00 08 04      	! BUNDLE
	alloc	2
	absd	%r1, %r1, %gz
	retf	0


0000000000000010 <test_i32_abs>:
      10: 00 00 00 c1 40 10 05 fc 03 01 00 00 00 00 08 04      	! BUNDLE
	alloc	2
	absdw	%r1, %r1, %gz
	retf	0


0000000000000020 <test_i64_abs_difference>:
      20: 00 00 80 c1 40 00 05 04 04 01 00 00 00 00 08 04      	! BUNDLE
	alloc	3
	absd	%r1, %r2, %r1
	retf	0


0000000000000030 <test_i32_abs_difference>:
      30: 00 00 80 c1 40 10 05 04 04 01 00 00 00 00 08 04      	! BUNDLE
	alloc	3
	absdw	%r1, %r2, %r1
	retf	0


0000000000000040 <test_aes>:
      40: 00 00 80 c1 40 c0 12 00 02 02 40 4b c8 10 08 00      	! BUNDLE
	alloc	3
	aesimc	%r2, %r1
	aeskeygenassist	%r2, %r2, 100

      50: b4 e4 7f 81 00 80 12 08 02 02 80 4a 20 08 08 00      	! BUNDLE
	aeskeygenassist	%r2, %r2, -1
	aesenc	%r2, %r1, %r2
	aesdec	%r2, %r1, %r2

      60: a4 04 82 80 00 b0 12 08 02 01 00 00 00 00 08 04      	! BUNDLE
	aesenclast	%r2, %r1, %r2
	aesdeclast	%r1, %r1, %r2
	retf	0


0000000000000070 <test_ldi32>:
      70: 00 00 00 c1 40 20 1b c6 0b 01 04 00 00 00 08 04      	! BUNDLE
	alloc	2
	ldi	%r1, 12345778
	retf	0


0000000000000080 <test_ldi32_long>:
      80: 01 00 00 c1 40 10 8b e6 ad 01 c4 00 00 00 00 00      	! BUNDLE
	alloc	2
	ldi.l	%r1, 987654321

      90: 00 00 00 80 40 00 00 00 00 00 01 00 00 00 00 04      	! BUNDLE
	retf	0
	nop	0
	nop	0


00000000000000a0 <test_ldi64>:
      a0: 00 00 00 c1 40 20 1b c6 0b 01 04 00 00 00 08 04      	! BUNDLE
	alloc	2
	ldi	%r1, 12345778
	retf	0


00000000000000b0 <test_ldi64_long>:
      b0: 01 00 00 c1 40 50 71 17 b7 01 04 7d 69 d3 36 00      	! BUNDLE
	alloc	2
	ldi.l	%r1, 987654321123456789

      c0: 00 00 00 80 40 00 00 00 00 00 01 00 00 00 00 04      	! BUNDLE
	retf	0
	nop	0
	nop	0


00000000000000d0 <test_subfi_i32>:
      d0: 00 00 00 c1 40 20 4d 00 02 81 09 00 00 00 08 04      	! BUNDLE
	alloc	2
	subfi	%r1, %r1, 1234
	retf	0


00000000000000e0 <test_subfi_i64>:
      e0: 00 00 00 c1 40 20 4d 00 02 01 0a 00 00 00 08 04      	! BUNDLE
	alloc	2
	subfiws	%r1, %r1, 1234
	retf	0


00000000000000f0 <test_addil>:
      f0: 01 00 80 c1 40 50 f1 05 03 01 88 59 97 36 6d 03      	! BUNDLE
	alloc	3
	addi.l	%r1, %r1, 123456789123456789

     100: be fe eb bf 00 a1 ff fa af 7f 40 06 20 08 04 00      	! BUNDLE
	ldi.l	%r2, 9200848539817279407
	or	%r1, %r1, %r2

     110: 00 00 00 80 40 00 00 00 00 00 01 00 00 00 00 04      	! BUNDLE
	retf	0
	nop	0
	nop	0


0000000000000120 <test_andil>:
     120: 01 00 00 c1 40 50 f1 05 03 81 85 59 97 36 6d 03      	! BUNDLE
	alloc	2
	andi.l	%r1, %r1, 123456789123456789

     130: 00 00 00 80 40 00 00 00 00 00 01 00 00 00 00 04      	! BUNDLE
	retf	0
	nop	0
	nop	0


0000000000000140 <test_oril>:
     140: 01 00 00 c1 40 50 71 17 03 01 c6 96 be b4 69 1b      	! BUNDLE
	alloc	2
	ori.l	%r1, %r1, 987654321123456789

     150: 00 00 00 80 40 00 00 00 00 00 01 00 00 00 00 04      	! BUNDLE
	retf	0
	nop	0
	nop	0


0000000000000160 <test_addadd>:
     160: 00 00 00 c2 40 00 18 04 04 81 00 00 00 00 08 04      	! BUNDLE
	alloc	4
	addadd	%r1, %r2, %r1, %r3
	retf	0


0000000000000170 <test_addsub>:
     170: 00 00 00 c2 40 10 18 04 04 81 00 00 00 00 08 04      	! BUNDLE
	alloc	4
	addsub	%r1, %r2, %r1, %r3
	retf	0


0000000000000180 <test_subsub>:
     180: 00 00 00 c2 40 20 18 08 02 81 00 00 00 00 08 04      	! BUNDLE
	alloc	4
	subsub	%r1, %r1, %r2, %r3
	retf	0


0000000000000190 <test_atomic_compare_exchange_i8>:
     190: 40 00 80 03 41 c0 00 00 fc 7f 24 00 00 10 18 80      	! BUNDLE
	allocsp	7, 16
	stw	%gz, %sp, 12
	ldbz	%r6, %r2, 0

     1a0: 04 00 80 41 01 30 20 18 02 05 00 04 60 28 10 00      	! BUNDLE
	mov	%r5, %r3
	casb.relaxed	%r5, %r1, %r6
	cmpweq	%r4, %r5, %r6

     1b0: a0 02 30 43 21 00 00 00 04 05 21 03 00 f0 17 8c      	! BUNDLE
	nulweq	%r5, %r6, 1, 0
	stb	%r5, %r2, 0
	ldwz	%r5, %sp, 12

     1c0: 04 00 00 02 61 41 02 10 0a 04 00 03 00 f0 13 90      	! BUNDLE
	andi	%r4, %r4, 1
	addw	%r4, %r5, %r4
	stw	%r4, %sp, 12

     1d0: 00 00 00 81 01 18 00 00 06 05 c0 80 62 08 14 00      	! BUNDLE
	ldbz	%r6, %r2, 0
	mov	%r5, %r3
	casb.acquire	%r5, %r1, %r6

     1e0: 40 00 86 02 01 80 0a c0 0c 85 00 00 00 10 14 84      	! BUNDLE
	cmpweq	%r4, %r5, %r6
	nulweq	%r5, %r6, 1, 0
	stb	%r5, %r2, 0

     1f0: 30 00 00 7f c1 18 00 00 08 84 05 09 40 28 10 00      	! BUNDLE
	ldwz	%r5, %sp, 12
	andi	%r4, %r4, 1
	addw	%r4, %r5, %r4

     200: 30 00 00 3f 01 09 00 00 04 06 60 00 00 18 14 00      	! BUNDLE
	stw	%r4, %sp, 12
	ldbz	%r6, %r2, 0
	mov	%r5, %r3

     210: 0c 28 86 40 01 00 01 18 0a 04 00 2a 00 33 14 02      	! BUNDLE
	casb.acquire	%r5, %r1, %r6
	cmpweq	%r4, %r5, %r6
	nulweq	%r5, %r6, 1, 0

     220: 00 00 00 41 41 c8 00 00 fc 05 63 00 00 20 10 16      	! BUNDLE
	stb	%r5, %r2, 0
	ldwz	%r5, %sp, 12
	andi	%r4, %r4, 1

     230: 90 00 84 02 01 c0 00 00 fc 04 24 00 00 10 18 80      	! BUNDLE
	addw	%r4, %r5, %r4
	stw	%r4, %sp, 12
	ldbz	%r6, %r2, 0

     240: 04 00 80 41 01 30 a0 18 02 05 00 04 60 28 10 00      	! BUNDLE
	mov	%r5, %r3
	casb.acquire	%r5, %r1, %r6
	cmpweq	%r4, %r5, %r6

     250: a0 02 30 43 21 00 00 00 04 05 21 03 00 f0 17 8c      	! BUNDLE
	nulweq	%r5, %r6, 1, 0
	stb	%r5, %r2, 0
	ldwz	%r5, %sp, 12

     260: 04 00 00 02 61 41 02 10 0a 04 00 03 00 f0 13 90      	! BUNDLE
	andi	%r4, %r4, 1
	addw	%r4, %r5, %r4
	stw	%r4, %sp, 12

     270: 00 00 00 81 01 18 00 00 06 05 c0 80 62 08 14 00      	! BUNDLE
	ldbz	%r6, %r2, 0
	mov	%r5, %r3
	casb.acquire	%r5, %r1, %r6

     280: 40 00 86 02 01 80 0a c0 0c 85 00 00 00 10 14 84      	! BUNDLE
	cmpweq	%r4, %r5, %r6
	nulweq	%r5, %r6, 1, 0
	stb	%r5, %r2, 0

     290: 30 00 00 7f c1 18 00 00 08 84 05 09 40 28 10 00      	! BUNDLE
	ldwz	%r5, %sp, 12
	andi	%r4, %r4, 1
	addw	%r4, %r5, %r4

     2a0: 30 00 00 3f 01 09 00 00 04 06 60 00 00 18 14 00      	! BUNDLE
	stw	%r4, %sp, 12
	ldbz	%r6, %r2, 0
	mov	%r5, %r3

     2b0: 0c 28 86 40 01 00 01 18 0a 04 00 2a 00 33 14 02      	! BUNDLE
	casb.acquire	%r5, %r1, %r6
	cmpweq	%r4, %r5, %r6
	nulweq	%r5, %r6, 1, 0

     2c0: 00 00 00 41 41 c8 00 00 fc 05 63 00 00 20 10 16      	! BUNDLE
	stb	%r5, %r2, 0
	ldwz	%r5, %sp, 12
	andi	%r4, %r4, 1

     2d0: 90 00 84 02 01 c0 00 00 fc 04 24 00 00 10 18 80      	! BUNDLE
	addw	%r4, %r5, %r4
	stw	%r4, %sp, 12
	ldbz	%r6, %r2, 0

     2e0: 04 00 80 41 01 30 a0 18 02 05 00 04 60 28 10 00      	! BUNDLE
	mov	%r5, %r3
	casb.acquire	%r5, %r1, %r6
	cmpweq	%r4, %r5, %r6

     2f0: a0 02 30 43 21 00 00 00 04 05 21 03 00 f0 17 8c      	! BUNDLE
	nulweq	%r5, %r6, 1, 0
	stb	%r5, %r2, 0
	ldwz	%r5, %sp, 12

     300: 04 00 00 02 61 41 02 10 0a 04 00 03 00 f0 13 90      	! BUNDLE
	andi	%r4, %r4, 1
	addw	%r4, %r5, %r4
	stw	%r4, %sp, 12

     310: 00 00 00 81 01 18 00 00 06 05 c0 80 64 08 14 00      	! BUNDLE
	ldbz	%r6, %r2, 0
	mov	%r5, %r3
	casb.release	%r5, %r1, %r6

     320: 40 00 86 02 01 80 0a c0 0c 85 00 00 00 10 14 84      	! BUNDLE
	cmpweq	%r4, %r5, %r6
	nulweq	%r5, %r6, 1, 0
	stb	%r5, %r2, 0

     330: 30 00 00 7f c1 18 00 00 08 84 05 09 40 28 10 00      	! BUNDLE
	ldwz	%r5, %sp, 12
	andi	%r4, %r4, 1
	addw	%r4, %r5, %r4

     340: 30 00 00 3f 01 09 00 00 04 06 60 00 00 18 14 00      	! BUNDLE
	stw	%r4, %sp, 12
	ldbz	%r6, %r2, 0
	mov	%r5, %r3

     350: 0c 68 86 40 01 00 01 18 0a 04 00 2a 00 33 14 02      	! BUNDLE
	casb.acq_rel	%r5, %r1, %r6
	cmpweq	%r4, %r5, %r6
	nulweq	%r5, %r6, 1, 0

     360: 00 00 00 41 41 c8 00 00 fc 05 63 00 00 20 10 16      	! BUNDLE
	stb	%r5, %r2, 0
	ldwz	%r5, %sp, 12
	andi	%r4, %r4, 1

     370: 90 00 84 02 01 c0 00 00 fc 04 24 00 00 10 18 80      	! BUNDLE
	addw	%r4, %r5, %r4
	stw	%r4, %sp, 12
	ldbz	%r6, %r2, 0

     380: 04 00 80 41 01 30 a0 19 02 05 00 04 60 28 10 00      	! BUNDLE
	mov	%r5, %r3
	casb.acq_rel	%r5, %r1, %r6
	cmpweq	%r4, %r5, %r6

     390: a0 02 30 43 21 00 00 00 04 05 21 03 00 f0 17 8c      	! BUNDLE
	nulweq	%r5, %r6, 1, 0
	stb	%r5, %r2, 0
	ldwz	%r5, %sp, 12

     3a0: 04 00 00 02 61 41 02 10 0a 04 00 03 00 f0 13 90      	! BUNDLE
	andi	%r4, %r4, 1
	addw	%r4, %r5, %r4
	stw	%r4, %sp, 12

     3b0: 00 00 00 81 01 18 00 00 06 05 c0 80 66 08 14 00      	! BUNDLE
	ldbz	%r6, %r2, 0
	mov	%r5, %r3
	casb.acq_rel	%r5, %r1, %r6

     3c0: 40 00 86 02 01 80 0a c0 0c 85 00 00 00 10 14 84      	! BUNDLE
	cmpweq	%r4, %r5, %r6
	nulweq	%r5, %r6, 1, 0
	stb	%r5, %r2, 0

     3d0: 30 00 00 7f c1 18 00 00 08 84 05 09 40 28 10 00      	! BUNDLE
	ldwz	%r5, %sp, 12
	andi	%r4, %r4, 1
	addw	%r4, %r5, %r4

     3e0: 30 00 00 3f 01 09 00 00 04 06 20 4d 08 00 00 00      	! BUNDLE
	stw	%r4, %sp, 12
	ldbz	%r6, %r2, 0
	fence.seq_cst

     3f0: 04 00 80 41 01 30 20 18 02 05 00 04 60 28 10 00      	! BUNDLE
	mov	%r5, %r3
	casb.relaxed	%r5, %r1, %r6
	cmpweq	%r4, %r5, %r6

     400: a0 02 30 43 21 00 00 00 04 05 21 03 00 f0 17 8c      	! BUNDLE
	nulweq	%r5, %r6, 1, 0
	stb	%r5, %r2, 0
	ldwz	%r5, %sp, 12

     410: 04 00 00 02 61 41 02 10 0a 04 00 03 00 f0 13 90      	! BUNDLE
	andi	%r4, %r4, 1
	addw	%r4, %r5, %r4
	stw	%r4, %sp, 12

     420: 00 00 00 81 01 48 13 02 00 00 40 00 00 18 14 00      	! BUNDLE
	ldbz	%r6, %r2, 0
	fence.seq_cst
	mov	%r5, %r3

     430: 0c 08 86 40 01 00 01 18 0a 04 00 2a 00 33 14 02      	! BUNDLE
	casb.relaxed	%r5, %r1, %r6
	cmpweq	%r4, %r5, %r6
	nulweq	%r5, %r6, 1, 0

     440: 00 00 00 41 41 c8 00 00 fc 05 63 00 00 20 10 16      	! BUNDLE
	stb	%r5, %r2, 0
	ldwz	%r5, %sp, 12
	andi	%r4, %r4, 1

     450: 90 00 84 02 01 c0 00 00 fc 04 24 00 00 10 18 80      	! BUNDLE
	addw	%r4, %r5, %r4
	stw	%r4, %sp, 12
	ldbz	%r6, %r2, 0

     460: d0 84 00 00 00 10 00 00 06 05 c0 80 60 08 14 00      	! BUNDLE
	fence.seq_cst
	mov	%r5, %r3
	casb.relaxed	%r5, %r1, %r6

     470: 40 00 86 02 01 80 0a c0 0c 85 00 00 00 10 14 84      	! BUNDLE
	cmpweq	%r4, %r5, %r6
	nulweq	%r5, %r6, 1, 0
	stb	%r5, %r2, 0

     480: 30 00 00 7f c1 18 00 00 08 84 05 09 40 28 10 00      	! BUNDLE
	ldwz	%r5, %sp, 12
	andi	%r4, %r4, 1
	addw	%r4, %r5, %r4

     490: 30 00 00 3f 01 09 00 00 04 04 20 4d 08 00 00 00      	! BUNDLE
	stw	%r4, %sp, 12
	ldbz	%r4, %r2, 0
	fence.seq_cst

     4a0: 0c 08 84 c0 00 00 01 10 06 01 00 2a 00 23 0c 02      	! BUNDLE
	casb.relaxed	%r3, %r1, %r4
	cmpweq	%r1, %r3, %r4
	nulweq	%r3, %r4, 1, 0

     4b0: 00 00 00 c1 40 c8 00 00 fc 02 63 00 00 08 04 16      	! BUNDLE
	stb	%r3, %r2, 0
	ldwz	%r2, %sp, 12
	andi	%r1, %r1, 1

     4c0: 90 00 01 41 00 c0 00 00 fc 01 24 03 00 f0 07 8c      	! BUNDLE
	addw	%r1, %r2, %r1
	stw	%r1, %sp, 12
	ldwz	%r1, %sp, 12

     4d0: 40 00 00 80 40 00 00 00 00 00 01 00 00 00 00 04      	! BUNDLE
	retf	16
	nop	0
	nop	0


00000000000004e0 <test_atomic_compare_exchange_i16>:
     4e0: 40 00 80 03 41 c0 00 00 fc 7f 24 00 00 10 18 86      	! BUNDLE
	allocsp	7, 16
	stw	%gz, %sp, 12
	ldhz	%r6, %r2, 0

     4f0: 04 00 80 41 01 30 22 18 02 05 00 04 60 28 10 00      	! BUNDLE
	mov	%r5, %r3
	cash.relaxed	%r5, %r1, %r6
	cmpweq	%r4, %r5, %r6

     500: a0 02 30 43 21 00 00 00 04 85 22 03 00 f0 17 8c      	! BUNDLE
	nulweq	%r5, %r6, 1, 0
	sth	%r5, %r2, 0
	ldwz	%r5, %sp, 12

     510: 04 00 00 02 61 41 02 10 0a 04 00 03 00 f0 13 90      	! BUNDLE
	andi	%r4, %r4, 1
	addw	%r4, %r5, %r4
	stw	%r4, %sp, 12

     520: 00 00 00 81 61 18 00 00 06 05 c0 88 62 08 14 00      	! BUNDLE
	ldhz	%r6, %r2, 0
	mov	%r5, %r3
	cash.acquire	%r5, %r1, %r6

     530: 40 00 86 02 01 80 0a c0 0c 85 00 00 00 10 14 8a      	! BUNDLE
	cmpweq	%r4, %r5, %r6
	nulweq	%r5, %r6, 1, 0
	sth	%r5, %r2, 0

     540: 30 00 00 7f c1 18 00 00 08 84 05 09 40 28 10 00      	! BUNDLE
	ldwz	%r5, %sp, 12
	andi	%r4, %r4, 1
	addw	%r4, %r5, %r4

     550: 30 00 00 3f 01 09 00 00 04 86 61 00 00 18 14 00      	! BUNDLE
	stw	%r4, %sp, 12
	ldhz	%r6, %r2, 0
	mov	%r5, %r3

     560: 8c 28 86 40 01 00 01 18 0a 04 00 2a 00 33 14 02      	! BUNDLE
	cash.acquire	%r5, %r1, %r6
	cmpweq	%r4, %r5, %r6
	nulweq	%r5, %r6, 1, 0

     570: 00 00 00 41 a1 c8 00 00 fc 05 63 00 00 20 10 16      	! BUNDLE
	sth	%r5, %r2, 0
	ldwz	%r5, %sp, 12
	andi	%r4, %r4, 1

     580: 90 00 84 02 01 c0 00 00 fc 04 24 00 00 10 18 86      	! BUNDLE
	addw	%r4, %r5, %r4
	stw	%r4, %sp, 12
	ldhz	%r6, %r2, 0

     590: 04 00 80 41 01 30 a2 18 02 05 00 04 60 28 10 00      	! BUNDLE
	mov	%r5, %r3
	cash.acquire	%r5, %r1, %r6
	cmpweq	%r4, %r5, %r6

     5a0: a0 02 30 43 21 00 00 00 04 85 22 03 00 f0 17 8c      	! BUNDLE
	nulweq	%r5, %r6, 1, 0
	sth	%r5, %r2, 0
	ldwz	%r5, %sp, 12

     5b0: 04 00 00 02 61 41 02 10 0a 04 00 03 00 f0 13 90      	! BUNDLE
	andi	%r4, %r4, 1
	addw	%r4, %r5, %r4
	stw	%r4, %sp, 12

     5c0: 00 00 00 81 61 18 00 00 06 05 c0 88 62 08 14 00      	! BUNDLE
	ldhz	%r6, %r2, 0
	mov	%r5, %r3
	cash.acquire	%r5, %r1, %r6

     5d0: 40 00 86 02 01 80 0a c0 0c 85 00 00 00 10 14 8a      	! BUNDLE
	cmpweq	%r4, %r5, %r6
	nulweq	%r5, %r6, 1, 0
	sth	%r5, %r2, 0

     5e0: 30 00 00 7f c1 18 00 00 08 84 05 09 40 28 10 00      	! BUNDLE
	ldwz	%r5, %sp, 12
	andi	%r4, %r4, 1
	addw	%r4, %r5, %r4

     5f0: 30 00 00 3f 01 09 00 00 04 86 61 00 00 18 14 00      	! BUNDLE
	stw	%r4, %sp, 12
	ldhz	%r6, %r2, 0
	mov	%r5, %r3

     600: 8c 28 86 40 01 00 01 18 0a 04 00 2a 00 33 14 02      	! BUNDLE
	cash.acquire	%r5, %r1, %r6
	cmpweq	%r4, %r5, %r6
	nulweq	%r5, %r6, 1, 0

     610: 00 00 00 41 a1 c8 00 00 fc 05 63 00 00 20 10 16      	! BUNDLE
	sth	%r5, %r2, 0
	ldwz	%r5, %sp, 12
	andi	%r4, %r4, 1

     620: 90 00 84 02 01 c0 00 00 fc 04 24 00 00 10 18 86      	! BUNDLE
	addw	%r4, %r5, %r4
	stw	%r4, %sp, 12
	ldhz	%r6, %r2, 0

     630: 04 00 80 41 01 30 a2 18 02 05 00 04 60 28 10 00      	! BUNDLE
	mov	%r5, %r3
	cash.acquire	%r5, %r1, %r6
	cmpweq	%r4, %r5, %r6

     640: a0 02 30 43 21 00 00 00 04 85 22 03 00 f0 17 8c      	! BUNDLE
	nulweq	%r5, %r6, 1, 0
	sth	%r5, %r2, 0
	ldwz	%r5, %sp, 12

     650: 04 00 00 02 61 41 02 10 0a 04 00 03 00 f0 13 90      	! BUNDLE
	andi	%r4, %r4, 1
	addw	%r4, %r5, %r4
	stw	%r4, %sp, 12

     660: 00 00 00 81 61 18 00 00 06 05 c0 88 64 08 14 00      	! BUNDLE
	ldhz	%r6, %r2, 0
	mov	%r5, %r3
	cash.release	%r5, %r1, %r6

     670: 40 00 86 02 01 80 0a c0 0c 85 00 00 00 10 14 8a      	! BUNDLE
	cmpweq	%r4, %r5, %r6
	nulweq	%r5, %r6, 1, 0
	sth	%r5, %r2, 0

     680: 30 00 00 7f c1 18 00 00 08 84 05 09 40 28 10 00      	! BUNDLE
	ldwz	%r5, %sp, 12
	andi	%r4, %r4, 1
	addw	%r4, %r5, %r4

     690: 30 00 00 3f 01 09 00 00 04 86 61 00 00 18 14 00      	! BUNDLE
	stw	%r4, %sp, 12
	ldhz	%r6, %r2, 0
	mov	%r5, %r3

     6a0: 8c 68 86 40 01 00 01 18 0a 04 00 2a 00 33 14 02      	! BUNDLE
	cash.acq_rel	%r5, %r1, %r6
	cmpweq	%r4, %r5, %r6
	nulweq	%r5, %r6, 1, 0

     6b0: 00 00 00 41 a1 c8 00 00 fc 05 63 00 00 20 10 16      	! BUNDLE
	sth	%r5, %r2, 0
	ldwz	%r5, %sp, 12
	andi	%r4, %r4, 1

     6c0: 90 00 84 02 01 c0 00 00 fc 04 24 00 00 10 18 86      	! BUNDLE
	addw	%r4, %r5, %r4
	stw	%r4, %sp, 12
	ldhz	%r6, %r2, 0

     6d0: 04 00 80 41 01 30 a2 19 02 05 00 04 60 28 10 00      	! BUNDLE
	mov	%r5, %r3
	cash.acq_rel	%r5, %r1, %r6
	cmpweq	%r4, %r5, %r6

     6e0: a0 02 30 43 21 00 00 00 04 85 22 03 00 f0 17 8c      	! BUNDLE
	nulweq	%r5, %r6, 1, 0
	sth	%r5, %r2, 0
	ldwz	%r5, %sp, 12

     6f0: 04 00 00 02 61 41 02 10 0a 04 00 03 00 f0 13 90      	! BUNDLE
	andi	%r4, %r4, 1
	addw	%r4, %r5, %r4
	stw	%r4, %sp, 12

     700: 00 00 00 81 61 18 00 00 06 05 c0 88 66 08 14 00      	! BUNDLE
	ldhz	%r6, %r2, 0
	mov	%r5, %r3
	cash.acq_rel	%r5, %r1, %r6

     710: 40 00 86 02 01 80 0a c0 0c 85 00 00 00 10 14 8a      	! BUNDLE
	cmpweq	%r4, %r5, %r6
	nulweq	%r5, %r6, 1, 0
	sth	%r5, %r2, 0

     720: 30 00 00 7f c1 18 00 00 08 84 05 09 40 28 10 00      	! BUNDLE
	ldwz	%r5, %sp, 12
	andi	%r4, %r4, 1
	addw	%r4, %r5, %r4

     730: 30 00 00 3f 01 09 00 00 04 86 21 4d 08 00 00 00      	! BUNDLE
	stw	%r4, %sp, 12
	ldhz	%r6, %r2, 0
	fence.seq_cst

     740: 04 00 80 41 01 30 22 18 02 05 00 04 60 28 10 00      	! BUNDLE
	mov	%r5, %r3
	cash.relaxed	%r5, %r1, %r6
	cmpweq	%r4, %r5, %r6

     750: a0 02 30 43 21 00 00 00 04 85 22 03 00 f0 17 8c      	! BUNDLE
	nulweq	%r5, %r6, 1, 0
	sth	%r5, %r2, 0
	ldwz	%r5, %sp, 12

     760: 04 00 00 02 61 41 02 10 0a 04 00 03 00 f0 13 90      	! BUNDLE
	andi	%r4, %r4, 1
	addw	%r4, %r5, %r4
	stw	%r4, %sp, 12

     770: 00 00 00 81 61 48 13 02 00 00 40 00 00 18 14 00      	! BUNDLE
	ldhz	%r6, %r2, 0
	fence.seq_cst
	mov	%r5, %r3

     780: 8c 08 86 40 01 00 01 18 0a 04 00 2a 00 33 14 02      	! BUNDLE
	cash.relaxed	%r5, %r1, %r6
	cmpweq	%r4, %r5, %r6
	nulweq	%r5, %r6, 1, 0

     790: 00 00 00 41 a1 c8 00 00 fc 05 63 00 00 20 10 16      	! BUNDLE
	sth	%r5, %r2, 0
	ldwz	%r5, %sp, 12
	andi	%r4, %r4, 1

     7a0: 90 00 84 02 01 c0 00 00 fc 04 24 00 00 10 18 86      	! BUNDLE
	addw	%r4, %r5, %r4
	stw	%r4, %sp, 12
	ldhz	%r6, %r2, 0

     7b0: d0 84 00 00 00 10 00 00 06 05 c0 88 60 08 14 00      	! BUNDLE
	fence.seq_cst
	mov	%r5, %r3
	cash.relaxed	%r5, %r1, %r6

     7c0: 40 00 86 02 01 80 0a c0 0c 85 00 00 00 10 14 8a      	! BUNDLE
	cmpweq	%r4, %r5, %r6
	nulweq	%r5, %r6, 1, 0
	sth	%r5, %r2, 0

     7d0: 30 00 00 7f c1 18 00 00 08 84 05 09 40 28 10 00      	! BUNDLE
	ldwz	%r5, %sp, 12
	andi	%r4, %r4, 1
	addw	%r4, %r5, %r4

     7e0: 30 00 00 3f 01 09 00 00 04 84 21 4d 08 00 00 00      	! BUNDLE
	stw	%r4, %sp, 12
	ldhz	%r4, %r2, 0
	fence.seq_cst

     7f0: 8c 08 84 c0 00 00 01 10 06 01 00 2a 00 23 0c 02      	! BUNDLE
	cash.relaxed	%r3, %r1, %r4
	cmpweq	%r1, %r3, %r4
	nulweq	%r3, %r4, 1, 0

     800: 00 00 00 c1 a0 c8 00 00 fc 02 63 00 00 08 04 16      	! BUNDLE
	sth	%r3, %r2, 0
	ldwz	%r2, %sp, 12
	andi	%r1, %r1, 1

     810: 90 00 01 41 00 c0 00 00 fc 01 24 03 00 f0 07 8c      	! BUNDLE
	addw	%r1, %r2, %r1
	stw	%r1, %sp, 12
	ldwz	%r1, %sp, 12

     820: 40 00 00 80 40 00 00 00 00 00 01 00 00 00 00 04      	! BUNDLE
	retf	16
	nop	0
	nop	0


0000000000000830 <test_atomic_compare_exchange_i32>:
     830: 40 00 80 03 41 c0 00 00 fc 7f 24 00 00 10 18 8c      	! BUNDLE
	allocsp	7, 16
	stw	%gz, %sp, 12
	ldwz	%r6, %r2, 0

     840: 04 00 80 41 01 30 24 18 02 05 00 04 60 28 10 00      	! BUNDLE
	mov	%r5, %r3
	casw.relaxed	%r5, %r1, %r6
	cmpweq	%r4, %r5, %r6

     850: a0 02 30 43 21 00 00 00 04 05 24 03 00 f0 17 8c      	! BUNDLE
	nulweq	%r5, %r6, 1, 0
	stw	%r5, %r2, 0
	ldwz	%r5, %sp, 12

     860: 04 00 00 02 61 41 02 10 0a 04 00 03 00 f0 13 90      	! BUNDLE
	andi	%r4, %r4, 1
	addw	%r4, %r5, %r4
	stw	%r4, %sp, 12

     870: 00 00 00 81 c1 18 00 00 06 05 c0 90 62 08 14 00      	! BUNDLE
	ldwz	%r6, %r2, 0
	mov	%r5, %r3
	casw.acquire	%r5, %r1, %r6

     880: 40 00 86 02 01 80 0a c0 0c 85 00 00 00 10 14 90      	! BUNDLE
	cmpweq	%r4, %r5, %r6
	nulweq	%r5, %r6, 1, 0
	stw	%r5, %r2, 0

     890: 30 00 00 7f c1 18 00 00 08 84 05 09 40 28 10 00      	! BUNDLE
	ldwz	%r5, %sp, 12
	andi	%r4, %r4, 1
	addw	%r4, %r5, %r4

     8a0: 30 00 00 3f 01 09 00 00 04 06 63 00 00 18 14 00      	! BUNDLE
	stw	%r4, %sp, 12
	ldwz	%r6, %r2, 0
	mov	%r5, %r3

     8b0: 0c 29 86 40 01 00 01 18 0a 04 00 2a 00 33 14 02      	! BUNDLE
	casw.acquire	%r5, %r1, %r6
	cmpweq	%r4, %r5, %r6
	nulweq	%r5, %r6, 1, 0

     8c0: 00 00 00 41 01 c9 00 00 fc 05 63 00 00 20 10 16      	! BUNDLE
	stw	%r5, %r2, 0
	ldwz	%r5, %sp, 12
	andi	%r4, %r4, 1

     8d0: 90 00 84 02 01 c0 00 00 fc 04 24 00 00 10 18 8c      	! BUNDLE
	addw	%r4, %r5, %r4
	stw	%r4, %sp, 12
	ldwz	%r6, %r2, 0

     8e0: 04 00 80 41 01 30 a4 18 02 05 00 04 60 28 10 00      	! BUNDLE
	mov	%r5, %r3
	casw.acquire	%r5, %r1, %r6
	cmpweq	%r4, %r5, %r6

     8f0: a0 02 30 43 21 00 00 00 04 05 24 03 00 f0 17 8c      	! BUNDLE
	nulweq	%r5, %r6, 1, 0
	stw	%r5, %r2, 0
	ldwz	%r5, %sp, 12

     900: 04 00 00 02 61 41 02 10 0a 04 00 03 00 f0 13 90      	! BUNDLE
	andi	%r4, %r4, 1
	addw	%r4, %r5, %r4
	stw	%r4, %sp, 12

     910: 00 00 00 81 c1 18 00 00 06 05 c0 90 62 08 14 00      	! BUNDLE
	ldwz	%r6, %r2, 0
	mov	%r5, %r3
	casw.acquire	%r5, %r1, %r6

     920: 40 00 86 02 01 80 0a c0 0c 85 00 00 00 10 14 90      	! BUNDLE
	cmpweq	%r4, %r5, %r6
	nulweq	%r5, %r6, 1, 0
	stw	%r5, %r2, 0

     930: 30 00 00 7f c1 18 00 00 08 84 05 09 40 28 10 00      	! BUNDLE
	ldwz	%r5, %sp, 12
	andi	%r4, %r4, 1
	addw	%r4, %r5, %r4

     940: 30 00 00 3f 01 09 00 00 04 06 63 00 00 18 14 00      	! BUNDLE
	stw	%r4, %sp, 12
	ldwz	%r6, %r2, 0
	mov	%r5, %r3

     950: 0c 29 86 40 01 00 01 18 0a 04 00 2a 00 33 14 02      	! BUNDLE
	casw.acquire	%r5, %r1, %r6
	cmpweq	%r4, %r5, %r6
	nulweq	%r5, %r6, 1, 0

     960: 00 00 00 41 01 c9 00 00 fc 05 63 00 00 20 10 16      	! BUNDLE
	stw	%r5, %r2, 0
	ldwz	%r5, %sp, 12
	andi	%r4, %r4, 1

     970: 90 00 84 02 01 c0 00 00 fc 04 24 00 00 10 18 8c      	! BUNDLE
	addw	%r4, %r5, %r4
	stw	%r4, %sp, 12
	ldwz	%r6, %r2, 0

     980: 04 00 80 41 01 30 a4 18 02 05 00 04 60 28 10 00      	! BUNDLE
	mov	%r5, %r3
	casw.acquire	%r5, %r1, %r6
	cmpweq	%r4, %r5, %r6

     990: a0 02 30 43 21 00 00 00 04 05 24 03 00 f0 17 8c      	! BUNDLE
	nulweq	%r5, %r6, 1, 0
	stw	%r5, %r2, 0
	ldwz	%r5, %sp, 12

     9a0: 04 00 00 02 61 41 02 10 0a 04 00 03 00 f0 13 90      	! BUNDLE
	andi	%r4, %r4, 1
	addw	%r4, %r5, %r4
	stw	%r4, %sp, 12

     9b0: 00 00 00 81 c1 18 00 00 06 05 c0 90 64 08 14 00      	! BUNDLE
	ldwz	%r6, %r2, 0
	mov	%r5, %r3
	casw.release	%r5, %r1, %r6

     9c0: 40 00 86 02 01 80 0a c0 0c 85 00 00 00 10 14 90      	! BUNDLE
	cmpweq	%r4, %r5, %r6
	nulweq	%r5, %r6, 1, 0
	stw	%r5, %r2, 0

     9d0: 30 00 00 7f c1 18 00 00 08 84 05 09 40 28 10 00      	! BUNDLE
	ldwz	%r5, %sp, 12
	andi	%r4, %r4, 1
	addw	%r4, %r5, %r4

     9e0: 30 00 00 3f 01 09 00 00 04 06 63 00 00 18 14 00      	! BUNDLE
	stw	%r4, %sp, 12
	ldwz	%r6, %r2, 0
	mov	%r5, %r3

     9f0: 0c 69 86 40 01 00 01 18 0a 04 00 2a 00 33 14 02      	! BUNDLE
	casw.acq_rel	%r5, %r1, %r6
	cmpweq	%r4, %r5, %r6
	nulweq	%r5, %r6, 1, 0

     a00: 00 00 00 41 01 c9 00 00 fc 05 63 00 00 20 10 16      	! BUNDLE
	stw	%r5, %r2, 0
	ldwz	%r5, %sp, 12
	andi	%r4, %r4, 1

     a10: 90 00 84 02 01 c0 00 00 fc 04 24 00 00 10 18 8c      	! BUNDLE
	addw	%r4, %r5, %r4
	stw	%r4, %sp, 12
	ldwz	%r6, %r2, 0

     a20: 04 00 80 41 01 30 a4 19 02 05 00 04 60 28 10 00      	! BUNDLE
	mov	%r5, %r3
	casw.acq_rel	%r5, %r1, %r6
	cmpweq	%r4, %r5, %r6

     a30: a0 02 30 43 21 00 00 00 04 05 24 03 00 f0 17 8c      	! BUNDLE
	nulweq	%r5, %r6, 1, 0
	stw	%r5, %r2, 0
	ldwz	%r5, %sp, 12

     a40: 04 00 00 02 61 41 02 10 0a 04 00 03 00 f0 13 90      	! BUNDLE
	andi	%r4, %r4, 1
	addw	%r4, %r5, %r4
	stw	%r4, %sp, 12

     a50: 00 00 00 81 c1 18 00 00 06 05 c0 90 66 08 14 00      	! BUNDLE
	ldwz	%r6, %r2, 0
	mov	%r5, %r3
	casw.acq_rel	%r5, %r1, %r6

     a60: 40 00 86 02 01 80 0a c0 0c 85 00 00 00 10 14 90      	! BUNDLE
	cmpweq	%r4, %r5, %r6
	nulweq	%r5, %r6, 1, 0
	stw	%r5, %r2, 0

     a70: 30 00 00 7f c1 18 00 00 08 84 05 09 40 28 10 00      	! BUNDLE
	ldwz	%r5, %sp, 12
	andi	%r4, %r4, 1
	addw	%r4, %r5, %r4

     a80: 30 00 00 3f 01 09 00 00 04 06 23 4d 08 00 00 00      	! BUNDLE
	stw	%r4, %sp, 12
	ldwz	%r6, %r2, 0
	fence.seq_cst

     a90: 04 00 80 41 01 30 24 18 02 05 00 04 60 28 10 00      	! BUNDLE
	mov	%r5, %r3
	casw.relaxed	%r5, %r1, %r6
	cmpweq	%r4, %r5, %r6

     aa0: a0 02 30 43 21 00 00 00 04 05 24 03 00 f0 17 8c      	! BUNDLE
	nulweq	%r5, %r6, 1, 0
	stw	%r5, %r2, 0
	ldwz	%r5, %sp, 12

     ab0: 04 00 00 02 61 41 02 10 0a 04 00 03 00 f0 13 90      	! BUNDLE
	andi	%r4, %r4, 1
	addw	%r4, %r5, %r4
	stw	%r4, %sp, 12

     ac0: 00 00 00 81 c1 48 13 02 00 00 40 00 00 18 14 00      	! BUNDLE
	ldwz	%r6, %r2, 0
	fence.seq_cst
	mov	%r5, %r3

     ad0: 0c 09 86 40 01 00 01 18 0a 04 00 2a 00 33 14 02      	! BUNDLE
	casw.relaxed	%r5, %r1, %r6
	cmpweq	%r4, %r5, %r6
	nulweq	%r5, %r6, 1, 0

     ae0: 00 00 00 41 01 c9 00 00 fc 05 63 00 00 20 10 16      	! BUNDLE
	stw	%r5, %r2, 0
	ldwz	%r5, %sp, 12
	andi	%r4, %r4, 1

     af0: 90 00 84 02 01 c0 00 00 fc 04 24 00 00 10 18 8c      	! BUNDLE
	addw	%r4, %r5, %r4
	stw	%r4, %sp, 12
	ldwz	%r6, %r2, 0

     b00: d0 84 00 00 00 10 00 00 06 05 c0 90 60 08 14 00      	! BUNDLE
	fence.seq_cst
	mov	%r5, %r3
	casw.relaxed	%r5, %r1, %r6

     b10: 40 00 86 02 01 80 0a c0 0c 85 00 00 00 10 14 90      	! BUNDLE
	cmpweq	%r4, %r5, %r6
	nulweq	%r5, %r6, 1, 0
	stw	%r5, %r2, 0

     b20: 30 00 00 7f c1 18 00 00 08 84 05 09 40 28 10 00      	! BUNDLE
	ldwz	%r5, %sp, 12
	andi	%r4, %r4, 1
	addw	%r4, %r5, %r4

     b30: 30 00 00 3f 01 09 00 00 04 04 23 4d 08 00 00 00      	! BUNDLE
	stw	%r4, %sp, 12
	ldwz	%r4, %r2, 0
	fence.seq_cst

     b40: 0c 09 84 c0 00 00 01 10 06 01 00 2a 00 23 0c 02      	! BUNDLE
	casw.relaxed	%r3, %r1, %r4
	cmpweq	%r1, %r3, %r4
	nulweq	%r3, %r4, 1, 0

     b50: 00 00 00 c1 00 c9 00 00 fc 02 63 00 00 08 04 16      	! BUNDLE
	stw	%r3, %r2, 0
	ldwz	%r2, %sp, 12
	andi	%r1, %r1, 1

     b60: 90 00 01 41 00 c0 00 00 fc 01 24 03 00 f0 07 8c      	! BUNDLE
	addw	%r1, %r2, %r1
	stw	%r1, %sp, 12
	ldwz	%r1, %sp, 12

     b70: 40 00 00 80 40 00 00 00 00 00 01 00 00 00 00 04      	! BUNDLE
	retf	16
	nop	0
	nop	0


0000000000000b80 <test_atomic_compare_exchange_i64>:
     b80: 40 00 80 03 41 c0 00 00 fc 7f 24 00 00 10 18 92      	! BUNDLE
	allocsp	7, 16
	stw	%gz, %sp, 12
	lddz	%r6, %r2, 0

     b90: 04 00 80 41 01 30 26 18 02 05 00 02 60 28 10 00      	! BUNDLE
	mov	%r5, %r3
	casd.relaxed	%r5, %r1, %r6
	cmpdeq	%r4, %r5, %r6

     ba0: a0 02 00 43 21 00 00 00 04 85 25 03 00 f0 17 8c      	! BUNDLE
	nuldeq	%r5, %r6, 1, 0
	std	%r5, %r2, 0
	ldwz	%r5, %sp, 12

     bb0: 04 00 00 02 61 41 02 10 0a 04 00 03 00 f0 13 90      	! BUNDLE
	andi	%r4, %r4, 1
	addw	%r4, %r5, %r4
	stw	%r4, %sp, 12

     bc0: 00 00 00 81 21 19 00 00 06 05 c0 98 62 08 14 00      	! BUNDLE
	lddz	%r6, %r2, 0
	mov	%r5, %r3
	casd.acquire	%r5, %r1, %r6

     bd0: 20 00 86 02 01 80 0a 00 0c 85 00 00 00 10 14 96      	! BUNDLE
	cmpdeq	%r4, %r5, %r6
	nuldeq	%r5, %r6, 1, 0
	std	%r5, %r2, 0

     be0: 30 00 00 7f c1 18 00 00 08 84 05 09 40 28 10 00      	! BUNDLE
	ldwz	%r5, %sp, 12
	andi	%r4, %r4, 1
	addw	%r4, %r5, %r4

     bf0: 30 00 00 3f 01 09 00 00 04 86 64 00 00 18 14 00      	! BUNDLE
	stw	%r4, %sp, 12
	lddz	%r6, %r2, 0
	mov	%r5, %r3

     c00: 8c 29 86 40 01 80 00 18 0a 04 00 2a 00 30 14 02      	! BUNDLE
	casd.acquire	%r5, %r1, %r6
	cmpdeq	%r4, %r5, %r6
	nuldeq	%r5, %r6, 1, 0

     c10: 00 00 00 41 61 c9 00 00 fc 05 63 00 00 20 10 16      	! BUNDLE
	std	%r5, %r2, 0
	ldwz	%r5, %sp, 12
	andi	%r4, %r4, 1

     c20: 90 00 84 02 01 c0 00 00 fc 04 24 00 00 10 18 92      	! BUNDLE
	addw	%r4, %r5, %r4
	stw	%r4, %sp, 12
	lddz	%r6, %r2, 0

     c30: 04 00 80 41 01 30 a6 18 02 05 00 02 60 28 10 00      	! BUNDLE
	mov	%r5, %r3
	casd.acquire	%r5, %r1, %r6
	cmpdeq	%r4, %r5, %r6

     c40: a0 02 00 43 21 00 00 00 04 85 25 03 00 f0 17 8c      	! BUNDLE
	nuldeq	%r5, %r6, 1, 0
	std	%r5, %r2, 0
	ldwz	%r5, %sp, 12

     c50: 04 00 00 02 61 41 02 10 0a 04 00 03 00 f0 13 90      	! BUNDLE
	andi	%r4, %r4, 1
	addw	%r4, %r5, %r4
	stw	%r4, %sp, 12

     c60: 00 00 00 81 21 19 00 00 06 05 c0 98 62 08 14 00      	! BUNDLE
	lddz	%r6, %r2, 0
	mov	%r5, %r3
	casd.acquire	%r5, %r1, %r6

     c70: 20 00 86 02 01 80 0a 00 0c 85 00 00 00 10 14 96      	! BUNDLE
	cmpdeq	%r4, %r5, %r6
	nuldeq	%r5, %r6, 1, 0
	std	%r5, %r2, 0

     c80: 30 00 00 7f c1 18 00 00 08 84 05 09 40 28 10 00      	! BUNDLE
	ldwz	%r5, %sp, 12
	andi	%r4, %r4, 1
	addw	%r4, %r5, %r4

     c90: 30 00 00 3f 01 09 00 00 04 86 64 00 00 18 14 00      	! BUNDLE
	stw	%r4, %sp, 12
	lddz	%r6, %r2, 0
	mov	%r5, %r3

     ca0: 8c 29 86 40 01 80 00 18 0a 04 00 2a 00 30 14 02      	! BUNDLE
	casd.acquire	%r5, %r1, %r6
	cmpdeq	%r4, %r5, %r6
	nuldeq	%r5, %r6, 1, 0

     cb0: 00 00 00 41 61 c9 00 00 fc 05 63 00 00 20 10 16      	! BUNDLE
	std	%r5, %r2, 0
	ldwz	%r5, %sp, 12
	andi	%r4, %r4, 1

     cc0: 90 00 84 02 01 c0 00 00 fc 04 24 00 00 10 18 92      	! BUNDLE
	addw	%r4, %r5, %r4
	stw	%r4, %sp, 12
	lddz	%r6, %r2, 0

     cd0: 04 00 80 41 01 30 a6 18 02 05 00 02 60 28 10 00      	! BUNDLE
	mov	%r5, %r3
	casd.acquire	%r5, %r1, %r6
	cmpdeq	%r4, %r5, %r6

     ce0: a0 02 00 43 21 00 00 00 04 85 25 03 00 f0 17 8c      	! BUNDLE
	nuldeq	%r5, %r6, 1, 0
	std	%r5, %r2, 0
	ldwz	%r5, %sp, 12

     cf0: 04 00 00 02 61 41 02 10 0a 04 00 03 00 f0 13 90      	! BUNDLE
	andi	%r4, %r4, 1
	addw	%r4, %r5, %r4
	stw	%r4, %sp, 12

     d00: 00 00 00 81 21 19 00 00 06 05 c0 98 64 08 14 00      	! BUNDLE
	lddz	%r6, %r2, 0
	mov	%r5, %r3
	casd.release	%r5, %r1, %r6

     d10: 20 00 86 02 01 80 0a 00 0c 85 00 00 00 10 14 96      	! BUNDLE
	cmpdeq	%r4, %r5, %r6
	nuldeq	%r5, %r6, 1, 0
	std	%r5, %r2, 0

     d20: 30 00 00 7f c1 18 00 00 08 84 05 09 40 28 10 00      	! BUNDLE
	ldwz	%r5, %sp, 12
	andi	%r4, %r4, 1
	addw	%r4, %r5, %r4

     d30: 30 00 00 3f 01 09 00 00 04 86 64 00 00 18 14 00      	! BUNDLE
	stw	%r4, %sp, 12
	lddz	%r6, %r2, 0
	mov	%r5, %r3

     d40: 8c 69 86 40 01 80 00 18 0a 04 00 2a 00 30 14 02      	! BUNDLE
	casd.acq_rel	%r5, %r1, %r6
	cmpdeq	%r4, %r5, %r6
	nuldeq	%r5, %r6, 1, 0

     d50: 00 00 00 41 61 c9 00 00 fc 05 63 00 00 20 10 16      	! BUNDLE
	std	%r5, %r2, 0
	ldwz	%r5, %sp, 12
	andi	%r4, %r4, 1

     d60: 90 00 84 02 01 c0 00 00 fc 04 24 00 00 10 18 92      	! BUNDLE
	addw	%r4, %r5, %r4
	stw	%r4, %sp, 12
	lddz	%r6, %r2, 0

     d70: 04 00 80 41 01 30 a6 19 02 05 00 02 60 28 10 00      	! BUNDLE
	mov	%r5, %r3
	casd.acq_rel	%r5, %r1, %r6
	cmpdeq	%r4, %r5, %r6

     d80: a0 02 00 43 21 00 00 00 04 85 25 03 00 f0 17 8c      	! BUNDLE
	nuldeq	%r5, %r6, 1, 0
	std	%r5, %r2, 0
	ldwz	%r5, %sp, 12

     d90: 04 00 00 02 61 41 02 10 0a 04 00 03 00 f0 13 90      	! BUNDLE
	andi	%r4, %r4, 1
	addw	%r4, %r5, %r4
	stw	%r4, %sp, 12

     da0: 00 00 00 81 21 19 00 00 06 05 c0 98 66 08 14 00      	! BUNDLE
	lddz	%r6, %r2, 0
	mov	%r5, %r3
	casd.acq_rel	%r5, %r1, %r6

     db0: 20 00 86 02 01 80 0a 00 0c 85 00 00 00 10 14 96      	! BUNDLE
	cmpdeq	%r4, %r5, %r6
	nuldeq	%r5, %r6, 1, 0
	std	%r5, %r2, 0

     dc0: 30 00 00 7f c1 18 00 00 08 84 05 09 40 28 10 00      	! BUNDLE
	ldwz	%r5, %sp, 12
	andi	%r4, %r4, 1
	addw	%r4, %r5, %r4

     dd0: 30 00 00 3f 01 09 00 00 04 86 24 4d 08 00 00 00      	! BUNDLE
	stw	%r4, %sp, 12
	lddz	%r6, %r2, 0
	fence.seq_cst

     de0: 04 00 80 41 01 30 26 18 02 05 00 02 60 28 10 00      	! BUNDLE
	mov	%r5, %r3
	casd.relaxed	%r5, %r1, %r6
	cmpdeq	%r4, %r5, %r6

     df0: a0 02 00 43 21 00 00 00 04 85 25 03 00 f0 17 8c      	! BUNDLE
	nuldeq	%r5, %r6, 1, 0
	std	%r5, %r2, 0
	ldwz	%r5, %sp, 12

     e00: 04 00 00 02 61 41 02 10 0a 04 00 03 00 f0 13 90      	! BUNDLE
	andi	%r4, %r4, 1
	addw	%r4, %r5, %r4
	stw	%r4, %sp, 12

     e10: 00 00 00 81 21 49 13 02 00 00 40 00 00 18 14 00      	! BUNDLE
	lddz	%r6, %r2, 0
	fence.seq_cst
	mov	%r5, %r3

     e20: 8c 09 86 40 01 80 00 18 0a 04 00 2a 00 30 14 02      	! BUNDLE
	casd.relaxed	%r5, %r1, %r6
	cmpdeq	%r4, %r5, %r6
	nuldeq	%r5, %r6, 1, 0

     e30: 00 00 00 41 61 c9 00 00 fc 05 63 00 00 20 10 16      	! BUNDLE
	std	%r5, %r2, 0
	ldwz	%r5, %sp, 12
	andi	%r4, %r4, 1

     e40: 90 00 84 02 01 c0 00 00 fc 04 24 00 00 10 18 92      	! BUNDLE
	addw	%r4, %r5, %r4
	stw	%r4, %sp, 12
	lddz	%r6, %r2, 0

     e50: d0 84 00 00 00 10 00 00 06 05 c0 98 60 08 14 00      	! BUNDLE
	fence.seq_cst
	mov	%r5, %r3
	casd.relaxed	%r5, %r1, %r6

     e60: 20 00 86 02 01 80 0a 00 0c 85 00 00 00 10 14 96      	! BUNDLE
	cmpdeq	%r4, %r5, %r6
	nuldeq	%r5, %r6, 1, 0
	std	%r5, %r2, 0

     e70: 30 00 00 7f c1 18 00 00 08 84 05 09 40 28 10 00      	! BUNDLE
	ldwz	%r5, %sp, 12
	andi	%r4, %r4, 1
	addw	%r4, %r5, %r4

     e80: 30 00 00 3f 01 09 00 00 04 84 24 4d 08 00 00 00      	! BUNDLE
	stw	%r4, %sp, 12
	lddz	%r4, %r2, 0
	fence.seq_cst

     e90: 8c 09 84 c0 00 80 00 10 06 01 00 2a 00 20 0c 02      	! BUNDLE
	casd.relaxed	%r3, %r1, %r4
	cmpdeq	%r1, %r3, %r4
	nuldeq	%r3, %r4, 1, 0

     ea0: 00 00 00 c1 60 c9 00 00 fc 02 63 00 00 08 04 16      	! BUNDLE
	std	%r3, %r2, 0
	ldwz	%r2, %sp, 12
	andi	%r1, %r1, 1

     eb0: 90 00 01 41 00 c0 00 00 fc 01 24 03 00 f0 07 8c      	! BUNDLE
	addw	%r1, %r2, %r1
	stw	%r1, %sp, 12
	ldwz	%r1, %sp, 12

     ec0: 40 00 00 80 40 00 00 00 00 00 01 00 00 00 00 04      	! BUNDLE
	retf	16
	nop	0
	nop	0


0000000000000ed0 <test_atomic_compare_exchange_i128>:
     ed0: 40 00 00 03 41 c0 00 00 fc 7f 24 00 00 10 10 98      	! BUNDLE
	allocsp	6, 16
	stw	%gz, %sp, 12
	ldq	%r4, %r2, 0

     ee0: 04 00 80 41 01 30 28 10 02 05 80 14 40 28 10 00      	! BUNDLE
	mov	%r5, %r3
	casq.relaxed	%r5, %r1, %r4
	cmpqeq	%r4, %r5, %r4

     ef0: a0 02 78 00 21 00 00 00 04 85 26 03 00 f0 17 8c      	! BUNDLE
	nulbsi	%r4, 0, 1, 0
	stq	%r5, %r2, 0
	ldwz	%r5, %sp, 12

     f00: 04 00 00 02 61 41 02 10 0a 04 00 03 00 f0 13 90      	! BUNDLE
	andi	%r4, %r4, 1
	addw	%r4, %r5, %r4
	stw	%r4, %sp, 12

     f10: 00 00 00 01 81 19 00 00 06 05 c0 a0 42 08 14 00      	! BUNDLE
	ldq	%r4, %r2, 0
	mov	%r5, %r3
	casq.acquire	%r5, %r1, %r4

     f20: 48 01 84 02 01 80 0a e0 01 84 00 00 00 10 14 9a      	! BUNDLE
	cmpqeq	%r4, %r5, %r4
	nulbsi	%r4, 0, 1, 0
	stq	%r5, %r2, 0

     f30: 30 00 00 7f c1 18 00 00 08 84 05 09 40 28 10 00      	! BUNDLE
	ldwz	%r5, %sp, 12
	andi	%r4, %r4, 1
	addw	%r4, %r5, %r4

     f40: 30 00 00 3f 01 09 00 00 04 04 66 00 00 18 14 00      	! BUNDLE
	stw	%r4, %sp, 12
	ldq	%r4, %r2, 0
	mov	%r5, %r3

     f50: 0c 2a 84 40 01 20 05 10 0a 04 00 2a 80 07 10 02      	! BUNDLE
	casq.acquire	%r5, %r1, %r4
	cmpqeq	%r4, %r5, %r4
	nulbsi	%r4, 0, 1, 0

     f60: 00 00 00 41 a1 c9 00 00 fc 05 63 00 00 20 10 16      	! BUNDLE
	stq	%r5, %r2, 0
	ldwz	%r5, %sp, 12
	andi	%r4, %r4, 1

     f70: 90 00 84 02 01 c0 00 00 fc 04 24 00 00 10 10 98      	! BUNDLE
	addw	%r4, %r5, %r4
	stw	%r4, %sp, 12
	ldq	%r4, %r2, 0

     f80: 04 00 80 41 01 30 a8 10 02 05 80 14 40 28 10 00      	! BUNDLE
	mov	%r5, %r3
	casq.acquire	%r5, %r1, %r4
	cmpqeq	%r4, %r5, %r4

     f90: a0 02 78 00 21 00 00 00 04 85 26 03 00 f0 17 8c      	! BUNDLE
	nulbsi	%r4, 0, 1, 0
	stq	%r5, %r2, 0
	ldwz	%r5, %sp, 12

     fa0: 04 00 00 02 61 41 02 10 0a 04 00 03 00 f0 13 90      	! BUNDLE
	andi	%r4, %r4, 1
	addw	%r4, %r5, %r4
	stw	%r4, %sp, 12

     fb0: 00 00 00 01 81 19 00 00 06 05 c0 a0 42 08 14 00      	! BUNDLE
	ldq	%r4, %r2, 0
	mov	%r5, %r3
	casq.acquire	%r5, %r1, %r4

     fc0: 48 01 84 02 01 80 0a e0 01 84 00 00 00 10 14 9a      	! BUNDLE
	cmpqeq	%r4, %r5, %r4
	nulbsi	%r4, 0, 1, 0
	stq	%r5, %r2, 0

     fd0: 30 00 00 7f c1 18 00 00 08 84 05 09 40 28 10 00      	! BUNDLE
	ldwz	%r5, %sp, 12
	andi	%r4, %r4, 1
	addw	%r4, %r5, %r4

     fe0: 30 00 00 3f 01 09 00 00 04 04 66 00 00 18 14 00      	! BUNDLE
	stw	%r4, %sp, 12
	ldq	%r4, %r2, 0
	mov	%r5, %r3

     ff0: 0c 2a 84 40 01 20 05 10 0a 04 00 2a 80 07 10 02      	! BUNDLE
	casq.acquire	%r5, %r1, %r4
	cmpqeq	%r4, %r5, %r4
	nulbsi	%r4, 0, 1, 0

    1000: 00 00 00 41 a1 c9 00 00 fc 05 63 00 00 20 10 16      	! BUNDLE
	stq	%r5, %r2, 0
	ldwz	%r5, %sp, 12
	andi	%r4, %r4, 1

    1010: 90 00 84 02 01 c0 00 00 fc 04 24 00 00 10 10 98      	! BUNDLE
	addw	%r4, %r5, %r4
	stw	%r4, %sp, 12
	ldq	%r4, %r2, 0

    1020: 04 00 80 41 01 30 a8 10 02 05 80 14 40 28 10 00      	! BUNDLE
	mov	%r5, %r3
	casq.acquire	%r5, %r1, %r4
	cmpqeq	%r4, %r5, %r4

    1030: a0 02 78 00 21 00 00 00 04 85 26 03 00 f0 17 8c      	! BUNDLE
	nulbsi	%r4, 0, 1, 0
	stq	%r5, %r2, 0
	ldwz	%r5, %sp, 12

    1040: 04 00 00 02 61 41 02 10 0a 04 00 03 00 f0 13 90      	! BUNDLE
	andi	%r4, %r4, 1
	addw	%r4, %r5, %r4
	stw	%r4, %sp, 12

    1050: 00 00 00 01 81 19 00 00 06 05 c0 a0 44 08 14 00      	! BUNDLE
	ldq	%r4, %r2, 0
	mov	%r5, %r3
	casq.release	%r5, %r1, %r4

    1060: 48 01 84 02 01 80 0a e0 01 84 00 00 00 10 14 9a      	! BUNDLE
	cmpqeq	%r4, %r5, %r4
	nulbsi	%r4, 0, 1, 0
	stq	%r5, %r2, 0

    1070: 30 00 00 7f c1 18 00 00 08 84 05 09 40 28 10 00      	! BUNDLE
	ldwz	%r5, %sp, 12
	andi	%r4, %r4, 1
	addw	%r4, %r5, %r4

    1080: 30 00 00 3f 01 09 00 00 04 04 66 00 00 18 14 00      	! BUNDLE
	stw	%r4, %sp, 12
	ldq	%r4, %r2, 0
	mov	%r5, %r3

    1090: 0c 6a 84 40 01 20 05 10 0a 04 00 2a 80 07 10 02      	! BUNDLE
	casq.acq_rel	%r5, %r1, %r4
	cmpqeq	%r4, %r5, %r4
	nulbsi	%r4, 0, 1, 0

    10a0: 00 00 00 41 a1 c9 00 00 fc 05 63 00 00 20 10 16      	! BUNDLE
	stq	%r5, %r2, 0
	ldwz	%r5, %sp, 12
	andi	%r4, %r4, 1

    10b0: 90 00 84 02 01 c0 00 00 fc 04 24 00 00 10 10 98      	! BUNDLE
	addw	%r4, %r5, %r4
	stw	%r4, %sp, 12
	ldq	%r4, %r2, 0

    10c0: 04 00 80 41 01 30 a8 11 02 05 80 14 40 28 10 00      	! BUNDLE
	mov	%r5, %r3
	casq.acq_rel	%r5, %r1, %r4
	cmpqeq	%r4, %r5, %r4

    10d0: a0 02 78 00 21 00 00 00 04 85 26 03 00 f0 17 8c      	! BUNDLE
	nulbsi	%r4, 0, 1, 0
	stq	%r5, %r2, 0
	ldwz	%r5, %sp, 12

    10e0: 04 00 00 02 61 41 02 10 0a 04 00 03 00 f0 13 90      	! BUNDLE
	andi	%r4, %r4, 1
	addw	%r4, %r5, %r4
	stw	%r4, %sp, 12

    10f0: 00 00 00 01 81 19 00 00 06 05 c0 a0 46 08 14 00      	! BUNDLE
	ldq	%r4, %r2, 0
	mov	%r5, %r3
	casq.acq_rel	%r5, %r1, %r4

    1100: 48 01 84 02 01 80 0a e0 01 84 00 00 00 10 14 9a      	! BUNDLE
	cmpqeq	%r4, %r5, %r4
	nulbsi	%r4, 0, 1, 0
	stq	%r5, %r2, 0

    1110: 30 00 00 7f c1 18 00 00 08 84 05 09 40 28 10 00      	! BUNDLE
	ldwz	%r5, %sp, 12
	andi	%r4, %r4, 1
	addw	%r4, %r5, %r4

    1120: 30 00 00 3f 01 09 00 00 04 04 26 4d 08 00 00 00      	! BUNDLE
	stw	%r4, %sp, 12
	ldq	%r4, %r2, 0
	fence.seq_cst

    1130: 04 00 80 41 01 30 28 10 02 05 80 14 40 28 10 00      	! BUNDLE
	mov	%r5, %r3
	casq.relaxed	%r5, %r1, %r4
	cmpqeq	%r4, %r5, %r4

    1140: a0 02 78 00 21 00 00 00 04 85 26 03 00 f0 17 8c      	! BUNDLE
	nulbsi	%r4, 0, 1, 0
	stq	%r5, %r2, 0
	ldwz	%r5, %sp, 12

    1150: 04 00 00 02 61 41 02 10 0a 04 00 03 00 f0 13 90      	! BUNDLE
	andi	%r4, %r4, 1
	addw	%r4, %r5, %r4
	stw	%r4, %sp, 12

    1160: 00 00 00 01 81 49 13 02 00 00 40 00 00 18 14 00      	! BUNDLE
	ldq	%r4, %r2, 0
	fence.seq_cst
	mov	%r5, %r3

    1170: 0c 0a 84 40 01 20 05 10 0a 04 00 2a 80 07 10 02      	! BUNDLE
	casq.relaxed	%r5, %r1, %r4
	cmpqeq	%r4, %r5, %r4
	nulbsi	%r4, 0, 1, 0

    1180: 00 00 00 41 a1 c9 00 00 fc 05 63 00 00 20 10 16      	! BUNDLE
	stq	%r5, %r2, 0
	ldwz	%r5, %sp, 12
	andi	%r4, %r4, 1

    1190: 90 00 84 02 01 c0 00 00 fc 04 24 00 00 10 10 98      	! BUNDLE
	addw	%r4, %r5, %r4
	stw	%r4, %sp, 12
	ldq	%r4, %r2, 0

    11a0: d0 84 00 00 00 10 00 00 06 05 c0 a0 40 08 14 00      	! BUNDLE
	fence.seq_cst
	mov	%r5, %r3
	casq.relaxed	%r5, %r1, %r4

    11b0: 48 01 84 02 01 80 0a e0 01 84 00 00 00 10 14 9a      	! BUNDLE
	cmpqeq	%r4, %r5, %r4
	nulbsi	%r4, 0, 1, 0
	stq	%r5, %r2, 0

    11c0: 30 00 00 7f c1 18 00 00 08 84 05 09 40 28 10 00      	! BUNDLE
	ldwz	%r5, %sp, 12
	andi	%r4, %r4, 1
	addw	%r4, %r5, %r4

    11d0: 30 00 00 3f 01 09 00 00 04 04 26 4d 08 00 00 00      	! BUNDLE
	stw	%r4, %sp, 12
	ldq	%r4, %r2, 0
	fence.seq_cst

    11e0: 0c 0a 84 c0 00 20 05 10 06 01 00 2a 80 07 04 02      	! BUNDLE
	casq.relaxed	%r3, %r1, %r4
	cmpqeq	%r1, %r3, %r4
	nulbsi	%r1, 0, 1, 0

    11f0: 00 00 00 c1 a0 c9 00 00 fc 02 63 00 00 08 04 16      	! BUNDLE
	stq	%r3, %r2, 0
	ldwz	%r2, %sp, 12
	andi	%r1, %r1, 1

    1200: 90 00 01 41 00 c0 00 00 fc 01 24 03 00 f0 07 8c      	! BUNDLE
	addw	%r1, %r2, %r1
	stw	%r1, %sp, 12
	ldwz	%r1, %sp, 12

    1210: 40 00 00 80 40 00 00 00 00 00 01 00 00 00 00 04      	! BUNDLE
	retf	16
	nop	0
	nop	0


0000000000001220 <test_atomic_exchange_i8>:
    1220: 00 00 80 c1 40 20 20 04 04 01 80 80 12 10 04 00      	! BUNDLE
	alloc	3
	swapb.relaxed	%r1, %r2, %r1
	swapb.acquire	%r1, %r2, %r1

    1230: 08 28 01 41 00 20 20 05 04 01 80 80 16 10 04 00      	! BUNDLE
	swapb.acquire	%r1, %r2, %r1
	swapb.release	%r1, %r2, %r1
	swapb.acq_rel	%r1, %r2, %r1

    1240: d0 84 00 00 00 20 20 04 04 01 80 03 87 0b 04 02      	! BUNDLE
	fence.seq_cst
	swapb.relaxed	%r1, %r2, %r1
	slsrai	%r1, %r1, 56, 56

    1250: 00 00 00 80 40 00 00 00 00 00 01 00 00 00 00 04      	! BUNDLE
	retf	0
	nop	0
	nop	0


0000000000001260 <test_atomic_exchange_i16>:
    1260: 00 00 80 c1 40 20 22 04 04 01 80 88 12 10 04 00      	! BUNDLE
	alloc	3
	swaph.relaxed	%r1, %r2, %r1
	swaph.acquire	%r1, %r2, %r1

    1270: 88 28 01 41 00 20 22 05 04 01 80 88 16 10 04 00      	! BUNDLE
	swaph.acquire	%r1, %r2, %r1
	swaph.release	%r1, %r2, %r1
	swaph.acq_rel	%r1, %r2, %r1

    1280: d0 84 00 00 00 20 22 04 04 01 80 03 06 0b 04 02      	! BUNDLE
	fence.seq_cst
	swaph.relaxed	%r1, %r2, %r1
	slsrai	%r1, %r1, 48, 48

    1290: 00 00 00 80 40 00 00 00 00 00 01 00 00 00 00 04      	! BUNDLE
	retf	0
	nop	0
	nop	0


00000000000012a0 <test_atomic_exchange_i32>:
    12a0: 00 00 80 c1 40 20 24 04 04 01 80 90 12 10 04 00      	! BUNDLE
	alloc	3
	swapw.relaxed	%r1, %r2, %r1
	swapw.acquire	%r1, %r2, %r1

    12b0: 08 29 01 41 00 20 24 05 04 01 80 90 16 10 04 00      	! BUNDLE
	swapw.acquire	%r1, %r2, %r1
	swapw.release	%r1, %r2, %r1
	swapw.acq_rel	%r1, %r2, %r1

    12c0: d0 84 00 00 00 20 24 04 04 01 00 00 00 00 08 04      	! BUNDLE
	fence.seq_cst
	swapw.relaxed	%r1, %r2, %r1
	retf	0


00000000000012d0 <test_atomic_exchange_i64>:
    12d0: 00 00 80 c1 40 20 26 04 04 01 80 98 12 10 04 00      	! BUNDLE
	alloc	3
	swapd.relaxed	%r1, %r2, %r1
	swapd.acquire	%r1, %r2, %r1

    12e0: 88 29 01 41 00 20 26 05 04 01 80 98 16 10 04 00      	! BUNDLE
	swapd.acquire	%r1, %r2, %r1
	swapd.release	%r1, %r2, %r1
	swapd.acq_rel	%r1, %r2, %r1

    12f0: d0 84 00 00 00 20 26 04 04 01 00 00 00 00 08 04      	! BUNDLE
	fence.seq_cst
	swapd.relaxed	%r1, %r2, %r1
	retf	0


0000000000001300 <test_atomic_exchange_i128>:
    1300: 00 00 80 c1 40 20 28 04 04 01 80 a0 12 10 04 00      	! BUNDLE
	alloc	3
	swapq.relaxed	%r1, %r2, %r1
	swapq.acquire	%r1, %r2, %r1

    1310: 08 2a 01 41 00 20 28 05 04 01 80 a0 16 10 04 00      	! BUNDLE
	swapq.acquire	%r1, %r2, %r1
	swapq.release	%r1, %r2, %r1
	swapq.acq_rel	%r1, %r2, %r1

    1320: d0 84 00 00 00 20 28 04 04 01 00 00 00 00 08 04      	! BUNDLE
	fence.seq_cst
	swapq.relaxed	%r1, %r2, %r1
	retf	0


0000000000001330 <test_fence_acquire>:
    1330: 00 00 80 c0 40 40 93 00 00 00 00 00 00 00 08 04      	! BUNDLE
	alloc	1
	fence.acquire
	retf	0


0000000000001340 <test_fence_release>:
    1340: 00 00 80 c0 40 40 13 01 00 00 00 00 00 00 08 04      	! BUNDLE
	alloc	1
	fence.release
	retf	0


0000000000001350 <test_fence_acq_rel>:
    1350: 00 00 80 c0 40 40 93 01 00 00 00 00 00 00 08 04      	! BUNDLE
	alloc	1
	fence.acq_rel
	retf	0


0000000000001360 <test_fence_seq_cst>:
    1360: 00 00 80 c0 40 40 13 02 00 00 00 00 00 00 08 04      	! BUNDLE
	alloc	1
	fence.seq_cst
	retf	0


0000000000001370 <test_compiler_fence>:
    1370: 00 00 80 c0 40 00 00 00 00 02 01 00 00 00 00 04      	! BUNDLE
	alloc	1
	retf	0
	nop	0


0000000000001380 <test_atomic_load_u8_u8>:
    1380: 00 00 80 c2 40 00 20 00 02 01 00 80 02 10 08 00      	! BUNDLE
	alloc	5
	ldab.relaxed	%r1, %r1
	ldab.acquire	%r2, %r2

    1390: 00 28 80 c1 00 00 20 02 08 04 80 06 10 10 04 00      	! BUNDLE
	ldab.acquire	%r3, %r3
	ldab.sec_cst	%r4, %r4
	xor	%r1, %r2, %r1

    13a0: 60 00 83 40 00 90 01 10 02 01 00 00 00 00 08 04      	! BUNDLE
	and	%r1, %r1, %r3
	or	%r1, %r1, %r4
	retf	0


00000000000013b0 <test_atomic_load_u8_u16>:
    13b0: 00 00 80 c2 40 00 20 00 02 01 00 80 02 10 08 00      	! BUNDLE
	alloc	5
	ldab.relaxed	%r1, %r1
	ldab.acquire	%r2, %r2

    13c0: 00 28 80 c1 00 00 20 02 08 04 80 06 10 10 04 00      	! BUNDLE
	ldab.acquire	%r3, %r3
	ldab.sec_cst	%r4, %r4
	xor	%r1, %r2, %r1

    13d0: 60 00 83 40 00 90 01 10 02 01 00 00 00 00 08 04      	! BUNDLE
	and	%r1, %r1, %r3
	or	%r1, %r1, %r4
	retf	0


00000000000013e0 <test_atomic_load_u8_u32>:
    13e0: 00 00 80 c2 40 00 20 00 02 01 00 80 02 10 08 00      	! BUNDLE
	alloc	5
	ldab.relaxed	%r1, %r1
	ldab.acquire	%r2, %r2

    13f0: 00 28 80 c1 00 00 20 02 08 04 80 06 10 10 04 00      	! BUNDLE
	ldab.acquire	%r3, %r3
	ldab.sec_cst	%r4, %r4
	xor	%r1, %r2, %r1

    1400: 60 00 83 40 00 90 01 10 02 01 00 00 00 00 08 04      	! BUNDLE
	and	%r1, %r1, %r3
	or	%r1, %r1, %r4
	retf	0


0000000000001410 <test_atomic_load_u8_u64>:
    1410: 00 00 80 c2 40 00 20 00 02 01 00 80 02 10 08 00      	! BUNDLE
	alloc	5
	ldab.relaxed	%r1, %r1
	ldab.acquire	%r2, %r2

    1420: 00 28 80 c1 00 00 20 02 08 04 80 06 10 10 04 00      	! BUNDLE
	ldab.acquire	%r3, %r3
	ldab.sec_cst	%r4, %r4
	xor	%r1, %r2, %r1

    1430: 60 00 83 40 00 90 01 10 02 01 80 13 00 08 04 00      	! BUNDLE
	and	%r1, %r1, %r3
	or	%r1, %r1, %r4
	srlwi	%r1, %r1, 0

    1440: 00 00 00 80 40 00 00 00 00 00 01 00 00 00 00 04      	! BUNDLE
	retf	0
	nop	0
	nop	0


0000000000001450 <test_atomic_load_u16_u16>:
    1450: 00 00 80 c2 40 00 22 00 02 01 00 88 02 10 08 00      	! BUNDLE
	alloc	5
	ldah.relaxed	%r1, %r1
	ldah.acquire	%r2, %r2

    1460: 80 28 80 c1 00 00 22 02 08 04 80 06 10 10 04 00      	! BUNDLE
	ldah.acquire	%r3, %r3
	ldah.sec_cst	%r4, %r4
	xor	%r1, %r2, %r1

    1470: 60 00 83 40 00 90 01 10 02 01 00 00 00 00 08 04      	! BUNDLE
	and	%r1, %r1, %r3
	or	%r1, %r1, %r4
	retf	0


0000000000001480 <test_atomic_load_u16_u32>:
    1480: 00 00 80 c2 40 00 22 00 02 01 00 88 02 10 08 00      	! BUNDLE
	alloc	5
	ldah.relaxed	%r1, %r1
	ldah.acquire	%r2, %r2

    1490: 80 28 80 c1 00 00 22 02 08 04 80 06 10 10 04 00      	! BUNDLE
	ldah.acquire	%r3, %r3
	ldah.sec_cst	%r4, %r4
	xor	%r1, %r2, %r1

    14a0: 60 00 83 40 00 90 01 10 02 01 00 00 00 00 08 04      	! BUNDLE
	and	%r1, %r1, %r3
	or	%r1, %r1, %r4
	retf	0


00000000000014b0 <test_atomic_load_u16_u64>:
    14b0: 00 00 80 c2 40 00 22 00 02 01 00 88 02 10 08 00      	! BUNDLE
	alloc	5
	ldah.relaxed	%r1, %r1
	ldah.acquire	%r2, %r2

    14c0: 80 28 80 c1 00 00 22 02 08 04 80 06 10 10 04 00      	! BUNDLE
	ldah.acquire	%r3, %r3
	ldah.sec_cst	%r4, %r4
	xor	%r1, %r2, %r1

    14d0: 60 00 83 40 00 90 01 10 02 01 80 13 00 08 04 00      	! BUNDLE
	and	%r1, %r1, %r3
	or	%r1, %r1, %r4
	srlwi	%r1, %r1, 0

    14e0: 00 00 00 80 40 00 00 00 00 00 01 00 00 00 00 04      	! BUNDLE
	retf	0
	nop	0
	nop	0


00000000000014f0 <test_atomic_load_u32_u32>:
    14f0: 00 00 80 c2 40 00 24 00 02 01 00 90 02 10 08 00      	! BUNDLE
	alloc	5
	ldaw.relaxed	%r1, %r1
	ldaw.acquire	%r2, %r2

    1500: 00 29 80 c1 00 00 24 02 08 04 80 06 10 10 04 00      	! BUNDLE
	ldaw.acquire	%r3, %r3
	ldaw.sec_cst	%r4, %r4
	xor	%r1, %r2, %r1

    1510: 60 00 83 40 00 90 01 10 02 01 00 00 00 00 08 04      	! BUNDLE
	and	%r1, %r1, %r3
	or	%r1, %r1, %r4
	retf	0


0000000000001520 <test_atomic_load_u32_u64>:
    1520: 00 00 80 c2 40 00 24 00 02 01 00 90 02 10 08 00      	! BUNDLE
	alloc	5
	ldaw.relaxed	%r1, %r1
	ldaw.acquire	%r2, %r2

    1530: 00 29 80 c1 00 00 24 02 08 04 80 06 10 10 04 00      	! BUNDLE
	ldaw.acquire	%r3, %r3
	ldaw.sec_cst	%r4, %r4
	xor	%r1, %r2, %r1

    1540: 60 00 83 40 00 90 01 10 02 01 80 13 00 08 04 00      	! BUNDLE
	and	%r1, %r1, %r3
	or	%r1, %r1, %r4
	srlwi	%r1, %r1, 0

    1550: 00 00 00 80 40 00 00 00 00 00 01 00 00 00 00 04      	! BUNDLE
	retf	0
	nop	0
	nop	0


0000000000001560 <test_atomic_load_u64_u64>:
    1560: 00 00 80 c2 40 00 26 00 02 01 00 98 02 10 08 00      	! BUNDLE
	alloc	5
	ldad.relaxed	%r1, %r1
	ldad.acquire	%r2, %r2

    1570: 80 29 80 c1 00 00 26 02 08 04 80 06 10 10 04 00      	! BUNDLE
	ldad.acquire	%r3, %r3
	ldad.sec_cst	%r4, %r4
	xor	%r1, %r2, %r1

    1580: 60 00 83 40 00 90 01 10 02 01 00 00 00 00 08 04      	! BUNDLE
	and	%r1, %r1, %r3
	or	%r1, %r1, %r4
	retf	0


0000000000001590 <test_atomic_load_u128_u128>:
    1590: 00 00 80 c2 40 00 28 00 02 01 00 a0 02 10 08 00      	! BUNDLE
	alloc	5
	ldaq.relaxed	%r1, %r1
	ldaq.acquire	%r2, %r2

    15a0: 00 2a 80 c1 00 00 28 02 08 04 80 06 10 10 04 00      	! BUNDLE
	ldaq.acquire	%r3, %r3
	ldaq.sec_cst	%r4, %r4
	xor	%r1, %r2, %r1

    15b0: 60 00 83 40 00 90 01 10 02 01 00 00 00 00 08 04      	! BUNDLE
	and	%r1, %r1, %r3
	or	%r1, %r1, %r4
	retf	0


00000000000015c0 <test_atomic_load_op_i8>:
    15c0: 00 00 80 c1 40 40 20 04 04 01 00 00 00 08 04 28      	! BUNDLE
	alloc	3
	ldaddb.relaxed	%r1, %r2, %r1
	subfiws	%r1, %r1, 0

    15d0: 10 08 01 41 00 50 20 04 04 01 80 81 10 10 04 00      	! BUNDLE
	ldaddb.relaxed	%r1, %r2, %r1
	ldandb.relaxed	%r1, %r2, %r1
	ldorb.relaxed	%r1, %r2, %r1

    15e0: 1c 08 01 41 00 80 20 04 04 01 40 82 10 10 04 00      	! BUNDLE
	ldxorb.relaxed	%r1, %r2, %r1
	ldsminb.relaxed	%r1, %r2, %r1
	ldsmaxb.relaxed	%r1, %r2, %r1

    15f0: 10 28 01 41 00 00 00 00 02 01 0a 81 12 10 04 00      	! BUNDLE
	ldaddb.acquire	%r1, %r2, %r1
	subfiws	%r1, %r1, 0
	ldaddb.acquire	%r1, %r2, %r1

    1600: 14 28 01 41 00 60 a0 04 04 01 c0 81 12 10 04 00      	! BUNDLE
	ldandb.acquire	%r1, %r2, %r1
	ldorb.acquire	%r1, %r2, %r1
	ldxorb.acquire	%r1, %r2, %r1

    1610: 20 28 01 41 00 90 a0 04 04 01 00 81 12 10 04 00      	! BUNDLE
	ldsminb.acquire	%r1, %r2, %r1
	ldsmaxb.acquire	%r1, %r2, %r1
	ldaddb.acquire	%r1, %r2, %r1

    1620: 00 00 80 40 80 42 a0 04 04 01 40 81 12 10 04 00      	! BUNDLE
	subfiws	%r1, %r1, 0
	ldaddb.acquire	%r1, %r2, %r1
	ldandb.acquire	%r1, %r2, %r1

    1630: 18 28 01 41 00 70 a0 04 04 01 00 82 12 10 04 00      	! BUNDLE
	ldorb.acquire	%r1, %r2, %r1
	ldxorb.acquire	%r1, %r2, %r1
	ldsminb.acquire	%r1, %r2, %r1

    1640: 24 28 01 41 00 40 20 05 04 01 00 00 00 08 04 28      	! BUNDLE
	ldsmaxb.acquire	%r1, %r2, %r1
	ldaddb.release	%r1, %r2, %r1
	subfiws	%r1, %r1, 0

    1650: 10 48 01 41 00 50 20 05 04 01 80 81 14 10 04 00      	! BUNDLE
	ldaddb.release	%r1, %r2, %r1
	ldandb.release	%r1, %r2, %r1
	ldorb.release	%r1, %r2, %r1

    1660: 1c 48 01 41 00 80 20 05 04 01 40 82 14 10 04 00      	! BUNDLE
	ldxorb.release	%r1, %r2, %r1
	ldsminb.release	%r1, %r2, %r1
	ldsmaxb.release	%r1, %r2, %r1

    1670: 10 68 01 41 00 00 00 00 02 01 0a 81 16 10 04 00      	! BUNDLE
	ldaddb.acq_rel	%r1, %r2, %r1
	subfiws	%r1, %r1, 0
	ldaddb.acq_rel	%r1, %r2, %r1

    1680: 14 68 01 41 00 60 a0 05 04 01 c0 81 16 10 04 00      	! BUNDLE
	ldandb.acq_rel	%r1, %r2, %r1
	ldorb.acq_rel	%r1, %r2, %r1
	ldxorb.acq_rel	%r1, %r2, %r1

    1690: 20 68 01 41 00 90 a0 05 04 01 00 4d 08 00 00 00      	! BUNDLE
	ldsminb.acq_rel	%r1, %r2, %r1
	ldsmaxb.acq_rel	%r1, %r2, %r1
	fence.seq_cst

    16a0: 10 08 01 41 00 40 13 02 00 00 00 00 00 08 04 28      	! BUNDLE
	ldaddb.relaxed	%r1, %r2, %r1
	fence.seq_cst
	subfiws	%r1, %r1, 0

    16b0: 10 08 01 41 00 40 13 02 00 00 40 81 10 10 04 00      	! BUNDLE
	ldaddb.relaxed	%r1, %r2, %r1
	fence.seq_cst
	ldandb.relaxed	%r1, %r2, %r1

    16c0: d0 84 00 00 00 60 20 04 04 01 00 4d 08 00 00 00      	! BUNDLE
	fence.seq_cst
	ldorb.relaxed	%r1, %r2, %r1
	fence.seq_cst

    16d0: 1c 08 01 41 00 40 13 02 00 00 00 82 10 10 04 00      	! BUNDLE
	ldxorb.relaxed	%r1, %r2, %r1
	fence.seq_cst
	ldsminb.relaxed	%r1, %r2, %r1

    16e0: d0 84 00 00 00 90 20 04 04 01 80 03 87 0b 04 02      	! BUNDLE
	fence.seq_cst
	ldsmaxb.relaxed	%r1, %r2, %r1
	slsrai	%r1, %r1, 56, 56

    16f0: 00 00 00 80 40 00 00 00 00 00 01 00 00 00 00 04      	! BUNDLE
	retf	0
	nop	0
	nop	0


0000000000001700 <test_atomic_load_op_u8>:
    1700: 00 00 80 c1 40 40 20 04 04 01 00 00 00 08 04 28      	! BUNDLE
	alloc	3
	ldaddb.relaxed	%r1, %r2, %r1
	subfiws	%r1, %r1, 0

    1710: 10 08 01 41 00 50 20 04 04 01 80 81 10 10 04 00      	! BUNDLE
	ldaddb.relaxed	%r1, %r2, %r1
	ldandb.relaxed	%r1, %r2, %r1
	ldorb.relaxed	%r1, %r2, %r1

    1720: 1c 08 01 41 00 a0 20 04 04 01 c0 82 10 10 04 00      	! BUNDLE
	ldxorb.relaxed	%r1, %r2, %r1
	lduminb.relaxed	%r1, %r2, %r1
	ldumaxb.relaxed	%r1, %r2, %r1

    1730: 10 28 01 41 00 00 00 00 02 01 0a 81 12 10 04 00      	! BUNDLE
	ldaddb.acquire	%r1, %r2, %r1
	subfiws	%r1, %r1, 0
	ldaddb.acquire	%r1, %r2, %r1

    1740: 14 28 01 41 00 60 a0 04 04 01 c0 81 12 10 04 00      	! BUNDLE
	ldandb.acquire	%r1, %r2, %r1
	ldorb.acquire	%r1, %r2, %r1
	ldxorb.acquire	%r1, %r2, %r1

    1750: 28 28 01 41 00 b0 a0 04 04 01 00 81 12 10 04 00      	! BUNDLE
	lduminb.acquire	%r1, %r2, %r1
	ldumaxb.acquire	%r1, %r2, %r1
	ldaddb.acquire	%r1, %r2, %r1

    1760: 00 00 80 40 80 42 a0 04 04 01 40 81 12 10 04 00      	! BUNDLE
	subfiws	%r1, %r1, 0
	ldaddb.acquire	%r1, %r2, %r1
	ldandb.acquire	%r1, %r2, %r1

    1770: 18 28 01 41 00 70 a0 04 04 01 80 82 12 10 04 00      	! BUNDLE
	ldorb.acquire	%r1, %r2, %r1
	ldxorb.acquire	%r1, %r2, %r1
	lduminb.acquire	%r1, %r2, %r1

    1780: 2c 28 01 41 00 40 20 05 04 01 00 00 00 08 04 28      	! BUNDLE
	ldumaxb.acquire	%r1, %r2, %r1
	ldaddb.release	%r1, %r2, %r1
	subfiws	%r1, %r1, 0

    1790: 10 48 01 41 00 50 20 05 04 01 80 81 14 10 04 00      	! BUNDLE
	ldaddb.release	%r1, %r2, %r1
	ldandb.release	%r1, %r2, %r1
	ldorb.release	%r1, %r2, %r1

    17a0: 1c 48 01 41 00 a0 20 05 04 01 c0 82 14 10 04 00      	! BUNDLE
	ldxorb.release	%r1, %r2, %r1
	lduminb.release	%r1, %r2, %r1
	ldumaxb.release	%r1, %r2, %r1

    17b0: 10 68 01 41 00 00 00 00 02 01 0a 81 16 10 04 00      	! BUNDLE
	ldaddb.acq_rel	%r1, %r2, %r1
	subfiws	%r1, %r1, 0
	ldaddb.acq_rel	%r1, %r2, %r1

    17c0: 14 68 01 41 00 60 a0 05 04 01 c0 81 16 10 04 00      	! BUNDLE
	ldandb.acq_rel	%r1, %r2, %r1
	ldorb.acq_rel	%r1, %r2, %r1
	ldxorb.acq_rel	%r1, %r2, %r1

    17d0: 28 68 01 41 00 b0 a0 05 04 01 00 4d 08 00 00 00      	! BUNDLE
	lduminb.acq_rel	%r1, %r2, %r1
	ldumaxb.acq_rel	%r1, %r2, %r1
	fence.seq_cst

    17e0: 10 08 01 41 00 40 13 02 00 00 00 00 00 08 04 28      	! BUNDLE
	ldaddb.relaxed	%r1, %r2, %r1
	fence.seq_cst
	subfiws	%r1, %r1, 0

    17f0: 10 08 01 41 00 40 13 02 00 00 40 81 10 10 04 00      	! BUNDLE
	ldaddb.relaxed	%r1, %r2, %r1
	fence.seq_cst
	ldandb.relaxed	%r1, %r2, %r1

    1800: d0 84 00 00 00 60 20 04 04 01 00 4d 08 00 00 00      	! BUNDLE
	fence.seq_cst
	ldorb.relaxed	%r1, %r2, %r1
	fence.seq_cst

    1810: 1c 08 01 41 00 40 13 02 00 00 80 82 10 10 04 00      	! BUNDLE
	ldxorb.relaxed	%r1, %r2, %r1
	fence.seq_cst
	lduminb.relaxed	%r1, %r2, %r1

    1820: d0 84 00 00 00 b0 20 04 04 01 00 00 00 00 08 04      	! BUNDLE
	fence.seq_cst
	ldumaxb.relaxed	%r1, %r2, %r1
	retf	0


0000000000001830 <test_atomic_load_op_i16>:
    1830: 00 00 80 c1 40 40 22 04 04 01 00 00 00 08 04 28      	! BUNDLE
	alloc	3
	ldaddh.relaxed	%r1, %r2, %r1
	subfiws	%r1, %r1, 0

    1840: 90 08 01 41 00 50 22 04 04 01 80 89 10 10 04 00      	! BUNDLE
	ldaddh.relaxed	%r1, %r2, %r1
	ldandh.relaxed	%r1, %r2, %r1
	ldorh.relaxed	%r1, %r2, %r1

    1850: 9c 08 01 41 00 80 22 04 04 01 40 8a 10 10 04 00      	! BUNDLE
	ldxorh.relaxed	%r1, %r2, %r1
	ldsminh.relaxed	%r1, %r2, %r1
	ldsmaxh.relaxed	%r1, %r2, %r1

    1860: 90 28 01 41 00 00 00 00 02 01 0a 89 12 10 04 00      	! BUNDLE
	ldaddh.acquire	%r1, %r2, %r1
	subfiws	%r1, %r1, 0
	ldaddh.acquire	%r1, %r2, %r1

    1870: 94 28 01 41 00 60 a2 04 04 01 c0 89 12 10 04 00      	! BUNDLE
	ldandh.acquire	%r1, %r2, %r1
	ldorh.acquire	%r1, %r2, %r1
	ldxorh.acquire	%r1, %r2, %r1

    1880: a0 28 01 41 00 90 a2 04 04 01 00 89 12 10 04 00      	! BUNDLE
	ldsminh.acquire	%r1, %r2, %r1
	ldsmaxh.acquire	%r1, %r2, %r1
	ldaddh.acquire	%r1, %r2, %r1

    1890: 00 00 80 40 80 42 a2 04 04 01 40 89 12 10 04 00      	! BUNDLE
	subfiws	%r1, %r1, 0
	ldaddh.acquire	%r1, %r2, %r1
	ldandh.acquire	%r1, %r2, %r1

    18a0: 98 28 01 41 00 70 a2 04 04 01 00 8a 12 10 04 00      	! BUNDLE
	ldorh.acquire	%r1, %r2, %r1
	ldxorh.acquire	%r1, %r2, %r1
	ldsminh.acquire	%r1, %r2, %r1

    18b0: a4 28 01 41 00 40 22 05 04 01 00 00 00 08 04 28      	! BUNDLE
	ldsmaxh.acquire	%r1, %r2, %r1
	ldaddh.release	%r1, %r2, %r1
	subfiws	%r1, %r1, 0

    18c0: 90 48 01 41 00 50 22 05 04 01 80 89 14 10 04 00      	! BUNDLE
	ldaddh.release	%r1, %r2, %r1
	ldandh.release	%r1, %r2, %r1
	ldorh.release	%r1, %r2, %r1

    18d0: 9c 48 01 41 00 80 22 05 04 01 40 8a 14 10 04 00      	! BUNDLE
	ldxorh.release	%r1, %r2, %r1
	ldsminh.release	%r1, %r2, %r1
	ldsmaxh.release	%r1, %r2, %r1

    18e0: 90 68 01 41 00 00 00 00 02 01 0a 89 16 10 04 00      	! BUNDLE
	ldaddh.acq_rel	%r1, %r2, %r1
	subfiws	%r1, %r1, 0
	ldaddh.acq_rel	%r1, %r2, %r1

    18f0: 94 68 01 41 00 60 a2 05 04 01 c0 89 16 10 04 00      	! BUNDLE
	ldandh.acq_rel	%r1, %r2, %r1
	ldorh.acq_rel	%r1, %r2, %r1
	ldxorh.acq_rel	%r1, %r2, %r1

    1900: a0 68 01 41 00 90 a2 05 04 01 00 4d 08 00 00 00      	! BUNDLE
	ldsminh.acq_rel	%r1, %r2, %r1
	ldsmaxh.acq_rel	%r1, %r2, %r1
	fence.seq_cst

    1910: 90 08 01 41 00 40 13 02 00 00 00 00 00 08 04 28      	! BUNDLE
	ldaddh.relaxed	%r1, %r2, %r1
	fence.seq_cst
	subfiws	%r1, %r1, 0

    1920: 90 08 01 41 00 40 13 02 00 00 40 89 10 10 04 00      	! BUNDLE
	ldaddh.relaxed	%r1, %r2, %r1
	fence.seq_cst
	ldandh.relaxed	%r1, %r2, %r1

    1930: d0 84 00 00 00 60 22 04 04 01 00 4d 08 00 00 00      	! BUNDLE
	fence.seq_cst
	ldorh.relaxed	%r1, %r2, %r1
	fence.seq_cst

    1940: 9c 08 01 41 00 40 13 02 00 00 00 8a 10 10 04 00      	! BUNDLE
	ldxorh.relaxed	%r1, %r2, %r1
	fence.seq_cst
	ldsminh.relaxed	%r1, %r2, %r1

    1950: d0 84 00 00 00 90 22 04 04 01 80 03 06 0b 04 02      	! BUNDLE
	fence.seq_cst
	ldsmaxh.relaxed	%r1, %r2, %r1
	slsrai	%r1, %r1, 48, 48

    1960: 00 00 00 80 40 00 00 00 00 00 01 00 00 00 00 04      	! BUNDLE
	retf	0
	nop	0
	nop	0


0000000000001970 <test_atomic_load_op_u16>:
    1970: 00 00 80 c1 40 40 22 04 04 01 00 00 00 08 04 28      	! BUNDLE
	alloc	3
	ldaddh.relaxed	%r1, %r2, %r1
	subfiws	%r1, %r1, 0

    1980: 90 08 01 41 00 50 22 04 04 01 80 89 10 10 04 00      	! BUNDLE
	ldaddh.relaxed	%r1, %r2, %r1
	ldandh.relaxed	%r1, %r2, %r1
	ldorh.relaxed	%r1, %r2, %r1

    1990: 9c 08 01 41 00 a0 22 04 04 01 c0 8a 10 10 04 00      	! BUNDLE
	ldxorh.relaxed	%r1, %r2, %r1
	lduminh.relaxed	%r1, %r2, %r1
	ldumaxh.relaxed	%r1, %r2, %r1

    19a0: 90 28 01 41 00 00 00 00 02 01 0a 89 12 10 04 00      	! BUNDLE
	ldaddh.acquire	%r1, %r2, %r1
	subfiws	%r1, %r1, 0
	ldaddh.acquire	%r1, %r2, %r1

    19b0: 94 28 01 41 00 60 a2 04 04 01 c0 89 12 10 04 00      	! BUNDLE
	ldandh.acquire	%r1, %r2, %r1
	ldorh.acquire	%r1, %r2, %r1
	ldxorh.acquire	%r1, %r2, %r1

    19c0: a8 28 01 41 00 b0 a2 04 04 01 00 89 12 10 04 00      	! BUNDLE
	lduminh.acquire	%r1, %r2, %r1
	ldumaxh.acquire	%r1, %r2, %r1
	ldaddh.acquire	%r1, %r2, %r1

    19d0: 00 00 80 40 80 42 a2 04 04 01 40 89 12 10 04 00      	! BUNDLE
	subfiws	%r1, %r1, 0
	ldaddh.acquire	%r1, %r2, %r1
	ldandh.acquire	%r1, %r2, %r1

    19e0: 98 28 01 41 00 70 a2 04 04 01 80 8a 12 10 04 00      	! BUNDLE
	ldorh.acquire	%r1, %r2, %r1
	ldxorh.acquire	%r1, %r2, %r1
	lduminh.acquire	%r1, %r2, %r1

    19f0: ac 28 01 41 00 40 22 05 04 01 00 00 00 08 04 28      	! BUNDLE
	ldumaxh.acquire	%r1, %r2, %r1
	ldaddh.release	%r1, %r2, %r1
	subfiws	%r1, %r1, 0

    1a00: 90 48 01 41 00 50 22 05 04 01 80 89 14 10 04 00      	! BUNDLE
	ldaddh.release	%r1, %r2, %r1
	ldandh.release	%r1, %r2, %r1
	ldorh.release	%r1, %r2, %r1

    1a10: 9c 48 01 41 00 a0 22 05 04 01 c0 8a 14 10 04 00      	! BUNDLE
	ldxorh.release	%r1, %r2, %r1
	lduminh.release	%r1, %r2, %r1
	ldumaxh.release	%r1, %r2, %r1

    1a20: 90 68 01 41 00 00 00 00 02 01 0a 89 16 10 04 00      	! BUNDLE
	ldaddh.acq_rel	%r1, %r2, %r1
	subfiws	%r1, %r1, 0
	ldaddh.acq_rel	%r1, %r2, %r1

    1a30: 94 68 01 41 00 60 a2 05 04 01 c0 89 16 10 04 00      	! BUNDLE
	ldandh.acq_rel	%r1, %r2, %r1
	ldorh.acq_rel	%r1, %r2, %r1
	ldxorh.acq_rel	%r1, %r2, %r1

    1a40: a8 68 01 41 00 b0 a2 05 04 01 00 4d 08 00 00 00      	! BUNDLE
	lduminh.acq_rel	%r1, %r2, %r1
	ldumaxh.acq_rel	%r1, %r2, %r1
	fence.seq_cst

    1a50: 90 08 01 41 00 40 13 02 00 00 00 00 00 08 04 28      	! BUNDLE
	ldaddh.relaxed	%r1, %r2, %r1
	fence.seq_cst
	subfiws	%r1, %r1, 0

    1a60: 90 08 01 41 00 40 13 02 00 00 40 89 10 10 04 00      	! BUNDLE
	ldaddh.relaxed	%r1, %r2, %r1
	fence.seq_cst
	ldandh.relaxed	%r1, %r2, %r1

    1a70: d0 84 00 00 00 60 22 04 04 01 00 4d 08 00 00 00      	! BUNDLE
	fence.seq_cst
	ldorh.relaxed	%r1, %r2, %r1
	fence.seq_cst

    1a80: 9c 08 01 41 00 40 13 02 00 00 80 8a 10 10 04 00      	! BUNDLE
	ldxorh.relaxed	%r1, %r2, %r1
	fence.seq_cst
	lduminh.relaxed	%r1, %r2, %r1

    1a90: d0 84 00 00 00 b0 22 04 04 01 00 00 00 00 08 04      	! BUNDLE
	fence.seq_cst
	ldumaxh.relaxed	%r1, %r2, %r1
	retf	0


0000000000001aa0 <test_atomic_load_op_i32>:
    1aa0: 00 00 80 c1 40 40 24 04 04 01 00 00 00 08 04 28      	! BUNDLE
	alloc	3
	ldaddw.relaxed	%r1, %r2, %r1
	subfiws	%r1, %r1, 0

    1ab0: 10 09 01 41 00 50 24 04 04 01 80 91 10 10 04 00      	! BUNDLE
	ldaddw.relaxed	%r1, %r2, %r1
	ldandw.relaxed	%r1, %r2, %r1
	ldorw.relaxed	%r1, %r2, %r1

    1ac0: 1c 09 01 41 00 80 24 04 04 01 40 92 10 10 04 00      	! BUNDLE
	ldxorw.relaxed	%r1, %r2, %r1
	ldsminw.relaxed	%r1, %r2, %r1
	ldsmaxw.relaxed	%r1, %r2, %r1

    1ad0: 10 29 01 41 00 00 00 00 02 01 0a 91 12 10 04 00      	! BUNDLE
	ldaddw.acquire	%r1, %r2, %r1
	subfiws	%r1, %r1, 0
	ldaddw.acquire	%r1, %r2, %r1

    1ae0: 14 29 01 41 00 60 a4 04 04 01 c0 91 12 10 04 00      	! BUNDLE
	ldandw.acquire	%r1, %r2, %r1
	ldorw.acquire	%r1, %r2, %r1
	ldxorw.acquire	%r1, %r2, %r1

    1af0: 20 29 01 41 00 90 a4 04 04 01 00 91 12 10 04 00      	! BUNDLE
	ldsminw.acquire	%r1, %r2, %r1
	ldsmaxw.acquire	%r1, %r2, %r1
	ldaddw.acquire	%r1, %r2, %r1

    1b00: 00 00 80 40 80 42 a4 04 04 01 40 91 12 10 04 00      	! BUNDLE
	subfiws	%r1, %r1, 0
	ldaddw.acquire	%r1, %r2, %r1
	ldandw.acquire	%r1, %r2, %r1

    1b10: 18 29 01 41 00 70 a4 04 04 01 00 92 12 10 04 00      	! BUNDLE
	ldorw.acquire	%r1, %r2, %r1
	ldxorw.acquire	%r1, %r2, %r1
	ldsminw.acquire	%r1, %r2, %r1

    1b20: 24 29 01 41 00 40 24 05 04 01 00 00 00 08 04 28      	! BUNDLE
	ldsmaxw.acquire	%r1, %r2, %r1
	ldaddw.release	%r1, %r2, %r1
	subfiws	%r1, %r1, 0

    1b30: 10 49 01 41 00 50 24 05 04 01 80 91 14 10 04 00      	! BUNDLE
	ldaddw.release	%r1, %r2, %r1
	ldandw.release	%r1, %r2, %r1
	ldorw.release	%r1, %r2, %r1

    1b40: 1c 49 01 41 00 80 24 05 04 01 40 92 14 10 04 00      	! BUNDLE
	ldxorw.release	%r1, %r2, %r1
	ldsminw.release	%r1, %r2, %r1
	ldsmaxw.release	%r1, %r2, %r1

    1b50: 10 69 01 41 00 00 00 00 02 01 0a 91 16 10 04 00      	! BUNDLE
	ldaddw.acq_rel	%r1, %r2, %r1
	subfiws	%r1, %r1, 0
	ldaddw.acq_rel	%r1, %r2, %r1

    1b60: 14 69 01 41 00 60 a4 05 04 01 c0 91 16 10 04 00      	! BUNDLE
	ldandw.acq_rel	%r1, %r2, %r1
	ldorw.acq_rel	%r1, %r2, %r1
	ldxorw.acq_rel	%r1, %r2, %r1

    1b70: 20 69 01 41 00 90 a4 05 04 01 00 4d 08 00 00 00      	! BUNDLE
	ldsminw.acq_rel	%r1, %r2, %r1
	ldsmaxw.acq_rel	%r1, %r2, %r1
	fence.seq_cst

    1b80: 10 09 01 41 00 40 13 02 00 00 00 00 00 08 04 28      	! BUNDLE
	ldaddw.relaxed	%r1, %r2, %r1
	fence.seq_cst
	subfiws	%r1, %r1, 0

    1b90: 10 09 01 41 00 40 13 02 00 00 40 91 10 10 04 00      	! BUNDLE
	ldaddw.relaxed	%r1, %r2, %r1
	fence.seq_cst
	ldandw.relaxed	%r1, %r2, %r1

    1ba0: d0 84 00 00 00 60 24 04 04 01 00 4d 08 00 00 00      	! BUNDLE
	fence.seq_cst
	ldorw.relaxed	%r1, %r2, %r1
	fence.seq_cst

    1bb0: 1c 09 01 41 00 40 13 02 00 00 00 92 10 10 04 00      	! BUNDLE
	ldxorw.relaxed	%r1, %r2, %r1
	fence.seq_cst
	ldsminw.relaxed	%r1, %r2, %r1

    1bc0: d0 84 00 00 00 90 24 04 04 01 00 00 00 00 08 04      	! BUNDLE
	fence.seq_cst
	ldsmaxw.relaxed	%r1, %r2, %r1
	retf	0


0000000000001bd0 <test_atomic_load_op_u32>:
    1bd0: 00 00 80 c1 40 40 24 04 04 01 00 00 00 08 04 28      	! BUNDLE
	alloc	3
	ldaddw.relaxed	%r1, %r2, %r1
	subfiws	%r1, %r1, 0

    1be0: 10 09 01 41 00 50 24 04 04 01 80 91 10 10 04 00      	! BUNDLE
	ldaddw.relaxed	%r1, %r2, %r1
	ldandw.relaxed	%r1, %r2, %r1
	ldorw.relaxed	%r1, %r2, %r1

    1bf0: 1c 09 01 41 00 a0 24 04 04 01 c0 92 10 10 04 00      	! BUNDLE
	ldxorw.relaxed	%r1, %r2, %r1
	lduminw.relaxed	%r1, %r2, %r1
	ldumaxw.relaxed	%r1, %r2, %r1

    1c00: 10 29 01 41 00 00 00 00 02 01 0a 91 12 10 04 00      	! BUNDLE
	ldaddw.acquire	%r1, %r2, %r1
	subfiws	%r1, %r1, 0
	ldaddw.acquire	%r1, %r2, %r1

    1c10: 14 29 01 41 00 60 a4 04 04 01 c0 91 12 10 04 00      	! BUNDLE
	ldandw.acquire	%r1, %r2, %r1
	ldorw.acquire	%r1, %r2, %r1
	ldxorw.acquire	%r1, %r2, %r1

    1c20: 28 29 01 41 00 b0 a4 04 04 01 00 91 12 10 04 00      	! BUNDLE
	lduminw.acquire	%r1, %r2, %r1
	ldumaxw.acquire	%r1, %r2, %r1
	ldaddw.acquire	%r1, %r2, %r1

    1c30: 00 00 80 40 80 42 a4 04 04 01 40 91 12 10 04 00      	! BUNDLE
	subfiws	%r1, %r1, 0
	ldaddw.acquire	%r1, %r2, %r1
	ldandw.acquire	%r1, %r2, %r1

    1c40: 18 29 01 41 00 70 a4 04 04 01 80 92 12 10 04 00      	! BUNDLE
	ldorw.acquire	%r1, %r2, %r1
	ldxorw.acquire	%r1, %r2, %r1
	lduminw.acquire	%r1, %r2, %r1

    1c50: 2c 29 01 41 00 40 24 05 04 01 00 00 00 08 04 28      	! BUNDLE
	ldumaxw.acquire	%r1, %r2, %r1
	ldaddw.release	%r1, %r2, %r1
	subfiws	%r1, %r1, 0

    1c60: 10 49 01 41 00 50 24 05 04 01 80 91 14 10 04 00      	! BUNDLE
	ldaddw.release	%r1, %r2, %r1
	ldandw.release	%r1, %r2, %r1
	ldorw.release	%r1, %r2, %r1

    1c70: 1c 49 01 41 00 a0 24 05 04 01 c0 92 14 10 04 00      	! BUNDLE
	ldxorw.release	%r1, %r2, %r1
	lduminw.release	%r1, %r2, %r1
	ldumaxw.release	%r1, %r2, %r1

    1c80: 10 69 01 41 00 00 00 00 02 01 0a 91 16 10 04 00      	! BUNDLE
	ldaddw.acq_rel	%r1, %r2, %r1
	subfiws	%r1, %r1, 0
	ldaddw.acq_rel	%r1, %r2, %r1

    1c90: 14 69 01 41 00 60 a4 05 04 01 c0 91 16 10 04 00      	! BUNDLE
	ldandw.acq_rel	%r1, %r2, %r1
	ldorw.acq_rel	%r1, %r2, %r1
	ldxorw.acq_rel	%r1, %r2, %r1

    1ca0: 28 69 01 41 00 b0 a4 05 04 01 00 4d 08 00 00 00      	! BUNDLE
	lduminw.acq_rel	%r1, %r2, %r1
	ldumaxw.acq_rel	%r1, %r2, %r1
	fence.seq_cst

    1cb0: 10 09 01 41 00 40 13 02 00 00 00 00 00 08 04 28      	! BUNDLE
	ldaddw.relaxed	%r1, %r2, %r1
	fence.seq_cst
	subfiws	%r1, %r1, 0

    1cc0: 10 09 01 41 00 40 13 02 00 00 40 91 10 10 04 00      	! BUNDLE
	ldaddw.relaxed	%r1, %r2, %r1
	fence.seq_cst
	ldandw.relaxed	%r1, %r2, %r1

    1cd0: d0 84 00 00 00 60 24 04 04 01 00 4d 08 00 00 00      	! BUNDLE
	fence.seq_cst
	ldorw.relaxed	%r1, %r2, %r1
	fence.seq_cst

    1ce0: 1c 09 01 41 00 40 13 02 00 00 80 92 10 10 04 00      	! BUNDLE
	ldxorw.relaxed	%r1, %r2, %r1
	fence.seq_cst
	lduminw.relaxed	%r1, %r2, %r1

    1cf0: d0 84 00 00 00 b0 24 04 04 01 00 00 00 00 08 04      	! BUNDLE
	fence.seq_cst
	ldumaxw.relaxed	%r1, %r2, %r1
	retf	0


0000000000001d00 <test_atomic_load_op_i64>:
    1d00: 00 00 80 c1 40 40 26 04 04 01 00 00 00 08 04 26      	! BUNDLE
	alloc	3
	ldaddd.relaxed	%r1, %r2, %r1
	subfi	%r1, %r1, 0

    1d10: 90 09 01 41 00 50 26 04 04 01 80 99 10 10 04 00      	! BUNDLE
	ldaddd.relaxed	%r1, %r2, %r1
	ldandd.relaxed	%r1, %r2, %r1
	ldord.relaxed	%r1, %r2, %r1

    1d20: 9c 09 01 41 00 80 26 04 04 01 40 9a 10 10 04 00      	! BUNDLE
	ldxord.relaxed	%r1, %r2, %r1
	ldsmind.relaxed	%r1, %r2, %r1
	ldsmaxd.relaxed	%r1, %r2, %r1

    1d30: 90 29 01 41 00 00 00 00 02 81 09 99 12 10 04 00      	! BUNDLE
	ldaddd.acquire	%r1, %r2, %r1
	subfi	%r1, %r1, 0
	ldaddd.acquire	%r1, %r2, %r1

    1d40: 94 29 01 41 00 60 a6 04 04 01 c0 99 12 10 04 00      	! BUNDLE
	ldandd.acquire	%r1, %r2, %r1
	ldord.acquire	%r1, %r2, %r1
	ldxord.acquire	%r1, %r2, %r1

    1d50: a0 29 01 41 00 90 a6 04 04 01 00 99 12 10 04 00      	! BUNDLE
	ldsmind.acquire	%r1, %r2, %r1
	ldsmaxd.acquire	%r1, %r2, %r1
	ldaddd.acquire	%r1, %r2, %r1

    1d60: 00 00 80 40 60 42 a6 04 04 01 40 99 12 10 04 00      	! BUNDLE
	subfi	%r1, %r1, 0
	ldaddd.acquire	%r1, %r2, %r1
	ldandd.acquire	%r1, %r2, %r1

    1d70: 98 29 01 41 00 70 a6 04 04 01 00 9a 12 10 04 00      	! BUNDLE
	ldord.acquire	%r1, %r2, %r1
	ldxord.acquire	%r1, %r2, %r1
	ldsmind.acquire	%r1, %r2, %r1

    1d80: a4 29 01 41 00 40 26 05 04 01 00 00 00 08 04 26      	! BUNDLE
	ldsmaxd.acquire	%r1, %r2, %r1
	ldaddd.release	%r1, %r2, %r1
	subfi	%r1, %r1, 0

    1d90: 90 49 01 41 00 50 26 05 04 01 80 99 14 10 04 00      	! BUNDLE
	ldaddd.release	%r1, %r2, %r1
	ldandd.release	%r1, %r2, %r1
	ldord.release	%r1, %r2, %r1

    1da0: 9c 49 01 41 00 80 26 05 04 01 40 9a 14 10 04 00      	! BUNDLE
	ldxord.release	%r1, %r2, %r1
	ldsmind.release	%r1, %r2, %r1
	ldsmaxd.release	%r1, %r2, %r1

    1db0: 90 69 01 41 00 00 00 00 02 81 09 99 16 10 04 00      	! BUNDLE
	ldaddd.acq_rel	%r1, %r2, %r1
	subfi	%r1, %r1, 0
	ldaddd.acq_rel	%r1, %r2, %r1

    1dc0: 94 69 01 41 00 60 a6 05 04 01 c0 99 16 10 04 00      	! BUNDLE
	ldandd.acq_rel	%r1, %r2, %r1
	ldord.acq_rel	%r1, %r2, %r1
	ldxord.acq_rel	%r1, %r2, %r1

    1dd0: a0 69 01 41 00 90 a6 05 04 01 00 4d 08 00 00 00      	! BUNDLE
	ldsmind.acq_rel	%r1, %r2, %r1
	ldsmaxd.acq_rel	%r1, %r2, %r1
	fence.seq_cst

    1de0: 90 09 01 41 00 40 13 02 00 00 00 00 00 08 04 26      	! BUNDLE
	ldaddd.relaxed	%r1, %r2, %r1
	fence.seq_cst
	subfi	%r1, %r1, 0

    1df0: 90 09 01 41 00 40 13 02 00 00 40 99 10 10 04 00      	! BUNDLE
	ldaddd.relaxed	%r1, %r2, %r1
	fence.seq_cst
	ldandd.relaxed	%r1, %r2, %r1

    1e00: d0 84 00 00 00 60 26 04 04 01 00 4d 08 00 00 00      	! BUNDLE
	fence.seq_cst
	ldord.relaxed	%r1, %r2, %r1
	fence.seq_cst

    1e10: 9c 09 01 41 00 40 13 02 00 00 00 9a 10 10 04 00      	! BUNDLE
	ldxord.relaxed	%r1, %r2, %r1
	fence.seq_cst
	ldsmind.relaxed	%r1, %r2, %r1

    1e20: d0 84 00 00 00 90 26 04 04 01 00 00 00 00 08 04      	! BUNDLE
	fence.seq_cst
	ldsmaxd.relaxed	%r1, %r2, %r1
	retf	0


0000000000001e30 <test_atomic_load_op_u64>:
    1e30: 00 00 80 c1 40 40 26 04 04 01 00 00 00 08 04 26      	! BUNDLE
	alloc	3
	ldaddd.relaxed	%r1, %r2, %r1
	subfi	%r1, %r1, 0

    1e40: 90 09 01 41 00 50 26 04 04 01 80 99 10 10 04 00      	! BUNDLE
	ldaddd.relaxed	%r1, %r2, %r1
	ldandd.relaxed	%r1, %r2, %r1
	ldord.relaxed	%r1, %r2, %r1

    1e50: 9c 09 01 41 00 a0 26 04 04 01 c0 9a 10 10 04 00      	! BUNDLE
	ldxord.relaxed	%r1, %r2, %r1
	ldumind.relaxed	%r1, %r2, %r1
	ldumaxd.relaxed	%r1, %r2, %r1

    1e60: 90 29 01 41 00 00 00 00 02 81 09 99 12 10 04 00      	! BUNDLE
	ldaddd.acquire	%r1, %r2, %r1
	subfi	%r1, %r1, 0
	ldaddd.acquire	%r1, %r2, %r1

    1e70: 94 29 01 41 00 60 a6 04 04 01 c0 99 12 10 04 00      	! BUNDLE
	ldandd.acquire	%r1, %r2, %r1
	ldord.acquire	%r1, %r2, %r1
	ldxord.acquire	%r1, %r2, %r1

    1e80: a8 29 01 41 00 b0 a6 04 04 01 00 99 12 10 04 00      	! BUNDLE
	ldumind.acquire	%r1, %r2, %r1
	ldumaxd.acquire	%r1, %r2, %r1
	ldaddd.acquire	%r1, %r2, %r1

    1e90: 00 00 80 40 60 42 a6 04 04 01 40 99 12 10 04 00      	! BUNDLE
	subfi	%r1, %r1, 0
	ldaddd.acquire	%r1, %r2, %r1
	ldandd.acquire	%r1, %r2, %r1

    1ea0: 98 29 01 41 00 70 a6 04 04 01 80 9a 12 10 04 00      	! BUNDLE
	ldord.acquire	%r1, %r2, %r1
	ldxord.acquire	%r1, %r2, %r1
	ldumind.acquire	%r1, %r2, %r1

    1eb0: ac 29 01 41 00 40 26 05 04 01 00 00 00 08 04 26      	! BUNDLE
	ldumaxd.acquire	%r1, %r2, %r1
	ldaddd.release	%r1, %r2, %r1
	subfi	%r1, %r1, 0

    1ec0: 90 49 01 41 00 50 26 05 04 01 80 99 14 10 04 00      	! BUNDLE
	ldaddd.release	%r1, %r2, %r1
	ldandd.release	%r1, %r2, %r1
	ldord.release	%r1, %r2, %r1

    1ed0: 9c 49 01 41 00 a0 26 05 04 01 c0 9a 14 10 04 00      	! BUNDLE
	ldxord.release	%r1, %r2, %r1
	ldumind.release	%r1, %r2, %r1
	ldumaxd.release	%r1, %r2, %r1

    1ee0: 90 69 01 41 00 00 00 00 02 81 09 99 16 10 04 00      	! BUNDLE
	ldaddd.acq_rel	%r1, %r2, %r1
	subfi	%r1, %r1, 0
	ldaddd.acq_rel	%r1, %r2, %r1

    1ef0: 94 69 01 41 00 60 a6 05 04 01 c0 99 16 10 04 00      	! BUNDLE
	ldandd.acq_rel	%r1, %r2, %r1
	ldord.acq_rel	%r1, %r2, %r1
	ldxord.acq_rel	%r1, %r2, %r1

    1f00: a8 69 01 41 00 b0 a6 05 04 01 00 4d 08 00 00 00      	! BUNDLE
	ldumind.acq_rel	%r1, %r2, %r1
	ldumaxd.acq_rel	%r1, %r2, %r1
	fence.seq_cst

    1f10: 90 09 01 41 00 40 13 02 00 00 00 00 00 08 04 26      	! BUNDLE
	ldaddd.relaxed	%r1, %r2, %r1
	fence.seq_cst
	subfi	%r1, %r1, 0

    1f20: 90 09 01 41 00 40 13 02 00 00 40 99 10 10 04 00      	! BUNDLE
	ldaddd.relaxed	%r1, %r2, %r1
	fence.seq_cst
	ldandd.relaxed	%r1, %r2, %r1

    1f30: d0 84 00 00 00 60 26 04 04 01 00 4d 08 00 00 00      	! BUNDLE
	fence.seq_cst
	ldord.relaxed	%r1, %r2, %r1
	fence.seq_cst

    1f40: 9c 09 01 41 00 40 13 02 00 00 80 9a 10 10 04 00      	! BUNDLE
	ldxord.relaxed	%r1, %r2, %r1
	fence.seq_cst
	ldumind.relaxed	%r1, %r2, %r1

    1f50: d0 84 00 00 00 b0 26 04 04 01 00 00 00 00 08 04      	! BUNDLE
	fence.seq_cst
	ldumaxd.relaxed	%r1, %r2, %r1
	retf	0


0000000000001f60 <test_atomic_store_i8>:
    1f60: 00 00 80 c2 40 10 20 00 02 04 40 80 04 10 10 00      	! BUNDLE
	alloc	5
	stab.relaxed	%r4, %r1
	stab.release	%r4, %r2

    1f70: 04 88 80 01 01 00 00 00 00 02 01 00 00 00 00 04      	! BUNDLE
	stab.sec_cst	%r4, %r3
	retf	0
	nop	0


0000000000001f80 <test_atomic_store_i16>:
    1f80: 00 00 80 c2 40 10 22 00 02 04 40 88 04 10 10 00      	! BUNDLE
	alloc	5
	stah.relaxed	%r4, %r1
	stah.release	%r4, %r2

    1f90: 84 88 80 01 01 00 00 00 00 02 01 00 00 00 00 04      	! BUNDLE
	stah.sec_cst	%r4, %r3
	retf	0
	nop	0


0000000000001fa0 <test_atomic_store_i32>:
    1fa0: 00 00 80 c2 40 10 24 00 02 04 40 90 04 10 10 00      	! BUNDLE
	alloc	5
	staw.relaxed	%r4, %r1
	staw.release	%r4, %r2

    1fb0: 04 89 80 01 01 00 00 00 00 02 01 00 00 00 00 04      	! BUNDLE
	staw.sec_cst	%r4, %r3
	retf	0
	nop	0


0000000000001fc0 <test_atomic_store_i64>:
    1fc0: 00 00 80 c2 40 10 26 00 02 04 40 98 04 10 10 00      	! BUNDLE
	alloc	5
	stad.relaxed	%r4, %r1
	stad.release	%r4, %r2

    1fd0: 84 89 80 01 01 00 00 00 00 02 01 00 00 00 00 04      	! BUNDLE
	stad.sec_cst	%r4, %r3
	retf	0
	nop	0


0000000000001fe0 <test_atomic_store_i128>:
    1fe0: 00 00 80 c2 40 10 28 00 02 04 40 a0 04 10 10 00      	! BUNDLE
	alloc	5
	staq.relaxed	%r4, %r1
	staq.release	%r4, %r2

    1ff0: 04 8a 80 01 01 00 00 00 00 02 01 00 00 00 00 04      	! BUNDLE
	staq.sec_cst	%r4, %r3
	retf	0
	nop	0


0000000000002000 <test_i32_inv>:
    2000: 00 00 00 c1 40 f0 ff ff 03 81 06 00 00 00 08 04      	! BUNDLE
	alloc	2
	xori	%r1, %r1, -1
	retf	0


0000000000002010 <test_i64_inv>:
    2010: 00 00 00 c1 40 f0 ff ff 03 81 06 00 00 00 08 04      	! BUNDLE
	alloc	2
	xori	%r1, %r1, -1
	retf	0


0000000000002020 <test_i32_and>:
    2020: 00 00 80 c1 40 80 01 04 04 01 00 00 00 00 08 04      	! BUNDLE
	alloc	3
	and	%r1, %r2, %r1
	retf	0


0000000000002030 <test_i64_and>:
    2030: 00 00 80 c1 40 80 01 04 04 01 00 00 00 00 08 04      	! BUNDLE
	alloc	3
	and	%r1, %r2, %r1
	retf	0


0000000000002040 <test_i32_andi>:
    2040: 00 00 00 c1 40 90 03 03 02 81 05 00 00 00 08 04      	! BUNDLE
	alloc	2
	andi	%r1, %r1, 12345
	retf	0


0000000000002050 <test_i64_andi>:
    2050: 00 00 00 c1 40 90 03 03 02 81 05 00 00 00 08 04      	! BUNDLE
	alloc	2
	andi	%r1, %r1, 12345
	retf	0


0000000000002060 <test_i32_or>:
    2060: 00 00 80 c1 40 90 01 04 04 01 00 00 00 00 08 04      	! BUNDLE
	alloc	3
	or	%r1, %r2, %r1
	retf	0


0000000000002070 <test_i64_or>:
    2070: 00 00 80 c1 40 90 01 04 04 01 00 00 00 00 08 04      	! BUNDLE
	alloc	3
	or	%r1, %r2, %r1
	retf	0


0000000000002080 <test_i32_ori>:
    2080: 00 00 00 c1 40 90 03 03 02 01 06 00 00 00 08 04      	! BUNDLE
	alloc	2
	ori	%r1, %r1, 12345
	retf	0


0000000000002090 <test_i64_ori>:
    2090: 00 00 00 c1 40 90 03 03 02 01 06 00 00 00 08 04      	! BUNDLE
	alloc	2
	ori	%r1, %r1, 12345
	retf	0


00000000000020a0 <test_i32_xor>:
    20a0: 00 00 80 c1 40 a0 01 04 04 01 00 00 00 00 08 04      	! BUNDLE
	alloc	3
	xor	%r1, %r2, %r1
	retf	0


00000000000020b0 <test_i64_xor>:
    20b0: 00 00 80 c1 40 a0 01 04 04 01 00 00 00 00 08 04      	! BUNDLE
	alloc	3
	xor	%r1, %r2, %r1
	retf	0


00000000000020c0 <test_i32_xori>:
    20c0: 00 00 00 c1 40 90 03 03 02 81 06 00 00 00 08 04      	! BUNDLE
	alloc	2
	xori	%r1, %r1, 12345
	retf	0


00000000000020d0 <test_i32_xori_ext>:
    20d0: 01 00 00 c1 40 50 d1 bc 03 81 86 0e 00 00 00 00      	! BUNDLE
	alloc	2
	xori.l	%r1, %r1, 123456789

    20e0: 00 00 00 80 40 00 00 00 00 00 01 00 00 00 00 04      	! BUNDLE
	retf	0
	nop	0
	nop	0


00000000000020f0 <test_i64_xori_ext>:
    20f0: 01 00 00 c1 40 50 d1 bc 03 81 86 0e 00 00 00 00      	! BUNDLE
	alloc	2
	xori.l	%r1, %r1, 123456789

    2100: 00 00 00 80 40 00 00 00 00 00 01 00 00 00 00 04      	! BUNDLE
	retf	0
	nop	0
	nop	0


0000000000002110 <test_i1_and>:
    2110: 00 00 80 c1 40 80 01 08 02 01 40 00 00 08 04 16      	! BUNDLE
	alloc	3
	and	%r1, %r1, %r2
	andi	%r1, %r1, 1

    2120: 00 00 00 80 40 00 00 00 00 00 01 00 00 00 00 04      	! BUNDLE
	retf	0
	nop	0
	nop	0


0000000000002130 <test_i1_or>:
    2130: 00 00 80 c1 40 90 01 08 02 01 40 00 00 08 04 16      	! BUNDLE
	alloc	3
	or	%r1, %r1, %r2
	andi	%r1, %r1, 1

    2140: 00 00 00 80 40 00 00 00 00 00 01 00 00 00 00 04      	! BUNDLE
	retf	0
	nop	0
	nop	0


0000000000002150 <test_i1_xor>:
    2150: 00 00 80 c1 40 a0 01 08 02 01 40 00 00 08 04 16      	! BUNDLE
	alloc	3
	xor	%r1, %r1, %r2
	andi	%r1, %r1, 1

    2160: 00 00 00 80 40 00 00 00 00 00 01 00 00 00 00 04      	! BUNDLE
	retf	0
	nop	0
	nop	0


0000000000002170 <test_i1_not>:
    2170: 00 00 00 c1 40 10 00 00 02 81 46 00 00 08 04 16      	! BUNDLE
	alloc	2
	xori	%r1, %r1, 1
	andi	%r1, %r1, 1

    2180: 00 00 00 80 40 00 00 00 00 00 01 00 00 00 00 04      	! BUNDLE
	retf	0
	nop	0
	nop	0


0000000000002190 <test_i1_andn>:
    2190: 00 00 80 c1 40 10 00 00 02 81 06 06 20 08 04 00      	! BUNDLE
	alloc	3
	xori	%r1, %r1, 1
	and	%r1, %r1, %r2

    21a0: 04 00 80 40 60 01 00 00 00 02 01 00 00 00 00 04      	! BUNDLE
	andi	%r1, %r1, 1
	retf	0
	nop	0


00000000000021b0 <test_i1_orn>:
    21b0: 00 00 80 c1 40 10 00 00 02 81 46 06 20 08 04 00      	! BUNDLE
	alloc	3
	xori	%r1, %r1, 1
	or	%r1, %r1, %r2

    21c0: 04 00 80 40 60 01 00 00 00 02 01 00 00 00 00 04      	! BUNDLE
	andi	%r1, %r1, 1
	retf	0
	nop	0


00000000000021d0 <test_i1_nand>:
    21d0: 00 00 80 c1 40 80 01 08 02 01 40 00 00 08 04 1a      	! BUNDLE
	alloc	3
	and	%r1, %r1, %r2
	xori	%r1, %r1, 1

    21e0: 04 00 80 40 60 01 00 00 00 02 01 00 00 00 00 04      	! BUNDLE
	andi	%r1, %r1, 1
	retf	0
	nop	0


00000000000021f0 <test_i1_to_i32>:
    21f0: 00 00 00 c1 40 10 00 00 02 81 05 00 00 00 08 04      	! BUNDLE
	alloc	2
	andi	%r1, %r1, 1
	retf	0


0000000000002200 <test_i1_to_i64>:
    2200: 00 00 00 c1 40 10 00 00 02 81 05 00 00 00 08 04      	! BUNDLE
	alloc	2
	andi	%r1, %r1, 1
	retf	0


0000000000002210 <test_i1_inv>:
    2210: 00 00 00 c1 40 10 00 00 00 01 04 00 00 00 08 04      	! BUNDLE
	alloc	2
	ldi	%r1, 1
	retf	0


0000000000002220 <test_imm_to_i1>:
    2220: 00 00 00 c1 40 10 00 00 00 01 04 00 00 00 08 04      	! BUNDLE
	alloc	2
	ldi	%r1, 1
	retf	0


0000000000002230 <test_write_i1>:
    2230: 00 00 00 c1 40 10 00 00 00 01 04 00 00 00 04 c4      	! BUNDLE
	alloc	2
	ldi	%r1, 1
	stbr	%r1, 0

		0000000000002230:  R_POSTRISC_C_PCREL_FWD	test_bool_true
    2240: 00 00 00 c0 5f 0c 00 00 00 01 31 00 00 00 fc c5      	! BUNDLE
	stbr	%gz, 0
	stbr	%r1, 0
	stbr	%gz, 0

		0000000000002240:  R_POSTRISC_A_PCREL_FWD	test_bool_false
		0000000000002240:  R_POSTRISC_B_PCREL_FWD	test_i8_true
		0000000000002240:  R_POSTRISC_C_PCREL_FWD	test_i8_false
    2250: 00 00 00 40 a0 0c 00 00 00 ff 32 00 00 00 04 d0      	! BUNDLE
	sthr	%r1, 0
	sthr	%gz, 0
	stwr	%r1, 0

		0000000000002250:  R_POSTRISC_A_PCREL_FWD	test_i16_true
		0000000000002250:  R_POSTRISC_B_PCREL_FWD	test_i16_false
		0000000000002250:  R_POSTRISC_C_PCREL_FWD	test_i32_true
    2260: 00 00 00 c0 1f 0d 00 00 00 81 35 00 00 00 fc d7      	! BUNDLE
	stwr	%gz, 0
	stdr	%r1, 0
	stdr	%gz, 0

		0000000000002260:  R_POSTRISC_A_PCREL_FWD	test_i32_false
		0000000000002260:  R_POSTRISC_B_PCREL_FWD	test_i64_true
		0000000000002260:  R_POSTRISC_C_PCREL_FWD	test_i64_false
    2270: 00 00 00 80 40 00 00 00 00 00 01 00 00 00 00 04      	! BUNDLE
	retf	0
	nop	0
	nop	0


0000000000002280 <test_branch_i64_eqi>:
    2280: 00 00 00 c2 40 10 17 00 2c 81 00 00 00 00 0c 72      	! BUNDLE
	alloc	4
	nuldnei	%r1, 22, 2, 0
	ldafr	%r3, 0

		0000000000002280:  R_POSTRISC_C_PCREL_FWD	.Lstr.68
    2290: fc ff ff bf 00 07 00 00 00 02 01 00 00 00 00 04      	! BUNDLE
	callr	%r2, -16
	retf	0
	nop	0

		0000000000002290:  R_POSTRISC_A_JUMP	puts

00000000000022a0 <test_branch_i64_nei>:
    22a0: 00 00 00 c2 40 00 17 00 2c 81 00 00 00 00 0c 72      	! BUNDLE
	alloc	4
	nuldeqi	%r1, 22, 2, 0
	ldafr	%r3, 0

		00000000000022a0:  R_POSTRISC_C_PCREL_FWD	.Lstr.68
    22b0: fc ff ff bf 00 07 00 00 00 02 01 00 00 00 00 04      	! BUNDLE
	callr	%r2, -16
	retf	0
	nop	0

		00000000000022b0:  R_POSTRISC_A_JUMP	puts

00000000000022c0 <test_branch_i64_lti>:
    22c0: 00 00 00 c2 40 20 07 02 2c 81 00 00 00 00 0c 72      	! BUNDLE
	alloc	4
	nuldlti	%r1, 22, 0, 2
	ldafr	%r3, 0

		00000000000022c0:  R_POSTRISC_C_PCREL_FWD	.Lstr.68
    22d0: fc ff ff bf 00 07 00 00 00 02 01 00 00 00 00 04      	! BUNDLE
	callr	%r2, -16
	retf	0
	nop	0

		00000000000022d0:  R_POSTRISC_A_JUMP	puts

00000000000022e0 <test_branch_i64_lei>:
    22e0: 00 00 00 c2 40 20 07 02 2e 81 00 00 00 00 0c 72      	! BUNDLE
	alloc	4
	nuldlti	%r1, 23, 0, 2
	ldafr	%r3, 0

		00000000000022e0:  R_POSTRISC_C_PCREL_FWD	.Lstr.68
    22f0: fc ff ff bf 00 07 00 00 00 02 01 00 00 00 00 04      	! BUNDLE
	callr	%r2, -16
	retf	0
	nop	0

		00000000000022f0:  R_POSTRISC_A_JUMP	puts

0000000000002300 <test_branch_i64_gti>:
    2300: 00 00 00 c2 40 20 17 00 2e 81 00 00 00 00 0c 72      	! BUNDLE
	alloc	4
	nuldlti	%r1, 23, 2, 0
	ldafr	%r3, 0

		0000000000002300:  R_POSTRISC_C_PCREL_FWD	.Lstr.68
    2310: fc ff ff bf 00 07 00 00 00 02 01 00 00 00 00 04      	! BUNDLE
	callr	%r2, -16
	retf	0
	nop	0

		0000000000002310:  R_POSTRISC_A_JUMP	puts

0000000000002320 <test_branch_i64_gei>:
    2320: 00 00 00 c2 40 20 17 00 2c 81 00 00 00 00 0c 72      	! BUNDLE
	alloc	4
	nuldlti	%r1, 22, 2, 0
	ldafr	%r3, 0

		0000000000002320:  R_POSTRISC_C_PCREL_FWD	.Lstr.68
    2330: fc ff ff bf 00 07 00 00 00 02 01 00 00 00 00 04      	! BUNDLE
	callr	%r2, -16
	retf	0
	nop	0

		0000000000002330:  R_POSTRISC_A_JUMP	puts

0000000000002340 <test_branch_ext_i64_eqi>:
    2340: 01 00 00 c2 40 10 17 c0 29 81 00 00 60 bc 00 00      	! BUNDLE
	alloc	4
	nuldnei.l	%r1, 12345678, 2, 0

    2350: 00 00 00 c0 20 f7 ff ff ff 02 1c 00 00 00 08 04      	! BUNDLE
	ldafr	%r3, 0
	callr	%r2, -16
	retf	0

		0000000000002350:  R_POSTRISC_A_PCREL_FWD	.Lstr.68
		0000000000002350:  R_POSTRISC_B_JUMP	puts

0000000000002360 <test_branch_ext_i64_nei>:
    2360: 01 00 00 c2 40 00 17 c0 29 81 00 00 60 bc 00 00      	! BUNDLE
	alloc	4
	nuldeqi.l	%r1, 12345678, 2, 0

    2370: 00 00 00 c0 20 f7 ff ff ff 02 1c 00 00 00 08 04      	! BUNDLE
	ldafr	%r3, 0
	callr	%r2, -16
	retf	0

		0000000000002370:  R_POSTRISC_A_PCREL_FWD	.Lstr.68
		0000000000002370:  R_POSTRISC_B_JUMP	puts

0000000000002380 <test_branch_ext_i64_lti>:
    2380: 01 00 00 c2 40 20 07 c2 29 81 00 00 60 bc 00 00      	! BUNDLE
	alloc	4
	nuldlti.l	%r1, 12345678, 0, 2

    2390: 00 00 00 c0 20 f7 ff ff ff 02 1c 00 00 00 08 04      	! BUNDLE
	ldafr	%r3, 0
	callr	%r2, -16
	retf	0

		0000000000002390:  R_POSTRISC_A_PCREL_FWD	.Lstr.68
		0000000000002390:  R_POSTRISC_B_JUMP	puts

00000000000023a0 <test_branch_ext_i64_lei>:
    23a0: 01 00 00 c2 40 20 07 e2 29 81 00 00 60 bc 00 00      	! BUNDLE
	alloc	4
	nuldlti.l	%r1, 12345679, 0, 2

    23b0: 00 00 00 c0 20 f7 ff ff ff 02 1c 00 00 00 08 04      	! BUNDLE
	ldafr	%r3, 0
	callr	%r2, -16
	retf	0

		00000000000023b0:  R_POSTRISC_A_PCREL_FWD	.Lstr.68
		00000000000023b0:  R_POSTRISC_B_JUMP	puts

00000000000023c0 <test_branch_ext_i64_gti>:
    23c0: 01 00 00 c2 40 20 17 e0 29 81 00 00 60 bc 00 00      	! BUNDLE
	alloc	4
	nuldlti.l	%r1, 12345679, 2, 0

    23d0: 00 00 00 c0 20 f7 ff ff ff 02 1c 00 00 00 08 04      	! BUNDLE
	ldafr	%r3, 0
	callr	%r2, -16
	retf	0

		00000000000023d0:  R_POSTRISC_A_PCREL_FWD	.Lstr.68
		00000000000023d0:  R_POSTRISC_B_JUMP	puts

00000000000023e0 <test_branch_ext_i64_gei>:
    23e0: 01 00 00 c2 40 20 17 c0 29 81 00 00 60 bc 00 00      	! BUNDLE
	alloc	4
	nuldlti.l	%r1, 12345678, 2, 0

    23f0: 00 00 00 c0 20 f7 ff ff ff 02 1c 00 00 00 08 04      	! BUNDLE
	ldafr	%r3, 0
	callr	%r2, -16
	retf	0

		00000000000023f0:  R_POSTRISC_A_PCREL_FWD	.Lstr.68
		00000000000023f0:  R_POSTRISC_B_JUMP	puts

0000000000002400 <test_branch_i32_eqi>:
    2400: 00 00 00 c2 40 90 16 00 2c 81 00 00 00 00 0c 72      	! BUNDLE
	alloc	4
	nulwnei	%r1, 22, 2, 0
	ldafr	%r3, 0

		0000000000002400:  R_POSTRISC_C_PCREL_FWD	.Lstr.68
    2410: fc ff ff bf 00 07 00 00 00 02 01 00 00 00 00 04      	! BUNDLE
	callr	%r2, -16
	retf	0
	nop	0

		0000000000002410:  R_POSTRISC_A_JUMP	puts

0000000000002420 <test_branch_i32_nei>:
    2420: 00 00 00 c2 40 80 16 00 2c 81 00 00 00 00 0c 72      	! BUNDLE
	alloc	4
	nulweqi	%r1, 22, 2, 0
	ldafr	%r3, 0

		0000000000002420:  R_POSTRISC_C_PCREL_FWD	.Lstr.68
    2430: fc ff ff bf 00 07 00 00 00 02 01 00 00 00 00 04      	! BUNDLE
	callr	%r2, -16
	retf	0
	nop	0

		0000000000002430:  R_POSTRISC_A_JUMP	puts

0000000000002440 <test_branch_i32_lti>:
    2440: 00 00 00 c2 40 a0 06 02 2c 81 00 00 00 00 0c 72      	! BUNDLE
	alloc	4
	nulwlti	%r1, 22, 0, 2
	ldafr	%r3, 0

		0000000000002440:  R_POSTRISC_C_PCREL_FWD	.Lstr.68
    2450: fc ff ff bf 00 07 00 00 00 02 01 00 00 00 00 04      	! BUNDLE
	callr	%r2, -16
	retf	0
	nop	0

		0000000000002450:  R_POSTRISC_A_JUMP	puts

0000000000002460 <test_branch_i32_lei>:
    2460: 00 00 00 c2 40 a0 06 02 2e 81 00 00 00 00 0c 72      	! BUNDLE
	alloc	4
	nulwlti	%r1, 23, 0, 2
	ldafr	%r3, 0

		0000000000002460:  R_POSTRISC_C_PCREL_FWD	.Lstr.68
    2470: fc ff ff bf 00 07 00 00 00 02 01 00 00 00 00 04      	! BUNDLE
	callr	%r2, -16
	retf	0
	nop	0

		0000000000002470:  R_POSTRISC_A_JUMP	puts

0000000000002480 <test_branch_i32_gti>:
    2480: 00 00 00 c2 40 a0 16 00 2e 81 00 00 00 00 0c 72      	! BUNDLE
	alloc	4
	nulwlti	%r1, 23, 2, 0
	ldafr	%r3, 0

		0000000000002480:  R_POSTRISC_C_PCREL_FWD	.Lstr.68
    2490: fc ff ff bf 00 07 00 00 00 02 01 00 00 00 00 04      	! BUNDLE
	callr	%r2, -16
	retf	0
	nop	0

		0000000000002490:  R_POSTRISC_A_JUMP	puts

00000000000024a0 <test_branch_i32_gei>:
    24a0: 00 00 00 c2 40 a0 16 00 2c 81 00 00 00 00 0c 72      	! BUNDLE
	alloc	4
	nulwlti	%r1, 22, 2, 0
	ldafr	%r3, 0

		00000000000024a0:  R_POSTRISC_C_PCREL_FWD	.Lstr.68
    24b0: fc ff ff bf 00 07 00 00 00 02 01 00 00 00 00 04      	! BUNDLE
	callr	%r2, -16
	retf	0
	nop	0

		00000000000024b0:  R_POSTRISC_A_JUMP	puts

00000000000024c0 <test_branch_ext_i32_eqi>:
    24c0: 01 00 00 c2 40 90 16 c0 29 81 00 00 60 bc 00 00      	! BUNDLE
	alloc	4
	nulwnei.l	%r1, 12345678, 2, 0

    24d0: 00 00 00 c0 20 f7 ff ff ff 02 1c 00 00 00 08 04      	! BUNDLE
	ldafr	%r3, 0
	callr	%r2, -16
	retf	0

		00000000000024d0:  R_POSTRISC_A_PCREL_FWD	.Lstr.68
		00000000000024d0:  R_POSTRISC_B_JUMP	puts

00000000000024e0 <test_branch_ext_i32_nei>:
    24e0: 01 00 00 c2 40 80 16 c0 29 81 00 00 60 bc 00 00      	! BUNDLE
	alloc	4
	nulweqi.l	%r1, 12345678, 2, 0

    24f0: 00 00 00 c0 20 f7 ff ff ff 02 1c 00 00 00 08 04      	! BUNDLE
	ldafr	%r3, 0
	callr	%r2, -16
	retf	0

		00000000000024f0:  R_POSTRISC_A_PCREL_FWD	.Lstr.68
		00000000000024f0:  R_POSTRISC_B_JUMP	puts

0000000000002500 <test_branch_ext_i32_lti>:
    2500: 01 00 00 c2 40 a0 06 c2 29 81 00 00 60 bc 00 00      	! BUNDLE
	alloc	4
	nulwlti.l	%r1, 12345678, 0, 2

    2510: 00 00 00 c0 20 f7 ff ff ff 02 1c 00 00 00 08 04      	! BUNDLE
	ldafr	%r3, 0
	callr	%r2, -16
	retf	0

		0000000000002510:  R_POSTRISC_A_PCREL_FWD	.Lstr.68
		0000000000002510:  R_POSTRISC_B_JUMP	puts

0000000000002520 <test_branch_ext_i32_lei>:
    2520: 01 00 00 c2 40 a0 06 e2 29 81 00 00 60 bc 00 00      	! BUNDLE
	alloc	4
	nulwlti.l	%r1, 12345679, 0, 2

    2530: 00 00 00 c0 20 f7 ff ff ff 02 1c 00 00 00 08 04      	! BUNDLE
	ldafr	%r3, 0
	callr	%r2, -16
	retf	0

		0000000000002530:  R_POSTRISC_A_PCREL_FWD	.Lstr.68
		0000000000002530:  R_POSTRISC_B_JUMP	puts

0000000000002540 <test_branch_ext_i32_gti>:
    2540: 01 00 00 c2 40 a0 16 e0 29 81 00 00 60 bc 00 00      	! BUNDLE
	alloc	4
	nulwlti.l	%r1, 12345679, 2, 0

    2550: 00 00 00 c0 20 f7 ff ff ff 02 1c 00 00 00 08 04      	! BUNDLE
	ldafr	%r3, 0
	callr	%r2, -16
	retf	0

		0000000000002550:  R_POSTRISC_A_PCREL_FWD	.Lstr.68
		0000000000002550:  R_POSTRISC_B_JUMP	puts

0000000000002560 <test_branch_ext_i32_gei>:
    2560: 01 00 00 c2 40 a0 16 c0 29 81 00 00 60 bc 00 00      	! BUNDLE
	alloc	4
	nulwlti.l	%r1, 12345678, 2, 0

    2570: 00 00 00 c0 20 f7 ff ff ff 02 1c 00 00 00 08 04      	! BUNDLE
	ldafr	%r3, 0
	callr	%r2, -16
	retf	0

		0000000000002570:  R_POSTRISC_A_PCREL_FWD	.Lstr.68
		0000000000002570:  R_POSTRISC_B_JUMP	puts

0000000000002580 <test_bit_1>:
    2580: 40 00 80 02 41 80 22 c0 05 81 00 02 00 f0 0b 96      	! BUNDLE
	allocsp	5, 16
	nulbs	%r1, %r2, 4, 0
	std	%r2, %sp, 8

    2590: 00 00 00 00 21 07 00 00 fc 81 e5 ff ff ff 0f 70      	! BUNDLE
	ldafr	%r4, 0
	std	%r1, %sp, 0
	callr	%r3, -16

		0000000000002590:  R_POSTRISC_A_PCREL_FWD	.L.str.1
		0000000000002590:  R_POSTRISC_C_JUMP	printf
    25a0: 40 00 00 80 40 00 00 00 00 00 01 00 00 00 00 04      	! BUNDLE
	retf	16
	nop	0
	nop	0


00000000000025b0 <test_bit_2>:
    25b0: 40 00 80 02 41 80 22 80 05 81 00 02 00 f0 0b 96      	! BUNDLE
	allocsp	5, 16
	nulbc	%r1, %r2, 4, 0
	std	%r2, %sp, 8

    25c0: 00 00 00 00 21 07 00 00 fc 81 e5 ff ff ff 0f 70      	! BUNDLE
	ldafr	%r4, 0
	std	%r1, %sp, 0
	callr	%r3, -16

		00000000000025c0:  R_POSTRISC_A_PCREL_FWD	.L.str.2
		00000000000025c0:  R_POSTRISC_C_JUMP	printf
    25d0: 40 00 00 80 40 00 00 00 00 00 01 00 00 00 00 04      	! BUNDLE
	retf	16
	nop	0
	nop	0


00000000000025e0 <test_bit_3>:
    25e0: 40 00 80 02 41 80 22 c0 05 81 00 02 00 f0 0b 96      	! BUNDLE
	allocsp	5, 16
	nulbs	%r1, %r2, 4, 0
	std	%r2, %sp, 8

    25f0: 00 00 00 00 21 07 00 00 fc 81 e5 ff ff ff 0f 70      	! BUNDLE
	ldafr	%r4, 0
	std	%r1, %sp, 0
	callr	%r3, -16

		00000000000025f0:  R_POSTRISC_A_PCREL_FWD	.L.str.3
		00000000000025f0:  R_POSTRISC_C_JUMP	printf
    2600: 40 00 00 80 40 00 00 00 00 00 01 00 00 00 00 04      	! BUNDLE
	retf	16
	nop	0
	nop	0


0000000000002610 <test_bit_4>:
    2610: 40 00 80 02 41 80 22 a0 1f 81 00 02 00 f0 0b 96      	! BUNDLE
	allocsp	5, 16
	nulbci	%r1, 15, 4, 0
	std	%r2, %sp, 8

    2620: 00 00 00 00 21 07 00 00 fc 81 e5 ff ff ff 0f 70      	! BUNDLE
	ldafr	%r4, 0
	std	%r1, %sp, 0
	callr	%r3, -16

		0000000000002620:  R_POSTRISC_A_PCREL_FWD	.L.str.4
		0000000000002620:  R_POSTRISC_C_JUMP	printf
    2630: 40 00 00 80 40 00 00 00 00 00 01 00 00 00 00 04      	! BUNDLE
	retf	16
	nop	0
	nop	0


0000000000002640 <test_bit_5>:
    2640: 40 00 80 02 41 80 22 e0 1d 81 00 02 00 f0 0b 96      	! BUNDLE
	allocsp	5, 16
	nulbsi	%r1, 14, 4, 0
	std	%r2, %sp, 8

    2650: 00 00 00 00 21 07 00 00 fc 81 e5 ff ff ff 0f 70      	! BUNDLE
	ldafr	%r4, 0
	std	%r1, %sp, 0
	callr	%r3, -16

		0000000000002650:  R_POSTRISC_A_PCREL_FWD	.L.str.5
		0000000000002650:  R_POSTRISC_C_JUMP	printf
    2660: 40 00 00 80 40 00 00 00 00 00 01 00 00 00 00 04      	! BUNDLE
	retf	16
	nop	0
	nop	0


0000000000002670 <test_bit_i32_1>:
    2670: 40 00 80 02 41 80 22 c0 05 81 00 01 00 f0 0b 90      	! BUNDLE
	allocsp	5, 16
	nulbs	%r1, %r2, 4, 0
	stw	%r2, %sp, 4

    2680: 00 00 00 00 21 07 00 00 fc 01 e4 ff ff ff 0f 70      	! BUNDLE
	ldafr	%r4, 0
	stw	%r1, %sp, 0
	callr	%r3, -16

		0000000000002680:  R_POSTRISC_A_PCREL_FWD	.L.str.6
		0000000000002680:  R_POSTRISC_C_JUMP	printf
    2690: 40 00 00 80 40 00 00 00 00 00 01 00 00 00 00 04      	! BUNDLE
	retf	16
	nop	0
	nop	0


00000000000026a0 <test_bit_i32_2>:
    26a0: 40 00 80 02 41 80 22 80 05 81 00 01 00 f0 0b 90      	! BUNDLE
	allocsp	5, 16
	nulbc	%r1, %r2, 4, 0
	stw	%r2, %sp, 4

    26b0: 00 00 00 00 21 07 00 00 fc 01 e4 ff ff ff 0f 70      	! BUNDLE
	ldafr	%r4, 0
	stw	%r1, %sp, 0
	callr	%r3, -16

		00000000000026b0:  R_POSTRISC_A_PCREL_FWD	.L.str.7
		00000000000026b0:  R_POSTRISC_C_JUMP	printf
    26c0: 40 00 00 80 40 00 00 00 00 00 01 00 00 00 00 04      	! BUNDLE
	retf	16
	nop	0
	nop	0


00000000000026d0 <test_bit_i32_3>:
    26d0: 40 00 80 02 41 80 22 c0 05 81 00 01 00 f0 0b 90      	! BUNDLE
	allocsp	5, 16
	nulbs	%r1, %r2, 4, 0
	stw	%r2, %sp, 4

    26e0: 00 00 00 00 21 07 00 00 fc 01 e4 ff ff ff 0f 70      	! BUNDLE
	ldafr	%r4, 0
	stw	%r1, %sp, 0
	callr	%r3, -16

		00000000000026e0:  R_POSTRISC_A_PCREL_FWD	.L.str.8
		00000000000026e0:  R_POSTRISC_C_JUMP	printf
    26f0: 40 00 00 80 40 00 00 00 00 00 01 00 00 00 00 04      	! BUNDLE
	retf	16
	nop	0
	nop	0


0000000000002700 <test_bit_i32_4>:
    2700: 40 00 80 02 41 80 22 a0 1f 81 00 01 00 f0 0b 90      	! BUNDLE
	allocsp	5, 16
	nulbci	%r1, 15, 4, 0
	stw	%r2, %sp, 4

    2710: 00 00 00 00 21 07 00 00 fc 01 e4 ff ff ff 0f 70      	! BUNDLE
	ldafr	%r4, 0
	stw	%r1, %sp, 0
	callr	%r3, -16

		0000000000002710:  R_POSTRISC_A_PCREL_FWD	.L.str.9
		0000000000002710:  R_POSTRISC_C_JUMP	printf
    2720: 40 00 00 80 40 00 00 00 00 00 01 00 00 00 00 04      	! BUNDLE
	retf	16
	nop	0
	nop	0


0000000000002730 <test_bit_i32_5>:
    2730: 40 00 80 02 41 80 22 e0 1d 81 00 01 00 f0 0b 90      	! BUNDLE
	allocsp	5, 16
	nulbsi	%r1, 14, 4, 0
	stw	%r2, %sp, 4

    2740: 00 00 00 00 21 07 00 00 fc 01 e4 ff ff ff 0f 70      	! BUNDLE
	ldafr	%r4, 0
	stw	%r1, %sp, 0
	callr	%r3, -16

		0000000000002740:  R_POSTRISC_A_PCREL_FWD	.L.str.10
		0000000000002740:  R_POSTRISC_C_JUMP	printf
    2750: 40 00 00 80 40 00 00 00 00 00 01 00 00 00 00 04      	! BUNDLE
	retf	16
	nop	0
	nop	0


0000000000002760 <test_ball>:
    2760: 40 00 80 02 41 10 00 00 02 02 00 8b 00 80 06 02      	! BUNDLE
	allocsp	5, 16
	mov	%r2, %r1
	nulmall	%r1, 80, 4, 0

    2770: 40 1f 00 41 00 02 00 00 00 84 1c 00 00 f0 07 96      	! BUNDLE
	addi	%r1, %r2, 2000
	ldafr	%r4, 0
	std	%r1, %sp, 0

		0000000000002770:  R_POSTRISC_B_PCREL_FWD	.L.str.11
    2780: fc ff ff ff 00 d7 22 00 00 82 00 e2 04 08 04 20      	! BUNDLE
	callr	%r3, -16
	nulmnotall	%r2, 0, 4, 0
	addi	%r1, %r1, 5000

		0000000000002780:  R_POSTRISC_A_JUMP	printf
    2790: 00 00 00 00 21 07 00 00 fc 81 e5 ff ff ff 0f 70      	! BUNDLE
	ldafr	%r4, 0
	std	%r1, %sp, 0
	callr	%r3, -16

		0000000000002790:  R_POSTRISC_A_PCREL_FWD	.L.str.11
		0000000000002790:  R_POSTRISC_C_JUMP	printf
    27a0: b8 08 00 80 20 80 bb 00 02 01 08 00 00 00 10 72      	! BUNDLE
	nulmnone	%r2, 0, 4, 0
	addi	%r1, %r1, 3000
	ldafr	%r4, 0

		00000000000027a0:  R_POSTRISC_C_PCREL_FWD	.L.str.11
    27b0: 00 00 00 7f 60 f9 ff ff ff 03 dc 8b 00 00 0a 02      	! BUNDLE
	std	%r1, %sp, 0
	callr	%r3, -16
	nulmany	%r2, 64, 4, 0

		00000000000027b0:  R_POSTRISC_B_JUMP	printf
    27c0: 80 3e 80 40 00 02 00 00 00 84 1c 00 00 f0 07 96      	! BUNDLE
	addi	%r1, %r1, 4000
	ldafr	%r4, 0
	std	%r1, %sp, 0

		00000000000027c0:  R_POSTRISC_B_PCREL_FWD	.L.str.11
    27d0: fc ff ff ff 00 07 01 00 00 02 01 00 00 00 00 04      	! BUNDLE
	callr	%r3, -16
	retf	16
	nop	0

		00000000000027d0:  R_POSTRISC_A_JUMP	printf

00000000000027e0 <test_builtin_get_special_reg>:
    27e0: 00 00 80 c1 40 50 10 00 00 02 c0 ff ff ff 07 70      	! BUNDLE
	alloc	3
	mfspr	%r2, %ip
	callr	%r1, -16

		00000000000027e0:  R_POSTRISC_C_JUMP	consume_sr64
    27f0: 14 04 01 80 00 f0 ff ff ff 01 5c 41 20 00 08 00      	! BUNDLE
	mfspr	%r2, %eip
	callr	%r1, -16
	mfspr	%r2, %fpcr

		00000000000027f0:  R_POSTRISC_B_JUMP	consume_sr64
    2800: fc ff ff 7f 00 57 10 0c 00 02 c0 ff ff ff 07 70      	! BUNDLE
	callr	%r1, -16
	mfspr	%r2, %eca
	callr	%r1, -16

		0000000000002800:  R_POSTRISC_A_JUMP	consume_sr64
		0000000000002800:  R_POSTRISC_C_JUMP	consume_sr64
    2810: 14 04 08 80 00 f0 ff ff ff 01 5c 41 90 00 08 00      	! BUNDLE
	mfspr	%r2, %rsc
	callr	%r1, -16
	mfspr	%r2, %rsp

		0000000000002810:  R_POSTRISC_B_JUMP	consume_sr64
    2820: fc ff ff 7f 00 57 10 28 00 02 c0 ff ff ff 07 70      	! BUNDLE
	callr	%r1, -16
	mfspr	%r2, %bsp
	callr	%r1, -16

		0000000000002820:  R_POSTRISC_A_JUMP	consume_sr64
		0000000000002820:  R_POSTRISC_C_JUMP	consume_sr64
    2830: 14 04 11 80 00 f0 ff ff ff 01 5c 41 20 01 08 00      	! BUNDLE
	mfspr	%r2, %reip
	callr	%r1, -16
	mfspr	%r2, %kip

		0000000000002830:  R_POSTRISC_B_JUMP	consume_sr64
    2840: fc ff ff 7f 00 57 10 4c 00 02 c0 ff ff ff 07 70      	! BUNDLE
	callr	%r1, -16
	mfspr	%r2, %ksp
	callr	%r1, -16

		0000000000002840:  R_POSTRISC_A_JUMP	consume_sr64
		0000000000002840:  R_POSTRISC_C_JUMP	consume_sr64
    2850: 14 04 14 80 00 f0 ff ff ff 01 5c 41 50 01 08 00      	! BUNDLE
	mfspr	%r2, %krsp
	callr	%r1, -16
	mfspr	%r2, %peb

		0000000000002850:  R_POSTRISC_B_JUMP	consume_sr64
    2860: fc ff ff 7f 00 57 10 58 00 02 c0 ff ff ff 07 70      	! BUNDLE
	callr	%r1, -16
	mfspr	%r2, %teb
	callr	%r1, -16

		0000000000002860:  R_POSTRISC_A_JUMP	consume_sr64
		0000000000002860:  R_POSTRISC_C_JUMP	consume_sr64
    2870: 14 04 17 80 00 f0 ff ff ff 01 5c 41 80 01 08 00      	! BUNDLE
	mfspr	%r2, %itc
	callr	%r1, -16
	mfspr	%r2, %itm

		0000000000002870:  R_POSTRISC_B_JUMP	consume_sr64
    2880: fc ff ff 7f 00 57 10 64 00 02 c0 ff ff ff 07 70      	! BUNDLE
	callr	%r1, -16
	mfspr	%r2, %pta
	callr	%r1, -16

		0000000000002880:  R_POSTRISC_A_JUMP	consume_sr64
		0000000000002880:  R_POSTRISC_C_JUMP	consume_sr64
    2890: 14 04 1a 80 00 f0 ff ff ff 01 5c 41 80 02 08 00      	! BUNDLE
	mfspr	%r2, %iva
	callr	%r1, -16
	mfspr	%r2, %iip

		0000000000002890:  R_POSTRISC_B_JUMP	consume_sr64
    28a0: fc ff ff 7f 00 57 10 a4 00 02 c0 ff ff ff 07 70      	! BUNDLE
	callr	%r1, -16
	mfspr	%r2, %iipa
	callr	%r1, -16

		00000000000028a0:  R_POSTRISC_A_JUMP	consume_sr64
		00000000000028a0:  R_POSTRISC_C_JUMP	consume_sr64
    28b0: 14 04 2b 80 00 f0 ff ff ff 01 5c 41 c0 02 08 00      	! BUNDLE
	mfspr	%r2, %cause
	callr	%r1, -16
	mfspr	%r2, %ifa

		00000000000028b0:  R_POSTRISC_B_JUMP	consume_sr64
    28c0: fc ff ff 7f 00 57 10 00 01 02 c0 ff ff ff 07 70      	! BUNDLE
	callr	%r1, -16
	mfspr	%r2, %irr0
	callr	%r1, -16

		00000000000028c0:  R_POSTRISC_A_JUMP	consume_sr64
		00000000000028c0:  R_POSTRISC_C_JUMP	consume_sr64
    28d0: 14 04 41 80 00 f0 ff ff ff 01 5c 41 20 04 08 00      	! BUNDLE
	mfspr	%r2, %irr1
	callr	%r1, -16
	mfspr	%r2, %irr2

		00000000000028d0:  R_POSTRISC_B_JUMP	consume_sr64
    28e0: fc ff ff 7f 00 57 10 0c 01 02 c0 ff ff ff 07 70      	! BUNDLE
	callr	%r1, -16
	mfspr	%r2, %irr3
	callr	%r1, -16

		00000000000028e0:  R_POSTRISC_A_JUMP	consume_sr64
		00000000000028e0:  R_POSTRISC_C_JUMP	consume_sr64
    28f0: 14 04 48 80 00 f0 ff ff ff 01 5c 41 90 04 08 00      	! BUNDLE
	mfspr	%r2, %isr0
	callr	%r1, -16
	mfspr	%r2, %isr1

		00000000000028f0:  R_POSTRISC_B_JUMP	consume_sr64
    2900: fc ff ff 7f 00 57 10 28 01 02 c0 ff ff ff 07 70      	! BUNDLE
	callr	%r1, -16
	mfspr	%r2, %isr2
	callr	%r1, -16

		0000000000002900:  R_POSTRISC_A_JUMP	consume_sr64
		0000000000002900:  R_POSTRISC_C_JUMP	consume_sr64
    2910: 14 04 4b 80 00 f0 ff ff ff 01 5c 41 00 05 08 00      	! BUNDLE
	mfspr	%r2, %isr3
	callr	%r1, -16
	mfspr	%r2, %iv

		0000000000002910:  R_POSTRISC_B_JUMP	consume_sr64
    2920: fc ff ff 7f 00 57 10 44 01 02 c0 ff ff ff 07 70      	! BUNDLE
	callr	%r1, -16
	mfspr	%r2, %lid
	callr	%r1, -16

		0000000000002920:  R_POSTRISC_A_JUMP	consume_sr64
		0000000000002920:  R_POSTRISC_C_JUMP	consume_sr64
    2930: 14 04 52 80 00 f0 ff ff ff 01 5c 41 30 05 08 00      	! BUNDLE
	mfspr	%r2, %tpr
	callr	%r1, -16
	mfspr	%r2, %itcv

		0000000000002930:  R_POSTRISC_B_JUMP	consume_sr64
    2940: fc ff ff 7f 00 57 10 50 01 02 c0 ff ff ff 07 70      	! BUNDLE
	callr	%r1, -16
	mfspr	%r2, %tsv
	callr	%r1, -16

		0000000000002940:  R_POSTRISC_A_JUMP	consume_sr64
		0000000000002940:  R_POSTRISC_C_JUMP	consume_sr64
    2950: 14 04 55 80 00 f0 ff ff ff 01 5c 41 60 05 08 00      	! BUNDLE
	mfspr	%r2, %pmv
	callr	%r1, -16
	mfspr	%r2, %cmcv

		0000000000002950:  R_POSTRISC_B_JUMP	consume_sr64
    2960: fc ff ff 7f 00 57 10 b4 00 02 c0 ff ff ff 07 70      	! BUNDLE
	callr	%r1, -16
	mfspr	%r2, %iib
	callr	%r1, -16

		0000000000002960:  R_POSTRISC_A_JUMP	consume_sr64
		0000000000002960:  R_POSTRISC_C_JUMP	consume_sr128
    2970: 14 04 10 80 00 f0 ff ff ff 01 5c 41 a0 02 08 00      	! BUNDLE
	mfspr	%r2, %psr
	callr	%r1, -16
	mfspr	%r2, %ipsr

		0000000000002970:  R_POSTRISC_B_JUMP	consume_sr64
    2980: fc ff ff 7f 00 07 00 00 00 02 01 00 00 00 00 04      	! BUNDLE
	callr	%r1, -16
	retf	0
	nop	0

		0000000000002980:  R_POSTRISC_A_JUMP	consume_sr64

0000000000002990 <test_builtin_set_special_reg>:
    2990: 00 00 80 c1 40 60 10 00 00 01 80 41 10 00 04 00      	! BUNDLE
	alloc	3
	mtspr	%r1, %ip
	mtspr	%r1, %eip

    29a0: 18 04 02 40 00 60 10 0c 00 01 80 41 80 00 04 00      	! BUNDLE
	mtspr	%r1, %fpcr
	mtspr	%r1, %eca
	mtspr	%r1, %rsc

    29b0: 18 04 09 40 00 60 10 28 00 01 80 41 10 01 04 00      	! BUNDLE
	mtspr	%r1, %rsp
	mtspr	%r1, %bsp
	mtspr	%r1, %reip

    29c0: 18 04 12 40 00 60 10 4c 00 01 80 41 40 01 04 00      	! BUNDLE
	mtspr	%r1, %kip
	mtspr	%r1, %ksp
	mtspr	%r1, %krsp

    29d0: 18 04 15 40 00 60 10 58 00 01 80 41 70 01 04 00      	! BUNDLE
	mtspr	%r1, %peb
	mtspr	%r1, %teb
	mtspr	%r1, %itc

    29e0: 18 04 18 40 00 60 10 64 00 01 80 41 a0 01 04 00      	! BUNDLE
	mtspr	%r1, %itm
	mtspr	%r1, %pta
	mtspr	%r1, %iva

    29f0: 18 04 28 40 00 60 10 a4 00 01 80 41 b0 02 04 00      	! BUNDLE
	mtspr	%r1, %iip
	mtspr	%r1, %iipa
	mtspr	%r1, %cause

    2a00: 18 04 2c 40 00 60 10 00 01 01 80 41 10 04 04 00      	! BUNDLE
	mtspr	%r1, %ifa
	mtspr	%r1, %irr0
	mtspr	%r1, %irr1

    2a10: 18 04 42 40 00 60 10 0c 01 01 80 41 80 04 04 00      	! BUNDLE
	mtspr	%r1, %irr2
	mtspr	%r1, %irr3
	mtspr	%r1, %isr0

    2a20: 18 04 49 40 00 60 10 28 01 01 80 41 b0 04 04 00      	! BUNDLE
	mtspr	%r1, %isr1
	mtspr	%r1, %isr2
	mtspr	%r1, %isr3

    2a30: 18 04 50 40 00 60 10 44 01 01 80 41 20 05 04 00      	! BUNDLE
	mtspr	%r1, %iv
	mtspr	%r1, %lid
	mtspr	%r1, %tpr

    2a40: 18 04 53 40 00 60 10 50 01 01 80 41 50 05 04 00      	! BUNDLE
	mtspr	%r1, %itcv
	mtspr	%r1, %tsv
	mtspr	%r1, %pmv

    2a50: 18 04 56 40 00 60 10 40 00 01 80 41 d0 02 08 00      	! BUNDLE
	mtspr	%r1, %cmcv
	mtspr	%r1, %psr
	mtspr	%r2, %iib

    2a60: 18 04 2a 40 00 00 00 00 00 02 01 00 00 00 00 04      	! BUNDLE
	mtspr	%r1, %ipsr
	retf	0
	nop	0


0000000000002a70 <test_i128_load_store>:
    2a70: 00 00 80 c1 40 00 01 00 02 02 26 00 00 08 08 9a      	! BUNDLE
	alloc	3
	ldq	%r2, %r1, 16
	stq	%r2, %r1, 0

    2a80: c0 00 80 40 80 09 00 00 00 02 01 00 00 00 00 04      	! BUNDLE
	ldq	%r1, %r1, 48
	retf	0
	nop	0


0000000000002a90 <test_builtin_va>:
    2a90: 40 00 80 03 41 00 01 00 fc 02 08 01 00 10 08 18      	! BUNDLE
	allocsp	7, 16
	addi	%r2, %sp, 16
	ori	%r2, %r2, 4

    2aa0: 20 00 00 bf 60 09 01 00 fc 02 63 00 00 08 14 00      	! BUNDLE
	std	%r2, %sp, 8
	ldwz	%r2, %sp, 16
	mov	%r5, %r1

    2ab0: 04 00 00 81 01 f0 ff ff ff 04 1c 02 00 f0 07 92      	! BUNDLE
	mov	%r6, %r2
	callr	%r4, -16
	lddz	%r1, %sp, 8

		0000000000002ab0:  R_POSTRISC_B_JUMP	test_builtin_va_consume_i32
    2ac0: 7c 06 80 40 20 80 00 00 02 03 08 02 00 f0 0f 96      	! BUNDLE
	algnup	%r1, %r1, 0, 3
	addi	%r3, %r1, 8
	std	%r3, %sp, 8

    2ad0: 00 00 80 80 21 f9 ff ff ff 05 1c 02 00 f0 07 92      	! BUNDLE
	lddz	%r6, %r1, 0
	callr	%r5, -16
	lddz	%r1, %sp, 8

		0000000000002ad0:  R_POSTRISC_B_JUMP	test_builtin_va_consume_f64
    2ae0: 7c 08 80 40 20 00 01 00 02 03 08 02 00 f0 0f 96      	! BUNDLE
	algnup	%r1, %r1, 0, 4
	addi	%r3, %r1, 16
	std	%r3, %sp, 8

    2af0: 00 00 80 80 81 f9 ff ff ff 05 5c 00 00 10 04 00      	! BUNDLE
	ldq	%r6, %r1, 0
	callr	%r5, -16
	mov	%r1, %r2

		0000000000002af0:  R_POSTRISC_B_JUMP	test_builtin_va_consume_f128
    2b00: 40 00 00 80 40 00 00 00 00 00 01 00 00 00 00 04      	! BUNDLE
	retf	16
	nop	0
	nop	0


0000000000002b10 <test_test_builtin_va>:
    2b10: 40 04 00 03 41 00 10 00 fc 83 26 3c 00 f0 07 90      	! BUNDLE
	allocsp	6, 272
	stq	%r3, %sp, 256
	stw	%r1, %sp, 240

    2b20: a0 03 00 bf 60 09 0e 00 fc 01 24 34 00 f0 0f 9a      	! BUNDLE
	std	%r2, %sp, 232
	stw	%r1, %sp, 224
	stq	%r3, %sp, 208

    2b30: 20 03 00 bf 60 09 0c 00 fc 01 24 2c 00 f0 0f 9a      	! BUNDLE
	std	%r2, %sp, 200
	stw	%r1, %sp, 192
	stq	%r3, %sp, 176

    2b40: a0 02 00 bf 60 09 0a 00 fc 01 24 24 00 f0 0f 9a      	! BUNDLE
	std	%r2, %sp, 168
	stw	%r1, %sp, 160
	stq	%r3, %sp, 144

    2b50: 20 02 00 bf 60 09 08 00 fc 01 24 1c 00 f0 0f 9a      	! BUNDLE
	std	%r2, %sp, 136
	stw	%r1, %sp, 128
	stq	%r3, %sp, 112

    2b60: a0 01 00 bf 60 09 06 00 fc 01 24 14 00 f0 0f 9a      	! BUNDLE
	std	%r2, %sp, 104
	stw	%r1, %sp, 96
	stq	%r3, %sp, 80

    2b70: 20 01 00 bf 60 09 04 00 fc 01 24 0c 00 f0 0f 9a      	! BUNDLE
	std	%r2, %sp, 72
	stw	%r1, %sp, 64
	stq	%r3, %sp, 48

    2b80: a0 00 00 bf 60 09 02 00 fc 01 24 04 00 f0 0f 9a      	! BUNDLE
	std	%r2, %sp, 40
	stw	%r1, %sp, 32
	stq	%r3, %sp, 16

    2b90: 20 00 00 bf 60 09 00 00 00 85 1c 00 00 f0 07 90      	! BUNDLE
	std	%r2, %sp, 8
	ldafr	%r5, 0
	stw	%r1, %sp, 0

		0000000000002b90:  R_POSTRISC_B_PCREL_FWD	.L.str.12
    2ba0: fc ff ff 3f 01 17 00 00 0a 01 00 44 00 00 08 04      	! BUNDLE
	callr	%r4, -16
	mov	%r1, %r5
	retf	272

		0000000000002ba0:  R_POSTRISC_A_JUMP	test_builtin_va

0000000000002bb0 <test_builtin_vector_i8>:
    2bb0: 00 00 80 c1 40 80 50 08 02 02 80 41 11 10 08 00      	! BUNDLE
	alloc	3
	vaddcb	%r2, %r1, %r2
	vaddob	%r2, %r2, %r1

    2bc0: 2c 14 01 81 00 a0 50 04 04 02 00 41 11 10 08 00      	! BUNDLE
	vaddssb	%r2, %r2, %r1
	vaddusb	%r2, %r2, %r1
	vaddub	%r2, %r2, %r1

    2bd0: 3c 14 01 81 00 e0 50 04 04 02 00 44 11 10 08 00      	! BUNDLE
	vavgub	%r2, %r2, %r1
	vavgsb	%r2, %r2, %r1
	vcmpeqb	%r2, %r2, %r1

    2be0: 44 14 01 81 00 20 51 04 04 02 00 40 11 10 08 00      	! BUNDLE
	vcmpltb	%r2, %r2, %r1
	vcmpltub	%r2, %r2, %r1
	vmaxsb	%r2, %r2, %r1

    2bf0: 04 14 01 81 00 20 50 04 04 02 c0 40 11 10 08 00      	! BUNDLE
	vmaxub	%r2, %r2, %r1
	vminsb	%r2, %r2, %r1
	vminub	%r2, %r2, %r1

    2c00: 64 14 01 81 00 a0 51 04 04 02 c0 44 11 10 08 00      	! BUNDLE
	vrolb	%r2, %r2, %r1
	vrorb	%r2, %r2, %r1
	vsllb	%r2, %r2, %r1

    2c10: 5c 14 01 81 00 50 51 04 04 02 40 42 11 10 08 00      	! BUNDLE
	vsrab	%r2, %r2, %r1
	vsrlb	%r2, %r2, %r1
	vsubbb	%r2, %r2, %r1

    2c20: 1c 14 01 81 00 50 50 04 04 02 00 43 11 10 08 00      	! BUNDLE
	vsubob	%r2, %r2, %r1
	vsubub	%r2, %r2, %r1
	vsubssb	%r2, %r2, %r1

    2c30: 34 14 01 41 00 00 00 00 00 02 01 00 00 00 00 04      	! BUNDLE
	vsubusb	%r1, %r2, %r1
	retf	0
	nop	0


0000000000002c40 <test_builtin_vector_i16>:
    2c40: 00 00 80 c1 40 80 58 08 02 02 80 61 11 10 08 00      	! BUNDLE
	alloc	3
	vaddch	%r2, %r1, %r2
	vaddoh	%r2, %r2, %r1

    2c50: 2c 16 01 81 00 a0 58 04 04 02 00 61 11 10 08 00      	! BUNDLE
	vaddssh	%r2, %r2, %r1
	vaddush	%r2, %r2, %r1
	vadduh	%r2, %r2, %r1

    2c60: 3c 16 01 81 00 e0 58 04 04 02 00 64 11 10 08 00      	! BUNDLE
	vavguh	%r2, %r2, %r1
	vavgsh	%r2, %r2, %r1
	vcmpeqh	%r2, %r2, %r1

    2c70: 44 16 01 81 00 20 59 04 04 02 00 60 11 10 08 00      	! BUNDLE
	vcmplth	%r2, %r2, %r1
	vcmpltuh	%r2, %r2, %r1
	vmaxsh	%r2, %r2, %r1

    2c80: 04 16 01 81 00 20 58 04 04 02 c0 60 11 10 08 00      	! BUNDLE
	vmaxuh	%r2, %r2, %r1
	vminsh	%r2, %r2, %r1
	vminuh	%r2, %r2, %r1

    2c90: 64 16 01 81 00 a0 59 04 04 02 c0 64 11 10 08 00      	! BUNDLE
	vrolh	%r2, %r2, %r1
	vrorh	%r2, %r2, %r1
	vsllh	%r2, %r2, %r1

    2ca0: 5c 16 01 81 00 50 59 04 04 02 40 62 11 10 08 00      	! BUNDLE
	vsrah	%r2, %r2, %r1
	vsrlh	%r2, %r2, %r1
	vsubbh	%r2, %r2, %r1

    2cb0: 1c 16 01 81 00 50 58 04 04 02 00 63 11 10 08 00      	! BUNDLE
	vsuboh	%r2, %r2, %r1
	vsubuh	%r2, %r2, %r1
	vsubssh	%r2, %r2, %r1

    2cc0: 34 16 01 41 00 00 00 00 00 02 01 00 00 00 00 04      	! BUNDLE
	vsubush	%r1, %r2, %r1
	retf	0
	nop	0


0000000000002cd0 <test_builtin_vector_i32>:
    2cd0: 00 00 80 c1 40 80 60 08 02 02 80 81 11 10 08 00      	! BUNDLE
	alloc	3
	vaddcw	%r2, %r1, %r2
	vaddow	%r2, %r2, %r1

    2ce0: 2c 18 01 81 00 a0 60 04 04 02 00 81 11 10 08 00      	! BUNDLE
	vaddssw	%r2, %r2, %r1
	vaddusw	%r2, %r2, %r1
	vadduw	%r2, %r2, %r1

    2cf0: 3c 18 01 81 00 e0 60 04 04 02 00 84 11 10 08 00      	! BUNDLE
	vavguw	%r2, %r2, %r1
	vavgsw	%r2, %r2, %r1
	vcmpeqw	%r2, %r2, %r1

    2d00: 44 18 01 81 00 20 61 04 04 02 00 80 11 10 08 00      	! BUNDLE
	vcmpltw	%r2, %r2, %r1
	vcmpltuw	%r2, %r2, %r1
	vmaxsw	%r2, %r2, %r1

    2d10: 04 18 01 81 00 20 60 04 04 02 c0 80 11 10 08 00      	! BUNDLE
	vmaxuw	%r2, %r2, %r1
	vminsw	%r2, %r2, %r1
	vminuw	%r2, %r2, %r1

    2d20: 64 18 01 81 00 a0 61 04 04 02 c0 84 11 10 08 00      	! BUNDLE
	vrolw	%r2, %r2, %r1
	vrorw	%r2, %r2, %r1
	vsllw	%r2, %r2, %r1

    2d30: 5c 18 01 81 00 50 61 04 04 02 40 82 11 10 08 00      	! BUNDLE
	vsraw	%r2, %r2, %r1
	vsrlw	%r2, %r2, %r1
	vsubbw	%r2, %r2, %r1

    2d40: 1c 18 01 81 00 50 60 04 04 02 00 83 11 10 08 00      	! BUNDLE
	vsubow	%r2, %r2, %r1
	vsubuw	%r2, %r2, %r1
	vsubssw	%r2, %r2, %r1

    2d50: 34 18 01 41 00 00 00 00 00 02 01 00 00 00 00 04      	! BUNDLE
	vsubusw	%r1, %r2, %r1
	retf	0
	nop	0


0000000000002d60 <test_builtin_vector_i64>:
    2d60: 00 00 80 c1 40 80 68 08 02 02 80 a1 11 10 08 00      	! BUNDLE
	alloc	3
	vaddcd	%r2, %r1, %r2
	vaddod	%r2, %r2, %r1

    2d70: 2c 1a 01 81 00 a0 68 04 04 02 00 a1 11 10 08 00      	! BUNDLE
	vaddssd	%r2, %r2, %r1
	vaddusd	%r2, %r2, %r1
	vaddud	%r2, %r2, %r1

    2d80: 3c 1a 01 81 00 e0 68 04 04 02 00 a4 11 10 08 00      	! BUNDLE
	vavgud	%r2, %r2, %r1
	vavgsd	%r2, %r2, %r1
	vcmpeqd	%r2, %r2, %r1

    2d90: 44 1a 01 81 00 20 69 04 04 02 00 a0 11 10 08 00      	! BUNDLE
	vcmpltd	%r2, %r2, %r1
	vcmpltud	%r2, %r2, %r1
	vmaxsd	%r2, %r2, %r1

    2da0: 04 1a 01 81 00 20 68 04 04 02 c0 a0 11 10 08 00      	! BUNDLE
	vmaxud	%r2, %r2, %r1
	vminsd	%r2, %r2, %r1
	vminud	%r2, %r2, %r1

    2db0: 64 1a 01 81 00 a0 69 04 04 02 c0 a4 11 10 08 00      	! BUNDLE
	vrold	%r2, %r2, %r1
	vrord	%r2, %r2, %r1
	vslld	%r2, %r2, %r1

    2dc0: 5c 1a 01 81 00 50 69 04 04 02 40 a2 11 10 08 00      	! BUNDLE
	vsrad	%r2, %r2, %r1
	vsrld	%r2, %r2, %r1
	vsubbd	%r2, %r2, %r1

    2dd0: 1c 1a 01 81 00 50 68 04 04 02 00 a3 11 10 08 00      	! BUNDLE
	vsubod	%r2, %r2, %r1
	vsubud	%r2, %r2, %r1
	vsubssd	%r2, %r2, %r1

    2de0: 34 1a 01 41 00 00 00 00 00 02 01 00 00 00 00 04      	! BUNDLE
	vsubusd	%r1, %r2, %r1
	retf	0
	nop	0


0000000000002df0 <test_builtin_vector_mixed>:
    2df0: 00 00 80 c4 40 b0 51 08 02 01 00 47 21 08 04 00      	! BUNDLE
	alloc	9
	vmrghb	%r1, %r1, %r2
	vmrglb	%r1, %r1, %r2

    2e00: 6c 16 84 40 00 c0 59 10 02 01 c0 86 61 08 04 00      	! BUNDLE
	vmrghh	%r1, %r1, %r4
	vmrglh	%r1, %r1, %r4
	vmrghw	%r1, %r1, %r6

    2e10: 70 18 86 40 00 b0 69 20 02 01 00 a7 81 08 04 00      	! BUNDLE
	vmrglw	%r1, %r1, %r6
	vmrghd	%r1, %r1, %r8
	vmrgld	%r1, %r1, %r8

    2e20: 88 16 87 40 00 20 62 14 02 01 40 a8 71 08 04 00      	! BUNDLE
	vpksssh	%r1, %r1, %r7
	vpksssw	%r1, %r1, %r5
	vpksssd	%r1, %r1, %r7

    2e30: 8c 16 83 40 00 30 62 18 02 01 80 a8 81 08 04 00      	! BUNDLE
	vpksush	%r1, %r1, %r3
	vpksusw	%r1, %r1, %r6
	vpksusd	%r1, %r1, %r8

    2e40: 90 16 84 40 00 40 62 18 02 01 00 a9 81 08 04 00      	! BUNDLE
	vpkuumh	%r1, %r1, %r4
	vpkuumw	%r1, %r1, %r6
	vpkuumd	%r1, %r1, %r8

    2e50: 94 16 84 40 00 50 62 18 02 01 40 a9 81 08 04 00      	! BUNDLE
	vpkuush	%r1, %r1, %r4
	vpkuusw	%r1, %r1, %r6
	vpkuusd	%r1, %r1, %r8

    2e60: 84 14 80 40 00 10 5a 00 02 01 40 88 01 08 04 00      	! BUNDLE
	vupkhsb	%r1, %r1
	vupkhsh	%r1, %r1
	vupkhsw	%r1, %r1

    2e70: 80 14 80 40 00 00 5a 00 02 01 00 88 01 08 04 00      	! BUNDLE
	vupklsb	%r1, %r1
	vupklsh	%r1, %r1
	vupklsw	%r1, %r1

    2e80: 00 00 00 80 40 00 00 00 00 00 01 00 00 00 00 04      	! BUNDLE
	retf	0
	nop	0
	nop	0


0000000000002e90 <test_builtin_popcount>:
    2e90: 00 00 00 c1 40 a0 06 7c 02 01 00 00 00 00 08 04      	! BUNDLE
	alloc	2
	popc	%r1, %r1, 31
	retf	0


0000000000002ea0 <test_builtin_popcountl>:
    2ea0: 00 00 00 c1 40 a0 06 fc 02 01 00 00 00 00 08 04      	! BUNDLE
	alloc	2
	popc	%r1, %r1, 63
	retf	0


0000000000002eb0 <test_builtin_ctz>:
    2eb0: 00 00 00 c1 40 c0 06 7c 02 01 00 00 00 00 08 04      	! BUNDLE
	alloc	2
	cttz	%r1, %r1, 31
	retf	0


0000000000002ec0 <test_builtin_ctzl>:
    2ec0: 00 00 00 c1 40 c0 06 fc 02 01 00 00 00 00 08 04      	! BUNDLE
	alloc	2
	cttz	%r1, %r1, 63
	retf	0


0000000000002ed0 <test_builtin_clz>:
    2ed0: 00 00 00 c1 40 b0 06 7c 02 01 00 00 00 00 08 04      	! BUNDLE
	alloc	2
	ctlz	%r1, %r1, 31
	retf	0


0000000000002ee0 <test_builtin_clzl>:
    2ee0: 00 00 00 c1 40 b0 06 fc 02 01 00 00 00 00 08 04      	! BUNDLE
	alloc	2
	ctlz	%r1, %r1, 63
	retf	0


0000000000002ef0 <test_builtin_readcyclecounter>:
    2ef0: 00 00 00 c1 40 50 10 5c 00 01 00 00 00 00 08 04      	! BUNDLE
	alloc	2
	mfspr	%r1, %itc
	retf	0


0000000000002f00 <test_builtin_thread_pointer>:
    2f00: 00 00 00 c1 40 10 00 00 f8 01 00 00 00 00 08 04      	! BUNDLE
	alloc	2
	mov	%r1, %tp
	retf	0


0000000000002f10 <test_frame_buitin>:
    2f10: 00 00 80 01 41 10 00 00 fa 02 00 00 00 f0 f7 21      	! BUNDLE
	allocsp	3, 0
	mov	%r2, %fp
	addi	%fp, %sp, 0

    2f20: 80 00 7d 40 00 10 00 00 fa 7e 40 00 00 10 f4 01      	! BUNDLE
	add	%r1, %r0, %fp
	mov	%sp, %fp
	mov	%fp, %r2

    2f30: 00 00 00 80 40 00 00 00 00 00 01 00 00 00 00 04      	! BUNDLE
	retf	0
	nop	0
	nop	0


0000000000002f40 <test_builtin_stack_pointer>:
    2f40: 00 00 00 c1 40 10 00 00 fc 01 00 00 00 00 08 04      	! BUNDLE
	alloc	2
	mov	%r1, %sp
	retf	0


0000000000002f50 <test_builtin_bitreverse>:
    2f50: 40 00 00 03 41 40 02 04 04 01 40 1b f0 09 0c 00      	! BUNDLE
	allocsp	6, 16
	addw	%r1, %r2, %r1
	permb	%r3, %r1, 31

    2f60: 00 00 00 40 21 07 00 00 fc 03 e4 ff ff ff 13 70      	! BUNDLE
	ldafr	%r5, 0
	stw	%r3, %sp, 0
	callr	%r4, -16

		0000000000002f60:  R_POSTRISC_A_PCREL_FWD	.L.str.13
		0000000000002f60:  R_POSTRISC_C_JUMP	printf
    2f70: 34 01 00 41 00 b0 00 00 02 01 48 1b f0 0b 08 00      	! BUNDLE
	srawi	%r1, %r2, 0
	addi	%r1, %r1, 11
	permb	%r2, %r1, 63

    2f80: 00 00 00 40 21 07 00 00 fc 82 e5 ff ff ff 13 70      	! BUNDLE
	ldafr	%r5, 0
	std	%r2, %sp, 0
	callr	%r4, -16

		0000000000002f80:  R_POSTRISC_A_PCREL_FWD	.L.str.14
		0000000000002f80:  R_POSTRISC_C_JUMP	printf
    2f90: 00 18 03 41 20 06 01 00 00 02 01 00 00 00 00 04      	! BUNDLE
	ldax.ws	%r1, %r2, %r3, 0, 0
	retf	16
	nop	0


0000000000002fa0 <test_builtin_halt>:
    2fa0: 00 00 80 c0 40 00 11 00 00 00 00 00 00 00 08 04      	! BUNDLE
	alloc	1
	halt
	retf	0


0000000000002fb0 <test_builtin_undef>:
    2fb0: 00 00 80 c0 40 00 00 00 00 00 00 00 00 00 08 04      	! BUNDLE
	alloc	1
	undef
	retf	0


0000000000002fc0 <test_builtin_rfi>:
    2fc0: 00 00 80 c0 40 f0 10 00 00 00 00 00 00 00 08 04      	! BUNDLE
	alloc	1
	rfi
	retf	0


0000000000002fd0 <test_builtin_nop>:
    2fd0: 00 00 80 c0 40 70 68 2d 01 00 81 00 00 00 00 04      	! BUNDLE
	alloc	1
	nop	1234567
	nop	2

    2fe0: 56 7c 41 33 40 a0 4b 9b b6 01 c0 1e 00 00 00 04      	! BUNDLE
	nop.l	123456789123456789
	nop	123

    2ff0: ee 01 00 00 40 00 00 00 00 00 00 00 00 00 08 04      	! BUNDLE
	nop.l	123
	retf	0


0000000000003000 <test_builtin_tpa>:
    3000: 00 00 00 c1 40 10 11 00 02 01 00 00 00 00 08 04      	! BUNDLE
	alloc	2
	tpa	%r1, %r1
	retf	0


0000000000003010 <test_clmul>:
    3010: 00 00 00 c2 40 00 12 08 02 03 40 48 30 08 04 00      	! BUNDLE
	alloc	4
	clmulll	%r3, %r1, %r2
	clmulhl	%r1, %r1, %r3

    3020: 88 04 82 40 00 00 00 00 00 02 01 00 00 00 00 04      	! BUNDLE
	clmulhh	%r1, %r1, %r2
	retf	0
	nop	0


0000000000003030 <test_i64_eq>:
    3030: 00 00 80 c1 40 80 00 08 02 01 40 00 00 08 04 16      	! BUNDLE
	alloc	3
	cmpdeq	%r1, %r1, %r2
	andi	%r1, %r1, 1

    3040: 00 00 00 80 40 00 00 00 00 00 01 00 00 00 00 04      	! BUNDLE
	retf	0
	nop	0
	nop	0


0000000000003050 <test_i64_ne>:
    3050: 00 00 80 c1 40 90 00 08 02 01 40 00 00 08 04 16      	! BUNDLE
	alloc	3
	cmpdne	%r1, %r1, %r2
	andi	%r1, %r1, 1

    3060: 00 00 00 80 40 00 00 00 00 00 01 00 00 00 00 04      	! BUNDLE
	retf	0
	nop	0
	nop	0


0000000000003070 <test_i64_lt>:
    3070: 00 00 80 c1 40 a0 00 08 02 01 40 00 00 08 04 16      	! BUNDLE
	alloc	3
	cmpdlt	%r1, %r1, %r2
	andi	%r1, %r1, 1

    3080: 00 00 00 80 40 00 00 00 00 00 01 00 00 00 00 04      	! BUNDLE
	retf	0
	nop	0
	nop	0


0000000000003090 <test_i64_le>:
    3090: 00 00 80 c1 40 b0 00 08 02 01 40 00 00 08 04 16      	! BUNDLE
	alloc	3
	cmpdle	%r1, %r1, %r2
	andi	%r1, %r1, 1

    30a0: 00 00 00 80 40 00 00 00 00 00 01 00 00 00 00 04      	! BUNDLE
	retf	0
	nop	0
	nop	0


00000000000030b0 <test_i64_gt>:
    30b0: 00 00 80 c1 40 a0 00 04 04 01 40 00 00 08 04 16      	! BUNDLE
	alloc	3
	cmpdlt	%r1, %r2, %r1
	andi	%r1, %r1, 1

    30c0: 00 00 00 80 40 00 00 00 00 00 01 00 00 00 00 04      	! BUNDLE
	retf	0
	nop	0
	nop	0


00000000000030d0 <test_i64_ge>:
    30d0: 00 00 80 c1 40 b0 00 04 04 01 40 00 00 08 04 16      	! BUNDLE
	alloc	3
	cmpdle	%r1, %r2, %r1
	andi	%r1, %r1, 1

    30e0: 00 00 00 80 40 00 00 00 00 00 01 00 00 00 00 04      	! BUNDLE
	retf	0
	nop	0
	nop	0


00000000000030f0 <test_u64_lt>:
    30f0: 00 00 80 c1 40 c0 00 08 02 01 40 00 00 08 04 16      	! BUNDLE
	alloc	3
	cmpdltu	%r1, %r1, %r2
	andi	%r1, %r1, 1

    3100: 00 00 00 80 40 00 00 00 00 00 01 00 00 00 00 04      	! BUNDLE
	retf	0
	nop	0
	nop	0


0000000000003110 <test_u64_le>:
    3110: 00 00 80 c1 40 d0 00 08 02 01 40 00 00 08 04 16      	! BUNDLE
	alloc	3
	cmpdleu	%r1, %r1, %r2
	andi	%r1, %r1, 1

    3120: 00 00 00 80 40 00 00 00 00 00 01 00 00 00 00 04      	! BUNDLE
	retf	0
	nop	0
	nop	0


0000000000003130 <test_u64_gt>:
    3130: 00 00 80 c1 40 c0 00 04 04 01 40 00 00 08 04 16      	! BUNDLE
	alloc	3
	cmpdltu	%r1, %r2, %r1
	andi	%r1, %r1, 1

    3140: 00 00 00 80 40 00 00 00 00 00 01 00 00 00 00 04      	! BUNDLE
	retf	0
	nop	0
	nop	0


0000000000003150 <test_u64_ge>:
    3150: 00 00 80 c1 40 d0 00 04 04 01 40 00 00 08 04 16      	! BUNDLE
	alloc	3
	cmpdleu	%r1, %r2, %r1
	andi	%r1, %r1, 1

    3160: 00 00 00 80 40 00 00 00 00 00 01 00 00 00 00 04      	! BUNDLE
	retf	0
	nop	0
	nop	0


0000000000003170 <test_i64_eq_imm>:
    3170: 00 00 00 c1 40 20 4d 00 02 01 50 00 00 08 04 16      	! BUNDLE
	alloc	2
	cmpdeqi	%r1, %r1, 1234
	andi	%r1, %r1, 1

    3180: 00 00 00 80 40 00 00 00 00 00 01 00 00 00 00 04      	! BUNDLE
	retf	0
	nop	0
	nop	0


0000000000003190 <test_i64_ne_imm>:
    3190: 00 00 00 c1 40 20 4d 00 02 81 50 00 00 08 04 16      	! BUNDLE
	alloc	2
	cmpdnei	%r1, %r1, 1234
	andi	%r1, %r1, 1

    31a0: 00 00 00 80 40 00 00 00 00 00 01 00 00 00 00 04      	! BUNDLE
	retf	0
	nop	0
	nop	0


00000000000031b0 <test_i64_lt_imm>:
    31b0: 00 00 00 c1 40 20 4d 00 02 01 51 00 00 08 04 16      	! BUNDLE
	alloc	2
	cmpdlti	%r1, %r1, 1234
	andi	%r1, %r1, 1

    31c0: 00 00 00 80 40 00 00 00 00 00 01 00 00 00 00 04      	! BUNDLE
	retf	0
	nop	0
	nop	0


00000000000031d0 <test_i64_gt_imm>:
    31d0: 00 00 00 c1 40 20 4d 00 02 01 52 00 00 08 04 16      	! BUNDLE
	alloc	2
	cmpdgti	%r1, %r1, 1234
	andi	%r1, %r1, 1

    31e0: 00 00 00 80 40 00 00 00 00 00 01 00 00 00 00 04      	! BUNDLE
	retf	0
	nop	0
	nop	0


00000000000031f0 <test_i64_le_imm>:
    31f0: 00 00 00 c1 40 30 4d 00 02 01 51 00 00 08 04 16      	! BUNDLE
	alloc	2
	cmpdlti	%r1, %r1, 1235
	andi	%r1, %r1, 1

    3200: 00 00 00 80 40 00 00 00 00 00 01 00 00 00 00 04      	! BUNDLE
	retf	0
	nop	0
	nop	0


0000000000003210 <test_i64_ge_imm>:
    3210: 00 00 00 c1 40 10 4d 00 02 01 52 00 00 08 04 16      	! BUNDLE
	alloc	2
	cmpdgti	%r1, %r1, 1233
	andi	%r1, %r1, 1

    3220: 00 00 00 80 40 00 00 00 00 00 01 00 00 00 00 04      	! BUNDLE
	retf	0
	nop	0
	nop	0


0000000000003230 <test_u64_lt_imm>:
    3230: 00 00 00 c1 40 20 4d 00 02 81 51 00 00 08 04 16      	! BUNDLE
	alloc	2
	cmpdltui	%r1, %r1, 1234
	andi	%r1, %r1, 1

    3240: 00 00 00 80 40 00 00 00 00 00 01 00 00 00 00 04      	! BUNDLE
	retf	0
	nop	0
	nop	0


0000000000003250 <test_u64_gt_imm>:
    3250: 00 00 00 c1 40 20 4d 00 02 81 52 00 00 08 04 16      	! BUNDLE
	alloc	2
	cmpdgtui	%r1, %r1, 1234
	andi	%r1, %r1, 1

    3260: 00 00 00 80 40 00 00 00 00 00 01 00 00 00 00 04      	! BUNDLE
	retf	0
	nop	0
	nop	0


0000000000003270 <test_u64_le_imm>:
    3270: 00 00 00 c1 40 30 4d 00 02 81 51 00 00 08 04 16      	! BUNDLE
	alloc	2
	cmpdltui	%r1, %r1, 1235
	andi	%r1, %r1, 1

    3280: 00 00 00 80 40 00 00 00 00 00 01 00 00 00 00 04      	! BUNDLE
	retf	0
	nop	0
	nop	0


0000000000003290 <test_u64_ge_imm>:
    3290: 00 00 00 c1 40 10 4d 00 02 81 52 00 00 08 04 16      	! BUNDLE
	alloc	2
	cmpdgtui	%r1, %r1, 1233
	andi	%r1, %r1, 1

    32a0: 00 00 00 80 40 00 00 00 00 00 01 00 00 00 00 04      	! BUNDLE
	retf	0
	nop	0
	nop	0


00000000000032b0 <test_i32_eq>:
    32b0: 00 00 80 c1 40 00 01 08 02 01 40 00 00 08 04 16      	! BUNDLE
	alloc	3
	cmpweq	%r1, %r1, %r2
	andi	%r1, %r1, 1

    32c0: 00 00 00 80 40 00 00 00 00 00 01 00 00 00 00 04      	! BUNDLE
	retf	0
	nop	0
	nop	0


00000000000032d0 <test_i32_ne>:
    32d0: 00 00 80 c1 40 10 01 08 02 01 40 00 00 08 04 16      	! BUNDLE
	alloc	3
	cmpwne	%r1, %r1, %r2
	andi	%r1, %r1, 1

    32e0: 00 00 00 80 40 00 00 00 00 00 01 00 00 00 00 04      	! BUNDLE
	retf	0
	nop	0
	nop	0


00000000000032f0 <test_i32_lt>:
    32f0: 00 00 80 c1 40 20 01 08 02 01 40 00 00 08 04 16      	! BUNDLE
	alloc	3
	cmpwlt	%r1, %r1, %r2
	andi	%r1, %r1, 1

    3300: 00 00 00 80 40 00 00 00 00 00 01 00 00 00 00 04      	! BUNDLE
	retf	0
	nop	0
	nop	0


0000000000003310 <test_i32_le>:
    3310: 00 00 80 c1 40 30 01 08 02 01 40 00 00 08 04 16      	! BUNDLE
	alloc	3
	cmpwle	%r1, %r1, %r2
	andi	%r1, %r1, 1

    3320: 00 00 00 80 40 00 00 00 00 00 01 00 00 00 00 04      	! BUNDLE
	retf	0
	nop	0
	nop	0


0000000000003330 <test_i32_gt>:
    3330: 00 00 80 c1 40 20 01 04 04 01 40 00 00 08 04 16      	! BUNDLE
	alloc	3
	cmpwlt	%r1, %r2, %r1
	andi	%r1, %r1, 1

    3340: 00 00 00 80 40 00 00 00 00 00 01 00 00 00 00 04      	! BUNDLE
	retf	0
	nop	0
	nop	0


0000000000003350 <test_i32_ge>:
    3350: 00 00 80 c1 40 30 01 04 04 01 40 00 00 08 04 16      	! BUNDLE
	alloc	3
	cmpwle	%r1, %r2, %r1
	andi	%r1, %r1, 1

    3360: 00 00 00 80 40 00 00 00 00 00 01 00 00 00 00 04      	! BUNDLE
	retf	0
	nop	0
	nop	0


0000000000003370 <test_u32_lt>:
    3370: 00 00 80 c1 40 40 01 08 02 01 40 00 00 08 04 16      	! BUNDLE
	alloc	3
	cmpwltu	%r1, %r1, %r2
	andi	%r1, %r1, 1

    3380: 00 00 00 80 40 00 00 00 00 00 01 00 00 00 00 04      	! BUNDLE
	retf	0
	nop	0
	nop	0


0000000000003390 <test_u32_le>:
    3390: 00 00 80 c1 40 50 01 08 02 01 40 00 00 08 04 16      	! BUNDLE
	alloc	3
	cmpwleu	%r1, %r1, %r2
	andi	%r1, %r1, 1

    33a0: 00 00 00 80 40 00 00 00 00 00 01 00 00 00 00 04      	! BUNDLE
	retf	0
	nop	0
	nop	0


00000000000033b0 <test_u32_gt>:
    33b0: 00 00 80 c1 40 40 01 04 04 01 40 00 00 08 04 16      	! BUNDLE
	alloc	3
	cmpwltu	%r1, %r2, %r1
	andi	%r1, %r1, 1

    33c0: 00 00 00 80 40 00 00 00 00 00 01 00 00 00 00 04      	! BUNDLE
	retf	0
	nop	0
	nop	0


00000000000033d0 <test_u32_ge>:
    33d0: 00 00 80 c1 40 50 01 04 04 01 40 00 00 08 04 16      	! BUNDLE
	alloc	3
	cmpwleu	%r1, %r2, %r1
	andi	%r1, %r1, 1

    33e0: 00 00 00 80 40 00 00 00 00 00 01 00 00 00 00 04      	! BUNDLE
	retf	0
	nop	0
	nop	0


00000000000033f0 <test_i32_eq_imm>:
    33f0: 00 00 00 c1 40 20 4d 00 02 01 54 00 00 08 04 16      	! BUNDLE
	alloc	2
	cmpweqi	%r1, %r1, 1234
	andi	%r1, %r1, 1

    3400: 00 00 00 80 40 00 00 00 00 00 01 00 00 00 00 04      	! BUNDLE
	retf	0
	nop	0
	nop	0


0000000000003410 <test_i32_ne_imm>:
    3410: 00 00 00 c1 40 20 4d 00 02 81 54 00 00 08 04 16      	! BUNDLE
	alloc	2
	cmpwnei	%r1, %r1, 1234
	andi	%r1, %r1, 1

    3420: 00 00 00 80 40 00 00 00 00 00 01 00 00 00 00 04      	! BUNDLE
	retf	0
	nop	0
	nop	0


0000000000003430 <test_i32_lt_imm>:
    3430: 00 00 00 c1 40 20 4d 00 02 01 55 00 00 08 04 16      	! BUNDLE
	alloc	2
	cmpwlti	%r1, %r1, 1234
	andi	%r1, %r1, 1

    3440: 00 00 00 80 40 00 00 00 00 00 01 00 00 00 00 04      	! BUNDLE
	retf	0
	nop	0
	nop	0


0000000000003450 <test_i32_gt_imm>:
    3450: 00 00 00 c1 40 20 4d 00 02 01 56 00 00 08 04 16      	! BUNDLE
	alloc	2
	cmpwgti	%r1, %r1, 1234
	andi	%r1, %r1, 1

    3460: 00 00 00 80 40 00 00 00 00 00 01 00 00 00 00 04      	! BUNDLE
	retf	0
	nop	0
	nop	0


0000000000003470 <test_i32_le_imm>:
    3470: 00 00 00 c1 40 30 4d 00 02 01 55 00 00 08 04 16      	! BUNDLE
	alloc	2
	cmpwlti	%r1, %r1, 1235
	andi	%r1, %r1, 1

    3480: 00 00 00 80 40 00 00 00 00 00 01 00 00 00 00 04      	! BUNDLE
	retf	0
	nop	0
	nop	0


0000000000003490 <test_i32_ge_imm>:
    3490: 00 00 00 c1 40 10 4d 00 02 01 56 00 00 08 04 16      	! BUNDLE
	alloc	2
	cmpwgti	%r1, %r1, 1233
	andi	%r1, %r1, 1

    34a0: 00 00 00 80 40 00 00 00 00 00 01 00 00 00 00 04      	! BUNDLE
	retf	0
	nop	0
	nop	0


00000000000034b0 <test_u32_lt_imm>:
    34b0: 00 00 00 c1 40 20 4d 00 02 81 55 00 00 08 04 16      	! BUNDLE
	alloc	2
	cmpwltui	%r1, %r1, 1234
	andi	%r1, %r1, 1

    34c0: 00 00 00 80 40 00 00 00 00 00 01 00 00 00 00 04      	! BUNDLE
	retf	0
	nop	0
	nop	0


00000000000034d0 <test_u32_gt_imm>:
    34d0: 00 00 00 c1 40 20 4d 00 02 81 56 00 00 08 04 16      	! BUNDLE
	alloc	2
	cmpwgtui	%r1, %r1, 1234
	andi	%r1, %r1, 1

    34e0: 00 00 00 80 40 00 00 00 00 00 01 00 00 00 00 04      	! BUNDLE
	retf	0
	nop	0
	nop	0


00000000000034f0 <test_u32_le_imm>:
    34f0: 00 00 00 c1 40 30 4d 00 02 81 55 00 00 08 04 16      	! BUNDLE
	alloc	2
	cmpwltui	%r1, %r1, 1235
	andi	%r1, %r1, 1

    3500: 00 00 00 80 40 00 00 00 00 00 01 00 00 00 00 04      	! BUNDLE
	retf	0
	nop	0
	nop	0


0000000000003510 <test_u32_ge_imm>:
    3510: 00 00 00 c1 40 10 4d 00 02 81 56 00 00 08 04 16      	! BUNDLE
	alloc	2
	cmpwgtui	%r1, %r1, 1233
	andi	%r1, %r1, 1

    3520: 00 00 00 80 40 00 00 00 00 00 01 00 00 00 00 04      	! BUNDLE
	retf	0
	nop	0
	nop	0


0000000000003530 <test_cpuid>:
    3530: 00 00 00 c2 40 10 90 10 02 02 40 40 00 08 0c 00      	! BUNDLE
	alloc	4
	cpuid	%r2, %r1, 33
	cpuid	%r3, %r1, 0

    3540: 40 9c 80 40 00 12 10 00 02 01 00 20 20 18 04 02      	! BUNDLE
	addi	%r1, %r1, 10000
	cpuid	%r1, %r1, 0
	addadd	%r1, %r3, %r2, %r1

    3550: 00 00 00 80 40 00 00 00 00 00 01 00 00 00 00 04      	! BUNDLE
	retf	0
	nop	0
	nop	0


0000000000003560 <test_crc32c>:
    3560: 00 00 00 c2 40 10 1a 08 02 81 00 00 00 00 08 04      	! BUNDLE
	alloc	4
	crc32c	%r1, %r1, %r2, %r3
	retf	0


0000000000003570 <TestDebugRegisters>:
    3570: 00 00 80 c1 40 c0 90 00 02 02 c0 42 02 08 08 00      	! BUNDLE
	alloc	3
	mfmr	%r2, %r1, 1
	mtmr	%r2, %r1, 1

    3580: 28 44 80 80 00 90 90 00 02 02 00 42 02 08 08 00      	! BUNDLE
	mfibr	%r2, %r1, 2
	mtibr	%r2, %r1, 1
	mfdbr	%r2, %r1, 1

    3590: 1c 44 80 80 00 00 00 00 00 02 01 00 00 00 00 04      	! BUNDLE
	mtdbr	%r2, %r1, 2
	retf	0
	nop	0


00000000000035a0 <test_fma_f32>:
    35a0: 00 00 00 c2 40 10 1c 08 02 81 00 00 00 00 08 04      	! BUNDLE
	alloc	4
	fmaddss	%r1, %r1, %r2, %r3
	retf	0


00000000000035b0 <test_fma_f64>:
    35b0: 00 00 00 c2 40 90 1c 08 02 81 00 00 00 00 08 04      	! BUNDLE
	alloc	4
	fmaddsd	%r1, %r1, %r2, %r3
	retf	0


00000000000035c0 <test_fma_f128>:
    35c0: 00 00 00 c2 40 10 1d 08 02 83 c0 74 20 08 0c 02      	! BUNDLE
	alloc	4
	fmaddsq	%r3, %r1, %r2, %r3
	fnmaddsq	%r3, %r1, %r2, %r3

    35d0: 48 07 82 80 20 40 15 08 02 81 00 00 00 00 08 04      	! BUNDLE
	fmsubsq	%r2, %r1, %r2, %r3
	fnmsubsq	%r1, %r1, %r2, %r2
	retf	0


00000000000035e0 <ffff>:
    35e0: 00 00 80 c1 40 00 00 00 fc 81 24 00 00 08 08 8c      	! BUNDLE
	alloc	3
	lddz	%r1, %sp, 0
	ldwz	%r2, %r1, 0

    35f0: 10 00 80 40 c0 38 30 08 02 01 00 00 00 00 08 04      	! BUNDLE
	ldwz	%r1, %r1, 4
	faddss	%r1, %r1, %r2
	retf	0


0000000000003600 <i64_test>:
    3600: 80 01 80 05 41 00 02 04 04 03 00 16 00 f0 0f 96      	! BUNDLE
	allocsp	11, 96
	add	%r3, %r2, %r1
	std	%r3, %sp, 88

    3610: 84 00 82 c0 00 00 05 00 fc 83 25 fa 00 10 0c 26      	! BUNDLE
	sub	%r3, %r1, %r2
	std	%r3, %sp, 80
	subfi	%r3, %r2, 1000

    3620: 21 01 00 ff 60 09 a0 ac 05 83 09 77 00 00 00 00      	! BUNDLE
	std	%r3, %sp, 72
	subfi.l	%r3, %r2, 1000000000

    3630: 00 01 00 ff 60 c9 f9 ff 03 03 08 0e 00 f0 0f 96      	! BUNDLE
	std	%r3, %sp, 64
	addi	%r3, %r1, -100
	std	%r3, %sp, 56

    3640: c0 00 00 ff 60 89 05 00 fc 83 24 14 00 f0 13 92      	! BUNDLE
	std	%r3, %sp, 48
	lddz	%r3, %sp, 88
	lddz	%r4, %sp, 80

    3650: 20 01 00 7f 21 09 04 00 fc 86 24 0e 00 f0 1f 92      	! BUNDLE
	lddz	%r5, %sp, 72
	lddz	%r6, %sp, 64
	lddz	%r7, %sp, 56

    3660: c0 00 00 3f 22 09 38 14 08 84 40 80 60 18 0c 02      	! BUNDLE
	lddz	%r8, %sp, 48
	addadd	%r4, %r4, %r5, %r7
	addsub	%r3, %r3, %r6, %r4

    3670: 80 00 88 c1 00 80 02 00 fc 83 e5 01 80 09 08 06      	! BUNDLE
	add	%r3, %r3, %r8
	std	%r3, %sp, 40
	bdle	%r2, %r1, 112

    3680: 60 01 00 bf 20 69 00 60 02 82 01 0a 00 f0 07 92      	! BUNDLE
	lddz	%r2, %sp, 88
	bdle	%r2, %r1, 96
	lddz	%r1, %sp, 40

    3690: fc ff ff 40 00 02 00 00 00 8a 1c 00 00 f0 07 96      	! BUNDLE
	addi	%r1, %r1, -1
	ldafr	%r10, 0
	std	%r1, %sp, 0

		0000000000003690:  R_POSTRISC_B_PCREL_FWD	.L.str.15
    36a0: fc ff ff 7f 02 87 05 00 fc 81 24 14 00 f0 0b 92      	! BUNDLE
	callr	%r9, -16
	lddz	%r1, %sp, 88
	lddz	%r2, %sp, 80

		00000000000036a0:  R_POSTRISC_A_JUMP	printf
    36b0: 00 01 00 ff 20 19 18 04 04 81 00 08 00 f0 07 96      	! BUNDLE
	lddz	%r3, %sp, 64
	addsub	%r1, %r2, %r1, %r3
	std	%r1, %sp, 32

    36c0: 60 01 00 7f 20 09 05 00 fc 82 24 10 00 f0 0f 92      	! BUNDLE
	lddz	%r1, %sp, 88
	lddz	%r2, %sp, 80
	lddz	%r3, %sp, 64

    36d0: 08 06 82 40 20 80 01 00 fc 81 25 0a 00 f0 07 92      	! BUNDLE
	subsub	%r1, %r1, %r2, %r3
	std	%r1, %sp, 24
	lddz	%r1, %sp, 40

    36e0: 80 01 00 80 40 00 00 00 00 00 01 00 00 00 00 04      	! BUNDLE
	retf	96
	nop	0
	nop	0

    36f0: a0 00 00 7f 20 19 00 00 02 01 08 00 00 00 28 72      	! BUNDLE
	lddz	%r1, %sp, 40
	addi	%r1, %r1, 1
	ldafr	%r10, 0

		00000000000036f0:  R_POSTRISC_C_PCREL_FWD	.L.str.16
    3700: 00 00 00 7f 60 f9 ff ff ff 09 5c 00 00 f8 2b 00      	! BUNDLE
	std	%r1, %sp, 0
	callr	%r9, -16
	mov	%r10, %gz

		0000000000003700:  R_POSTRISC_B_JUMP	printf
    3710: fc ff ff 7f 02 07 00 00 00 00 01 00 00 00 00 04      	! BUNDLE
	callr	%r9, -16
	nop	0
	nop	0

		0000000000003710:  R_POSTRISC_A_JUMP	exit

0000000000003720 <NeverReturn>:
    3720: 40 00 80 03 41 30 00 c0 fe 81 01 00 00 00 0c 72      	! BUNDLE
	allocsp	7, 16
	bweq	%r1, %gz, 48
	ldafr	%r3, 0

		0000000000003720:  R_POSTRISC_C_PCREL_FWD	.L.str.17
    3730: 00 00 00 7f 00 19 00 00 06 06 c0 ff ff ff 17 70      	! BUNDLE
	stw	%r1, %sp, 0
	mov	%r6, %r3
	callr	%r5, -16

		0000000000003730:  R_POSTRISC_C_JUMP	printf
    3740: 00 00 00 00 21 1d 00 00 08 04 c8 ff ff 0f 04 22      	! BUNDLE
	lddzr	%r4, 0
	addi	%r4, %r4, 1
	addiws	%r1, %r1, -1

		0000000000003740:  R_POSTRISC_A_PCREL_FWD	uglbx
    3750: 00 00 00 00 61 dd ff ff fe 81 01 00 00 00 00 04      	! BUNDLE
	stdr	%r4, 0
	bwne	%r1, %gz, -48
	nop	0

		0000000000003750:  R_POSTRISC_A_PCREL_FWD	uglbx
    3760: 00 00 00 40 20 07 00 00 00 00 01 00 00 00 00 04      	! BUNDLE
	ldafr	%r1, 0
	nop	0
	nop	0

		0000000000003760:  R_POSTRISC_A_PCREL_FWD	.L.str.18
    3770: 00 00 00 bf 00 19 00 00 02 06 c0 ff ff ff 17 70      	! BUNDLE
	stw	%r2, %sp, 0
	mov	%r6, %r1
	callr	%r5, -16

		0000000000003770:  R_POSTRISC_C_JUMP	printf
    3780: 00 00 00 c0 c0 fc ff ff 05 82 c8 ff ff 1f 0c 22      	! BUNDLE
	ldwzr	%r3, 0
	addiws	%r2, %r2, -1
	addiws	%r3, %r3, -1

		0000000000003780:  R_POSTRISC_A_PCREL_FWD	glbx
    3790: 00 00 00 c0 00 dd ff ff ff 01 01 00 00 00 00 04      	! BUNDLE
	stwr	%r3, 0
	jmp	-48
	nop	0

		0000000000003790:  R_POSTRISC_A_PCREL_FWD	glbx

00000000000037a0 <i64_add>:
    37a0: 00 00 80 c1 40 00 00 00 00 82 b3 00 00 00 00 04      	! BUNDLE
	alloc	3
	ldwsr	%r2, 0
	nop	2

		00000000000037a0:  R_POSTRISC_B_PCREL_FWD	glbx
    37b0: 4a 03 82 40 20 26 00 00 00 00 00 00 00 00 04 d0      	! BUNDLE
	ldax.l	%r1, %r1, %r2, 0, 1234
	stwr	%r1, 0

		00000000000037b0:  R_POSTRISC_C_PCREL_FWD	glbx
    37c0: 00 00 00 80 40 00 00 00 00 00 01 00 00 00 00 04      	! BUNDLE
	retf	0
	nop	0
	nop	0


00000000000037d0 <i32_add>:
    37d0: 00 00 00 c3 40 00 00 00 00 03 73 00 00 08 14 00      	! BUNDLE
	alloc	6
	ldwzr	%r3, 0
	mov	%r5, %r1

		00000000000037d0:  R_POSTRISC_B_PCREL_FWD	glb
    37e0: fc ff ff 3f 01 f7 ff ff ff 02 18 09 10 10 04 00      	! BUNDLE
	callr	%r4, -16
	ldar	%r2, -1
	addw	%r1, %r2, %r1

		00000000000037e0:  R_POSTRISC_A_JUMP	cccc
		00000000000037e0:  R_POSTRISC_B_JUMP	cccc
    37f0: 90 00 83 40 00 40 02 14 02 01 40 0e 0c 08 04 22      	! BUNDLE
	addw	%r1, %r1, %r3
	addw	%r1, %r1, %r5
	addiws	%r1, %r1, 12345

    3800: 00 00 00 80 40 00 00 00 00 00 01 00 00 00 00 04      	! BUNDLE
	retf	0
	nop	0
	nop	0


0000000000003810 <u32_add>:
    3810: 00 00 80 c1 40 00 00 00 00 02 33 09 10 10 04 00      	! BUNDLE
	alloc	3
	ldwzr	%r2, 0
	addw	%r1, %r2, %r1

		0000000000003810:  R_POSTRISC_B_PCREL_FWD	uglb
    3820: 00 00 00 80 40 00 00 00 00 00 01 00 00 00 00 04      	! BUNDLE
	retf	0
	nop	0
	nop	0


0000000000003830 <float_test>:
    3830: 40 00 80 02 41 20 00 60 02 02 03 00 00 00 10 72      	! BUNDLE
	allocsp	5, 16
	bfsdole	%r2, %r1, 32
	ldafr	%r4, 0

		0000000000003830:  R_POSTRISC_C_PCREL_FWD	.L.str.19
    3840: 00 00 00 7f 60 f9 ff ff ff 03 5c 00 00 20 04 00      	! BUNDLE
	std	%r1, %sp, 0
	callr	%r3, -16
	mov	%r1, %r4

		0000000000003840:  R_POSTRISC_B_JUMP	printf
    3850: 40 00 00 80 40 00 00 00 00 00 01 00 00 00 00 04      	! BUNDLE
	retf	16
	nop	0
	nop	0

    3860: 08 00 00 40 00 01 01 00 00 02 01 00 00 00 00 04      	! BUNDLE
	ldi	%r1, 2
	retf	16
	nop	0


0000000000003870 <main>:
    3870: 00 00 00 c1 40 10 00 00 fe 01 00 00 00 00 08 04      	! BUNDLE
	alloc	2
	mov	%r1, %gz
	retf	0


0000000000003880 <test_fp_arithmetic_f16>:
    3880: 00 00 00 c2 40 30 48 04 04 03 00 21 21 08 04 00      	! BUNDLE
	alloc	4
	faddsh	%r3, %r2, %r1
	fsubsh	%r1, %r1, %r2

    3890: 18 12 81 41 00 80 48 08 02 01 00 00 00 00 08 04      	! BUNDLE
	fmulsh	%r1, %r3, %r1
	fdivsh	%r1, %r1, %r2
	retf	0


00000000000038a0 <test_fp_arithmetic_f32>:
    38a0: 00 00 00 c2 40 30 30 04 04 03 00 c1 20 08 04 00      	! BUNDLE
	alloc	4
	faddss	%r3, %r2, %r1
	fsubss	%r1, %r1, %r2

    38b0: 18 0c 81 41 00 80 30 08 02 01 00 00 00 00 08 04      	! BUNDLE
	fmulss	%r1, %r3, %r1
	fdivss	%r1, %r1, %r2
	retf	0


00000000000038c0 <test_fp_arithmetic_f64>:
    38c0: 00 00 00 c2 40 30 38 04 04 03 00 e1 20 08 04 00      	! BUNDLE
	alloc	4
	faddsd	%r3, %r2, %r1
	fsubsd	%r1, %r1, %r2

    38d0: 18 0e 81 41 00 80 38 08 02 01 00 00 00 00 08 04      	! BUNDLE
	fmulsd	%r1, %r3, %r1
	fdivsd	%r1, %r1, %r2
	retf	0


00000000000038e0 <test_fp_arithmetic_f128>:
    38e0: 00 00 00 c2 40 30 40 04 04 03 00 01 21 08 04 00      	! BUNDLE
	alloc	4
	faddsq	%r3, %r2, %r1
	fsubsq	%r1, %r1, %r2

    38f0: 18 10 81 41 00 80 40 08 02 01 00 00 00 00 08 04      	! BUNDLE
	fmulsq	%r1, %r3, %r1
	fdivsq	%r1, %r1, %r2
	retf	0


0000000000003900 <test_fp_bitcast_i16_to_f16>:
    3900: 40 00 00 01 41 e0 00 00 fc 81 a2 03 00 f0 07 86      	! BUNDLE
	allocsp	2, 16
	sth	%r1, %sp, 14
	ldhz	%r1, %sp, 14

    3910: 40 00 00 80 40 00 00 00 00 00 01 00 00 00 00 04      	! BUNDLE
	retf	16
	nop	0
	nop	0


0000000000003920 <test_fp_bitcast_f16_to_i16>:
    3920: 40 00 00 01 41 e0 00 00 fc 81 a2 03 00 f0 07 88      	! BUNDLE
	allocsp	2, 16
	sth	%r1, %sp, 14
	ldhs	%r1, %sp, 14

    3930: 40 00 00 80 40 00 00 00 00 00 01 00 00 00 00 04      	! BUNDLE
	retf	16
	nop	0
	nop	0


0000000000003940 <test_fp_bitcast_i32_to_f32>:
    3940: 00 00 00 c1 40 00 00 00 00 02 01 00 00 00 00 04      	! BUNDLE
	alloc	2
	retf	0
	nop	0


0000000000003950 <test_fp_bitcast_f32_to_i32>:
    3950: 00 00 00 c1 40 00 00 00 00 02 01 00 00 00 00 04      	! BUNDLE
	alloc	2
	retf	0
	nop	0


0000000000003960 <test_fp_bitcast_i64_to_f64>:
    3960: 00 00 00 c1 40 00 00 00 00 02 01 00 00 00 00 04      	! BUNDLE
	alloc	2
	retf	0
	nop	0


0000000000003970 <test_fp_bitcast_f64_to_i64>:
    3970: 00 00 00 c1 40 00 00 00 00 02 01 00 00 00 00 04      	! BUNDLE
	alloc	2
	retf	0
	nop	0


0000000000003980 <test_fp_bitcast_i128_to_f128>:
    3980: 00 00 00 c1 40 00 00 00 00 02 01 00 00 00 00 04      	! BUNDLE
	alloc	2
	retf	0
	nop	0


0000000000003990 <test_fp_bitcast_f128_to_i128>:
    3990: 00 00 00 c1 40 00 00 00 00 02 01 00 00 00 00 04      	! BUNDLE
	alloc	2
	retf	0
	nop	0


00000000000039a0 <test_fp_branch_f32_eq>:
    39a0: 00 00 80 c2 40 90 12 00 04 81 00 00 00 00 10 72      	! BUNDLE
	alloc	5
	nulfssoeq	%r1, %r2, 2, 0
	ldafr	%r4, 0

		00000000000039a0:  R_POSTRISC_C_PCREL_FWD	.Lstr.69
    39b0: fc ff ff ff 00 07 00 00 00 02 01 00 00 00 00 04      	! BUNDLE
	callr	%r3, -16
	retf	0
	nop	0

		00000000000039b0:  R_POSTRISC_A_JUMP	puts

00000000000039c0 <test_fp_branch_f32_ne>:
    39c0: 00 00 80 c2 40 90 12 20 04 81 00 00 00 00 10 72      	! BUNDLE
	alloc	5
	nulfssone	%r1, %r2, 2, 0
	ldafr	%r4, 0

		00000000000039c0:  R_POSTRISC_C_PCREL_FWD	.Lstr.70
    39d0: fc ff ff ff 00 07 00 00 00 02 01 00 00 00 00 04      	! BUNDLE
	callr	%r3, -16
	retf	0
	nop	0

		00000000000039d0:  R_POSTRISC_A_JUMP	puts

00000000000039e0 <test_fp_branch_f32_lt>:
    39e0: 00 00 80 c2 40 90 12 40 04 81 00 00 00 00 10 72      	! BUNDLE
	alloc	5
	nulfssolt	%r1, %r2, 2, 0
	ldafr	%r4, 0

		00000000000039e0:  R_POSTRISC_C_PCREL_FWD	.Lstr.71
    39f0: fc ff ff ff 00 07 00 00 00 02 01 00 00 00 00 04      	! BUNDLE
	callr	%r3, -16
	retf	0
	nop	0

		00000000000039f0:  R_POSTRISC_A_JUMP	puts

0000000000003a00 <test_fp_branch_f32_le>:
    3a00: 00 00 80 c2 40 90 12 60 04 81 00 00 00 00 10 72      	! BUNDLE
	alloc	5
	nulfssole	%r1, %r2, 2, 0
	ldafr	%r4, 0

		0000000000003a00:  R_POSTRISC_C_PCREL_FWD	.Lstr.72
    3a10: fc ff ff ff 00 07 00 00 00 02 01 00 00 00 00 04      	! BUNDLE
	callr	%r3, -16
	retf	0
	nop	0

		0000000000003a10:  R_POSTRISC_A_JUMP	puts

0000000000003a20 <test_fp_branch_f32_gt>:
    3a20: 00 00 80 c2 40 90 12 40 02 82 00 00 00 00 10 72      	! BUNDLE
	alloc	5
	nulfssolt	%r2, %r1, 2, 0
	ldafr	%r4, 0

		0000000000003a20:  R_POSTRISC_C_PCREL_FWD	.Lstr.73
    3a30: fc ff ff ff 00 07 00 00 00 02 01 00 00 00 00 04      	! BUNDLE
	callr	%r3, -16
	retf	0
	nop	0

		0000000000003a30:  R_POSTRISC_A_JUMP	puts

0000000000003a40 <test_fp_branch_f32_ge>:
    3a40: 00 00 80 c2 40 90 12 60 02 82 00 00 00 00 10 72      	! BUNDLE
	alloc	5
	nulfssole	%r2, %r1, 2, 0
	ldafr	%r4, 0

		0000000000003a40:  R_POSTRISC_C_PCREL_FWD	.Lstr.74
    3a50: fc ff ff ff 00 07 00 00 00 02 01 00 00 00 00 04      	! BUNDLE
	callr	%r3, -16
	retf	0
	nop	0

		0000000000003a50:  R_POSTRISC_A_JUMP	puts

0000000000003a60 <test_fp_branch_f64_eq>:
    3a60: 00 00 80 c2 40 a0 12 00 04 81 00 00 00 00 10 72      	! BUNDLE
	alloc	5
	nulfsdoeq	%r1, %r2, 2, 0
	ldafr	%r4, 0

		0000000000003a60:  R_POSTRISC_C_PCREL_FWD	.Lstr.75
    3a70: fc ff ff ff 00 07 00 00 00 02 01 00 00 00 00 04      	! BUNDLE
	callr	%r3, -16
	retf	0
	nop	0

		0000000000003a70:  R_POSTRISC_A_JUMP	puts

0000000000003a80 <test_fp_branch_f64_ne>:
    3a80: 00 00 80 c2 40 a0 12 20 04 81 00 00 00 00 10 72      	! BUNDLE
	alloc	5
	nulfsdone	%r1, %r2, 2, 0
	ldafr	%r4, 0

		0000000000003a80:  R_POSTRISC_C_PCREL_FWD	.Lstr.76
    3a90: fc ff ff ff 00 07 00 00 00 02 01 00 00 00 00 04      	! BUNDLE
	callr	%r3, -16
	retf	0
	nop	0

		0000000000003a90:  R_POSTRISC_A_JUMP	puts

0000000000003aa0 <test_fp_branch_f64_lt>:
    3aa0: 00 00 80 c2 40 a0 12 40 04 81 00 00 00 00 10 72      	! BUNDLE
	alloc	5
	nulfsdolt	%r1, %r2, 2, 0
	ldafr	%r4, 0

		0000000000003aa0:  R_POSTRISC_C_PCREL_FWD	.Lstr.77
    3ab0: fc ff ff ff 00 07 00 00 00 02 01 00 00 00 00 04      	! BUNDLE
	callr	%r3, -16
	retf	0
	nop	0

		0000000000003ab0:  R_POSTRISC_A_JUMP	puts

0000000000003ac0 <test_fp_branch_f64_le>:
    3ac0: 00 00 80 c2 40 a0 12 60 04 81 00 00 00 00 10 72      	! BUNDLE
	alloc	5
	nulfsdole	%r1, %r2, 2, 0
	ldafr	%r4, 0

		0000000000003ac0:  R_POSTRISC_C_PCREL_FWD	.Lstr.78
    3ad0: fc ff ff ff 00 07 00 00 00 02 01 00 00 00 00 04      	! BUNDLE
	callr	%r3, -16
	retf	0
	nop	0

		0000000000003ad0:  R_POSTRISC_A_JUMP	puts

0000000000003ae0 <test_fp_branch_f64_gt>:
    3ae0: 00 00 80 c2 40 a0 12 40 02 82 00 00 00 00 10 72      	! BUNDLE
	alloc	5
	nulfsdolt	%r2, %r1, 2, 0
	ldafr	%r4, 0

		0000000000003ae0:  R_POSTRISC_C_PCREL_FWD	.Lstr.79
    3af0: fc ff ff ff 00 07 00 00 00 02 01 00 00 00 00 04      	! BUNDLE
	callr	%r3, -16
	retf	0
	nop	0

		0000000000003af0:  R_POSTRISC_A_JUMP	puts

0000000000003b00 <test_fp_branch_f64_ge>:
    3b00: 00 00 80 c2 40 a0 12 60 02 82 00 00 00 00 10 72      	! BUNDLE
	alloc	5
	nulfsdole	%r2, %r1, 2, 0
	ldafr	%r4, 0

		0000000000003b00:  R_POSTRISC_C_PCREL_FWD	.Lstr.80
    3b10: fc ff ff ff 00 07 00 00 00 02 01 00 00 00 00 04      	! BUNDLE
	callr	%r3, -16
	retf	0
	nop	0

		0000000000003b10:  R_POSTRISC_A_JUMP	puts

0000000000003b20 <test_fp_branch_f128_eq>:
    3b20: 00 00 80 c2 40 b0 12 00 04 81 00 00 00 00 10 72      	! BUNDLE
	alloc	5
	nulfsqoeq	%r1, %r2, 2, 0
	ldafr	%r4, 0

		0000000000003b20:  R_POSTRISC_C_PCREL_FWD	.Lstr.81
    3b30: fc ff ff ff 00 07 00 00 00 02 01 00 00 00 00 04      	! BUNDLE
	callr	%r3, -16
	retf	0
	nop	0

		0000000000003b30:  R_POSTRISC_A_JUMP	puts

0000000000003b40 <test_fp_branch_f128_ne>:
    3b40: 00 00 80 c2 40 b0 12 20 04 81 00 00 00 00 10 72      	! BUNDLE
	alloc	5
	nulfsqone	%r1, %r2, 2, 0
	ldafr	%r4, 0

		0000000000003b40:  R_POSTRISC_C_PCREL_FWD	.Lstr.82
    3b50: fc ff ff ff 00 07 00 00 00 02 01 00 00 00 00 04      	! BUNDLE
	callr	%r3, -16
	retf	0
	nop	0

		0000000000003b50:  R_POSTRISC_A_JUMP	puts

0000000000003b60 <test_fp_branch_f128_lt>:
    3b60: 00 00 80 c2 40 b0 12 40 04 81 00 00 00 00 10 72      	! BUNDLE
	alloc	5
	nulfsqolt	%r1, %r2, 2, 0
	ldafr	%r4, 0

		0000000000003b60:  R_POSTRISC_C_PCREL_FWD	.Lstr.83
    3b70: fc ff ff ff 00 07 00 00 00 02 01 00 00 00 00 04      	! BUNDLE
	callr	%r3, -16
	retf	0
	nop	0

		0000000000003b70:  R_POSTRISC_A_JUMP	puts

0000000000003b80 <test_fp_branch_f128_le>:
    3b80: 00 00 80 c2 40 b0 12 60 04 81 00 00 00 00 10 72      	! BUNDLE
	alloc	5
	nulfsqole	%r1, %r2, 2, 0
	ldafr	%r4, 0

		0000000000003b80:  R_POSTRISC_C_PCREL_FWD	.Lstr.84
    3b90: fc ff ff ff 00 07 00 00 00 02 01 00 00 00 00 04      	! BUNDLE
	callr	%r3, -16
	retf	0
	nop	0

		0000000000003b90:  R_POSTRISC_A_JUMP	puts

0000000000003ba0 <test_fp_branch_f128_gt>:
    3ba0: 00 00 80 c2 40 b0 12 40 02 82 00 00 00 00 10 72      	! BUNDLE
	alloc	5
	nulfsqolt	%r2, %r1, 2, 0
	ldafr	%r4, 0

		0000000000003ba0:  R_POSTRISC_C_PCREL_FWD	.Lstr.85
    3bb0: fc ff ff ff 00 07 00 00 00 02 01 00 00 00 00 04      	! BUNDLE
	callr	%r3, -16
	retf	0
	nop	0

		0000000000003bb0:  R_POSTRISC_A_JUMP	puts

0000000000003bc0 <test_fp_branch_f128_ge>:
    3bc0: 00 00 80 c2 40 b0 12 60 02 82 00 00 00 00 10 72      	! BUNDLE
	alloc	5
	nulfsqole	%r2, %r1, 2, 0
	ldafr	%r4, 0

		0000000000003bc0:  R_POSTRISC_C_PCREL_FWD	.Lstr.86
    3bd0: fc ff ff ff 00 07 00 00 00 02 01 00 00 00 00 04      	! BUNDLE
	callr	%r3, -16
	retf	0
	nop	0

		0000000000003bd0:  R_POSTRISC_A_JUMP	puts

0000000000003be0 <test_builtin_f32_isnan>:
    3be0: 00 00 00 c1 40 10 00 00 fe 01 00 00 00 00 08 04      	! BUNDLE
	alloc	2
	mov	%r1, %gz
	retf	0


0000000000003bf0 <test_builtin_f32_copysign>:
    3bf0: 00 00 80 c1 40 00 0c 04 04 81 00 00 00 00 08 04      	! BUNDLE
	alloc	3
	fmergess	%r1, %r2, %r1, %r1
	retf	0


0000000000003c00 <test_builtin_f64_copysign>:
    3c00: 00 00 80 c1 40 80 0c 04 04 81 00 00 00 00 08 04      	! BUNDLE
	alloc	3
	fmergesd	%r1, %r2, %r1, %r1
	retf	0


0000000000003c10 <test_builtin_f128_copysign>:
    3c10: 00 00 80 c1 40 00 0d 04 04 81 00 00 00 00 08 04      	! BUNDLE
	alloc	3
	fmergesq	%r1, %r2, %r1, %r1
	retf	0


0000000000003c20 <test_compare_f16_eq>:
    3c20: 00 00 80 c1 40 50 49 08 02 01 40 00 00 08 04 16      	! BUNDLE
	alloc	3
	fcmpshoeq	%r1, %r1, %r2
	andi	%r1, %r1, 1

    3c30: 00 00 00 80 40 00 00 00 00 00 01 00 00 00 00 04      	! BUNDLE
	retf	0
	nop	0
	nop	0


0000000000003c40 <test_compare_f16_ne>:
    3c40: 00 00 80 c1 40 60 49 08 02 01 40 00 00 08 04 16      	! BUNDLE
	alloc	3
	fcmpshone	%r1, %r1, %r2
	andi	%r1, %r1, 1

    3c50: 00 00 00 80 40 00 00 00 00 00 01 00 00 00 00 04      	! BUNDLE
	retf	0
	nop	0
	nop	0


0000000000003c60 <test_compare_f16_lt>:
    3c60: 00 00 80 c1 40 70 49 08 02 01 40 00 00 08 04 16      	! BUNDLE
	alloc	3
	fcmpsholt	%r1, %r1, %r2
	andi	%r1, %r1, 1

    3c70: 00 00 00 80 40 00 00 00 00 00 01 00 00 00 00 04      	! BUNDLE
	retf	0
	nop	0
	nop	0


0000000000003c80 <test_compare_f16_le>:
    3c80: 00 00 80 c1 40 80 49 08 02 01 40 00 00 08 04 16      	! BUNDLE
	alloc	3
	fcmpshole	%r1, %r1, %r2
	andi	%r1, %r1, 1

    3c90: 00 00 00 80 40 00 00 00 00 00 01 00 00 00 00 04      	! BUNDLE
	retf	0
	nop	0
	nop	0


0000000000003ca0 <test_compare_f16_gt>:
    3ca0: 00 00 80 c1 40 70 49 04 04 01 40 00 00 08 04 16      	! BUNDLE
	alloc	3
	fcmpsholt	%r1, %r2, %r1
	andi	%r1, %r1, 1

    3cb0: 00 00 00 80 40 00 00 00 00 00 01 00 00 00 00 04      	! BUNDLE
	retf	0
	nop	0
	nop	0


0000000000003cc0 <test_compare_f16_ge>:
    3cc0: 00 00 80 c1 40 80 49 04 04 01 40 00 00 08 04 16      	! BUNDLE
	alloc	3
	fcmpshole	%r1, %r2, %r1
	andi	%r1, %r1, 1

    3cd0: 00 00 00 80 40 00 00 00 00 00 01 00 00 00 00 04      	! BUNDLE
	retf	0
	nop	0
	nop	0


0000000000003ce0 <test_compare_f32_eq>:
    3ce0: 00 00 80 c1 40 50 31 08 02 01 40 00 00 08 04 16      	! BUNDLE
	alloc	3
	fcmpssoeq	%r1, %r1, %r2
	andi	%r1, %r1, 1

    3cf0: 00 00 00 80 40 00 00 00 00 00 01 00 00 00 00 04      	! BUNDLE
	retf	0
	nop	0
	nop	0


0000000000003d00 <test_compare_f32_ne>:
    3d00: 00 00 80 c1 40 60 31 08 02 01 40 00 00 08 04 16      	! BUNDLE
	alloc	3
	fcmpssone	%r1, %r1, %r2
	andi	%r1, %r1, 1

    3d10: 00 00 00 80 40 00 00 00 00 00 01 00 00 00 00 04      	! BUNDLE
	retf	0
	nop	0
	nop	0


0000000000003d20 <test_compare_f32_lt>:
    3d20: 00 00 80 c1 40 70 31 08 02 01 40 00 00 08 04 16      	! BUNDLE
	alloc	3
	fcmpssolt	%r1, %r1, %r2
	andi	%r1, %r1, 1

    3d30: 00 00 00 80 40 00 00 00 00 00 01 00 00 00 00 04      	! BUNDLE
	retf	0
	nop	0
	nop	0


0000000000003d40 <test_compare_f32_le>:
    3d40: 00 00 80 c1 40 80 31 08 02 01 40 00 00 08 04 16      	! BUNDLE
	alloc	3
	fcmpssole	%r1, %r1, %r2
	andi	%r1, %r1, 1

    3d50: 00 00 00 80 40 00 00 00 00 00 01 00 00 00 00 04      	! BUNDLE
	retf	0
	nop	0
	nop	0


0000000000003d60 <test_compare_f32_gt>:
    3d60: 00 00 80 c1 40 70 31 04 04 01 40 00 00 08 04 16      	! BUNDLE
	alloc	3
	fcmpssolt	%r1, %r2, %r1
	andi	%r1, %r1, 1

    3d70: 00 00 00 80 40 00 00 00 00 00 01 00 00 00 00 04      	! BUNDLE
	retf	0
	nop	0
	nop	0


0000000000003d80 <test_compare_f32_ge>:
    3d80: 00 00 80 c1 40 80 31 04 04 01 40 00 00 08 04 16      	! BUNDLE
	alloc	3
	fcmpssole	%r1, %r2, %r1
	andi	%r1, %r1, 1

    3d90: 00 00 00 80 40 00 00 00 00 00 01 00 00 00 00 04      	! BUNDLE
	retf	0
	nop	0
	nop	0


0000000000003da0 <test_compare_f64_eq>:
    3da0: 00 00 80 c1 40 50 39 08 02 01 40 00 00 08 04 16      	! BUNDLE
	alloc	3
	fcmpsdoeq	%r1, %r1, %r2
	andi	%r1, %r1, 1

    3db0: 00 00 00 80 40 00 00 00 00 00 01 00 00 00 00 04      	! BUNDLE
	retf	0
	nop	0
	nop	0


0000000000003dc0 <test_compare_f64_ne>:
    3dc0: 00 00 80 c1 40 60 39 08 02 01 40 00 00 08 04 16      	! BUNDLE
	alloc	3
	fcmpsdone	%r1, %r1, %r2
	andi	%r1, %r1, 1

    3dd0: 00 00 00 80 40 00 00 00 00 00 01 00 00 00 00 04      	! BUNDLE
	retf	0
	nop	0
	nop	0


0000000000003de0 <test_compare_f64_lt>:
    3de0: 00 00 80 c1 40 70 39 08 02 01 40 00 00 08 04 16      	! BUNDLE
	alloc	3
	fcmpsdolt	%r1, %r1, %r2
	andi	%r1, %r1, 1

    3df0: 00 00 00 80 40 00 00 00 00 00 01 00 00 00 00 04      	! BUNDLE
	retf	0
	nop	0
	nop	0


0000000000003e00 <test_compare_f64_le>:
    3e00: 00 00 80 c1 40 80 39 08 02 01 40 00 00 08 04 16      	! BUNDLE
	alloc	3
	fcmpsdole	%r1, %r1, %r2
	andi	%r1, %r1, 1

    3e10: 00 00 00 80 40 00 00 00 00 00 01 00 00 00 00 04      	! BUNDLE
	retf	0
	nop	0
	nop	0


0000000000003e20 <test_compare_f64_gt>:
    3e20: 00 00 80 c1 40 70 39 04 04 01 40 00 00 08 04 16      	! BUNDLE
	alloc	3
	fcmpsdolt	%r1, %r2, %r1
	andi	%r1, %r1, 1

    3e30: 00 00 00 80 40 00 00 00 00 00 01 00 00 00 00 04      	! BUNDLE
	retf	0
	nop	0
	nop	0


0000000000003e40 <test_compare_f64_ge>:
    3e40: 00 00 80 c1 40 80 39 04 04 01 40 00 00 08 04 16      	! BUNDLE
	alloc	3
	fcmpsdole	%r1, %r2, %r1
	andi	%r1, %r1, 1

    3e50: 00 00 00 80 40 00 00 00 00 00 01 00 00 00 00 04      	! BUNDLE
	retf	0
	nop	0
	nop	0


0000000000003e60 <test_compare_f128_eq>:
    3e60: 00 00 80 c1 40 50 41 08 02 01 40 00 00 08 04 16      	! BUNDLE
	alloc	3
	fcmpsqoeq	%r1, %r1, %r2
	andi	%r1, %r1, 1

    3e70: 00 00 00 80 40 00 00 00 00 00 01 00 00 00 00 04      	! BUNDLE
	retf	0
	nop	0
	nop	0


0000000000003e80 <test_compare_f128_ne>:
    3e80: 00 00 80 c1 40 60 41 08 02 01 40 00 00 08 04 16      	! BUNDLE
	alloc	3
	fcmpsqone	%r1, %r1, %r2
	andi	%r1, %r1, 1

    3e90: 00 00 00 80 40 00 00 00 00 00 01 00 00 00 00 04      	! BUNDLE
	retf	0
	nop	0
	nop	0


0000000000003ea0 <test_compare_f128_lt>:
    3ea0: 00 00 80 c1 40 70 41 08 02 01 40 00 00 08 04 16      	! BUNDLE
	alloc	3
	fcmpsqolt	%r1, %r1, %r2
	andi	%r1, %r1, 1

    3eb0: 00 00 00 80 40 00 00 00 00 00 01 00 00 00 00 04      	! BUNDLE
	retf	0
	nop	0
	nop	0


0000000000003ec0 <test_compare_f128_le>:
    3ec0: 00 00 80 c1 40 80 41 08 02 01 40 00 00 08 04 16      	! BUNDLE
	alloc	3
	fcmpsqole	%r1, %r1, %r2
	andi	%r1, %r1, 1

    3ed0: 00 00 00 80 40 00 00 00 00 00 01 00 00 00 00 04      	! BUNDLE
	retf	0
	nop	0
	nop	0


0000000000003ee0 <test_compare_f128_gt>:
    3ee0: 00 00 80 c1 40 70 41 04 04 01 40 00 00 08 04 16      	! BUNDLE
	alloc	3
	fcmpsqolt	%r1, %r2, %r1
	andi	%r1, %r1, 1

    3ef0: 00 00 00 80 40 00 00 00 00 00 01 00 00 00 00 04      	! BUNDLE
	retf	0
	nop	0
	nop	0


0000000000003f00 <test_compare_f128_ge>:
    3f00: 00 00 80 c1 40 80 41 04 04 01 40 00 00 08 04 16      	! BUNDLE
	alloc	3
	fcmpsqole	%r1, %r2, %r1
	andi	%r1, %r1, 1

    3f10: 00 00 00 80 40 00 00 00 00 00 01 00 00 00 00 04      	! BUNDLE
	retf	0
	nop	0
	nop	0


0000000000003f20 <test_conv_f16_to_f32>:
    3f20: 00 00 00 c1 40 80 4b 00 02 01 00 00 00 00 08 04      	! BUNDLE
	alloc	2
	fextsh2ss	%r1, %r1
	retf	0


0000000000003f30 <test_conv_f16_to_f64>:
    3f30: 00 00 00 c1 40 90 4b 00 02 01 00 00 00 00 08 04      	! BUNDLE
	alloc	2
	fextsh2sd	%r1, %r1
	retf	0


0000000000003f40 <test_conv_f16_to_f128>:
    3f40: 00 00 00 c1 40 a0 4b 00 02 01 00 00 00 00 08 04      	! BUNDLE
	alloc	2
	fextsh2sq	%r1, %r1
	retf	0


0000000000003f50 <test_conv_f64_to_f128>:
    3f50: 00 00 00 c1 40 a0 43 00 02 01 00 00 00 00 08 04      	! BUNDLE
	alloc	2
	fextsd2sq	%r1, %r1
	retf	0


0000000000003f60 <test_conv_f32_to_f64>:
    3f60: 00 00 00 c1 40 90 3b 00 02 01 00 00 00 00 08 04      	! BUNDLE
	alloc	2
	fextss2sd	%r1, %r1
	retf	0


0000000000003f70 <test_conv_f32_to_f128>:
    3f70: 00 00 00 c1 40 90 43 00 02 01 00 00 00 00 08 04      	! BUNDLE
	alloc	2
	fextss2sq	%r1, %r1
	retf	0


0000000000003f80 <test_conv_f32_to_f16>:
    3f80: 00 00 00 c1 40 b0 4b 00 02 01 00 00 00 00 08 04      	! BUNDLE
	alloc	2
	fcvtss2sh	%r1, %r1, 0
	retf	0


0000000000003f90 <test_conv_f64_to_f16>:
    3f90: 00 00 00 c1 40 c0 4b 00 02 01 00 00 00 00 08 04      	! BUNDLE
	alloc	2
	fcvtsd2sh	%r1, %r1, 0
	retf	0


0000000000003fa0 <test_conv_f64_to_f32>:
    3fa0: 00 00 00 c1 40 80 3b 00 02 01 00 00 00 00 08 04      	! BUNDLE
	alloc	2
	fcvtsd2ss	%r1, %r1, 0
	retf	0


0000000000003fb0 <test_conv_f128_to_f16>:
    3fb0: 00 00 00 c1 40 d0 4b 00 02 01 00 00 00 00 08 04      	! BUNDLE
	alloc	2
	fcvtsq2sh	%r1, %r1, 0
	retf	0


0000000000003fc0 <test_conv_f128_to_f32>:
    3fc0: 00 00 00 c1 40 c0 43 00 02 01 00 00 00 00 08 04      	! BUNDLE
	alloc	2
	fcvtsq2ss	%r1, %r1, 0
	retf	0


0000000000003fd0 <test_conv_f128_to_f64>:
    3fd0: 00 00 00 c1 40 b0 43 00 02 01 00 00 00 00 08 04      	! BUNDLE
	alloc	2
	fcvtsq2sd	%r1, %r1, 0
	retf	0


0000000000003fe0 <test_conv_f16_to_i32>:
    3fe0: 00 00 00 c1 40 f0 49 00 02 01 00 00 00 00 08 04      	! BUNDLE
	alloc	2
	fcvtsh2iw	%r1, %r1, 0
	retf	0


0000000000003ff0 <test_conv_f16_to_u32>:
    3ff0: 00 00 00 c1 40 00 4a 00 02 01 00 00 00 00 08 04      	! BUNDLE
	alloc	2
	fcvtsh2uw	%r1, %r1, 0
	retf	0


0000000000004000 <test_conv_f16_to_i64>:
    4000: 00 00 00 c1 40 30 4a 00 02 01 00 00 00 00 08 04      	! BUNDLE
	alloc	2
	fcvtsh2id	%r1, %r1, 0
	retf	0


0000000000004010 <test_conv_f16_to_u64>:
    4010: 00 00 00 c1 40 40 4a 00 02 01 00 00 00 00 08 04      	! BUNDLE
	alloc	2
	fcvtsh2ud	%r1, %r1, 0
	retf	0


0000000000004020 <test_conv_f16_to_i128>:
    4020: 00 00 00 c1 40 70 4a 00 02 01 00 00 00 00 08 04      	! BUNDLE
	alloc	2
	fcvtsh2iq	%r1, %r1, 0
	retf	0


0000000000004030 <test_conv_f16_to_u128>:
    4030: 00 00 00 c1 40 80 4a 00 02 01 00 00 00 00 08 04      	! BUNDLE
	alloc	2
	fcvtsh2uq	%r1, %r1, 0
	retf	0


0000000000004040 <test_conv_i32_to_f16>:
    4040: 00 00 00 c1 40 10 4a 00 02 01 00 00 00 00 08 04      	! BUNDLE
	alloc	2
	fcvtiw2sh	%r1, %r1, 0
	retf	0


0000000000004050 <test_conv_u32_to_f16>:
    4050: 00 00 00 c1 40 20 4a 00 02 01 00 00 00 00 08 04      	! BUNDLE
	alloc	2
	fcvtuw2sh	%r1, %r1, 0
	retf	0


0000000000004060 <test_conv_i64_to_f16>:
    4060: 00 00 00 c1 40 50 4a 00 02 01 00 00 00 00 08 04      	! BUNDLE
	alloc	2
	fcvtid2sh	%r1, %r1, 0
	retf	0


0000000000004070 <test_conv_u64_to_f16>:
    4070: 00 00 00 c1 40 60 4a 00 02 01 00 00 00 00 08 04      	! BUNDLE
	alloc	2
	fcvtud2sh	%r1, %r1, 0
	retf	0


0000000000004080 <test_conv_i128_to_f16>:
    4080: 00 00 00 c1 40 90 4a 00 02 01 00 00 00 00 08 04      	! BUNDLE
	alloc	2
	fcvtiq2sh	%r1, %r1, 0
	retf	0


0000000000004090 <test_conv_u128_to_f16>:
    4090: 00 00 00 c1 40 a0 4a 00 02 01 00 00 00 00 08 04      	! BUNDLE
	alloc	2
	fcvtuq2sh	%r1, %r1, 0
	retf	0


00000000000040a0 <test_conv_f32_to_i32>:
    40a0: 00 00 00 c1 40 f0 31 00 02 01 00 00 00 00 08 04      	! BUNDLE
	alloc	2
	fcvtss2iw	%r1, %r1, 0
	retf	0


00000000000040b0 <test_conv_f32_to_u32>:
    40b0: 00 00 00 c1 40 00 32 00 02 01 00 00 00 00 08 04      	! BUNDLE
	alloc	2
	fcvtss2uw	%r1, %r1, 0
	retf	0


00000000000040c0 <test_conv_f32_to_i64>:
    40c0: 00 00 00 c1 40 30 32 00 02 01 00 00 00 00 08 04      	! BUNDLE
	alloc	2
	fcvtss2id	%r1, %r1, 0
	retf	0


00000000000040d0 <test_conv_f32_to_u64>:
    40d0: 00 00 00 c1 40 40 32 00 02 01 00 00 00 00 08 04      	! BUNDLE
	alloc	2
	fcvtss2ud	%r1, %r1, 0
	retf	0


00000000000040e0 <test_conv_f32_to_i128>:
    40e0: 00 00 00 c1 40 70 32 00 02 01 00 00 00 00 08 04      	! BUNDLE
	alloc	2
	fcvtss2iq	%r1, %r1, 0
	retf	0


00000000000040f0 <test_conv_f32_to_u128>:
    40f0: 00 00 00 c1 40 80 32 00 02 01 00 00 00 00 08 04      	! BUNDLE
	alloc	2
	fcvtss2uq	%r1, %r1, 0
	retf	0


0000000000004100 <test_conv_i32_to_f32>:
    4100: 00 00 00 c1 40 10 32 00 02 01 00 00 00 00 08 04      	! BUNDLE
	alloc	2
	fcvtiw2ss	%r1, %r1, 0
	retf	0


0000000000004110 <test_conv_u32_to_f32>:
    4110: 00 00 00 c1 40 20 32 00 02 01 00 00 00 00 08 04      	! BUNDLE
	alloc	2
	fcvtuw2ss	%r1, %r1, 0
	retf	0


0000000000004120 <test_conv_i64_to_f32>:
    4120: 00 00 00 c1 40 50 32 00 02 01 00 00 00 00 08 04      	! BUNDLE
	alloc	2
	fcvtid2ss	%r1, %r1, 0
	retf	0


0000000000004130 <test_conv_u64_to_f32>:
    4130: 00 00 00 c1 40 60 32 00 02 01 00 00 00 00 08 04      	! BUNDLE
	alloc	2
	fcvtud2ss	%r1, %r1, 0
	retf	0


0000000000004140 <test_conv_i128_to_f32>:
    4140: 00 00 00 c1 40 90 32 00 02 01 00 00 00 00 08 04      	! BUNDLE
	alloc	2
	fcvtiq2ss	%r1, %r1, 0
	retf	0


0000000000004150 <test_conv_u128_to_f32>:
    4150: 00 00 00 c1 40 a0 32 00 02 01 00 00 00 00 08 04      	! BUNDLE
	alloc	2
	fcvtuq2ss	%r1, %r1, 0
	retf	0


0000000000004160 <test_conv_f64_to_i32>:
    4160: 00 00 00 c1 40 f0 39 00 02 01 00 00 00 00 08 04      	! BUNDLE
	alloc	2
	fcvtsd2iw	%r1, %r1, 0
	retf	0


0000000000004170 <test_conv_f64_to_u32>:
    4170: 00 00 00 c1 40 00 3a 00 02 01 00 00 00 00 08 04      	! BUNDLE
	alloc	2
	fcvtsd2uw	%r1, %r1, 0
	retf	0


0000000000004180 <test_conv_f64_to_i64>:
    4180: 00 00 00 c1 40 30 3a 00 02 01 00 00 00 00 08 04      	! BUNDLE
	alloc	2
	fcvtsd2id	%r1, %r1, 0
	retf	0


0000000000004190 <test_conv_f64_to_u64>:
    4190: 00 00 00 c1 40 40 3a 00 02 01 00 00 00 00 08 04      	! BUNDLE
	alloc	2
	fcvtsd2ud	%r1, %r1, 0
	retf	0


00000000000041a0 <test_conv_f64_to_i128>:
    41a0: 00 00 00 c1 40 70 3a 00 02 01 00 00 00 00 08 04      	! BUNDLE
	alloc	2
	fcvtsd2iq	%r1, %r1, 0
	retf	0


00000000000041b0 <test_conv_f64_to_u128>:
    41b0: 00 00 00 c1 40 80 3a 00 02 01 00 00 00 00 08 04      	! BUNDLE
	alloc	2
	fcvtsd2uq	%r1, %r1, 0
	retf	0


00000000000041c0 <test_conv_i32_to_f64>:
    41c0: 00 00 00 c1 40 10 3a 00 02 01 00 00 00 00 08 04      	! BUNDLE
	alloc	2
	fcvtiw2sd	%r1, %r1, 0
	retf	0


00000000000041d0 <test_conv_u32_to_f64>:
    41d0: 00 00 00 c1 40 20 3a 00 02 01 00 00 00 00 08 04      	! BUNDLE
	alloc	2
	fcvtuw2sd	%r1, %r1, 0
	retf	0


00000000000041e0 <test_conv_i64_to_f64>:
    41e0: 00 00 00 c1 40 50 3a 00 02 01 00 00 00 00 08 04      	! BUNDLE
	alloc	2
	fcvtid2sd	%r1, %r1, 0
	retf	0


00000000000041f0 <test_conv_u64_to_f64>:
    41f0: 00 00 00 c1 40 60 3a 00 02 01 00 00 00 00 08 04      	! BUNDLE
	alloc	2
	fcvtud2sd	%r1, %r1, 0
	retf	0


0000000000004200 <test_conv_i128_to_f64>:
    4200: 00 00 00 c1 40 90 3a 00 02 01 00 00 00 00 08 04      	! BUNDLE
	alloc	2
	fcvtiq2sd	%r1, %r1, 0
	retf	0


0000000000004210 <test_conv_u128_to_f64>:
    4210: 00 00 00 c1 40 a0 3a 00 02 01 00 00 00 00 08 04      	! BUNDLE
	alloc	2
	fcvtuq2sd	%r1, %r1, 0
	retf	0


0000000000004220 <test_conv_f128_to_i32>:
    4220: 00 00 00 c1 40 f0 41 00 02 01 00 00 00 00 08 04      	! BUNDLE
	alloc	2
	fcvtsq2iw	%r1, %r1, 0
	retf	0


0000000000004230 <test_conv_f128_to_u32>:
    4230: 00 00 00 c1 40 00 42 00 02 01 00 00 00 00 08 04      	! BUNDLE
	alloc	2
	fcvtsq2uw	%r1, %r1, 0
	retf	0


0000000000004240 <test_conv_f128_to_i64>:
    4240: 00 00 00 c1 40 30 42 00 02 01 00 00 00 00 08 04      	! BUNDLE
	alloc	2
	fcvtsq2id	%r1, %r1, 0
	retf	0


0000000000004250 <test_conv_f128_to_u64>:
    4250: 00 00 00 c1 40 40 42 00 02 01 00 00 00 00 08 04      	! BUNDLE
	alloc	2
	fcvtsq2ud	%r1, %r1, 0
	retf	0


0000000000004260 <test_conv_f128_to_i128>:
    4260: 00 00 00 c1 40 70 42 00 02 01 00 00 00 00 08 04      	! BUNDLE
	alloc	2
	fcvtsq2iq	%r1, %r1, 0
	retf	0


0000000000004270 <test_conv_f128_to_u128>:
    4270: 00 00 00 c1 40 80 42 00 02 01 00 00 00 00 08 04      	! BUNDLE
	alloc	2
	fcvtsq2uq	%r1, %r1, 0
	retf	0


0000000000004280 <test_conv_i32_to_f128>:
    4280: 00 00 00 c1 40 10 42 00 02 01 00 00 00 00 08 04      	! BUNDLE
	alloc	2
	fcvtiw2sq	%r1, %r1, 0
	retf	0


0000000000004290 <test_conv_u32_to_f128>:
    4290: 00 00 00 c1 40 20 42 00 02 01 00 00 00 00 08 04      	! BUNDLE
	alloc	2
	fcvtuw2sq	%r1, %r1, 0
	retf	0


00000000000042a0 <test_conv_i64_to_f128>:
    42a0: 00 00 00 c1 40 50 42 00 02 01 00 00 00 00 08 04      	! BUNDLE
	alloc	2
	fcvtid2sq	%r1, %r1, 0
	retf	0


00000000000042b0 <test_conv_u64_to_f128>:
    42b0: 00 00 00 c1 40 60 42 00 02 01 00 00 00 00 08 04      	! BUNDLE
	alloc	2
	fcvtud2sq	%r1, %r1, 0
	retf	0


00000000000042c0 <test_conv_i128_to_f128>:
    42c0: 00 00 00 c1 40 90 42 00 02 01 00 00 00 00 08 04      	! BUNDLE
	alloc	2
	fcvtiq2sq	%r1, %r1, 0
	retf	0


00000000000042d0 <test_conv_u128_to_f128>:
    42d0: 00 00 00 c1 40 a0 42 00 02 01 00 00 00 00 08 04      	! BUNDLE
	alloc	2
	fcvtuq2sq	%r1, %r1, 0
	retf	0


00000000000042e0 <test_fp_immediate_f16>:
    42e0: 00 00 00 c1 40 00 00 00 00 81 31 00 00 00 08 04      	! BUNDLE
	alloc	2
	ldhzr	%r1, 0
	retf	0

		00000000000042e0:  R_POSTRISC_B_PCREL_FWD	.LCPI317_0

00000000000042f0 <test_fp_immediate_f32>:
    42f0: 00 00 00 c1 40 00 00 00 00 01 33 00 00 00 08 04      	! BUNDLE
	alloc	2
	ldwzr	%r1, 0
	retf	0

		00000000000042f0:  R_POSTRISC_B_PCREL_FWD	.LCPI318_0

0000000000004300 <test_fp_immediate_f64>:
    4300: 00 00 00 c1 40 00 00 00 00 81 34 00 00 00 08 04      	! BUNDLE
	alloc	2
	lddzr	%r1, 0
	retf	0

		0000000000004300:  R_POSTRISC_B_PCREL_FWD	.LCPI319_0

0000000000004310 <test_fp_immediate_f128>:
    4310: 00 00 00 c1 40 00 00 00 00 01 36 00 00 00 08 04      	! BUNDLE
	alloc	2
	ldqr	%r1, 0
	retf	0

		0000000000004310:  R_POSTRISC_B_PCREL_FWD	.LCPI320_0

0000000000004320 <test_round_f32>:
    4320: 00 00 00 c1 40 40 31 00 02 01 00 00 00 00 08 04      	! BUNDLE
	alloc	2
	frndss.even	%r1, %r1
	retf	0


0000000000004330 <test_floor_f32>:
    4330: 00 00 00 c1 40 40 b1 00 02 01 00 00 00 00 08 04      	! BUNDLE
	alloc	2
	frndss.floor	%r1, %r1
	retf	0


0000000000004340 <test_ceil_f32>:
    4340: 00 00 00 c1 40 40 31 01 02 01 00 00 00 00 08 04      	! BUNDLE
	alloc	2
	frndss.ceil	%r1, %r1
	retf	0


0000000000004350 <test_trunc_f32>:
    4350: 00 00 00 c1 40 40 b1 01 02 01 00 00 00 00 08 04      	! BUNDLE
	alloc	2
	frndss.trunc	%r1, %r1
	retf	0


0000000000004360 <test_nearbyint_f32>:
    4360: 00 00 00 c1 40 40 31 02 02 01 00 00 00 00 08 04      	! BUNDLE
	alloc	2
	frndss.dyn	%r1, %r1
	retf	0


0000000000004370 <test_rint_f32>:
    4370: 00 00 00 c1 40 40 31 02 02 01 00 00 00 00 08 04      	! BUNDLE
	alloc	2
	frndss.dyn	%r1, %r1
	retf	0


0000000000004380 <test_round_f64>:
    4380: 00 00 00 c1 40 40 39 00 02 01 00 00 00 00 08 04      	! BUNDLE
	alloc	2
	frndsd.even	%r1, %r1
	retf	0


0000000000004390 <test_floor_f64>:
    4390: 00 00 00 c1 40 40 b9 00 02 01 00 00 00 00 08 04      	! BUNDLE
	alloc	2
	frndsd.floor	%r1, %r1
	retf	0


00000000000043a0 <test_ceil_f64>:
    43a0: 00 00 00 c1 40 40 39 01 02 01 00 00 00 00 08 04      	! BUNDLE
	alloc	2
	frndsd.ceil	%r1, %r1
	retf	0


00000000000043b0 <test_trunc_f64>:
    43b0: 00 00 00 c1 40 40 b9 01 02 01 00 00 00 00 08 04      	! BUNDLE
	alloc	2
	frndsd.trunc	%r1, %r1
	retf	0


00000000000043c0 <test_nearbyint_f64>:
    43c0: 00 00 00 c1 40 40 39 02 02 01 00 00 00 00 08 04      	! BUNDLE
	alloc	2
	frndsd.dyn	%r1, %r1
	retf	0


00000000000043d0 <test_rint_f64>:
    43d0: 00 00 00 c1 40 40 39 02 02 01 00 00 00 00 08 04      	! BUNDLE
	alloc	2
	frndsd.dyn	%r1, %r1
	retf	0


00000000000043e0 <test_round_f128>:
    43e0: 00 00 00 c1 40 40 41 00 02 01 00 00 00 00 08 04      	! BUNDLE
	alloc	2
	frndsq.even	%r1, %r1
	retf	0


00000000000043f0 <test_floor_f128>:
    43f0: 00 00 00 c1 40 40 c1 00 02 01 00 00 00 00 08 04      	! BUNDLE
	alloc	2
	frndsq.floor	%r1, %r1
	retf	0


0000000000004400 <test_ceil_f128>:
    4400: 00 00 00 c1 40 40 41 01 02 01 00 00 00 00 08 04      	! BUNDLE
	alloc	2
	frndsq.ceil	%r1, %r1
	retf	0


0000000000004410 <test_trunc_f128>:
    4410: 00 00 00 c1 40 40 c1 01 02 01 00 00 00 00 08 04      	! BUNDLE
	alloc	2
	frndsq.trunc	%r1, %r1
	retf	0


0000000000004420 <test_nearbyint_f128>:
    4420: 00 00 00 c1 40 40 41 02 02 01 00 00 00 00 08 04      	! BUNDLE
	alloc	2
	frndsq.dyn	%r1, %r1
	retf	0


0000000000004430 <test_rint_f128>:
    4430: 00 00 00 c1 40 40 41 02 02 01 00 00 00 00 08 04      	! BUNDLE
	alloc	2
	frndsq.dyn	%r1, %r1
	retf	0


0000000000004440 <test_fneg_f32>:
    4440: 00 00 00 c1 40 90 30 00 02 01 00 00 00 00 08 04      	! BUNDLE
	alloc	2
	fnegss	%r1, %r1
	retf	0


0000000000004450 <test_fabs_f32>:
    4450: 00 00 00 c1 40 a0 30 00 02 01 00 00 00 00 08 04      	! BUNDLE
	alloc	2
	fabsss	%r1, %r1
	retf	0


0000000000004460 <test_fnabs_f32>:
    4460: 00 00 00 c1 40 b0 30 00 02 01 00 00 00 00 08 04      	! BUNDLE
	alloc	2
	fnabsss	%r1, %r1
	retf	0


0000000000004470 <test_fabsd_f32>:
    4470: 00 00 80 c1 40 c0 30 08 02 01 00 00 00 00 08 04      	! BUNDLE
	alloc	3
	fabsdss	%r1, %r1, %r2
	retf	0


0000000000004480 <test_fnabsd_f32>:
    4480: 00 00 80 c1 40 d0 30 08 02 01 00 00 00 00 08 04      	! BUNDLE
	alloc	3
	fnabsdss	%r1, %r1, %r2
	retf	0


0000000000004490 <test_fneg_f64>:
    4490: 00 00 00 c1 40 90 38 00 02 01 00 00 00 00 08 04      	! BUNDLE
	alloc	2
	fnegsd	%r1, %r1
	retf	0


00000000000044a0 <test_fabs_f64>:
    44a0: 00 00 00 c1 40 a0 38 00 02 01 00 00 00 00 08 04      	! BUNDLE
	alloc	2
	fabssd	%r1, %r1
	retf	0


00000000000044b0 <test_fnabs_f64>:
    44b0: 00 00 00 c1 40 b0 38 00 02 01 00 00 00 00 08 04      	! BUNDLE
	alloc	2
	fnabssd	%r1, %r1
	retf	0


00000000000044c0 <test_fabsd_f64>:
    44c0: 00 00 80 c1 40 c0 38 08 02 01 00 00 00 00 08 04      	! BUNDLE
	alloc	3
	fabsdsd	%r1, %r1, %r2
	retf	0


00000000000044d0 <test_fnabsd_f64>:
    44d0: 00 00 80 c1 40 d0 38 08 02 01 00 00 00 00 08 04      	! BUNDLE
	alloc	3
	fnabsdsd	%r1, %r1, %r2
	retf	0


00000000000044e0 <test_fneg_f128>:
    44e0: 00 00 00 c1 40 90 40 00 02 01 00 00 00 00 08 04      	! BUNDLE
	alloc	2
	fnegsq	%r1, %r1
	retf	0


00000000000044f0 <test_fabs_f128>:
    44f0: 00 00 00 c1 40 a0 40 00 02 01 00 00 00 00 08 04      	! BUNDLE
	alloc	2
	fabssq	%r1, %r1
	retf	0


0000000000004500 <test_fnabs_f128>:
    4500: 00 00 00 c1 40 b0 40 00 02 01 00 00 00 00 08 04      	! BUNDLE
	alloc	2
	fnabssq	%r1, %r1
	retf	0


0000000000004510 <test_fabsd_f128>:
    4510: 00 00 80 c1 40 c0 40 08 02 01 00 00 00 00 08 04      	! BUNDLE
	alloc	3
	fabsdsq	%r1, %r1, %r2
	retf	0


0000000000004520 <test_fnabsd_f128>:
    4520: 00 00 80 c1 40 d0 40 08 02 01 00 00 00 00 08 04      	! BUNDLE
	alloc	3
	fnabsdsq	%r1, %r1, %r2
	retf	0


0000000000004530 <test_function_pointer>:
    4530: 00 00 80 c2 40 10 00 00 04 04 c0 18 f0 0f 0c 00      	! BUNDLE
	alloc	5
	mov	%r4, %r2
	callri	%r3, %r1, %gz

    4540: 90 00 02 42 00 00 00 00 00 02 01 00 00 00 00 04      	! BUNDLE
	addw	%r1, %r4, %r2
	retf	0
	nop	0


0000000000004550 <test_function_call>:
    4550: 00 00 80 c2 40 10 00 00 04 04 c0 ff ff ff 0f 70      	! BUNDLE
	alloc	5
	mov	%r4, %r2
	callr	%r3, -16

		0000000000004550:  R_POSTRISC_C_JUMP	ccc
    4560: 90 00 02 42 00 00 00 00 00 02 01 00 00 00 00 04      	! BUNDLE
	addw	%r1, %r4, %r2
	retf	0
	nop	0


0000000000004570 <test_function>:
    4570: 00 00 80 c2 40 10 00 00 02 04 c0 ff ff ff 0f 70      	! BUNDLE
	alloc	5
	mov	%r4, %r1
	callr	%r3, -16

		0000000000004570:  R_POSTRISC_C_JUMP	xprintf
    4580: 90 00 02 42 00 00 00 00 00 02 01 00 00 00 00 04      	! BUNDLE
	addw	%r1, %r4, %r2
	retf	0
	nop	0


0000000000004590 <test_callmi>:
    4590: 00 00 80 c2 40 00 80 05 04 82 18 19 00 10 0c 00      	! BUNDLE
	alloc	5
	ldax	%r2, %r2, %r1, 3, 0
	callmi	%r3, %r2, 0

    45a0: 90 00 01 42 00 00 00 00 00 02 01 00 00 00 00 04      	! BUNDLE
	addw	%r1, %r4, %r1
	retf	0
	nop	0


00000000000045b0 <test_callmi_folding>:
    45b0: 00 00 80 c2 40 10 00 00 04 04 00 19 60 08 0c 00      	! BUNDLE
	alloc	5
	mov	%r4, %r2
	callmi	%r3, %r1, 48

    45c0: 08 00 00 42 20 02 00 00 00 02 01 00 00 00 00 04      	! BUNDLE
	addiws	%r1, %r4, 2
	retf	0
	nop	0


00000000000045d0 <test_callplt_folding>:
    45d0: 00 00 00 c2 40 10 00 00 02 03 00 00 00 00 08 74      	! BUNDLE
	alloc	4
	mov	%r3, %r1
	callplt	%r2, 0

		00000000000045d0:  R_POSTRISC_C_PCREL_FWD	gftable+0x28
    45e0: 08 00 80 41 20 02 00 00 00 02 01 00 00 00 00 04      	! BUNDLE
	addiws	%r1, %r3, 2
	retf	0
	nop	0


00000000000045f0 <test_global_function_pointer_target>:
    45f0: 00 00 00 c1 40 10 00 00 02 81 08 00 00 00 08 04      	! BUNDLE
	alloc	2
	addiws	%r1, %r1, 1
	retf	0


0000000000004600 <test_static_function_pointer_materialize>:
    4600: 00 00 00 c1 40 f0 ff ff ff 01 18 00 00 00 08 04      	! BUNDLE
	alloc	2
	ldar	%r1, -1
	retf	0

		0000000000004600:  R_POSTRISC_B_JUMP	test_static_function_pointer_target

0000000000004610 <test_static_function_pointer_target>:
    4610: 00 00 00 c1 40 10 00 00 02 81 08 00 00 00 08 04      	! BUNDLE
	alloc	2
	addiws	%r1, %r1, 1
	retf	0


0000000000004620 <test_global_function_pointer_materialize>:
    4620: 00 00 00 c1 40 f0 ff ff ff 01 18 00 00 00 08 04      	! BUNDLE
	alloc	2
	ldar	%r1, -1
	retf	0

		0000000000004620:  R_POSTRISC_B_JUMP	test_global_function_pointer_target

0000000000004630 <test_extern_function_pointer_materialize>:
    4630: 00 00 00 c1 40 f0 ff ff ff 01 18 00 00 00 08 04      	! BUNDLE
	alloc	2
	ldar	%r1, -1
	retf	0

		0000000000004630:  R_POSTRISC_B_JUMP	test_extern_function_pointer_target

0000000000004640 <test_global_data>:
    4640: 00 00 80 c1 40 00 00 00 00 82 74 00 00 10 08 20      	! BUNDLE
	alloc	3
	lddzr	%r2, 0
	addi	%r2, %r2, 1

		0000000000004640:  R_POSTRISC_B_PCREL_FWD	x_bss
    4650: 00 00 00 80 60 0d 00 00 00 82 74 00 00 10 08 20      	! BUNDLE
	stdr	%r2, 0
	lddzr	%r2, 0
	addi	%r2, %r2, 1

		0000000000004650:  R_POSTRISC_A_PCREL_FWD	x_bss
		0000000000004650:  R_POSTRISC_B_PCREL_FWD	x_bss_extern
    4660: 00 00 00 80 60 0d 00 00 00 02 01 00 00 00 00 04      	! BUNDLE
	stdr	%r2, 0
	retf	0
	nop	0

		0000000000004660:  R_POSTRISC_A_PCREL_FWD	x_bss_extern

0000000000004670 <test_global_i8_ptr>:
    4670: 00 00 00 c1 40 00 00 00 00 81 1c 00 00 00 08 04      	! BUNDLE
	alloc	2
	ldafr	%r1, 0
	retf	0

		0000000000004670:  R_POSTRISC_B_PCREL_FWD	global_i8

0000000000004680 <test_global_i8>:
    4680: 00 00 00 c1 40 00 00 00 00 81 30 00 00 00 08 04      	! BUNDLE
	alloc	2
	ldbsr	%r1, 0
	retf	0

		0000000000004680:  R_POSTRISC_B_PCREL_FWD	global_i8

0000000000004690 <test_global_u8>:
    4690: 00 00 00 c1 40 00 00 00 00 01 30 00 00 00 08 04      	! BUNDLE
	alloc	2
	ldbzr	%r1, 0
	retf	0

		0000000000004690:  R_POSTRISC_B_PCREL_FWD	global_u8

00000000000046a0 <test_global_i16>:
    46a0: 00 00 00 c1 40 00 00 00 00 01 32 00 00 00 08 04      	! BUNDLE
	alloc	2
	ldhsr	%r1, 0
	retf	0

		00000000000046a0:  R_POSTRISC_B_PCREL_FWD	global_i16

00000000000046b0 <test_global_u16>:
    46b0: 00 00 00 c1 40 00 00 00 00 81 31 00 00 00 08 04      	! BUNDLE
	alloc	2
	ldhzr	%r1, 0
	retf	0

		00000000000046b0:  R_POSTRISC_B_PCREL_FWD	global_u16

00000000000046c0 <test_global_i8_to_i16>:
    46c0: 00 00 00 c1 40 00 00 00 00 81 30 00 00 00 08 04      	! BUNDLE
	alloc	2
	ldbsr	%r1, 0
	retf	0

		00000000000046c0:  R_POSTRISC_B_PCREL_FWD	global_i8

00000000000046d0 <test_global_u8_to_u16>:
    46d0: 00 00 00 c1 40 00 00 00 00 01 30 00 00 00 08 04      	! BUNDLE
	alloc	2
	ldbzr	%r1, 0
	retf	0

		00000000000046d0:  R_POSTRISC_B_PCREL_FWD	global_u8

00000000000046e0 <test_global_i32>:
    46e0: 00 00 00 c1 40 00 00 00 00 01 33 00 00 00 08 04      	! BUNDLE
	alloc	2
	ldwzr	%r1, 0
	retf	0

		00000000000046e0:  R_POSTRISC_B_PCREL_FWD	global_i32

00000000000046f0 <test_global_u32>:
    46f0: 00 00 00 c1 40 00 00 00 00 01 33 00 00 00 08 04      	! BUNDLE
	alloc	2
	ldwzr	%r1, 0
	retf	0

		00000000000046f0:  R_POSTRISC_B_PCREL_FWD	global_u32

0000000000004700 <test_global_i8_to_i32>:
    4700: 00 00 00 c1 40 00 00 00 00 81 30 00 00 00 08 04      	! BUNDLE
	alloc	2
	ldbsr	%r1, 0
	retf	0

		0000000000004700:  R_POSTRISC_B_PCREL_FWD	global_i8

0000000000004710 <test_global_u8_to_u32>:
    4710: 00 00 00 c1 40 00 00 00 00 01 30 00 00 00 08 04      	! BUNDLE
	alloc	2
	ldbzr	%r1, 0
	retf	0

		0000000000004710:  R_POSTRISC_B_PCREL_FWD	global_u8

0000000000004720 <test_global_i16_to_i32>:
    4720: 00 00 00 c1 40 00 00 00 00 01 32 00 00 00 08 04      	! BUNDLE
	alloc	2
	ldhsr	%r1, 0
	retf	0

		0000000000004720:  R_POSTRISC_B_PCREL_FWD	global_i16

0000000000004730 <test_global_u16_to_u32>:
    4730: 00 00 00 c1 40 00 00 00 00 81 31 00 00 00 08 04      	! BUNDLE
	alloc	2
	ldhzr	%r1, 0
	retf	0

		0000000000004730:  R_POSTRISC_B_PCREL_FWD	global_u16

0000000000004740 <test_global_i8_to_i64>:
    4740: 00 00 00 c1 40 00 00 00 00 81 30 00 00 00 08 04      	! BUNDLE
	alloc	2
	ldbsr	%r1, 0
	retf	0

		0000000000004740:  R_POSTRISC_B_PCREL_FWD	global_i8

0000000000004750 <test_global_u8_to_u64>:
    4750: 00 00 00 c1 40 00 00 00 00 01 30 00 00 00 08 04      	! BUNDLE
	alloc	2
	ldbzr	%r1, 0
	retf	0

		0000000000004750:  R_POSTRISC_B_PCREL_FWD	global_u8

0000000000004760 <test_global_i16_to_i64>:
    4760: 00 00 00 c1 40 00 00 00 00 01 32 00 00 00 08 04      	! BUNDLE
	alloc	2
	ldhsr	%r1, 0
	retf	0

		0000000000004760:  R_POSTRISC_B_PCREL_FWD	global_i16

0000000000004770 <test_global_u16_to_u64>:
    4770: 00 00 00 c1 40 00 00 00 00 81 31 00 00 00 08 04      	! BUNDLE
	alloc	2
	ldhzr	%r1, 0
	retf	0

		0000000000004770:  R_POSTRISC_B_PCREL_FWD	global_u16

0000000000004780 <test_global_i32_to_i64>:
    4780: 00 00 00 c1 40 00 00 00 00 81 33 00 00 00 08 04      	! BUNDLE
	alloc	2
	ldwsr	%r1, 0
	retf	0

		0000000000004780:  R_POSTRISC_B_PCREL_FWD	global_i32

0000000000004790 <test_global_u32_to_u64>:
    4790: 00 00 00 c1 40 00 00 00 00 01 33 00 00 00 08 04      	! BUNDLE
	alloc	2
	ldwzr	%r1, 0
	retf	0

		0000000000004790:  R_POSTRISC_B_PCREL_FWD	global_u32

00000000000047a0 <test_global_i64>:
    47a0: 00 00 00 c1 40 00 00 00 00 81 34 00 00 00 08 04      	! BUNDLE
	alloc	2
	lddzr	%r1, 0
	retf	0

		00000000000047a0:  R_POSTRISC_B_PCREL_FWD	global_i64

00000000000047b0 <test_global_u64>:
    47b0: 00 00 00 c1 40 00 00 00 00 81 34 00 00 00 08 04      	! BUNDLE
	alloc	2
	lddzr	%r1, 0
	retf	0

		00000000000047b0:  R_POSTRISC_B_PCREL_FWD	global_u64

00000000000047c0 <test_global_array_folding_i8>:
    47c0: 00 00 00 c1 40 00 00 00 00 81 30 00 00 00 08 04      	! BUNDLE
	alloc	2
	ldbsr	%r1, 0
	retf	0

		00000000000047c0:  R_POSTRISC_B_PCREL_FWD	global_array_i8+0x5

00000000000047d0 <test_global_array_folding_i16>:
    47d0: 00 00 00 c1 40 00 00 00 00 01 32 00 00 00 08 04      	! BUNDLE
	alloc	2
	ldhsr	%r1, 0
	retf	0

		00000000000047d0:  R_POSTRISC_B_PCREL_FWD	global_array_i16+0xa

00000000000047e0 <test_global_array_folding_i32>:
    47e0: 00 00 00 c1 40 00 00 00 00 01 33 00 00 00 08 04      	! BUNDLE
	alloc	2
	ldwzr	%r1, 0
	retf	0

		00000000000047e0:  R_POSTRISC_B_PCREL_FWD	global_array_i32+0x14

00000000000047f0 <test_global_array_folding_i64>:
    47f0: 00 00 00 c1 40 00 00 00 00 81 34 00 00 00 08 04      	! BUNDLE
	alloc	2
	lddzr	%r1, 0
	retf	0

		00000000000047f0:  R_POSTRISC_B_PCREL_FWD	global_array_i64+0x28

0000000000004800 <test_ldi128>:
    4800: 00 00 00 c1 40 20 1b c6 0b 01 04 00 00 00 08 04      	! BUNDLE
	alloc	2
	ldi	%r1, 12345778
	retf	0


0000000000004810 <test_ldi128_long>:
    4810: 01 00 00 c1 40 50 71 17 b7 01 04 7d 69 d3 36 00      	! BUNDLE
	alloc	2
	ldi.l	%r1, 987654321123456789

    4820: 00 00 00 80 40 00 00 00 00 00 01 00 00 00 00 04      	! BUNDLE
	retf	0
	nop	0
	nop	0


0000000000004830 <test_subfi_i128>:
    4830: 00 00 80 c1 40 20 4d 00 00 02 c4 16 10 10 04 00      	! BUNDLE
	alloc	3
	ldi	%r2, 1234
	subq	%r1, %r2, %r1

    4840: 00 00 00 80 40 00 00 00 00 00 01 00 00 00 00 04      	! BUNDLE
	retf	0
	nop	0
	nop	0


0000000000004850 <test_addi_i128>:
    4850: 01 00 80 c1 40 50 f1 05 cd 02 84 2e 6d da 06 00      	! BUNDLE
	alloc	3
	ldi.l	%r2, 123456789123456789

    4860: 69 01 82 40 00 f0 fa af ff 02 84 fe eb bf fe 01      	! BUNDLE
	addq	%r1, %r1, %r2
	ldi.l	%r2, 9200848539817279407

    4870: 64 00 82 40 00 00 00 00 00 02 01 00 00 00 00 04      	! BUNDLE
	or	%r1, %r1, %r2
	retf	0
	nop	0


0000000000004880 <test_andi_i128>:
    4880: 01 00 80 c1 40 50 f1 05 cd 02 84 2e 6d da 06 00      	! BUNDLE
	alloc	3
	ldi.l	%r2, 123456789123456789

    4890: 60 00 82 40 00 00 00 00 00 02 01 00 00 00 00 04      	! BUNDLE
	and	%r1, %r1, %r2
	retf	0
	nop	0


00000000000048a0 <test_ori_i128>:
    48a0: 01 00 80 c1 40 50 71 17 b7 02 04 7d 69 d3 36 00      	! BUNDLE
	alloc	3
	ldi.l	%r2, 987654321123456789

    48b0: 64 00 82 40 00 00 00 00 00 02 01 00 00 00 00 04      	! BUNDLE
	or	%r1, %r1, %r2
	retf	0
	nop	0


00000000000048c0 <test_add_i128>:
    48c0: 00 00 80 c1 40 a0 05 04 04 01 00 00 00 00 08 04      	! BUNDLE
	alloc	3
	addq	%r1, %r2, %r1
	retf	0


00000000000048d0 <test_sub_i128>:
    48d0: 00 00 80 c1 40 b0 05 08 02 01 00 00 00 00 08 04      	! BUNDLE
	alloc	3
	subq	%r1, %r1, %r2
	retf	0


00000000000048e0 <test_immediate_i32>:
    48e0: 00 00 00 c1 40 b0 2e 43 8a 01 04 00 00 00 08 04      	! BUNDLE
	alloc	2
	ldi	%r1, -123456789
	retf	0


00000000000048f0 <test_immediate_u32>:
    48f0: 00 00 00 c1 40 50 d1 bc 75 01 04 00 00 00 08 04      	! BUNDLE
	alloc	2
	ldi	%r1, 123456789
	retf	0


0000000000004900 <test_immediate_i32_long>:
    4900: 01 00 00 c1 40 e0 d2 9f 66 01 c4 fe ff ff ff 03      	! BUNDLE
	alloc	2
	ldi.l	%r1, -1234567890

    4910: 00 00 00 80 40 00 00 00 00 00 01 00 00 00 00 04      	! BUNDLE
	retf	0
	nop	0
	nop	0


0000000000004920 <test_immediate_u32_long>:
    4920: 01 00 00 c1 40 20 2d 60 99 01 04 01 00 00 00 00      	! BUNDLE
	alloc	2
	ldi.l	%r1, 1234567890

    4930: 00 00 00 80 40 00 00 00 00 00 01 00 00 00 00 04      	! BUNDLE
	retf	0
	nop	0
	nop	0


0000000000004940 <test_immediate_i64>:
    4940: 00 00 00 c1 40 20 eb 39 f4 01 04 00 00 00 08 04      	! BUNDLE
	alloc	2
	ldi	%r1, -12345678
	retf	0


0000000000004950 <test_immediate_u64>:
    4950: 00 00 00 c1 40 e0 14 c6 0b 01 04 00 00 00 08 04      	! BUNDLE
	alloc	2
	ldi	%r1, 12345678
	retf	0


0000000000004960 <test_immediate_i64_long>:
    4960: 01 00 00 c1 40 50 b3 4f e0 01 04 82 fb ff ff 03      	! BUNDLE
	alloc	2
	ldi.l	%r1, -1234567890123

    4970: 00 00 00 80 40 00 00 00 00 00 01 00 00 00 00 04      	! BUNDLE
	retf	0
	nop	0
	nop	0


0000000000004980 <test_immediate_u64_long>:
    4980: 01 00 00 c1 40 b0 4c b0 1f 01 c4 7d 04 00 00 00      	! BUNDLE
	alloc	2
	ldi.l	%r1, 1234567890123

    4990: 00 00 00 80 40 00 00 00 00 00 01 00 00 00 00 04      	! BUNDLE
	retf	0
	nop	0
	nop	0


00000000000049a0 <test_immediate_size_max>:
    49a0: 01 00 00 c1 40 f0 ff ff ff 01 c4 ff ff ff ff 01      	! BUNDLE
	alloc	2
	ldi.l	%r1, 9223372036854775807

    49b0: 00 00 00 80 40 00 00 00 00 00 01 00 00 00 00 04      	! BUNDLE
	retf	0
	nop	0
	nop	0


00000000000049c0 <test_load_based_u32>:
    49c0: 00 00 00 c1 40 00 e8 03 02 01 23 00 00 00 08 04      	! BUNDLE
	alloc	2
	ldwz	%r1, %r1, 16000
	retf	0


00000000000049d0 <test_load_based_u16>:
    49d0: 00 00 00 c1 40 00 f4 01 02 81 21 00 00 00 08 04      	! BUNDLE
	alloc	2
	ldhz	%r1, %r1, 8000
	retf	0


00000000000049e0 <test_load_based_u8>:
    49e0: 00 00 00 c1 40 00 fa 00 02 01 20 00 00 00 08 04      	! BUNDLE
	alloc	2
	ldbz	%r1, %r1, 4000
	retf	0


00000000000049f0 <test_load_based_i32>:
    49f0: 00 00 00 c1 40 00 e8 03 02 01 23 00 00 00 08 04      	! BUNDLE
	alloc	2
	ldwz	%r1, %r1, 16000
	retf	0


0000000000004a00 <test_load_based_i16>:
    4a00: 00 00 00 c1 40 00 f4 01 02 01 22 00 00 00 08 04      	! BUNDLE
	alloc	2
	ldhs	%r1, %r1, 8000
	retf	0


0000000000004a10 <test_load_based_i8>:
    4a10: 00 00 00 c1 40 00 fa 00 02 81 20 00 00 00 08 04      	! BUNDLE
	alloc	2
	ldbs	%r1, %r1, 4000
	retf	0


0000000000004a20 <test_base_index_u32_u32>:
    4a20: 00 00 00 c2 40 30 03 0c 04 02 00 80 26 08 04 b2      	! BUNDLE
	alloc	4
	divuw	%r2, %r2, %r3
	lddzx.wz	%r1, %r1, %r2, 3, 0

    4a30: 00 00 00 80 40 00 00 00 00 00 01 00 00 00 00 04      	! BUNDLE
	retf	0
	nop	0
	nop	0


0000000000004a40 <test_base_address>:
    4a40: 01 00 00 c4 40 00 00 74 03 85 64 87 74 01 00 00      	! BUNDLE
	alloc	8
	lddz.l	%r5, %r1, 800000000000

    4a50: 01 7d 80 80 21 09 80 09 02 87 2c e1 f5 05 00 00      	! BUNDLE
	lddz	%r6, %r1, 8000
	lddzx.l	%r7, %r1, %r2, 3, 800000000

    4a60: 40 61 84 40 20 0b 0a 0a 06 82 ac 00 00 00 00 04      	! BUNDLE
	lddzx	%r1, %r1, %r4, 3, 80
	lddzx	%r2, %r3, %r2, 4, 160
	nop	2

    4a70: 22 81 84 c1 20 3b 00 00 00 00 00 08 50 30 10 00      	! BUNDLE
	lddzx.l	%r3, %r3, %r4, 4, 1608
	add	%r4, %r6, %r5

    4a80: 00 02 07 42 20 00 18 08 02 81 00 00 00 00 08 04      	! BUNDLE
	addadd	%r1, %r4, %r7, %r1
	addadd	%r1, %r1, %r2, %r3
	retf	0


0000000000004a90 <MemoryIndexed>:
    4a90: 00 00 80 c2 40 20 00 20 00 03 39 0a 00 10 08 20      	! BUNDLE
	alloc	5
	bdlti	%r3, 1, 32
	addi	%r2, %r2, 40

    4aa0: 00 00 80 00 21 09 00 12 04 84 2c 00 00 08 10 96      	! BUNDLE
	lddz	%r4, %r1, 0
	lddzx	%r4, %r2, %r4, 4, 0
	std	%r4, %r1, 0

    4ab0: fc ff ff c1 00 82 00 00 02 01 88 ff ff f8 0f 06      	! BUNDLE
	addi	%r3, %r3, -1
	addi	%r1, %r1, 8
	bdne	%r3, %gz, -32

    4ac0: 00 00 00 80 40 00 00 00 00 00 01 00 00 00 00 04      	! BUNDLE
	retf	0
	nop	0
	nop	0


0000000000004ad0 <test_base_index_i32>:
    4ad0: 00 00 80 c1 40 00 e0 09 02 81 2c 00 00 00 08 04      	! BUNDLE
	alloc	3
	lddzx.ws	%r1, %r1, %r2, 3, 0
	retf	0


0000000000004ae0 <test_base_index_i32_offset>:
    4ae0: 00 00 80 c1 40 00 ea 09 02 81 2c 00 00 00 08 04      	! BUNDLE
	alloc	3
	lddzx.ws	%r1, %r1, %r2, 3, 160
	retf	0


0000000000004af0 <test_base_index_u32>:
    4af0: 00 00 80 c1 40 00 a0 09 02 81 2c 00 00 00 08 04      	! BUNDLE
	alloc	3
	lddzx.wz	%r1, %r1, %r2, 3, 0
	retf	0


0000000000004b00 <test_base_index_u32_offset>:
    4b00: 00 00 80 c1 40 40 01 00 04 82 08 80 26 08 04 b2      	! BUNDLE
	alloc	3
	addiws	%r2, %r2, 20
	lddzx.wz	%r1, %r1, %r2, 3, 0

    4b10: 00 00 00 80 40 00 00 00 00 00 01 00 00 00 00 04      	! BUNDLE
	retf	0
	nop	0
	nop	0


0000000000004b20 <test_base_index_i64>:
    4b20: 00 00 80 c1 40 00 8a 09 02 81 2c 00 00 00 08 04      	! BUNDLE
	alloc	3
	lddzx	%r1, %r1, %r2, 3, 160
	retf	0


0000000000004b30 <test_base_index_i32_struct>:
    4b30: 01 00 80 c1 40 80 74 0a 02 81 2c 00 00 00 00 00      	! BUNDLE
	alloc	3
	lddzx.ws.l	%r1, %r1, %r2, 4, 328

    4b40: 00 00 00 80 40 00 00 00 00 00 01 00 00 00 00 04      	! BUNDLE
	retf	0
	nop	0
	nop	0


0000000000004b50 <for_loop>:
    4b50: 00 00 80 c3 40 10 00 00 fe 04 c0 00 80 00 04 e4      	! BUNDLE
	alloc	7
	mov	%r4, %gz
	bdlti	%r1, 1, 48

    4b60: 40 01 80 41 01 12 00 00 fe 04 00 00 00 00 00 04      	! BUNDLE
	addi	%r5, %r3, 80
	mov	%r4, %gz
	nop	0

    4b70: 00 00 80 82 21 09 02 10 0c 04 c0 ff ff 0f 04 20      	! BUNDLE
	lddz	%r6, %r5, 0
	add	%r4, %r6, %r4
	addi	%r1, %r1, -1

    4b80: 20 00 80 42 01 e2 ff 3f fe 81 01 00 00 00 00 04      	! BUNDLE
	addi	%r5, %r5, 8
	bdne	%r1, %gz, -32
	nop	0

    4b90: a0 62 82 41 20 0b 02 10 02 01 00 00 00 00 08 04      	! BUNDLE
	lddzx	%r1, %r3, %r2, 3, 168
	add	%r1, %r1, %r4
	retf	0


0000000000004ba0 <for_loop_32>:
    4ba0: 00 00 80 c3 40 10 00 00 fe 04 c0 00 80 00 04 f0      	! BUNDLE
	alloc	7
	mov	%r4, %gz
	bwlti	%r1, 1, 48

    4bb0: a0 00 80 41 01 e2 04 00 02 01 40 00 00 f8 13 00      	! BUNDLE
	addi	%r5, %r3, 40
	srlwi	%r1, %r1, 0
	mov	%r4, %gz

    4bc0: 00 00 80 82 c1 48 02 10 0c 04 c0 ff ff 0f 04 20      	! BUNDLE
	ldwz	%r6, %r5, 0
	addw	%r4, %r6, %r4
	addi	%r1, %r1, -1

    4bd0: 10 00 80 42 01 e2 ff 3f fe 81 01 00 00 00 00 04      	! BUNDLE
	addi	%r5, %r5, 4
	bdne	%r1, %gz, -32
	nop	0

    4be0: 50 59 82 41 c0 4a 02 10 02 01 00 00 00 00 08 04      	! BUNDLE
	ldwzx.ws	%r1, %r3, %r2, 2, 84
	addw	%r1, %r1, %r4
	retf	0


0000000000004bf0 <test_i64_min_lt>:
    4bf0: 00 00 80 c1 40 a0 03 08 02 01 00 00 00 00 08 04      	! BUNDLE
	alloc	3
	mins	%r1, %r1, %r2
	retf	0


0000000000004c00 <test_u64_min_lt>:
    4c00: 00 00 80 c1 40 b0 03 08 02 01 00 00 00 00 08 04      	! BUNDLE
	alloc	3
	minu	%r1, %r1, %r2
	retf	0


0000000000004c10 <test_i64_min_le>:
    4c10: 00 00 80 c1 40 a0 03 08 02 01 00 00 00 00 08 04      	! BUNDLE
	alloc	3
	mins	%r1, %r1, %r2
	retf	0


0000000000004c20 <test_u64_min_le>:
    4c20: 00 00 80 c1 40 b0 03 08 02 01 00 00 00 00 08 04      	! BUNDLE
	alloc	3
	minu	%r1, %r1, %r2
	retf	0


0000000000004c30 <test_i64_min_gt>:
    4c30: 00 00 80 c1 40 a0 03 04 04 01 00 00 00 00 08 04      	! BUNDLE
	alloc	3
	mins	%r1, %r2, %r1
	retf	0


0000000000004c40 <test_u64_min_gt>:
    4c40: 00 00 80 c1 40 b0 03 04 04 01 00 00 00 00 08 04      	! BUNDLE
	alloc	3
	minu	%r1, %r2, %r1
	retf	0


0000000000004c50 <test_i64_min_ge>:
    4c50: 00 00 80 c1 40 a0 03 04 04 01 00 00 00 00 08 04      	! BUNDLE
	alloc	3
	mins	%r1, %r2, %r1
	retf	0


0000000000004c60 <test_u64_min_ge>:
    4c60: 00 00 80 c1 40 b0 03 04 04 01 00 00 00 00 08 04      	! BUNDLE
	alloc	3
	minu	%r1, %r2, %r1
	retf	0


0000000000004c70 <test_i64_max_lt>:
    4c70: 00 00 80 c1 40 80 03 08 02 01 00 00 00 00 08 04      	! BUNDLE
	alloc	3
	maxs	%r1, %r1, %r2
	retf	0


0000000000004c80 <test_u64_max_lt>:
    4c80: 00 00 80 c1 40 90 03 08 02 01 00 00 00 00 08 04      	! BUNDLE
	alloc	3
	maxu	%r1, %r1, %r2
	retf	0


0000000000004c90 <test_i64_max_le>:
    4c90: 00 00 80 c1 40 80 03 08 02 01 00 00 00 00 08 04      	! BUNDLE
	alloc	3
	maxs	%r1, %r1, %r2
	retf	0


0000000000004ca0 <test_u64_max_le>:
    4ca0: 00 00 80 c1 40 90 03 08 02 01 00 00 00 00 08 04      	! BUNDLE
	alloc	3
	maxu	%r1, %r1, %r2
	retf	0


0000000000004cb0 <test_i64_max_gt>:
    4cb0: 00 00 80 c1 40 80 03 04 04 01 00 00 00 00 08 04      	! BUNDLE
	alloc	3
	maxs	%r1, %r2, %r1
	retf	0


0000000000004cc0 <test_u64_max_gt>:
    4cc0: 00 00 80 c1 40 90 03 04 04 01 00 00 00 00 08 04      	! BUNDLE
	alloc	3
	maxu	%r1, %r2, %r1
	retf	0


0000000000004cd0 <test_i64_max_ge>:
    4cd0: 00 00 80 c1 40 80 03 04 04 01 00 00 00 00 08 04      	! BUNDLE
	alloc	3
	maxs	%r1, %r2, %r1
	retf	0


0000000000004ce0 <test_u64_max_ge>:
    4ce0: 00 00 80 c1 40 90 03 04 04 01 00 00 00 00 08 04      	! BUNDLE
	alloc	3
	maxu	%r1, %r2, %r1
	retf	0


0000000000004cf0 <test_i32_min_lt>:
    4cf0: 00 00 80 c1 40 e0 03 08 02 01 00 00 00 00 08 04      	! BUNDLE
	alloc	3
	minsw	%r1, %r1, %r2
	retf	0


0000000000004d00 <test_u32_min_lt>:
    4d00: 00 00 80 c1 40 f0 03 08 02 01 00 00 00 00 08 04      	! BUNDLE
	alloc	3
	minuw	%r1, %r1, %r2
	retf	0


0000000000004d10 <test_i32_min_le>:
    4d10: 00 00 80 c1 40 e0 03 08 02 01 00 00 00 00 08 04      	! BUNDLE
	alloc	3
	minsw	%r1, %r1, %r2
	retf	0


0000000000004d20 <test_u32_min_le>:
    4d20: 00 00 80 c1 40 f0 03 08 02 01 00 00 00 00 08 04      	! BUNDLE
	alloc	3
	minuw	%r1, %r1, %r2
	retf	0


0000000000004d30 <test_i32_min_gt>:
    4d30: 00 00 80 c1 40 e0 03 04 04 01 00 00 00 00 08 04      	! BUNDLE
	alloc	3
	minsw	%r1, %r2, %r1
	retf	0


0000000000004d40 <test_u32_min_gt>:
    4d40: 00 00 80 c1 40 f0 03 04 04 01 00 00 00 00 08 04      	! BUNDLE
	alloc	3
	minuw	%r1, %r2, %r1
	retf	0


0000000000004d50 <test_i32_min_ge>:
    4d50: 00 00 80 c1 40 e0 03 04 04 01 00 00 00 00 08 04      	! BUNDLE
	alloc	3
	minsw	%r1, %r2, %r1
	retf	0


0000000000004d60 <test_u32_min_ge>:
    4d60: 00 00 80 c1 40 f0 03 04 04 01 00 00 00 00 08 04      	! BUNDLE
	alloc	3
	minuw	%r1, %r2, %r1
	retf	0


0000000000004d70 <test_i32_max_lt>:
    4d70: 00 00 80 c1 40 c0 03 08 02 01 00 00 00 00 08 04      	! BUNDLE
	alloc	3
	maxsw	%r1, %r1, %r2
	retf	0


0000000000004d80 <test_u32_max_lt>:
    4d80: 00 00 80 c1 40 d0 03 08 02 01 00 00 00 00 08 04      	! BUNDLE
	alloc	3
	maxuw	%r1, %r1, %r2
	retf	0


0000000000004d90 <test_i32_max_le>:
    4d90: 00 00 80 c1 40 c0 03 08 02 01 00 00 00 00 08 04      	! BUNDLE
	alloc	3
	maxsw	%r1, %r1, %r2
	retf	0


0000000000004da0 <test_u32_max_le>:
    4da0: 00 00 80 c1 40 d0 03 08 02 01 00 00 00 00 08 04      	! BUNDLE
	alloc	3
	maxuw	%r1, %r1, %r2
	retf	0


0000000000004db0 <test_i32_max_gt>:
    4db0: 00 00 80 c1 40 c0 03 04 04 01 00 00 00 00 08 04      	! BUNDLE
	alloc	3
	maxsw	%r1, %r2, %r1
	retf	0


0000000000004dc0 <test_u32_max_gt>:
    4dc0: 00 00 80 c1 40 d0 03 04 04 01 00 00 00 00 08 04      	! BUNDLE
	alloc	3
	maxuw	%r1, %r2, %r1
	retf	0


0000000000004dd0 <test_i32_max_ge>:
    4dd0: 00 00 80 c1 40 c0 03 04 04 01 00 00 00 00 08 04      	! BUNDLE
	alloc	3
	maxsw	%r1, %r2, %r1
	retf	0


0000000000004de0 <test_u32_max_ge>:
    4de0: 00 00 80 c1 40 d0 03 04 04 01 00 00 00 00 08 04      	! BUNDLE
	alloc	3
	maxuw	%r1, %r2, %r1
	retf	0


0000000000004df0 <test_after_naked>:
0000000000004df0 <test_naked>:
    4df0: 00 00 80 c0 40 00 00 00 00 02 01 00 00 00 00 04      	! BUNDLE
	alloc	1
	retf	0
	nop	0


0000000000004e00 <test_nullification>:
    4e00: 00 00 80 c2 40 00 01 00 04 84 24 6a 90 09 10 02      	! BUNDLE
	alloc	5
	lddz	%r4, %r2, 16
	nuldle	%r4, %r1, 3, 4

    4e10: 20 60 01 81 20 5b 00 00 04 84 0b f4 01 00 08 10      	! BUNDLE
	lddzx	%r2, %r2, %r1, 3, 8
	muli	%r4, %r2, 5
	ldi	%r2, 2000

    4e20: 40 60 81 01 21 3b 00 00 08 84 0b 00 16 10 fc b7      	! BUNDLE
	lddzx	%r4, %r3, %r1, 3, 16
	muli	%r4, %r4, 3
	stdx	%gz, %r2, %r1, 3, 0

    4e30: e0 2e 00 80 00 81 82 05 06 83 2c 08 10 10 04 00      	! BUNDLE
	ldi	%r2, 3000
	lddzx	%r3, %r3, %r1, 3, 40
	add	%r1, %r2, %r1

    4e40: 00 06 84 40 20 00 00 00 00 02 01 00 00 00 00 04      	! BUNDLE
	addadd	%r1, %r1, %r4, %r3
	retf	0
	nop	0


0000000000004e50 <test_sign_extend_32>:
    4e50: 00 00 00 c1 40 d0 04 00 02 01 00 00 00 00 08 04      	! BUNDLE
	alloc	2
	srawi	%r1, %r1, 0
	retf	0


0000000000004e60 <test_sign_extend_16>:
    4e60: 00 00 00 c1 40 e0 80 c1 02 81 00 00 00 00 08 04      	! BUNDLE
	alloc	2
	slsrai	%r1, %r1, 48, 48
	retf	0


0000000000004e70 <test_sign_extend_8>:
    4e70: 00 00 00 c1 40 e0 c0 e1 02 81 00 00 00 00 08 04      	! BUNDLE
	alloc	2
	slsrai	%r1, %r1, 56, 56
	retf	0


0000000000004e80 <test_zero_extend_32>:
    4e80: 00 00 00 c1 40 e0 04 00 02 01 00 00 00 00 08 04      	! BUNDLE
	alloc	2
	srlwi	%r1, %r1, 0
	retf	0


0000000000004e90 <test_zero_extend_16>:
    4e90: 00 00 00 c1 40 f0 ff 0f 02 81 05 00 00 00 08 04      	! BUNDLE
	alloc	2
	andi	%r1, %r1, 65535
	retf	0


0000000000004ea0 <test_zero_extend_8>:
    4ea0: 00 00 00 c1 40 f0 0f 00 02 81 05 00 00 00 08 04      	! BUNDLE
	alloc	2
	andi	%r1, %r1, 255
	retf	0


0000000000004eb0 <test_store_based_u32>:
    4eb0: 00 00 80 c1 40 00 e8 03 02 02 24 00 00 00 08 04      	! BUNDLE
	alloc	3
	stw	%r2, %r1, 16000
	retf	0


0000000000004ec0 <test_store_based_u16>:
    4ec0: 00 00 80 c1 40 00 f4 01 02 82 22 00 00 00 08 04      	! BUNDLE
	alloc	3
	sth	%r2, %r1, 8000
	retf	0


0000000000004ed0 <test_store_based_u8>:
    4ed0: 00 00 80 c1 40 00 fa 00 02 02 21 00 00 00 08 04      	! BUNDLE
	alloc	3
	stb	%r2, %r1, 4000
	retf	0


0000000000004ee0 <test_store_based_i32>:
    4ee0: 00 00 80 c1 40 00 e8 03 02 02 24 00 00 00 08 04      	! BUNDLE
	alloc	3
	stw	%r2, %r1, 16000
	retf	0


0000000000004ef0 <test_store_based_i16>:
    4ef0: 00 00 80 c1 40 00 f4 01 02 82 22 00 00 00 08 04      	! BUNDLE
	alloc	3
	sth	%r2, %r1, 8000
	retf	0


0000000000004f00 <test_store_based_i8>:
    4f00: 00 00 80 c1 40 00 fa 00 02 02 21 00 00 00 08 04      	! BUNDLE
	alloc	3
	stb	%r2, %r1, 4000
	retf	0


0000000000004f10 <test_store_indexed_u32_u32>:
    4f10: 00 00 80 c2 40 30 03 0c 04 02 00 80 26 08 10 b6      	! BUNDLE
	alloc	5
	divuw	%r2, %r2, %r3
	stdx.wz	%r4, %r1, %r2, 3, 0

    4f20: 00 00 00 80 40 00 00 00 00 00 01 00 00 00 00 04      	! BUNDLE
	retf	0
	nop	0
	nop	0


0000000000004f30 <test_store_indexed_i32>:
    4f30: 00 00 00 c2 40 00 e0 09 02 83 2d 00 00 00 08 04      	! BUNDLE
	alloc	4
	stdx.ws	%r3, %r1, %r2, 3, 0
	retf	0


0000000000004f40 <test_store_indexed_i32_offset>:
    4f40: 00 00 00 c2 40 00 ea 09 02 83 2d 00 00 00 08 04      	! BUNDLE
	alloc	4
	stdx.ws	%r3, %r1, %r2, 3, 160
	retf	0


0000000000004f50 <test_store_indexed_u32>:
    4f50: 00 00 00 c2 40 00 a0 09 02 83 2d 00 00 00 08 04      	! BUNDLE
	alloc	4
	stdx.wz	%r3, %r1, %r2, 3, 0
	retf	0


0000000000004f60 <test_store_indexed_u32_offset>:
    4f60: 00 00 00 c2 40 40 01 00 04 82 08 80 26 08 0c b6      	! BUNDLE
	alloc	4
	addiws	%r2, %r2, 20
	stdx.wz	%r3, %r1, %r2, 3, 0

    4f70: 00 00 00 80 40 00 00 00 00 00 01 00 00 00 00 04      	! BUNDLE
	retf	0
	nop	0
	nop	0


0000000000004f80 <test_store_indexed_i64>:
    4f80: 00 00 00 c2 40 00 8a 09 02 83 2d 00 00 00 08 04      	! BUNDLE
	alloc	4
	stdx	%r3, %r1, %r2, 3, 160
	retf	0


0000000000004f90 <test_store_indexed_i32_struct>:
    4f90: 01 00 00 c2 40 80 74 0a 02 83 2d 00 00 00 00 00      	! BUNDLE
	alloc	4
	stdx.ws.l	%r3, %r1, %r2, 4, 328

    4fa0: 00 00 00 80 40 00 00 00 00 00 01 00 00 00 00 04      	! BUNDLE
	retf	0
	nop	0
	nop	0


0000000000004fb0 <dummy_return>:
    4fb0: 00 00 00 c6 40 00 00 00 00 01 30 00 00 00 08 c0      	! BUNDLE
	alloc	12
	ldbzr	%r1, 0
	ldbzr	%r2, 0

		0000000000004fb0:  R_POSTRISC_B_PCREL_FWD	i8_zero
		0000000000004fb0:  R_POSTRISC_C_PCREL_FWD	u8_zero
    4fc0: 04 00 80 40 20 02 00 00 00 01 31 00 00 00 0c c6      	! BUNDLE
	addiws	%r1, %r1, 1
	stbr	%r1, 0
	ldhzr	%r3, 0

		0000000000004fc0:  R_POSTRISC_B_PCREL_FWD	i8_zero
		0000000000004fc0:  R_POSTRISC_C_PCREL_FWD	i16_zero
    4fd0: 04 00 00 81 20 02 00 00 00 02 31 00 00 00 10 c6      	! BUNDLE
	addiws	%r2, %r2, 1
	stbr	%r2, 0
	ldhzr	%r4, 0

		0000000000004fd0:  R_POSTRISC_B_PCREL_FWD	u8_zero
		0000000000004fd0:  R_POSTRISC_C_PCREL_FWD	u16_zero
    4fe0: 04 00 80 c1 20 02 00 00 00 83 32 00 00 00 14 cc      	! BUNDLE
	addiws	%r3, %r3, 1
	sthr	%r3, 0
	ldwzr	%r5, 0

		0000000000004fe0:  R_POSTRISC_B_PCREL_FWD	i16_zero
		0000000000004fe0:  R_POSTRISC_C_PCREL_FWD	i32_zero
    4ff0: 04 00 00 02 21 02 00 00 00 84 32 00 00 00 18 cc      	! BUNDLE
	addiws	%r4, %r4, 1
	sthr	%r4, 0
	ldwzr	%r6, 0

		0000000000004ff0:  R_POSTRISC_B_PCREL_FWD	u16_zero
		0000000000004ff0:  R_POSTRISC_C_PCREL_FWD	u32_zero
    5000: 04 00 80 42 21 02 00 00 00 05 34 00 00 00 1c d2      	! BUNDLE
	addiws	%r5, %r5, 1
	stwr	%r5, 0
	lddzr	%r7, 0

		0000000000005000:  R_POSTRISC_B_PCREL_FWD	i32_zero
		0000000000005000:  R_POSTRISC_C_PCREL_FWD	i64_zero
    5010: 04 00 00 83 21 02 00 00 00 06 34 00 00 00 20 d2      	! BUNDLE
	addiws	%r6, %r6, 1
	stwr	%r6, 0
	lddzr	%r8, 0

		0000000000005010:  R_POSTRISC_B_PCREL_FWD	u32_zero
		0000000000005010:  R_POSTRISC_C_PCREL_FWD	u64_zero
    5020: 04 00 80 43 02 02 00 00 00 89 35 00 00 00 24 d8      	! BUNDLE
	addi	%r9, %r7, 1
	stdr	%r9, 0
	ldqr	%r9, 0

		0000000000005020:  R_POSTRISC_B_PCREL_FWD	i64_zero
		0000000000005020:  R_POSTRISC_C_PCREL_FWD	i128_zero
    5030: 04 00 00 84 02 02 00 00 00 0b 36 00 00 00 28 d6      	! BUNDLE
	addi	%r10, %r8, 1
	ldqr	%r11, 0
	stdr	%r10, 0

		0000000000005030:  R_POSTRISC_B_PCREL_FWD	u128_zero
		0000000000005030:  R_POSTRISC_C_PCREL_FWD	u64_zero
    5040: 04 00 00 80 02 a1 01 28 12 09 00 00 00 00 24 da      	! BUNDLE
	ldi	%r10, 1
	xor	%r9, %r9, %r10
	stqr	%r9, 0

		0000000000005040:  R_POSTRISC_C_PCREL_FWD	i128_zero
    5050: 68 00 8a 85 02 00 00 00 00 8a b6 03 87 0b 04 02      	! BUNDLE
	xor	%r10, %r11, %r10
	stqr	%r10, 0
	slsrai	%r1, %r1, 56, 56

		0000000000005050:  R_POSTRISC_B_PCREL_FWD	u128_zero
    5060: fc 03 00 81 60 41 02 04 04 01 80 03 06 1b 08 02      	! BUNDLE
	andi	%r2, %r2, 255
	addw	%r1, %r2, %r1
	slsrai	%r2, %r3, 48, 48

    5070: 90 00 82 40 00 f0 ff 0f 08 82 05 09 20 08 04 00      	! BUNDLE
	addw	%r1, %r1, %r2
	andi	%r2, %r4, 65535
	addw	%r1, %r1, %r2

    5080: 90 00 85 40 00 40 02 18 02 01 40 80 10 38 04 62      	! BUNDLE
	addw	%r1, %r1, %r5
	addw	%r1, %r1, %r6
	ldax.wz	%r1, %r7, %r1, 0, 1

    5090: 04 00 01 44 20 66 04 00 02 01 80 06 10 48 04 00      	! BUNDLE
	ldax	%r1, %r8, %r1, 0, 1
	srli	%r1, %r1, 0
	xor	%r1, %r9, %r1

    50a0: 68 00 8a 40 00 00 00 00 00 02 01 00 00 00 00 04      	! BUNDLE
	xor	%r1, %r1, %r10
	retf	0
	nop	0


00000000000050b0 <test_store_based_i8_zero>:
    50b0: 00 00 00 c2 40 00 fa 00 02 7f 21 00 00 00 fc c5      	! BUNDLE
	alloc	4
	stb	%gz, %r1, 4000
	stbr	%gz, 0

		00000000000050b0:  R_POSTRISC_C_PCREL_FWD	i8_zero
    50c0: 28 00 82 c0 5f aa 60 0c 02 7f 29 00 00 00 08 04      	! BUNDLE
	stbx	%gz, %r1, %r2, 0, 10
	stbx.ws	%gz, %r1, %r3, 0, 10
	retf	0


00000000000050d0 <test_store_based_u8_zero>:
    50d0: 00 00 00 c2 40 00 fa 00 02 7f 21 00 00 00 fc c5      	! BUNDLE
	alloc	4
	stb	%gz, %r1, 4000
	stbr	%gz, 0

		00000000000050d0:  R_POSTRISC_C_PCREL_FWD	u8_zero
    50e0: 28 00 82 c0 5f aa 60 0c 02 7f 29 00 00 00 08 04      	! BUNDLE
	stbx	%gz, %r1, %r2, 0, 10
	stbx.ws	%gz, %r1, %r3, 0, 10
	retf	0


00000000000050f0 <test_store_based_i16_zero>:
    50f0: 00 00 00 c2 40 00 f4 01 02 ff 22 00 00 00 fc cb      	! BUNDLE
	alloc	4
	sth	%gz, %r1, 8000
	sthr	%gz, 0

		00000000000050f0:  R_POSTRISC_C_PCREL_FWD	i16_zero
    5100: 50 20 82 c0 bf 4a e1 0c 02 ff 2a 00 00 00 08 04      	! BUNDLE
	sthx	%gz, %r1, %r2, 1, 20
	sthx.ws	%gz, %r1, %r3, 1, 20
	retf	0


0000000000005110 <test_store_based_u16_zero>:
    5110: 00 00 00 c2 40 00 f4 01 02 ff 22 00 00 00 fc cb      	! BUNDLE
	alloc	4
	sth	%gz, %r1, 8000
	sthr	%gz, 0

		0000000000005110:  R_POSTRISC_C_PCREL_FWD	u16_zero
    5120: 50 20 82 c0 bf 4a e1 0c 02 ff 2a 00 00 00 08 04      	! BUNDLE
	sthx	%gz, %r1, %r2, 1, 20
	sthx.ws	%gz, %r1, %r3, 1, 20
	retf	0


0000000000005130 <test_store_based_i32_zero>:
    5130: 00 00 00 c2 40 00 e8 03 02 7f 24 00 00 00 fc d1      	! BUNDLE
	alloc	4
	stw	%gz, %r1, 16000
	stwr	%gz, 0

		0000000000005130:  R_POSTRISC_C_PCREL_FWD	i32_zero
    5140: a0 40 82 c0 1f 8b 62 0d 02 7f 2c 00 00 00 08 04      	! BUNDLE
	stwx	%gz, %r1, %r2, 2, 40
	stwx.ws	%gz, %r1, %r3, 2, 40
	retf	0


0000000000005150 <test_store_based_u32_zero>:
    5150: 00 00 00 c2 40 00 e8 03 02 7f 24 00 00 00 fc d1      	! BUNDLE
	alloc	4
	stw	%gz, %r1, 16000
	stwr	%gz, 0

		0000000000005150:  R_POSTRISC_C_PCREL_FWD	u32_zero
    5160: a0 40 82 c0 1f 8b 62 0d 02 7f 2c 00 00 00 08 04      	! BUNDLE
	stwx	%gz, %r1, %r2, 2, 40
	stwx.ws	%gz, %r1, %r3, 2, 40
	retf	0


0000000000005170 <test_store_based_i64_zero>:
    5170: 00 00 00 c2 40 00 d0 07 02 ff 25 00 00 00 fc d7      	! BUNDLE
	alloc	4
	std	%gz, %r1, 32000
	stdr	%gz, 0

		0000000000005170:  R_POSTRISC_C_PCREL_FWD	i64_zero
    5180: 40 61 82 c0 7f 0b e5 0d 02 ff 2d 00 00 00 08 04      	! BUNDLE
	stdx	%gz, %r1, %r2, 3, 80
	stdx.ws	%gz, %r1, %r3, 3, 80
	retf	0


0000000000005190 <test_store_based_u64_zero>:
    5190: 00 00 00 c2 40 00 d0 07 02 ff 25 00 00 00 fc d7      	! BUNDLE
	alloc	4
	std	%gz, %r1, 32000
	stdr	%gz, 0

		0000000000005190:  R_POSTRISC_C_PCREL_FWD	u64_zero
    51a0: 40 61 82 c0 7f 0b e5 0d 02 ff 2d 00 00 00 08 04      	! BUNDLE
	stdx	%gz, %r1, %r2, 3, 80
	stdx.ws	%gz, %r1, %r3, 3, 80
	retf	0


00000000000051b0 <test_store_based_i128_zero>:
    51b0: 00 00 00 c2 40 00 a0 0f 02 ff 26 00 00 00 fc db      	! BUNDLE
	alloc	4
	stq	%gz, %r1, 64000
	stqr	%gz, 0

		00000000000051b0:  R_POSTRISC_C_PCREL_FWD	i128_zero
    51c0: 80 82 82 c0 bf 0b 6a 0e 02 ff 2e 00 00 00 08 04      	! BUNDLE
	stqx	%gz, %r1, %r2, 4, 160
	stqx.ws	%gz, %r1, %r3, 4, 160
	retf	0


00000000000051d0 <test_store_based_u128_zero>:
    51d0: 00 00 00 c2 40 00 a0 0f 02 ff 26 00 00 00 fc db      	! BUNDLE
	alloc	4
	stq	%gz, %r1, 64000
	stqr	%gz, 0

		00000000000051d0:  R_POSTRISC_C_PCREL_FWD	u128_zero
    51e0: 80 82 82 c0 bf 0b 6a 0e 02 ff 2e 00 00 00 08 04      	! BUNDLE
	stqx	%gz, %r1, %r2, 4, 160
	stqx.ws	%gz, %r1, %r3, 4, 160
	retf	0


00000000000051f0 <test_struct_memset>:
    51f0: c0 03 00 02 41 00 0e 00 fc ff 25 36 00 f0 ff 97      	! BUNDLE
	allocsp	4, 240
	std	%gz, %sp, 224
	std	%gz, %sp, 216

    5200: 40 03 00 ff 7f 89 0c 00 fc ff 25 30 00 f0 ff 97      	! BUNDLE
	std	%gz, %sp, 208
	std	%gz, %sp, 200
	std	%gz, %sp, 192

    5210: e0 02 00 ff 7f 09 0b 00 fc ff 25 2a 00 f0 ff 97      	! BUNDLE
	std	%gz, %sp, 184
	std	%gz, %sp, 176
	std	%gz, %sp, 168

    5220: 80 02 00 ff 7f 89 09 00 fc ff 25 24 00 f0 ff 97      	! BUNDLE
	std	%gz, %sp, 160
	std	%gz, %sp, 152
	std	%gz, %sp, 144

    5230: 20 02 00 ff 7f 09 08 00 fc ff 25 1e 00 f0 ff 97      	! BUNDLE
	std	%gz, %sp, 136
	std	%gz, %sp, 128
	std	%gz, %sp, 120

    5240: c0 01 00 ff 7f 89 06 00 fc ff 25 18 00 f0 ff 97      	! BUNDLE
	std	%gz, %sp, 112
	std	%gz, %sp, 104
	std	%gz, %sp, 96

    5250: 60 01 00 ff 7f 09 05 00 fc ff 25 12 00 f0 ff 97      	! BUNDLE
	std	%gz, %sp, 88
	std	%gz, %sp, 80
	std	%gz, %sp, 72

    5260: 00 01 00 ff 7f 89 03 00 fc ff 25 0c 00 f0 ff 97      	! BUNDLE
	std	%gz, %sp, 64
	std	%gz, %sp, 56
	std	%gz, %sp, 48

    5270: a0 00 00 ff 7f 09 02 00 fc ff 25 06 00 f0 ff 97      	! BUNDLE
	std	%gz, %sp, 40
	std	%gz, %sp, 32
	std	%gz, %sp, 24

    5280: 40 00 00 ff 7f 89 00 00 fc ff 25 00 00 f0 ff 97      	! BUNDLE
	std	%gz, %sp, 16
	std	%gz, %sp, 8
	std	%gz, %sp, 0

    5290: fc ff ff 7f 00 86 04 00 fc 81 e5 3b 00 f0 07 20      	! BUNDLE
	ldar	%r1, -1
	std	%r1, %sp, 72
	addi	%r1, %sp, 239

		0000000000005290:  R_POSTRISC_A_JUMP	sn_write
    52a0: 60 01 00 7f 60 f9 ff ff ff 01 04 23 00 f0 07 90      	! BUNDLE
	std	%r1, %sp, 88
	ldi	%r1, -1
	stw	%r1, %sp, 140

    52b0: 40 02 00 7f 00 09 00 00 fc 03 08 34 00 f0 0f 96      	! BUNDLE
	stw	%r1, %sp, 144
	addi	%r3, %sp, 0
	std	%r3, %sp, 208

    52c0: fc ff ff bf 00 17 00 00 06 01 00 3c 00 00 08 04      	! BUNDLE
	callr	%r2, -16
	mov	%r1, %r3
	retf	240

		00000000000052c0:  R_POSTRISC_A_JUMP	test_struct_memset_consumer

00000000000052d0 <sn_write>:
    52d0: 00 00 80 c3 40 80 09 00 02 82 24 0a 00 08 10 92      	! BUNDLE
	alloc	7
	lddz	%r2, %r1, 152
	lddz	%r4, %r1, 40

    52e0: e0 00 80 80 21 89 00 00 04 85 64 08 60 20 10 00      	! BUNDLE
	lddz	%r6, %r1, 56
	lddz	%r5, %r2, 8
	sub	%r4, %r4, %r6

    52f0: ec 00 84 82 01 00 00 00 04 84 24 8a 00 f8 1b 02      	! BUNDLE
	minu	%r6, %r5, %r4
	lddz	%r4, %r2, 0
	nuldeq	%r6, %gz, 4, 0

    5300: 80 00 06 02 01 00 00 00 04 84 65 08 60 28 14 00      	! BUNDLE
	add	%r4, %r4, %r6
	std	%r4, %r2, 0
	sub	%r5, %r5, %r6

    5310: 20 00 00 41 61 b9 03 0c 0a 06 00 8a 00 f8 1b 02      	! BUNDLE
	std	%r5, %r2, 8
	minu	%r6, %r5, %r3
	nuldeq	%r6, %gz, 4, 0

    5320: 80 00 06 02 01 00 00 00 04 84 65 08 60 28 14 00      	! BUNDLE
	add	%r4, %r4, %r6
	std	%r4, %r2, 0
	sub	%r5, %r5, %r6

    5330: 20 00 00 41 61 09 00 00 08 7f 21 16 00 08 08 92      	! BUNDLE
	std	%r5, %r2, 8
	stb	%gz, %r4, 0
	lddz	%r2, %r1, 88

    5340: e0 00 80 80 60 89 02 00 02 82 65 00 00 18 04 00      	! BUNDLE
	std	%r2, %r1, 56
	std	%r2, %r1, 40
	mov	%r1, %r3

    5350: 00 00 00 80 40 00 00 00 00 00 01 00 00 00 00 04      	! BUNDLE
	retf	0
	nop	0
	nop	0


0000000000005360 <test_switch_table>:
    5360: 40 00 80 02 41 e0 00 c0 00 81 bd 13 00 08 04 00      	! BUNDLE
	allocsp	5, 16
	bwgeui	%r1, 6, 224
	srlwi	%r1, %r1, 0

    5370: 00 00 00 80 20 07 00 05 04 81 2b 18 20 08 00 00      	! BUNDLE
	ldafr	%r2, 0
	ldwsx	%r1, %r2, %r1, 2, 0
	jmpr	%r1, %r2, 0

		0000000000005370:  R_POSTRISC_A_PCREL_FWD	.LJTI492_0
    5380: 04 00 00 40 00 01 00 00 00 84 9c 02 00 00 04 04      	! BUNDLE
	ldi	%r1, 1
	ldafr	%r4, 0
	jmp	160

		0000000000005380:  R_POSTRISC_B_PCREL_FWD	.L.str.38
    5390: 20 00 00 40 00 41 00 00 fc 01 64 01 00 00 04 10      	! BUNDLE
	ldi	%r1, 8
	stw	%r1, %sp, 4
	ldi	%r1, 5

    53a0: 00 00 00 00 21 87 00 00 00 01 01 00 00 00 00 04      	! BUNDLE
	ldafr	%r4, 0
	jmp	128
	nop	0

		00000000000053a0:  R_POSTRISC_A_PCREL_FWD	.L.str.42
    53b0: 08 00 00 40 00 41 00 00 fc 01 e4 00 00 00 04 10      	! BUNDLE
	ldi	%r1, 2
	stw	%r1, %sp, 4
	ldi	%r1, 3

    53c0: 00 00 00 00 21 67 00 00 00 01 01 00 00 00 00 04      	! BUNDLE
	ldafr	%r4, 0
	jmp	96
	nop	0

		00000000000053c0:  R_POSTRISC_A_PCREL_FWD	.L.str.40
    53d0: 04 00 00 40 00 41 00 00 fc 01 24 01 00 00 04 10      	! BUNDLE
	ldi	%r1, 1
	stw	%r1, %sp, 4
	ldi	%r1, 4

    53e0: 00 00 00 00 21 47 00 00 00 01 01 00 00 00 00 04      	! BUNDLE
	ldafr	%r4, 0
	jmp	64
	nop	0

		00000000000053e0:  R_POSTRISC_A_PCREL_FWD	.L.str.41
    53f0: 08 00 00 40 00 01 00 00 fc 01 24 00 00 00 10 72      	! BUNDLE
	ldi	%r1, 2
	stw	%r1, %sp, 0
	ldafr	%r4, 0

		00000000000053f0:  R_POSTRISC_C_PCREL_FWD	.L.str.39
    5400: 10 00 00 ff 1f 39 00 00 00 01 01 00 00 00 00 04      	! BUNDLE
	stw	%gz, %sp, 4
	jmp	48
	nop	0

    5410: 6c 00 00 40 00 41 00 00 fc 01 a4 01 00 00 04 10      	! BUNDLE
	ldi	%r1, 27
	stw	%r1, %sp, 4
	ldi	%r1, 6

    5420: 00 00 00 00 21 07 00 00 00 00 01 00 00 00 00 04      	! BUNDLE
	ldafr	%r4, 0
	nop	0
	nop	0

		0000000000005420:  R_POSTRISC_A_PCREL_FWD	.L.str.43
    5430: 00 00 00 7f 00 09 00 00 00 00 01 00 00 00 00 04      	! BUNDLE
	stw	%r1, %sp, 0
	nop	0
	nop	0

    5440: fc ff ff ff 00 07 00 00 00 00 01 00 00 00 00 04      	! BUNDLE
	callr	%r3, -16
	nop	0
	nop	0

		0000000000005440:  R_POSTRISC_A_JUMP	printf
    5450: 04 00 80 7f 00 00 01 00 00 02 01 00 00 00 00 04      	! BUNDLE
	mov	%r1, %gz
	retf	16
	nop	0


0000000000005460 <test_syscall_2>:
    5460: 00 00 00 c1 40 30 10 00 00 00 00 00 00 00 08 04      	! BUNDLE
	alloc	2
	syscall
	retf	0


0000000000005470 <test_syscall>:
    5470: 00 00 80 c0 40 30 10 00 00 00 80 45 00 00 00 00      	! BUNDLE
	alloc	1
	syscall
	sysret

    5480: 00 00 00 80 40 00 00 00 00 00 01 00 00 00 00 04      	! BUNDLE
	retf	0
	nop	0
	nop	0


0000000000005490 <test_int>:
    5490: 00 00 00 c1 40 20 10 00 02 00 80 40 c8 f8 03 00      	! BUNDLE
	alloc	2
	int	%r1, 0
	int	%gz, 100

    54a0: 08 04 99 3f 00 20 90 7f fe 00 80 40 c6 f8 03 00      	! BUNDLE
	int	%gz, 200
	int	%gz, 255
	int	%gz, 99

    54b0: 08 24 80 3f 00 20 90 02 fe 00 00 00 00 00 00 04      	! BUNDLE
	int	%gz, 1
	int	%gz, 5
	nop	0


00000000000054c0 <test_call_global_tailcall>:
    54c0: 00 00 80 c2 40 10 00 00 02 83 88 02 00 08 10 22      	! BUNDLE
	alloc	5
	addiws	%r3, %r1, 1
	addiws	%r4, %r1, 10

    54d0: fc ff ff bf 00 17 00 00 06 01 00 00 00 00 08 04      	! BUNDLE
	callr	%r2, -16
	mov	%r1, %r3
	retf	0

		00000000000054d0:  R_POSTRISC_A_JUMP	tail_call

00000000000054e0 <test_ptr_tailcall>:
    54e0: 00 00 80 c2 40 10 00 00 04 04 00 19 60 08 0c 00      	! BUNDLE
	alloc	5
	mov	%r4, %r2
	callmi	%r3, %r1, 48

    54f0: 04 00 00 42 00 00 00 00 00 02 01 00 00 00 00 04      	! BUNDLE
	mov	%r1, %r4
	retf	0
	nop	0


0000000000005500 <test_call_global_ptr_table_tailcall>:
    5500: 00 00 00 c2 40 10 00 00 02 03 00 00 00 00 08 74      	! BUNDLE
	alloc	4
	mov	%r3, %r1
	callplt	%r2, 0

		0000000000005500:  R_POSTRISC_C_PCREL_FWD	global_ftable+0x28
    5510: 04 00 80 41 00 00 00 00 00 02 01 00 00 00 00 04      	! BUNDLE
	mov	%r1, %r3
	retf	0
	nop	0


0000000000005520 <test_builtin_tlb_purge>:
    5520: 00 00 00 c2 40 20 11 0c 04 01 00 00 00 00 08 04      	! BUNDLE
	alloc	4
	ptc	%r1, %r2, %r3
	retf	0


0000000000005530 <test_local_tls>:
    5530: 40 00 80 02 41 00 00 00 00 84 dc ff ff ff 0f 70      	! BUNDLE
	allocsp	5, 16
	ldafr	%r4, 0
	callr	%r3, -16

		0000000000005530:  R_POSTRISC_B_TLS_LD_GOT_OFFSET	x_tls
		0000000000005530:  R_POSTRISC_C_JUMP	__tls_get_addr
    5540: 00 00 00 82 20 09 02 04 04 01 00 04 00 00 08 04      	! BUNDLE
	lddz	%r2, %r4, 0
	add	%r1, %r2, %r1
	retf	16

		0000000000005540:  R_POSTRISC_A_TLS_LD_OFFSET	x_tls

0000000000005550 <test_extern_tls>:
    5550: 40 00 80 02 41 00 00 00 00 84 dc ff ff ff 0f 70      	! BUNDLE
	allocsp	5, 16
	ldafr	%r4, 0
	callr	%r3, -16

		0000000000005550:  R_POSTRISC_B_TLS_LD_GOT_OFFSET	x_tls_extern
		0000000000005550:  R_POSTRISC_C_JUMP	__tls_get_addr
    5560: 00 00 00 82 20 09 02 04 04 01 00 04 00 00 08 04      	! BUNDLE
	lddz	%r2, %r4, 0
	add	%r1, %r2, %r1
	retf	16

		0000000000005560:  R_POSTRISC_A_TLS_LD_OFFSET	x_tls_extern

0000000000005570 <test_va_start>:
    5570: 40 02 80 03 41 00 09 00 fc 06 08 02 00 f0 1b 96      	! BUNDLE
	allocsp	7, 144
	addi	%r6, %sp, 144
	std	%r6, %sp, 8

    5580: 04 00 80 c0 20 f2 ff ff 03 84 08 04 00 f0 17 20      	! BUNDLE
	addiws	%r3, %r1, 1
	addiws	%r4, %r1, -1
	addi	%r5, %sp, 16

    5590: fc ff ff bf 00 17 00 00 06 01 00 24 00 00 08 04      	! BUNDLE
	callr	%r2, -16
	mov	%r1, %r3
	retf	144

		0000000000005590:  R_POSTRISC_A_JUMP	test_va_list_callback

00000000000055a0 <test_va_start_end>:
    55a0: 40 02 00 04 41 00 09 00 fc 01 08 02 00 f0 07 96      	! BUNDLE
	allocsp	8, 144
	addi	%r1, %sp, 144
	std	%r1, %sp, 8

    55b0: a0 0f 00 00 40 80 00 00 fc 81 e4 47 00 08 04 02      	! BUNDLE
	nop	1000
	lddz	%r1, %sp, 8
	algnup	%r1, %r1, 0, 2

    55c0: 10 00 80 80 00 82 00 00 fc 82 25 00 00 08 10 8c      	! BUNDLE
	addi	%r2, %r1, 4
	std	%r2, %sp, 8
	ldwz	%r4, %r1, 0

    55d0: a4 0f 00 00 40 80 00 00 fc 81 e4 67 00 08 04 02      	! BUNDLE
	nop	1001
	lddz	%r1, %sp, 8
	algnup	%r1, %r1, 0, 3

    55e0: 20 00 80 80 00 82 00 00 fc 82 25 00 00 08 14 92      	! BUNDLE
	addi	%r2, %r1, 8
	std	%r2, %sp, 8
	lddz	%r5, %r1, 0

    55f0: a8 0f 00 00 40 b0 3e 00 00 00 01 04 00 f0 1b 20      	! BUNDLE
	nop	1002
	nop	1003
	addi	%r6, %sp, 16

    5600: 20 00 00 ff 01 f2 ff ff ff 03 5c 00 00 20 04 00      	! BUNDLE
	addi	%r7, %sp, 8
	callr	%r3, -16
	mov	%r1, %r4

		0000000000005600:  R_POSTRISC_B_JUMP	test_va_callback
    5610: 40 02 00 80 40 00 00 00 00 00 01 00 00 00 00 04      	! BUNDLE
	retf	144
	nop	0
	nop	0


0000000000005620 <test_printf_valist>:
    5620: 40 00 00 03 41 80 00 00 fc 82 25 00 00 f0 0b 96      	! BUNDLE
	allocsp	6, 16
	std	%r2, %sp, 8
	std	%r2, %sp, 0

    5630: 90 01 00 00 01 01 00 00 fc 01 48 00 00 08 14 00      	! BUNDLE
	ldi	%r4, 100
	addi	%r1, %sp, 0
	mov	%r5, %r1

    5640: fc ff ff ff 00 87 0c 00 00 04 44 00 00 08 14 00      	! BUNDLE
	callr	%r3, -16
	ldi	%r4, 200
	mov	%r5, %r1

		0000000000005640:  R_POSTRISC_A_JUMP	test_printf_callback
    5650: fc ff ff ff 00 17 00 00 08 01 00 04 00 00 08 04      	! BUNDLE
	callr	%r3, -16
	mov	%r1, %r4
	retf	16

		0000000000005650:  R_POSTRISC_A_JUMP	test_printf_callback

0000000000005660 <test_vprintf_valist>:
    5660: 80 00 00 03 41 80 01 00 fc 82 25 04 00 f0 0b 96      	! BUNDLE
	allocsp	6, 32
	std	%r2, %sp, 24
	std	%r2, %sp, 16

    5670: 20 00 00 bf 60 49 06 00 00 04 04 04 00 f0 17 20      	! BUNDLE
	std	%r2, %sp, 8
	ldi	%r4, 100
	addi	%r5, %sp, 16

    5680: fc ff ff ff 00 87 0c 00 00 04 04 02 00 f0 17 20      	! BUNDLE
	callr	%r3, -16
	ldi	%r4, 200
	addi	%r5, %sp, 8

		0000000000005680:  R_POSTRISC_A_JUMP	test_vprintf_callback
    5690: fc ff ff ff 00 17 00 00 08 01 00 08 00 00 08 04      	! BUNDLE
	callr	%r3, -16
	mov	%r1, %r4
	retf	32

		0000000000005690:  R_POSTRISC_A_JUMP	test_vprintf_callback

00000000000056a0 <test_vacopy>:
    56a0: 40 00 80 02 41 80 00 00 fc 82 25 00 00 f0 0b 96      	! BUNDLE
	allocsp	5, 16
	std	%r2, %sp, 8
	std	%r2, %sp, 0

    56b0: 00 00 00 7f 00 12 00 00 02 04 c0 ff ff ff 0f 70      	! BUNDLE
	addi	%r1, %sp, 0
	mov	%r4, %r1
	callr	%r3, -16

		00000000000056b0:  R_POSTRISC_C_JUMP	test_valist_callback
    56c0: 04 00 80 00 01 f0 ff ff ff 03 5c 00 00 20 04 00      	! BUNDLE
	mov	%r4, %r1
	callr	%r3, -16
	mov	%r1, %r4

		00000000000056c0:  R_POSTRISC_B_JUMP	test_valist_callback
    56d0: 40 00 00 80 40 00 00 00 00 00 01 00 00 00 00 04      	! BUNDLE
	retf	16
	nop	0
	nop	0


00000000000056e0 <test_vector_bitcast_v2i64_to_v4i32>:
    56e0: 00 00 00 c1 40 00 00 00 00 02 01 00 00 00 00 04      	! BUNDLE
	alloc	2
	retf	0
	nop	0


00000000000056f0 <test_vector_bitcast_v2i64_to_v8i16>:
    56f0: 00 00 00 c1 40 00 00 00 00 02 01 00 00 00 00 04      	! BUNDLE
	alloc	2
	retf	0
	nop	0


0000000000005700 <test_vector_bitcast_v2i64_to_v16i8>:
    5700: 00 00 00 c1 40 00 00 00 00 02 01 00 00 00 00 04      	! BUNDLE
	alloc	2
	retf	0
	nop	0


0000000000005710 <test_vector_bitcast_v4i32_to_v2i64>:
    5710: 00 00 00 c1 40 00 00 00 00 02 01 00 00 00 00 04      	! BUNDLE
	alloc	2
	retf	0
	nop	0


0000000000005720 <test_vector_bitcast_v4i32_to_v8i16>:
    5720: 00 00 00 c1 40 00 00 00 00 02 01 00 00 00 00 04      	! BUNDLE
	alloc	2
	retf	0
	nop	0


0000000000005730 <test_vector_bitcast_v4i32_to_v16i8>:
    5730: 00 00 00 c1 40 00 00 00 00 02 01 00 00 00 00 04      	! BUNDLE
	alloc	2
	retf	0
	nop	0


0000000000005740 <test_vector_bitcast_v8i16_to_v2i64>:
    5740: 00 00 00 c1 40 00 00 00 00 02 01 00 00 00 00 04      	! BUNDLE
	alloc	2
	retf	0
	nop	0


0000000000005750 <test_vector_bitcast_v8i16_to_v4i32>:
    5750: 00 00 00 c1 40 00 00 00 00 02 01 00 00 00 00 04      	! BUNDLE
	alloc	2
	retf	0
	nop	0


0000000000005760 <test_vector_bitcast_v8i16_to_v16i8>:
    5760: 00 00 00 c1 40 00 00 00 00 02 01 00 00 00 00 04      	! BUNDLE
	alloc	2
	retf	0
	nop	0


0000000000005770 <test_vector_bitcast_v16i8_to_v2i64>:
    5770: 00 00 00 c1 40 00 00 00 00 02 01 00 00 00 00 04      	! BUNDLE
	alloc	2
	retf	0
	nop	0


0000000000005780 <test_vector_bitcast_v16i8_to_v4i32>:
    5780: 00 00 00 c1 40 00 00 00 00 02 01 00 00 00 00 04      	! BUNDLE
	alloc	2
	retf	0
	nop	0


0000000000005790 <test_vector_bitcast_v16i8_to_v8i16>:
    5790: 00 00 00 c1 40 00 00 00 00 02 01 00 00 00 00 04      	! BUNDLE
	alloc	2
	retf	0
	nop	0


00000000000057a0 <test_vector_bitcast_f128_to_v16i8>:
    57a0: 00 00 00 c1 40 00 00 00 00 02 01 00 00 00 00 04      	! BUNDLE
	alloc	2
	retf	0
	nop	0


00000000000057b0 <test_vector_bitcast_f128_to_v8i16>:
    57b0: 00 00 00 c1 40 00 00 00 00 02 01 00 00 00 00 04      	! BUNDLE
	alloc	2
	retf	0
	nop	0


00000000000057c0 <test_vector_bitcast_f128_to_v4i32>:
    57c0: 00 00 00 c1 40 00 00 00 00 02 01 00 00 00 00 04      	! BUNDLE
	alloc	2
	retf	0
	nop	0


00000000000057d0 <test_vector_bitcast_f128_to_v2i64>:
    57d0: 00 00 00 c1 40 00 00 00 00 02 01 00 00 00 00 04      	! BUNDLE
	alloc	2
	retf	0
	nop	0


00000000000057e0 <test_vector_bitcast_v16i8_to_f128>:
    57e0: 00 00 00 c1 40 00 00 00 00 02 01 00 00 00 00 04      	! BUNDLE
	alloc	2
	retf	0
	nop	0


00000000000057f0 <test_vector_bitcast_v8i16_to_f128>:
    57f0: 00 00 00 c1 40 00 00 00 00 02 01 00 00 00 00 04      	! BUNDLE
	alloc	2
	retf	0
	nop	0


0000000000005800 <test_vector_bitcast_v4i32_to_f128>:
    5800: 00 00 00 c1 40 00 00 00 00 02 01 00 00 00 00 04      	! BUNDLE
	alloc	2
	retf	0
	nop	0


0000000000005810 <test_vector_bitcast_v2i64_to_f128>:
    5810: 00 00 00 c1 40 00 00 00 00 02 01 00 00 00 00 04      	! BUNDLE
	alloc	2
	retf	0
	nop	0


0000000000005820 <test_vector_bitcast_i128_to_v16i8>:
    5820: 00 00 00 c1 40 00 00 00 00 02 01 00 00 00 00 04      	! BUNDLE
	alloc	2
	retf	0
	nop	0


0000000000005830 <test_vector_bitcast_i128_to_v8i16>:
    5830: 00 00 00 c1 40 00 00 00 00 02 01 00 00 00 00 04      	! BUNDLE
	alloc	2
	retf	0
	nop	0


0000000000005840 <test_vector_bitcast_i128_to_v4i32>:
    5840: 00 00 00 c1 40 00 00 00 00 02 01 00 00 00 00 04      	! BUNDLE
	alloc	2
	retf	0
	nop	0


0000000000005850 <test_vector_bitcast_i128_to_v2i64>:
    5850: 00 00 00 c1 40 00 00 00 00 02 01 00 00 00 00 04      	! BUNDLE
	alloc	2
	retf	0
	nop	0


0000000000005860 <test_vector_bitcast_v16i8_to_i128>:
    5860: 00 00 00 c1 40 00 00 00 00 02 01 00 00 00 00 04      	! BUNDLE
	alloc	2
	retf	0
	nop	0


0000000000005870 <test_vector_bitcast_v8i16_to_i128>:
    5870: 00 00 00 c1 40 00 00 00 00 02 01 00 00 00 00 04      	! BUNDLE
	alloc	2
	retf	0
	nop	0


0000000000005880 <test_vector_bitcast_v4i32_to_i128>:
    5880: 00 00 00 c1 40 00 00 00 00 02 01 00 00 00 00 04      	! BUNDLE
	alloc	2
	retf	0
	nop	0


0000000000005890 <test_vector_bitcast_v2i64_to_i128>:
    5890: 00 00 00 c1 40 00 00 00 00 02 01 00 00 00 00 04      	! BUNDLE
	alloc	2
	retf	0
	nop	0


00000000000058a0 <test_stack_array>:
    58a0: 40 00 80 06 41 10 00 00 fa 05 00 04 00 f0 f7 21      	! BUNDLE
	allocsp	13, 16
	mov	%r5, %fp
	addi	%fp, %sp, 16

    58b0: c0 ff 7f bf 1f 02 00 00 00 8c 1c 00 00 f0 07 96      	! BUNDLE
	addi	%sp, %sp, -16
	ldafr	%r12, 0
	std	%r1, %sp, 0

		00000000000058b0:  R_POSTRISC_B_PCREL_FWD	.L.str.44
    58c0: fc ff ff ff 02 07 01 00 fc 7e c8 87 30 08 10 02      	! BUNDLE
	callr	%r11, -16
	addi	%sp, %sp, 16
	algnup	%r4, %r1, 3, 4

		00000000000058c0:  R_POSTRISC_A_JUMP	printf
    58d0: 84 00 04 3f 01 10 00 00 08 7e 00 08 10 10 24 00      	! BUNDLE
	sub	%r4, %sp, %r4
	mov	%sp, %r4
	add	%r9, %r2, %r1

    58e0: 36 05 83 04 22 06 00 00 00 00 40 08 20 08 0c 00      	! BUNDLE
	ldax.l	%r8, %r9, %r3, 0, 333
	sub	%r3, %r1, %r2

    58f0: b0 00 80 81 02 02 80 04 04 8b 18 00 22 08 30 62      	! BUNDLE
	addi	%r10, %r3, 44
	ldax	%r11, %r2, %r1, 1, 0
	ldax	%r12, %r1, %r2, 1, 0

    5900: 04 00 00 c2 01 f0 ff ff ff 06 1c fe ff ef 1f 96      	! BUNDLE
	mov	%r7, %r4
	callr	%r6, -16
	std	%r7, %fp, -8

		0000000000005900:  R_POSTRISC_B_JUMP	stack_array_consumer
    5910: 00 00 00 c2 20 89 ff ff fb 84 24 80 20 18 08 02      	! BUNDLE
	lddz	%r3, %r4, 0
	lddz	%r4, %fp, -8
	addadd	%r2, %r3, %r2, %r4

    5920: e0 ff ff be 60 89 ff ff fb 82 24 fc ff f7 fb 21      	! BUNDLE
	std	%r2, %fp, -8
	lddz	%r2, %fp, -8
	addi	%sp, %sp, -16

    5930: 00 00 00 00 23 07 00 00 fc 82 e5 ff ff ff 2f 70      	! BUNDLE
	ldafr	%r12, 0
	std	%r2, %sp, 0
	callr	%r11, -16

		0000000000005930:  R_POSTRISC_A_PCREL_FWD	.L.str.45
		0000000000005930:  R_POSTRISC_C_JUMP	printf
    5940: 40 00 00 bf 1f 82 ff ff fb 82 24 08 10 10 04 00      	! BUNDLE
	addi	%sp, %sp, 16
	lddz	%r2, %fp, -8
	add	%r1, %r2, %r1

    5950: 04 00 80 be 1f 10 00 00 0a 7d 00 00 00 00 08 04      	! BUNDLE
	mov	%sp, %fp
	mov	%fp, %r5
	retf	0

