
<stdin>:	file format elf64-postrisc
architecture: postrisc
start address: 0x0000000000000000

Program Header:

Dynamic Section:

Sections:
Idx Name            Size     VMA              LMA              Type
  0                 00000000 0000000000000000 0000000000000000 
  1 .strtab         000043fd 0000000000000000 0000000000000000 
  2 .text           00007620 0000000000000000 0000000000000000 TEXT
  3 .rela.text      00002460 0000000000000000 0000000000000000 
  4 .rodata         00000090 0000000000000000 0000000000000000 DATA
  5 .rela.rodata    00000360 0000000000000000 0000000000000000 
  6 .text.unlikely. 00000030 0000000000000000 0000000000000000 TEXT
  7 .rodata.str1.1  00000429 0000000000000000 0000000000000000 DATA
  8 .data           00000008 0000000000000000 0000000000000000 DATA
  9 .bss            00000070 0000000000000000 0000000000000000 BSS
 10 .tbss           00000008 0000000000000000 0000000000000000 BSS
 11 .comment        00000019 0000000000000000 0000000000000000 
 12 .note.GNU-stack 00000000 0000000000000000 0000000000000000 
 13 .symtab         00005a00 0000000000000000 0000000000000000 

SYMBOL TABLE:
0000000000000000 l    df *ABS*	0000000000000000 foo.temp.c
0000000000000000 l    d  .text	0000000000000000 .text
0000000000000343 l     O .rodata.str1.1	0000000000000008 .Lstr.98
0000000000000000 l     O .rodata.str1.1	0000000000000019 .L.str.1
0000000000000019 l     O .rodata.str1.1	0000000000000018 .L.str.2
0000000000000031 l     O .rodata.str1.1	0000000000000019 .L.str.3
000000000000004a l     O .rodata.str1.1	0000000000000019 .L.str.4
0000000000000063 l     O .rodata.str1.1	0000000000000019 .L.str.5
000000000000007c l     O .rodata.str1.1	0000000000000015 .L.str.6
0000000000000091 l     O .rodata.str1.1	0000000000000014 .L.str.7
00000000000000a5 l     O .rodata.str1.1	0000000000000015 .L.str.8
00000000000000ba l     O .rodata.str1.1	0000000000000015 .L.str.9
00000000000000cf l     O .rodata.str1.1	0000000000000015 .L.str.10
00000000000000e4 l     O .rodata.str1.1	0000000000000005 .L.str.11
00000000000000e9 l     O .rodata.str1.1	0000000000000005 .L.str.12
00000000000000ee l     O .rodata.str1.1	0000000000000007 .L.str.13
00000000000000f5 l     O .rodata.str1.1	0000000000000009 .L.str.14
00000000000000fe l     O .rodata.str1.1	000000000000000b .L.str.15
0000000000000109 l     O .rodata.str1.1	000000000000000e .L.str.16
0000000000000117 l     O .rodata.str1.1	0000000000000007 .L.str.17
0000000000000000 l     O .data	0000000000000008 uglbx
000000000000011e l     O .rodata.str1.1	0000000000000007 .L.str.18
0000000000000125 l     O .rodata.str1.1	0000000000000007 .L.str.19
000000000000034b l     O .rodata.str1.1	000000000000000c .Lstr.99
0000000000000357 l     O .rodata.str1.1	000000000000000c .Lstr.100
0000000000000363 l     O .rodata.str1.1	000000000000000c .Lstr.101
000000000000036f l     O .rodata.str1.1	000000000000000c .Lstr.102
000000000000037b l     O .rodata.str1.1	000000000000000c .Lstr.103
0000000000000387 l     O .rodata.str1.1	000000000000000c .Lstr.104
0000000000000393 l     O .rodata.str1.1	000000000000000c .Lstr.105
000000000000039f l     O .rodata.str1.1	000000000000000c .Lstr.106
00000000000003ab l     O .rodata.str1.1	000000000000000c .Lstr.107
00000000000003b7 l     O .rodata.str1.1	000000000000000c .Lstr.108
00000000000003c3 l     O .rodata.str1.1	000000000000000c .Lstr.109
00000000000003cf l     O .rodata.str1.1	000000000000000c .Lstr.110
00000000000003db l     O .rodata.str1.1	000000000000000d .Lstr.111
00000000000003e8 l     O .rodata.str1.1	000000000000000d .Lstr.112
00000000000003f5 l     O .rodata.str1.1	000000000000000d .Lstr.113
0000000000000402 l     O .rodata.str1.1	000000000000000d .Lstr.114
000000000000040f l     O .rodata.str1.1	000000000000000d .Lstr.115
000000000000041c l     O .rodata.str1.1	000000000000000d .Lstr.116
0000000000000000 l     O .bss	0000000000000002 f16_zero
0000000000000004 l     O .bss	0000000000000004 f32_zero
0000000000000008 l     O .bss	0000000000000008 f64_zero
0000000000000010 l     O .bss	0000000000000010 f128_zero
0000000000004e40 l     F .text	0000000000000010 test_static_function_pointer_target
0000000000000028 l     O .bss	0000000000000001 i8_zero
0000000000000029 l     O .bss	0000000000000001 u8_zero
000000000000002a l     O .bss	0000000000000002 i16_zero
000000000000002c l     O .bss	0000000000000002 u16_zero
0000000000000030 l     O .bss	0000000000000004 i32_zero
0000000000000034 l     O .bss	0000000000000004 u32_zero
0000000000000038 l     O .bss	0000000000000008 i64_zero
0000000000000040 l     O .bss	0000000000000008 u64_zero
0000000000000050 l     O .bss	0000000000000010 i128_zero
0000000000000060 l     O .bss	0000000000000010 u128_zero
0000000000006b20 l     F .text	0000000000000090 sn_write
0000000000000000 l       .rodata	0000000000000000 .LJTI748_0
000000000000012c l     O .rodata.str1.1	000000000000000c .L.str.38
000000000000016b l     O .rodata.str1.1	0000000000000011 .L.str.42
0000000000000149 l     O .rodata.str1.1	0000000000000011 .L.str.40
000000000000015a l     O .rodata.str1.1	0000000000000011 .L.str.41
0000000000000138 l     O .rodata.str1.1	0000000000000011 .L.str.39
000000000000017c l     O .rodata.str1.1	0000000000000011 .L.str.43
0000000000000018 l       .rodata	0000000000000000 .LJTI749_0
000000000000018d l     O .rodata.str1.1	000000000000000a .L.str.44
00000000000001be l     O .rodata.str1.1	000000000000000d .L.str.48
00000000000001a4 l     O .rodata.str1.1	000000000000000d .L.str.46
00000000000001b1 l     O .rodata.str1.1	000000000000000d .L.str.47
0000000000000197 l     O .rodata.str1.1	000000000000000d .L.str.45
00000000000001cb l     O .rodata.str1.1	000000000000000d .L.str.49
0000000000000030 l       .rodata	0000000000000000 .LJTI750_0
00000000000001d8 l     O .rodata.str1.1	000000000000000a .L.str.50
000000000000020a l     O .rodata.str1.1	000000000000000d .L.str.54
00000000000001ef l     O .rodata.str1.1	000000000000000d .L.str.52
00000000000001fc l     O .rodata.str1.1	000000000000000e .L.str.53
00000000000001e2 l     O .rodata.str1.1	000000000000000d .L.str.51
0000000000000217 l     O .rodata.str1.1	000000000000000d .L.str.55
0000000000000048 l       .rodata	0000000000000000 .LJTI751_0
0000000000000224 l     O .rodata.str1.1	000000000000000d .L.str.56
0000000000000267 l     O .rodata.str1.1	0000000000000012 .L.str.60
0000000000000243 l     O .rodata.str1.1	0000000000000012 .L.str.58
0000000000000255 l     O .rodata.str1.1	0000000000000012 .L.str.59
0000000000000231 l     O .rodata.str1.1	0000000000000012 .L.str.57
0000000000000279 l     O .rodata.str1.1	0000000000000012 .L.str.61
0000000000000060 l       .rodata	0000000000000000 .LJTI752_0
000000000000028b l     O .rodata.str1.1	000000000000000b .L.str.62
00000000000002c0 l     O .rodata.str1.1	000000000000000e .L.str.66
00000000000002a4 l     O .rodata.str1.1	000000000000000e .L.str.64
00000000000002b2 l     O .rodata.str1.1	000000000000000e .L.str.65
0000000000000296 l     O .rodata.str1.1	000000000000000e .L.str.63
00000000000002ce l     O .rodata.str1.1	000000000000000e .L.str.67
0000000000000078 l       .rodata	0000000000000000 .LJTI753_0
00000000000002dc l     O .rodata.str1.1	000000000000000b .L.str.68
0000000000000312 l     O .rodata.str1.1	000000000000000e .L.str.72
00000000000002f5 l     O .rodata.str1.1	000000000000000e .L.str.70
0000000000000303 l     O .rodata.str1.1	000000000000000f .L.str.71
00000000000002e7 l     O .rodata.str1.1	000000000000000e .L.str.69
0000000000000320 l     O .rodata.str1.1	000000000000000e .L.str.73
000000000000032e l     O .rodata.str1.1	000000000000000a .L.str.74
0000000000000338 l     O .rodata.str1.1	000000000000000b .L.str.75
0000000000000000 g     F .text	0000000000000010 test_i64_abs
0000000000000010 g     F .text	0000000000000010 test_i32_abs
0000000000000020 g     F .text	0000000000000010 test_i64_abs_difference
0000000000000030 g     F .text	0000000000000010 test_i32_abs_difference
0000000000000040 g     F .text	0000000000000010 test_aesenc
0000000000000050 g     F .text	0000000000000010 test_aesenclast
0000000000000060 g     F .text	0000000000000010 test_aesdec
0000000000000070 g     F .text	0000000000000010 test_aesdeclast
0000000000000080 g     F .text	0000000000000010 test_aesimc
0000000000000090 g     F .text	0000000000000020 test_aeskeygenassist
00000000000000b0 g     F .text	0000000000000010 test_ldi32
00000000000000c0 g     F .text	0000000000000020 test_ldi32_long
00000000000000e0 g     F .text	0000000000000010 test_ldi64
00000000000000f0 g     F .text	0000000000000020 test_ldi64_long
0000000000000110 g     F .text	0000000000000010 test_subr_i64
0000000000000120 g     F .text	0000000000000010 test_subr_i32
0000000000000130 g     F .text	0000000000000030 test_addil
0000000000000160 g     F .text	0000000000000020 test_andil
0000000000000180 g     F .text	0000000000000020 test_oril
00000000000001a0 g     F .text	0000000000000010 test_addadd
00000000000001b0 g     F .text	0000000000000010 test_addsub
00000000000001c0 g     F .text	0000000000000010 test_subsub
00000000000001d0 g     F .text	0000000000000010 test_mul_i32_i32
00000000000001e0 g     F .text	0000000000000010 test_mul_i32_imm
00000000000001f0 g     F .text	0000000000000020 test_mul_i32_imm_ext
0000000000000210 g     F .text	0000000000000010 test_mul_u32_imm
0000000000000220 g     F .text	0000000000000020 test_mul_u32_imm_ext
0000000000000240 g     F .text	0000000000000010 test_mul_i32_i64
0000000000000250 g     F .text	0000000000000010 test_mul_u32_u64
0000000000000260 g     F .text	0000000000000010 test_mul_i32_u64
0000000000000270 g     F .text	0000000000000010 test_mul_i32_i64_imm
0000000000000280 g     F .text	0000000000000020 test_mul_i32_i64_imm_ext
00000000000002a0 g     F .text	0000000000000010 test_mul_u32_u64_imm
00000000000002b0 g     F .text	0000000000000020 test_mul_u32_u64_imm_ext
00000000000002d0 g     F .text	0000000000000010 test_mul_i64_i64
00000000000002e0 g     F .text	0000000000000300 test_atomic_compare_exchange_i8
00000000000005e0 g     F .text	0000000000000300 test_atomic_compare_exchange_i16
00000000000008e0 g     F .text	0000000000000300 test_atomic_compare_exchange_i32
0000000000000be0 g     F .text	0000000000000300 test_atomic_compare_exchange_i64
0000000000000ee0 g     F .text	0000000000000300 test_atomic_compare_exchange_i128
00000000000011e0 g     F .text	0000000000000040 test_atomic_exchange_i8
0000000000001220 g     F .text	0000000000000040 test_atomic_exchange_i16
0000000000001260 g     F .text	0000000000000030 test_atomic_exchange_i32
0000000000001290 g     F .text	0000000000000030 test_atomic_exchange_i64
00000000000012c0 g     F .text	0000000000000030 test_atomic_exchange_i128
00000000000012f0 g     F .text	0000000000000010 test_fence_acquire
0000000000001300 g     F .text	0000000000000010 test_fence_release
0000000000001310 g     F .text	0000000000000010 test_fence_acq_rel
0000000000001320 g     F .text	0000000000000010 test_fence_seq_cst
0000000000001330 g     F .text	0000000000000010 test_compiler_fence
0000000000001340 g     F .text	0000000000000040 test_atomic_load_u8_u8
0000000000001380 g     F .text	0000000000000040 test_atomic_load_u8_u16
00000000000013c0 g     F .text	0000000000000040 test_atomic_load_u8_u32
0000000000001400 g     F .text	0000000000000040 test_atomic_load_u8_u64
0000000000001440 g     F .text	0000000000000040 test_atomic_load_u16_u16
0000000000001480 g     F .text	0000000000000040 test_atomic_load_u16_u32
00000000000014c0 g     F .text	0000000000000040 test_atomic_load_u16_u64
0000000000001500 g     F .text	0000000000000040 test_atomic_load_u32_u32
0000000000001540 g     F .text	0000000000000040 test_atomic_load_u32_u64
0000000000001580 g     F .text	0000000000000040 test_atomic_load_u64_u64
00000000000015c0 g     F .text	0000000000000040 test_atomic_load_u128_u128
0000000000001600 g     F .text	0000000000000130 test_atomic_load_op_i128
0000000000001730 g     F .text	0000000000000130 test_atomic_load_op_u128
0000000000001860 g     F .text	0000000000000140 test_atomic_load_op_i16
00000000000019a0 g     F .text	0000000000000130 test_atomic_load_op_u16
0000000000001ad0 g     F .text	0000000000000130 test_atomic_load_op_i32
0000000000001c00 g     F .text	0000000000000130 test_atomic_load_op_u32
0000000000001d30 g     F .text	0000000000000130 test_atomic_load_op_i64
0000000000001e60 g     F .text	0000000000000130 test_atomic_load_op_u64
0000000000001f90 g     F .text	0000000000000140 test_atomic_load_op_i8
00000000000020d0 g     F .text	0000000000000130 test_atomic_load_op_u8
0000000000002200 g     F .text	0000000000000020 test_atomic_store_i8
0000000000002220 g     F .text	0000000000000020 test_atomic_store_i16
0000000000002240 g     F .text	0000000000000020 test_atomic_store_i32
0000000000002260 g     F .text	0000000000000020 test_atomic_store_i64
0000000000002280 g     F .text	0000000000000020 test_atomic_store_i128
00000000000022a0 g     F .text	0000000000000010 test_bit_clear_i32
00000000000022b0 g     F .text	0000000000000010 test_bit_clear_imm_i32
00000000000022c0 g     F .text	0000000000000010 test_bit_clear_i64_i32
00000000000022d0 g     F .text	0000000000000010 test_bit_clear_i64_i64
00000000000022e0 g     F .text	0000000000000010 test_bit_clear_imm_i64
00000000000022f0 g     F .text	0000000000000010 test_bit_flip_i32
0000000000002300 g     F .text	0000000000000010 test_bit_flip_imm_i32
0000000000002310 g     F .text	0000000000000010 test_bit_flip_i64_i32
0000000000002320 g     F .text	0000000000000010 test_bit_flip_i64_i64
0000000000002330 g     F .text	0000000000000010 test_bit_flip_imm_i64
0000000000002340 g     F .text	0000000000000010 test_bit_flip_i128_i32
0000000000002350 g     F .text	0000000000000010 test_bit_flip_i128_i64
0000000000002360 g     F .text	0000000000000010 test_bit_flip_imm_i128
0000000000002370 g     F .text	0000000000000010 test_bit_set_i32
0000000000002380 g     F .text	0000000000000010 test_bit_set_imm_i32
0000000000002390 g     F .text	0000000000000010 test_bit_set_i64_i32
00000000000023a0 g     F .text	0000000000000010 test_bit_set_i64_i64
00000000000023b0 g     F .text	0000000000000010 test_bit_set_imm_i64
00000000000023c0 g     F .text	0000000000000010 test_bit_set_i128_i32
00000000000023d0 g     F .text	0000000000000010 test_bit_set_i128_i64
00000000000023e0 g     F .text	0000000000000010 test_bit_set_imm_i128
00000000000023f0 g     F .text	0000000000000010 test_i32_inv
0000000000002400 g     F .text	0000000000000010 test_i64_inv
0000000000002410 g     F .text	0000000000000010 test_i128_inv
0000000000002420 g     F .text	0000000000000010 test_i32_and
0000000000002430 g     F .text	0000000000000010 test_i64_and
0000000000002440 g     F .text	0000000000000010 test_i128_and
0000000000002450 g     F .text	0000000000000010 test_i32_andi
0000000000002460 g     F .text	0000000000000020 test_i32_andi_ext
0000000000002480 g     F .text	0000000000000010 test_i64_andi
0000000000002490 g     F .text	0000000000000020 test_i64_andi_ext
00000000000024b0 g     F .text	0000000000000010 test_i128_andi
00000000000024c0 g     F .text	0000000000000020 test_i128_andi_ext
00000000000024e0 g     F .text	0000000000000010 test_i32_andn
00000000000024f0 g     F .text	0000000000000010 test_i64_andn
0000000000002500 g     F .text	0000000000000010 test_i128_andn
0000000000002510 g     F .text	0000000000000010 test_i32_andni
0000000000002520 g     F .text	0000000000000020 test_i32_andni_ext
0000000000002540 g     F .text	0000000000000010 test_i64_andni
0000000000002550 g     F .text	0000000000000020 test_i64_andni_ext
0000000000002570 g     F .text	0000000000000010 test_i128_andni
0000000000002580 g     F .text	0000000000000020 test_i128_andni_ext
00000000000025a0 g     F .text	0000000000000010 test_i32_or
00000000000025b0 g     F .text	0000000000000010 test_i64_or
00000000000025c0 g     F .text	0000000000000010 test_i128_or
00000000000025d0 g     F .text	0000000000000010 test_i32_ori
00000000000025e0 g     F .text	0000000000000020 test_i32_ori_ext
0000000000002600 g     F .text	0000000000000010 test_i64_ori
0000000000002610 g     F .text	0000000000000020 test_i64_ori_ext
0000000000002630 g     F .text	0000000000000010 test_i128_ori
0000000000002640 g     F .text	0000000000000020 test_i128_ori_ext
0000000000002660 g     F .text	0000000000000010 test_i32_orn
0000000000002670 g     F .text	0000000000000010 test_i64_orn
0000000000002680 g     F .text	0000000000000010 test_i128_orn
0000000000002690 g     F .text	0000000000000010 test_i32_orni
00000000000026a0 g     F .text	0000000000000020 test_i32_orni_ext
00000000000026c0 g     F .text	0000000000000010 test_i64_orni
00000000000026d0 g     F .text	0000000000000020 test_i64_orni_ext
00000000000026f0 g     F .text	0000000000000010 test_i128_orni
0000000000002700 g     F .text	0000000000000020 test_i128_orni_ext
0000000000002720 g     F .text	0000000000000010 test_i32_xor
0000000000002730 g     F .text	0000000000000010 test_i64_xor
0000000000002740 g     F .text	0000000000000010 test_i128_xor
0000000000002750 g     F .text	0000000000000010 test_i32_xori
0000000000002760 g     F .text	0000000000000020 test_i32_xori_ext
0000000000002780 g     F .text	0000000000000010 test_i64_xori
0000000000002790 g     F .text	0000000000000020 test_i64_xori_ext
00000000000027b0 g     F .text	0000000000000010 test_i128_xori
00000000000027c0 g     F .text	0000000000000020 test_i128_xori_ext
00000000000027e0 g     F .text	0000000000000010 test_i1_and
00000000000027f0 g     F .text	0000000000000010 test_i1_or
0000000000002800 g     F .text	0000000000000010 test_i1_xor
0000000000002810 g     F .text	0000000000000010 test_i1_not
0000000000002820 g     F .text	0000000000000020 test_i1_andn
0000000000002840 g     F .text	0000000000000020 test_i1_orn
0000000000002860 g     F .text	0000000000000020 test_i1_nand
0000000000002880 g     F .text	0000000000000010 test_i1_to_i32
0000000000002890 g     F .text	0000000000000010 test_i1_to_i64
00000000000028a0 g     F .text	0000000000000010 test_i1_inv
00000000000028b0 g     F .text	0000000000000010 test_imm_to_i1
00000000000028c0 g     F .text	0000000000000050 test_write_i1
0000000000000000         *UND*	0000000000000000 test_bool_true
0000000000000000         *UND*	0000000000000000 test_bool_false
0000000000000000         *UND*	0000000000000000 test_i8_true
0000000000000000         *UND*	0000000000000000 test_i8_false
0000000000000000         *UND*	0000000000000000 test_i16_true
0000000000000000         *UND*	0000000000000000 test_i16_false
0000000000000000         *UND*	0000000000000000 test_i32_true
0000000000000000         *UND*	0000000000000000 test_i32_false
0000000000000000         *UND*	0000000000000000 test_i64_true
0000000000000000         *UND*	0000000000000000 test_i64_false
0000000000002910 g     F .text	0000000000000020 test_branch_i64_eqi
0000000000000000         *UND*	0000000000000000 puts
0000000000002930 g     F .text	0000000000000020 test_branch_i64_nei
0000000000002950 g     F .text	0000000000000020 test_branch_i64_lti
0000000000002970 g     F .text	0000000000000020 test_branch_i64_lei
0000000000002990 g     F .text	0000000000000020 test_branch_i64_gti
00000000000029b0 g     F .text	0000000000000020 test_branch_i64_gei
00000000000029d0 g     F .text	0000000000000020 test_branch_ext_i64_eqi
00000000000029f0 g     F .text	0000000000000020 test_branch_ext_i64_nei
0000000000002a10 g     F .text	0000000000000020 test_branch_ext_i64_lti
0000000000002a30 g     F .text	0000000000000020 test_branch_ext_i64_lei
0000000000002a50 g     F .text	0000000000000020 test_branch_ext_i64_gti
0000000000002a70 g     F .text	0000000000000020 test_branch_ext_i64_gei
0000000000002a90 g     F .text	0000000000000020 test_branch_i32_eqi
0000000000002ab0 g     F .text	0000000000000020 test_branch_i32_nei
0000000000002ad0 g     F .text	0000000000000020 test_branch_i32_lti
0000000000002af0 g     F .text	0000000000000020 test_branch_i32_lei
0000000000002b10 g     F .text	0000000000000020 test_branch_i32_gti
0000000000002b30 g     F .text	0000000000000020 test_branch_i32_gei
0000000000002b50 g     F .text	0000000000000020 test_branch_ext_i32_eqi
0000000000002b70 g     F .text	0000000000000020 test_branch_ext_i32_nei
0000000000002b90 g     F .text	0000000000000020 test_branch_ext_i32_lti
0000000000002bb0 g     F .text	0000000000000020 test_branch_ext_i32_lei
0000000000002bd0 g     F .text	0000000000000020 test_branch_ext_i32_gti
0000000000002bf0 g     F .text	0000000000000020 test_branch_ext_i32_gei
0000000000002c10 g     F .text	0000000000000030 test_bit_1
0000000000000000         *UND*	0000000000000000 printf
0000000000002c40 g     F .text	0000000000000030 test_bit_2
0000000000002c70 g     F .text	0000000000000030 test_bit_3
0000000000002ca0 g     F .text	0000000000000030 test_bit_4
0000000000002cd0 g     F .text	0000000000000030 test_bit_5
0000000000002d00 g     F .text	0000000000000030 test_bit_i32_1
0000000000002d30 g     F .text	0000000000000030 test_bit_i32_2
0000000000002d60 g     F .text	0000000000000030 test_bit_i32_3
0000000000002d90 g     F .text	0000000000000030 test_bit_i32_4
0000000000002dc0 g     F .text	0000000000000030 test_bit_i32_5
0000000000002df0 g     F .text	0000000000000080 test_ball
0000000000002e70 g     F .text	00000000000001b0 test_builtin_get_special_reg
0000000000000000         *UND*	0000000000000000 consume_sr64
0000000000000000         *UND*	0000000000000000 consume_sr128
0000000000003020 g     F .text	00000000000000e0 test_builtin_set_special_reg
0000000000003100 g     F .text	0000000000000020 test_i128_load_store
0000000000003120 g     F .text	0000000000000070 test_builtin_va
0000000000000000         *UND*	0000000000000000 test_builtin_va_consume_i32
0000000000000000         *UND*	0000000000000000 test_builtin_va_consume_f64
0000000000000000         *UND*	0000000000000000 test_builtin_va_consume_f128
0000000000003190 g     F .text	00000000000000a0 test_test_builtin_va
0000000000003230 g     F .text	0000000000000090 test_builtin_vector_i8
00000000000032c0 g     F .text	0000000000000090 test_builtin_vector_i16
0000000000003350 g     F .text	0000000000000090 test_builtin_vector_i32
00000000000033e0 g     F .text	0000000000000090 test_builtin_vector_i64
0000000000003470 g     F .text	00000000000000c0 test_builtin_vector_mixed
0000000000003530 g     F .text	0000000000000010 test_builtin_popcount
0000000000003540 g     F .text	0000000000000010 test_builtin_popcountl
0000000000003550 g     F .text	0000000000000010 test_builtin_ctz
0000000000003560 g     F .text	0000000000000010 test_builtin_ctzl
0000000000003570 g     F .text	0000000000000010 test_builtin_clz
0000000000003580 g     F .text	0000000000000010 test_builtin_clzl
0000000000003590 g     F .text	0000000000000010 test_builtin_readcyclecounter
00000000000035a0 g     F .text	0000000000000010 test_builtin_thread_pointer
00000000000035b0 g     F .text	0000000000000010 test_builtin_set_thread_pointer
00000000000035c0 g     F .text	0000000000000030 test_frame_buitin
00000000000035f0 g     F .text	0000000000000010 test_builtin_stack_pointer
0000000000003600 g     F .text	0000000000000050 test_builtin_bitreverse
0000000000003650 g     F .text	0000000000000010 test_builtin_halt
0000000000003660 g     F .text	0000000000000010 test_builtin_undef
0000000000003670 g     F .text	0000000000000010 test_builtin_rfi
0000000000003680 g     F .text	0000000000000030 test_builtin_nop
00000000000036b0 g     F .text	0000000000000010 test_builtin_tpa
00000000000036c0 g     F .text	0000000000000020 test_builtin_random
00000000000036e0 g     F .text	0000000000000070 test_builtin_cache
0000000000003750 g     F .text	0000000000000020 test_clmul
0000000000003770 g     F .text	0000000000000010 test_i128_eq
0000000000003780 g     F .text	0000000000000010 test_i128_ne
0000000000003790 g     F .text	0000000000000010 test_i128_lt
00000000000037a0 g     F .text	0000000000000010 test_i128_le
00000000000037b0 g     F .text	0000000000000010 test_i128_gt
00000000000037c0 g     F .text	0000000000000010 test_i128_ge
00000000000037d0 g     F .text	0000000000000010 test_u128_lt
00000000000037e0 g     F .text	0000000000000010 test_u128_le
00000000000037f0 g     F .text	0000000000000010 test_u128_gt
0000000000003800 g     F .text	0000000000000010 test_u128_ge
0000000000003810 g     F .text	0000000000000010 test_i128_eq_imm
0000000000003820 g     F .text	0000000000000010 test_i128_ne_imm
0000000000003830 g     F .text	0000000000000010 test_i128_lt_imm
0000000000003840 g     F .text	0000000000000010 test_i128_gt_imm
0000000000003850 g     F .text	0000000000000010 test_i128_le_imm
0000000000003860 g     F .text	0000000000000010 test_i128_ge_imm
0000000000003870 g     F .text	0000000000000010 test_u128_lt_imm
0000000000003880 g     F .text	0000000000000010 test_u128_gt_imm
0000000000003890 g     F .text	0000000000000010 test_u128_le_imm
00000000000038a0 g     F .text	0000000000000010 test_u128_ge_imm
00000000000038b0 g     F .text	0000000000000010 test_i32_eq
00000000000038c0 g     F .text	0000000000000010 test_i32_ne
00000000000038d0 g     F .text	0000000000000010 test_i32_lt
00000000000038e0 g     F .text	0000000000000010 test_i32_le
00000000000038f0 g     F .text	0000000000000010 test_i32_gt
0000000000003900 g     F .text	0000000000000010 test_i32_ge
0000000000003910 g     F .text	0000000000000010 test_u32_lt
0000000000003920 g     F .text	0000000000000010 test_u32_le
0000000000003930 g     F .text	0000000000000010 test_u32_gt
0000000000003940 g     F .text	0000000000000010 test_u32_ge
0000000000003950 g     F .text	0000000000000010 test_i32_eq_imm
0000000000003960 g     F .text	0000000000000010 test_i32_ne_imm
0000000000003970 g     F .text	0000000000000010 test_i32_lt_imm
0000000000003980 g     F .text	0000000000000010 test_i32_gt_imm
0000000000003990 g     F .text	0000000000000010 test_i32_le_imm
00000000000039a0 g     F .text	0000000000000010 test_i32_ge_imm
00000000000039b0 g     F .text	0000000000000010 test_u32_lt_imm
00000000000039c0 g     F .text	0000000000000010 test_u32_gt_imm
00000000000039d0 g     F .text	0000000000000010 test_u32_le_imm
00000000000039e0 g     F .text	0000000000000010 test_u32_ge_imm
00000000000039f0 g     F .text	0000000000000020 test_bool_eq
0000000000003a10 g     F .text	0000000000000010 test_bool_ne
0000000000003a20 g     F .text	0000000000000020 test_bool_lt
0000000000003a40 g     F .text	0000000000000020 test_bool_le
0000000000003a60 g     F .text	0000000000000020 test_bool_gt
0000000000003a80 g     F .text	0000000000000020 test_bool_ge
0000000000003aa0 g     F .text	0000000000000010 test_ptr_eq
0000000000003ab0 g     F .text	0000000000000010 test_ptr_ne
0000000000003ac0 g     F .text	0000000000000010 test_ptr_lt
0000000000003ad0 g     F .text	0000000000000010 test_ptr_le
0000000000003ae0 g     F .text	0000000000000010 test_ptr_gt
0000000000003af0 g     F .text	0000000000000010 test_ptr_ge
0000000000003b00 g     F .text	0000000000000010 test_i64_eq
0000000000003b10 g     F .text	0000000000000010 test_i64_ne
0000000000003b20 g     F .text	0000000000000010 test_i64_lt
0000000000003b30 g     F .text	0000000000000010 test_i64_le
0000000000003b40 g     F .text	0000000000000010 test_i64_gt
0000000000003b50 g     F .text	0000000000000010 test_i64_ge
0000000000003b60 g     F .text	0000000000000010 test_u64_lt
0000000000003b70 g     F .text	0000000000000010 test_u64_le
0000000000003b80 g     F .text	0000000000000010 test_u64_gt
0000000000003b90 g     F .text	0000000000000010 test_u64_ge
0000000000003ba0 g     F .text	0000000000000010 test_i64_eq_imm
0000000000003bb0 g     F .text	0000000000000010 test_i64_ne_imm
0000000000003bc0 g     F .text	0000000000000010 test_i64_lt_imm
0000000000003bd0 g     F .text	0000000000000010 test_i64_gt_imm
0000000000003be0 g     F .text	0000000000000010 test_i64_le_imm
0000000000003bf0 g     F .text	0000000000000010 test_i64_ge_imm
0000000000003c00 g     F .text	0000000000000010 test_u64_lt_imm
0000000000003c10 g     F .text	0000000000000010 test_u64_gt_imm
0000000000003c20 g     F .text	0000000000000010 test_u64_le_imm
0000000000003c30 g     F .text	0000000000000010 test_u64_ge_imm
0000000000003c40 g     F .text	0000000000000030 test_cpuid
0000000000003c70 g     F .text	0000000000000010 test_crc32c
0000000000003c80 g     F .text	0000000000000030 TestDebugRegisters
0000000000003cb0 g     F .text	0000000000000010 test_divide_pow2_32
0000000000003cc0 g     F .text	0000000000000010 test_divide_pow2_imm_32
0000000000003cd0 g     F .text	0000000000000010 test_divide_pow2_64
0000000000003ce0 g     F .text	0000000000000010 test_divide_pow2_imm_64
0000000000003cf0 g     F .text	0000000000000020 test_fma_f16
0000000000003d10 g     F .text	0000000000000020 test_fma_f32
0000000000003d30 g     F .text	0000000000000020 test_fma_f64
0000000000003d50 g     F .text	0000000000000020 test_fma_f128
0000000000003d70 g     F .text	0000000000000020 test_fma_v8f16
0000000000003d90 g     F .text	0000000000000020 test_fma_v4f32
0000000000003db0 g     F .text	0000000000000020 test_fma_v2f64
0000000000003dd0 g     F .text	0000000000000020 ffff
0000000000003df0 g     F .text	0000000000000120 i64_test
0000000000000000         *UND*	0000000000000000 exit
0000000000003f10 g     F .text	0000000000000080 NeverReturn
0000000000000000         *UND*	0000000000000000 glbx
0000000000003f90 g     F .text	0000000000000030 i64_add
0000000000003fc0 g     F .text	0000000000000040 i32_add
0000000000000000         *UND*	0000000000000000 glb
0000000000000000         *UND*	0000000000000000 cccc
0000000000004000 g     F .text	0000000000000020 u32_add
0000000000000000         *UND*	0000000000000000 uglb
0000000000004020 g     F .text	0000000000000040 float_test
0000000000004060 g     F .text	0000000000000010 main
0000000000004070 g     F .text	0000000000000020 test_fp_arithmetic_f16
0000000000004090 g     F .text	0000000000000020 test_fp_arithmetic_f32
00000000000040b0 g     F .text	0000000000000020 test_fp_arithmetic_f64
00000000000040d0 g     F .text	0000000000000020 test_fp_arithmetic_f128
00000000000040f0 g     F .text	0000000000000020 test_fp_bitcast_i16_to_f16
0000000000004110 g     F .text	0000000000000020 test_fp_bitcast_f16_to_i16
0000000000004130 g     F .text	0000000000000010 test_fp_bitcast_i32_to_f32
0000000000004140 g     F .text	0000000000000010 test_fp_bitcast_f32_to_i32
0000000000004150 g     F .text	0000000000000010 test_fp_bitcast_i64_to_f64
0000000000004160 g     F .text	0000000000000010 test_fp_bitcast_f64_to_i64
0000000000004170 g     F .text	0000000000000010 test_fp_bitcast_i128_to_f128
0000000000004180 g     F .text	0000000000000010 test_fp_bitcast_f128_to_i128
0000000000004190 g     F .text	0000000000000020 test_fp_branch_f32_eq
00000000000041b0 g     F .text	0000000000000020 test_fp_branch_f32_ne
00000000000041d0 g     F .text	0000000000000020 test_fp_branch_f32_lt
00000000000041f0 g     F .text	0000000000000020 test_fp_branch_f32_le
0000000000004210 g     F .text	0000000000000020 test_fp_branch_f32_gt
0000000000004230 g     F .text	0000000000000020 test_fp_branch_f32_ge
0000000000004250 g     F .text	0000000000000020 test_fp_branch_f64_eq
0000000000004270 g     F .text	0000000000000020 test_fp_branch_f64_ne
0000000000004290 g     F .text	0000000000000020 test_fp_branch_f64_lt
00000000000042b0 g     F .text	0000000000000020 test_fp_branch_f64_le
00000000000042d0 g     F .text	0000000000000020 test_fp_branch_f64_gt
00000000000042f0 g     F .text	0000000000000020 test_fp_branch_f64_ge
0000000000004310 g     F .text	0000000000000020 test_fp_branch_f128_eq
0000000000004330 g     F .text	0000000000000020 test_fp_branch_f128_ne
0000000000004350 g     F .text	0000000000000020 test_fp_branch_f128_lt
0000000000004370 g     F .text	0000000000000020 test_fp_branch_f128_le
0000000000004390 g     F .text	0000000000000020 test_fp_branch_f128_gt
00000000000043b0 g     F .text	0000000000000020 test_fp_branch_f128_ge
00000000000043d0 g     F .text	0000000000000010 test_builtin_f32_isnan
00000000000043e0 g     F .text	0000000000000010 test_builtin_f32_copysign
00000000000043f0 g     F .text	0000000000000010 test_builtin_f64_copysign
0000000000004400 g     F .text	0000000000000010 test_builtin_f128_copysign
0000000000004410 g     F .text	0000000000000010 test_compare_f16_eq
0000000000004420 g     F .text	0000000000000010 test_compare_f16_ne
0000000000004430 g     F .text	0000000000000010 test_compare_f16_lt
0000000000004440 g     F .text	0000000000000010 test_compare_f16_le
0000000000004450 g     F .text	0000000000000010 test_compare_f16_gt
0000000000004460 g     F .text	0000000000000010 test_compare_f16_ge
0000000000004470 g     F .text	0000000000000010 test_compare_f32_eq
0000000000004480 g     F .text	0000000000000010 test_compare_f32_ne
0000000000004490 g     F .text	0000000000000010 test_compare_f32_lt
00000000000044a0 g     F .text	0000000000000010 test_compare_f32_le
00000000000044b0 g     F .text	0000000000000010 test_compare_f32_gt
00000000000044c0 g     F .text	0000000000000010 test_compare_f32_ge
00000000000044d0 g     F .text	0000000000000010 test_compare_f64_eq
00000000000044e0 g     F .text	0000000000000010 test_compare_f64_ne
00000000000044f0 g     F .text	0000000000000010 test_compare_f64_lt
0000000000004500 g     F .text	0000000000000010 test_compare_f64_le
0000000000004510 g     F .text	0000000000000010 test_compare_f64_gt
0000000000004520 g     F .text	0000000000000010 test_compare_f64_ge
0000000000004530 g     F .text	0000000000000010 test_compare_f128_eq
0000000000004540 g     F .text	0000000000000010 test_compare_f128_ne
0000000000004550 g     F .text	0000000000000010 test_compare_f128_lt
0000000000004560 g     F .text	0000000000000010 test_compare_f128_le
0000000000004570 g     F .text	0000000000000010 test_compare_f128_gt
0000000000004580 g     F .text	0000000000000010 test_compare_f128_ge
0000000000004590 g     F .text	0000000000000010 test_conv_f16_to_f32
00000000000045a0 g     F .text	0000000000000010 test_conv_f16_to_f64
00000000000045b0 g     F .text	0000000000000010 test_conv_f16_to_f128
00000000000045c0 g     F .text	0000000000000010 test_conv_f64_to_f128
00000000000045d0 g     F .text	0000000000000010 test_conv_f32_to_f64
00000000000045e0 g     F .text	0000000000000010 test_conv_f32_to_f128
00000000000045f0 g     F .text	0000000000000010 test_conv_f32_to_f16
0000000000004600 g     F .text	0000000000000010 test_conv_f64_to_f16
0000000000004610 g     F .text	0000000000000010 test_conv_f64_to_f32
0000000000004620 g     F .text	0000000000000010 test_conv_f128_to_f16
0000000000004630 g     F .text	0000000000000010 test_conv_f128_to_f32
0000000000004640 g     F .text	0000000000000010 test_conv_f128_to_f64
0000000000004650 g     F .text	0000000000000010 test_conv_f16_to_i32
0000000000004660 g     F .text	0000000000000010 test_conv_f16_to_u32
0000000000004670 g     F .text	0000000000000010 test_conv_f16_to_i64
0000000000004680 g     F .text	0000000000000010 test_conv_f16_to_u64
0000000000004690 g     F .text	0000000000000010 test_conv_f16_to_i128
00000000000046a0 g     F .text	0000000000000010 test_conv_f16_to_u128
00000000000046b0 g     F .text	0000000000000010 test_conv_i32_to_f16
00000000000046c0 g     F .text	0000000000000010 test_conv_u32_to_f16
00000000000046d0 g     F .text	0000000000000010 test_conv_i64_to_f16
00000000000046e0 g     F .text	0000000000000010 test_conv_u64_to_f16
00000000000046f0 g     F .text	0000000000000010 test_conv_i128_to_f16
0000000000004700 g     F .text	0000000000000010 test_conv_u128_to_f16
0000000000004710 g     F .text	0000000000000010 test_conv_f32_to_i32
0000000000004720 g     F .text	0000000000000010 test_conv_f32_to_u32
0000000000004730 g     F .text	0000000000000010 test_conv_f32_to_i64
0000000000004740 g     F .text	0000000000000010 test_conv_f32_to_u64
0000000000004750 g     F .text	0000000000000010 test_conv_f32_to_i128
0000000000004760 g     F .text	0000000000000010 test_conv_f32_to_u128
0000000000004770 g     F .text	0000000000000010 test_conv_i32_to_f32
0000000000004780 g     F .text	0000000000000010 test_conv_u32_to_f32
0000000000004790 g     F .text	0000000000000010 test_conv_i64_to_f32
00000000000047a0 g     F .text	0000000000000010 test_conv_u64_to_f32
00000000000047b0 g     F .text	0000000000000010 test_conv_i128_to_f32
00000000000047c0 g     F .text	0000000000000010 test_conv_u128_to_f32
00000000000047d0 g     F .text	0000000000000010 test_conv_f64_to_i32
00000000000047e0 g     F .text	0000000000000010 test_conv_f64_to_u32
00000000000047f0 g     F .text	0000000000000010 test_conv_f64_to_i64
0000000000004800 g     F .text	0000000000000010 test_conv_f64_to_u64
0000000000004810 g     F .text	0000000000000010 test_conv_f64_to_i128
0000000000004820 g     F .text	0000000000000010 test_conv_f64_to_u128
0000000000004830 g     F .text	0000000000000010 test_conv_i32_to_f64
0000000000004840 g     F .text	0000000000000010 test_conv_u32_to_f64
0000000000004850 g     F .text	0000000000000010 test_conv_i64_to_f64
0000000000004860 g     F .text	0000000000000010 test_conv_u64_to_f64
0000000000004870 g     F .text	0000000000000010 test_conv_i128_to_f64
0000000000004880 g     F .text	0000000000000010 test_conv_u128_to_f64
0000000000004890 g     F .text	0000000000000010 test_conv_f128_to_i32
00000000000048a0 g     F .text	0000000000000010 test_conv_f128_to_u32
00000000000048b0 g     F .text	0000000000000010 test_conv_f128_to_i64
00000000000048c0 g     F .text	0000000000000010 test_conv_f128_to_u64
00000000000048d0 g     F .text	0000000000000010 test_conv_f128_to_i128
00000000000048e0 g     F .text	0000000000000010 test_conv_f128_to_u128
00000000000048f0 g     F .text	0000000000000010 test_conv_i32_to_f128
0000000000004900 g     F .text	0000000000000010 test_conv_u32_to_f128
0000000000004910 g     F .text	0000000000000010 test_conv_i64_to_f128
0000000000004920 g     F .text	0000000000000010 test_conv_u64_to_f128
0000000000004930 g     F .text	0000000000000010 test_conv_i128_to_f128
0000000000004940 g     F .text	0000000000000010 test_conv_u128_to_f128
0000000000004950 g     F .text	0000000000000010 test_fp_immediate_f16
0000000000004960 g     F .text	0000000000000020 test_fp_immediate_f32
0000000000004980 g     F .text	0000000000000020 test_fp_immediate_f64
00000000000049a0 g     F .text	0000000000000020 test_fp_immediate_f128
00000000000049c0 g     F .text	0000000000000020 test_fp_immediate_f128_int
00000000000049e0 g     F .text	0000000000000020 test_fp_immediate_f128_denorm
0000000000004a00 g     F .text	0000000000000010 test_roundeven_f32
0000000000004a10 g     F .text	0000000000000010 test_round_f32
0000000000004a20 g     F .text	0000000000000010 test_floor_f32
0000000000004a30 g     F .text	0000000000000010 test_ceil_f32
0000000000004a40 g     F .text	0000000000000010 test_trunc_f32
0000000000004a50 g     F .text	0000000000000010 test_nearbyint_f32
0000000000004a60 g     F .text	0000000000000010 test_rint_f32
0000000000004a70 g     F .text	0000000000000010 test_roundeven_f64
0000000000004a80 g     F .text	0000000000000010 test_round_f64
0000000000004a90 g     F .text	0000000000000010 test_floor_f64
0000000000004aa0 g     F .text	0000000000000010 test_ceil_f64
0000000000004ab0 g     F .text	0000000000000010 test_trunc_f64
0000000000004ac0 g     F .text	0000000000000010 test_nearbyint_f64
0000000000004ad0 g     F .text	0000000000000010 test_rint_f64
0000000000004ae0 g     F .text	0000000000000010 test_roundeven_f128
0000000000004af0 g     F .text	0000000000000010 test_round_f128
0000000000004b00 g     F .text	0000000000000010 test_floor_f128
0000000000004b10 g     F .text	0000000000000010 test_ceil_f128
0000000000004b20 g     F .text	0000000000000010 test_trunc_f128
0000000000004b30 g     F .text	0000000000000010 test_nearbyint_f128
0000000000004b40 g     F .text	0000000000000010 test_rint_f128
0000000000004b50 g     F .text	0000000000000010 test_fneg_f32
0000000000004b60 g     F .text	0000000000000010 test_fabs_f32
0000000000004b70 g     F .text	0000000000000010 test_fnabs_f32
0000000000004b80 g     F .text	0000000000000010 test_fabsd_f32
0000000000004b90 g     F .text	0000000000000010 test_fnabsd_f32
0000000000004ba0 g     F .text	0000000000000010 test_fneg_f64
0000000000004bb0 g     F .text	0000000000000010 test_fabs_f64
0000000000004bc0 g     F .text	0000000000000010 test_fnabs_f64
0000000000004bd0 g     F .text	0000000000000010 test_fabsd_f64
0000000000004be0 g     F .text	0000000000000010 test_fnabsd_f64
0000000000004bf0 g     F .text	0000000000000010 test_fneg_f128
0000000000004c00 g     F .text	0000000000000010 test_fabs_f128
0000000000004c10 g     F .text	0000000000000010 test_fnabs_f128
0000000000004c20 g     F .text	0000000000000010 test_fabsd_f128
0000000000004c30 g     F .text	0000000000000010 test_fnabsd_f128
0000000000004c40 g     F .text	00000000000000a0 fp_store_zero_dummy_return
0000000000004ce0 g     F .text	0000000000000020 test_store_based_f16_zero
0000000000004d00 g     F .text	0000000000000020 test_store_based_f32_zero
0000000000004d20 g     F .text	0000000000000020 test_store_based_f64_zero
0000000000004d40 g     F .text	0000000000000020 test_store_based_f128_zero
0000000000004d60 g     F .text	0000000000000020 test_function_pointer
0000000000004d80 g     F .text	0000000000000020 test_function_call
0000000000000000         *UND*	0000000000000000 ccc
0000000000004da0 g     F .text	0000000000000020 test_function
0000000000000000         *UND*	0000000000000000 xprintf
0000000000004dc0 g     F .text	0000000000000020 test_callmi
0000000000004de0 g     F .text	0000000000000020 test_callmi_folding
0000000000004e00 g     F .text	0000000000000020 test_callplt_folding
0000000000000000         *UND*	0000000000000000 gftable
0000000000004e20 g     F .text	0000000000000010 test_global_function_pointer_target
0000000000004e30 g     F .text	0000000000000010 test_static_function_pointer_materialize
0000000000004e50 g     F .text	0000000000000010 test_global_function_pointer_materialize
0000000000004e60 g     F .text	0000000000000010 test_extern_function_pointer_materialize
0000000000000000         *UND*	0000000000000000 test_extern_function_pointer_target
0000000000004e70 g     F .text	0000000000000010 test_fshr_u32
0000000000004e80 g     F .text	0000000000000010 test_fshr_u64
0000000000004e90 g     F .text	0000000000000010 test_fshr_u128
0000000000004ea0 g     F .text	0000000000000010 test_rotate_u32
0000000000004eb0 g     F .text	0000000000000010 test_rotate_u64
0000000000004ec0 g     F .text	0000000000000010 test_rotate_u128
0000000000004ed0 g     F .text	0000000000000030 test_global_data
0000000000000020 g     O .bss	0000000000000008 x_bss
0000000000000000         *UND*	0000000000000000 x_bss_extern
0000000000004f00 g     F .text	0000000000000010 test_global_i8_ptr
0000000000000000         *UND*	0000000000000000 global_i8
0000000000004f10 g     F .text	0000000000000010 test_global_i8
0000000000004f20 g     F .text	0000000000000010 test_global_u8
0000000000000000         *UND*	0000000000000000 global_u8
0000000000004f30 g     F .text	0000000000000010 test_global_i16
0000000000000000         *UND*	0000000000000000 global_i16
0000000000004f40 g     F .text	0000000000000010 test_global_u16
0000000000000000         *UND*	0000000000000000 global_u16
0000000000004f50 g     F .text	0000000000000010 test_global_i8_to_i16
0000000000004f60 g     F .text	0000000000000010 test_global_u8_to_u16
0000000000004f70 g     F .text	0000000000000010 test_global_i32
0000000000000000         *UND*	0000000000000000 global_i32
0000000000004f80 g     F .text	0000000000000010 test_global_u32
0000000000000000         *UND*	0000000000000000 global_u32
0000000000004f90 g     F .text	0000000000000010 test_global_i8_to_i32
0000000000004fa0 g     F .text	0000000000000010 test_global_u8_to_u32
0000000000004fb0 g     F .text	0000000000000010 test_global_i16_to_i32
0000000000004fc0 g     F .text	0000000000000010 test_global_u16_to_u32
0000000000004fd0 g     F .text	0000000000000010 test_global_i8_to_i64
0000000000004fe0 g     F .text	0000000000000010 test_global_u8_to_u64
0000000000004ff0 g     F .text	0000000000000010 test_global_i16_to_i64
0000000000005000 g     F .text	0000000000000010 test_global_u16_to_u64
0000000000005010 g     F .text	0000000000000010 test_global_i32_to_i64
0000000000005020 g     F .text	0000000000000010 test_global_u32_to_u64
0000000000005030 g     F .text	0000000000000010 test_global_i64
0000000000000000         *UND*	0000000000000000 global_i64
0000000000005040 g     F .text	0000000000000010 test_global_u64
0000000000000000         *UND*	0000000000000000 global_u64
0000000000005050 g     F .text	0000000000000010 test_global_array_folding_i8
0000000000000000         *UND*	0000000000000000 global_array_i8
0000000000005060 g     F .text	0000000000000010 test_global_array_folding_i16
0000000000000000         *UND*	0000000000000000 global_array_i16
0000000000005070 g     F .text	0000000000000010 test_global_array_folding_i32
0000000000000000         *UND*	0000000000000000 global_array_i32
0000000000005080 g     F .text	0000000000000010 test_global_array_folding_i64
0000000000000000         *UND*	0000000000000000 global_array_i64
0000000000005090 g     F .text	0000000000000010 test_ldi128
00000000000050a0 g     F .text	0000000000000020 test_ldi128_long
00000000000050c0 g     F .text	0000000000000020 test_ldi128_verylong
00000000000050e0 g     F .text	0000000000000020 test_subr_i128
0000000000005100 g     F .text	0000000000000030 test_addi_i128
0000000000005130 g     F .text	0000000000000020 test_andi_i128
0000000000005150 g     F .text	0000000000000020 test_ori_i128
0000000000005170 g     F .text	0000000000000010 test_add_i128
0000000000005180 g     F .text	0000000000000010 test_sub_i128
0000000000005190 g     F .text	0000000000000010 test_immediate_i32
00000000000051a0 g     F .text	0000000000000010 test_immediate_u32
00000000000051b0 g     F .text	0000000000000020 test_immediate_i32_long
00000000000051d0 g     F .text	0000000000000020 test_immediate_u32_long
00000000000051f0 g     F .text	0000000000000010 test_immediate_i64
0000000000005200 g     F .text	0000000000000010 test_immediate_u64
0000000000005210 g     F .text	0000000000000020 test_immediate_i64_long
0000000000005230 g     F .text	0000000000000020 test_immediate_u64_long
0000000000005250 g     F .text	0000000000000020 test_immediate_size_max
0000000000005270 g     F .text	0000000000000010 test_div_i32
0000000000005280 g     F .text	0000000000000010 test_div_i64
0000000000005290 g     F .text	0000000000000010 test_div_u32
00000000000052a0 g     F .text	0000000000000010 test_div_u64
00000000000052b0 g     F .text	0000000000000010 test_divi_i32
00000000000052c0 g     F .text	0000000000000010 test_divi_i64
00000000000052d0 g     F .text	0000000000000010 test_divi_u32
00000000000052e0 g     F .text	0000000000000010 test_divi_u64
00000000000052f0 g     F .text	0000000000000020 test_divi_ext_i32
0000000000005310 g     F .text	0000000000000020 test_divi_ext_i64
0000000000005330 g     F .text	0000000000000020 test_divi_ext_u32
0000000000005350 g     F .text	0000000000000020 test_divi_ext_u64
0000000000005370 g     F .text	0000000000000010 test_neg_i32
0000000000005380 g     F .text	0000000000000010 test_neg_i64
0000000000005390 g     F .text	0000000000000010 test_neg_i128
00000000000053a0 g     F .text	0000000000000010 test_rem_i32
00000000000053b0 g     F .text	0000000000000010 test_rem_i64
00000000000053c0 g     F .text	0000000000000010 test_rem_u32
00000000000053d0 g     F .text	0000000000000010 test_rem_u64
00000000000053e0 g     F .text	0000000000000010 test_rem_imm_i32
00000000000053f0 g     F .text	0000000000000010 test_rem_imm_u32
0000000000005400 g     F .text	0000000000000010 test_rem_imm_i64
0000000000005410 g     F .text	0000000000000010 test_rem_imm_u64
0000000000005420 g     F .text	0000000000000020 test_rem_imm_ext_i32
0000000000005440 g     F .text	0000000000000020 test_rem_imm_ext_u32
0000000000005460 g     F .text	0000000000000020 test_rem_imm_ext_i64
0000000000005480 g     F .text	0000000000000020 test_rem_imm_ext_u64
00000000000054a0 g     F .text	0000000000000010 test_load_based_u32
00000000000054b0 g     F .text	0000000000000010 test_load_based_u16
00000000000054c0 g     F .text	0000000000000010 test_load_based_u8
00000000000054d0 g     F .text	0000000000000010 test_load_based_i32
00000000000054e0 g     F .text	0000000000000010 test_load_based_i16
00000000000054f0 g     F .text	0000000000000010 test_load_based_i8
0000000000005500 g     F .text	0000000000000020 test_base_index_u32_u32
0000000000005520 g     F .text	0000000000000060 test_base_address
0000000000005580 g     F .text	0000000000000040 MemoryIndexed
00000000000055c0 g     F .text	0000000000000010 test_base_index_i32
00000000000055d0 g     F .text	0000000000000010 test_base_index_i32_offset
00000000000055e0 g     F .text	0000000000000010 test_base_index_u32
00000000000055f0 g     F .text	0000000000000020 test_base_index_u32_offset
0000000000005610 g     F .text	0000000000000010 test_base_index_i64
0000000000005620 g     F .text	0000000000000020 test_base_index_i32_struct
0000000000005640 g     F .text	0000000000000020 test_base_index_u32_struct
0000000000005660 g     F .text	0000000000000060 for_loop
00000000000056c0 g     F .text	0000000000000060 for_loop_32
0000000000005720 g     F .text	0000000000000010 test_i64_min_lt
0000000000005730 g     F .text	0000000000000010 test_u64_min_lt
0000000000005740 g     F .text	0000000000000010 test_i64_min_le
0000000000005750 g     F .text	0000000000000010 test_u64_min_le
0000000000005760 g     F .text	0000000000000010 test_i64_min_gt
0000000000005770 g     F .text	0000000000000010 test_u64_min_gt
0000000000005780 g     F .text	0000000000000010 test_i64_min_ge
0000000000005790 g     F .text	0000000000000010 test_u64_min_ge
00000000000057a0 g     F .text	0000000000000010 test_i64_max_lt
00000000000057b0 g     F .text	0000000000000010 test_u64_max_lt
00000000000057c0 g     F .text	0000000000000010 test_i64_max_le
00000000000057d0 g     F .text	0000000000000010 test_u64_max_le
00000000000057e0 g     F .text	0000000000000010 test_i64_max_gt
00000000000057f0 g     F .text	0000000000000010 test_u64_max_gt
0000000000005800 g     F .text	0000000000000010 test_i64_max_ge
0000000000005810 g     F .text	0000000000000010 test_u64_max_ge
0000000000005820 g     F .text	0000000000000010 test_i32_min_lt
0000000000005830 g     F .text	0000000000000010 test_u32_min_lt
0000000000005840 g     F .text	0000000000000010 test_i32_min_le
0000000000005850 g     F .text	0000000000000010 test_u32_min_le
0000000000005860 g     F .text	0000000000000010 test_i32_min_gt
0000000000005870 g     F .text	0000000000000010 test_u32_min_gt
0000000000005880 g     F .text	0000000000000010 test_i32_min_ge
0000000000005890 g     F .text	0000000000000010 test_u32_min_ge
00000000000058a0 g     F .text	0000000000000010 test_i32_max_lt
00000000000058b0 g     F .text	0000000000000010 test_u32_max_lt
00000000000058c0 g     F .text	0000000000000010 test_i32_max_le
00000000000058d0 g     F .text	0000000000000010 test_u32_max_le
00000000000058e0 g     F .text	0000000000000010 test_i32_max_gt
00000000000058f0 g     F .text	0000000000000010 test_u32_max_gt
0000000000005900 g     F .text	0000000000000010 test_i32_max_ge
0000000000005910 g     F .text	0000000000000010 test_u32_max_ge
0000000000005920 g     F .text	0000000000000010 test_i32_min_lt_imm
0000000000005930 g     F .text	0000000000000010 test_u32_min_lt_imm
0000000000005940 g     F .text	0000000000000010 test_i32_min_le_imm
0000000000005950 g     F .text	0000000000000010 test_u32_min_le_imm
0000000000005960 g     F .text	0000000000000010 test_i32_min_gt_imm
0000000000005970 g     F .text	0000000000000010 test_u32_min_gt_imm
0000000000005980 g     F .text	0000000000000010 test_i32_min_ge_imm
0000000000005990 g     F .text	0000000000000010 test_u32_min_ge_imm
00000000000059a0 g     F .text	0000000000000020 test_i32_min_lt_imm_ext
00000000000059c0 g     F .text	0000000000000020 test_u32_min_lt_imm_ext
00000000000059e0 g     F .text	0000000000000020 test_i32_min_le_imm_ext
0000000000005a00 g     F .text	0000000000000020 test_u32_min_le_imm_ext
0000000000005a20 g     F .text	0000000000000020 test_i32_min_gt_imm_ext
0000000000005a40 g     F .text	0000000000000020 test_u32_min_gt_imm_ext
0000000000005a60 g     F .text	0000000000000020 test_i32_min_ge_imm_ext
0000000000005a80 g     F .text	0000000000000020 test_u32_min_ge_imm_ext
0000000000005aa0 g     F .text	0000000000000010 test_i32_max_lt_imm
0000000000005ab0 g     F .text	0000000000000010 test_u32_max_lt_imm
0000000000005ac0 g     F .text	0000000000000010 test_i32_max_le_imm
0000000000005ad0 g     F .text	0000000000000010 test_u32_max_le_imm
0000000000005ae0 g     F .text	0000000000000010 test_i32_max_gt_imm
0000000000005af0 g     F .text	0000000000000010 test_u32_max_gt_imm
0000000000005b00 g     F .text	0000000000000010 test_i32_max_ge_imm
0000000000005b10 g     F .text	0000000000000010 test_u32_max_ge_imm
0000000000005b20 g     F .text	0000000000000020 test_i32_max_lt_imm_ext
0000000000005b40 g     F .text	0000000000000020 test_u32_max_lt_imm_ext
0000000000005b60 g     F .text	0000000000000020 test_i32_max_le_imm_ext
0000000000005b80 g     F .text	0000000000000020 test_u32_max_le_imm_ext
0000000000005ba0 g     F .text	0000000000000020 test_i32_max_gt_imm_ext
0000000000005bc0 g     F .text	0000000000000020 test_u32_max_gt_imm_ext
0000000000005be0 g     F .text	0000000000000020 test_i32_max_ge_imm_ext
0000000000005c00 g     F .text	0000000000000020 test_u32_max_ge_imm_ext
0000000000005c20 g     F .text	0000000000000010 test_i64_min_lt_imm
0000000000005c30 g     F .text	0000000000000010 test_u64_min_lt_imm
0000000000005c40 g     F .text	0000000000000010 test_i64_min_le_imm
0000000000005c50 g     F .text	0000000000000010 test_u64_min_le_imm
0000000000005c60 g     F .text	0000000000000010 test_i64_min_gt_imm
0000000000005c70 g     F .text	0000000000000010 test_u64_min_gt_imm
0000000000005c80 g     F .text	0000000000000010 test_i64_min_ge_imm
0000000000005c90 g     F .text	0000000000000010 test_u64_min_ge_imm
0000000000005ca0 g     F .text	0000000000000020 test_i64_min_lt_imm_ext
0000000000005cc0 g     F .text	0000000000000020 test_u64_min_lt_imm_ext
0000000000005ce0 g     F .text	0000000000000020 test_i64_min_le_imm_ext
0000000000005d00 g     F .text	0000000000000020 test_u64_min_le_imm_ext
0000000000005d20 g     F .text	0000000000000020 test_i64_min_gt_imm_ext
0000000000005d40 g     F .text	0000000000000020 test_u64_min_gt_imm_ext
0000000000005d60 g     F .text	0000000000000020 test_i64_min_ge_imm_ext
0000000000005d80 g     F .text	0000000000000020 test_u64_min_ge_imm_ext
0000000000005da0 g     F .text	0000000000000010 test_i64_max_lt_imm
0000000000005db0 g     F .text	0000000000000010 test_u64_max_lt_imm
0000000000005dc0 g     F .text	0000000000000010 test_i64_max_le_imm
0000000000005dd0 g     F .text	0000000000000010 test_u64_max_le_imm
0000000000005de0 g     F .text	0000000000000010 test_i64_max_gt_imm
0000000000005df0 g     F .text	0000000000000010 test_u64_max_gt_imm
0000000000005e00 g     F .text	0000000000000010 test_i64_max_ge_imm
0000000000005e10 g     F .text	0000000000000010 test_u64_max_ge_imm
0000000000005e20 g     F .text	0000000000000020 test_i64_max_lt_imm_ext
0000000000005e40 g     F .text	0000000000000020 test_u64_max_lt_imm_ext
0000000000005e60 g     F .text	0000000000000020 test_i64_max_le_imm_ext
0000000000005e80 g     F .text	0000000000000020 test_u64_max_le_imm_ext
0000000000005ea0 g     F .text	0000000000000020 test_i64_max_gt_imm_ext
0000000000005ec0 g     F .text	0000000000000020 test_u64_max_gt_imm_ext
0000000000005ee0 g     F .text	0000000000000020 test_i64_max_ge_imm_ext
0000000000005f00 g     F .text	0000000000000020 test_u64_max_ge_imm_ext
0000000000005f20 g     F .text	0000000000000080 test_mov2
0000000000000000         *UND*	0000000000000000 test_mov2_callback
0000000000005fa0 g     F .text	0000000000000000 test_naked
0000000000005fa0 g     F .text	0000000000000010 test_after_naked
0000000000005fb0 g     F .text	0000000000000050 test_nullification_i64_le
0000000000006000 g     F .text	0000000000000050 test_nullification_i64_lt
0000000000006050 g     F .text	0000000000000040 test_nulu_le_d
0000000000000000         *UND*	0000000000000000 left
0000000000000000         *UND*	0000000000000000 right
0000000000006090 g     F .text	0000000000000040 test_nullify_bool
0000000000000000         *UND*	0000000000000000 left_bool
0000000000000000         *UND*	0000000000000000 right_bool
00000000000060d0 g     F .text	0000000000000040 test_nullify_bool_not
0000000000006110 g     F .text	0000000000000040 test_nullify_bool_and
0000000000006150 g     F .text	0000000000000050 test_nullify_bool_or
00000000000061a0 g     F .text	0000000000000040 test_nullify_f128_eq
0000000000000000         *UND*	0000000000000000 left_f128
0000000000000000         *UND*	0000000000000000 right_f128
00000000000061e0 g     F .text	0000000000000040 test_nullify_f128_ne
0000000000006220 g     F .text	0000000000000040 test_nullify_f128_lt
0000000000006260 g     F .text	0000000000000040 test_nullify_f128_le
00000000000062a0 g     F .text	0000000000000040 test_nullify_f128_gt
00000000000062e0 g     F .text	0000000000000040 test_nullify_f128_ge
0000000000006320 g     F .text	0000000000000040 test_nullify_f32_eq
0000000000000000         *UND*	0000000000000000 left_f32
0000000000000000         *UND*	0000000000000000 right_f32
0000000000006360 g     F .text	0000000000000040 test_nullify_f32_ne
00000000000063a0 g     F .text	0000000000000040 test_nullify_f32_lt
00000000000063e0 g     F .text	0000000000000040 test_nullify_f32_le
0000000000006420 g     F .text	0000000000000040 test_nullify_f32_gt
0000000000006460 g     F .text	0000000000000040 test_nullify_f32_ge
00000000000064a0 g     F .text	0000000000000040 test_nullify_f64_eq
0000000000000000         *UND*	0000000000000000 left_f64
0000000000000000         *UND*	0000000000000000 right_f64
00000000000064e0 g     F .text	0000000000000040 test_nullify_f64_ne
0000000000006520 g     F .text	0000000000000040 test_nullify_f64_lt
0000000000006560 g     F .text	0000000000000040 test_nullify_f64_le
00000000000065a0 g     F .text	0000000000000040 test_nullify_f64_gt
00000000000065e0 g     F .text	0000000000000040 test_nullify_f64_ge
0000000000006620 g     F .text	0000000000000050 test_post_update
0000000000006670 g     F .text	0000000000000020 shift_right_and_load_i32
0000000000006690 g     F .text	0000000000000020 shift_right_and_load_u32
00000000000066b0 g     F .text	0000000000000020 shift_right_and_load_i64
00000000000066d0 g     F .text	0000000000000020 shift_right_and_load_u64
00000000000066f0 g     F .text	0000000000000010 test_sign_extend_32
0000000000006700 g     F .text	0000000000000010 test_sign_extend_16
0000000000006710 g     F .text	0000000000000010 test_sign_extend_8
0000000000006720 g     F .text	0000000000000010 test_zero_extend_32
0000000000006730 g     F .text	0000000000000010 test_zero_extend_16
0000000000006740 g     F .text	0000000000000010 test_zero_extend_8
0000000000006750 g     F .text	0000000000000010 test_store_based_u32
0000000000006760 g     F .text	0000000000000010 test_store_based_u16
0000000000006770 g     F .text	0000000000000010 test_store_based_u8
0000000000006780 g     F .text	0000000000000010 test_store_based_i32
0000000000006790 g     F .text	0000000000000010 test_store_based_i16
00000000000067a0 g     F .text	0000000000000010 test_store_based_i8
00000000000067b0 g     F .text	0000000000000020 test_store_indexed_u32_u32
00000000000067d0 g     F .text	0000000000000010 test_store_indexed_i32
00000000000067e0 g     F .text	0000000000000010 test_store_indexed_i32_offset
00000000000067f0 g     F .text	0000000000000010 test_store_indexed_u32
0000000000006800 g     F .text	0000000000000020 test_store_indexed_u32_offset
0000000000006820 g     F .text	0000000000000010 test_store_indexed_i64
0000000000006830 g     F .text	0000000000000020 test_store_indexed_i32_struct
0000000000006850 g     F .text	00000000000000f0 dummy_return
0000000000006940 g     F .text	0000000000000020 test_store_based_i8_zero
0000000000006960 g     F .text	0000000000000020 test_store_based_u8_zero
0000000000006980 g     F .text	0000000000000020 test_store_based_i16_zero
00000000000069a0 g     F .text	0000000000000020 test_store_based_u16_zero
00000000000069c0 g     F .text	0000000000000020 test_store_based_i32_zero
00000000000069e0 g     F .text	0000000000000020 test_store_based_u32_zero
0000000000006a00 g     F .text	0000000000000020 test_store_based_i64_zero
0000000000006a20 g     F .text	0000000000000020 test_store_based_u64_zero
0000000000006a40 g     F .text	0000000000000020 test_store_based_i128_zero
0000000000006a60 g     F .text	0000000000000020 test_store_based_u128_zero
0000000000006a80 g     F .text	00000000000000a0 test_struct_memset
0000000000000000         *UND*	0000000000000000 test_struct_memset_consumer
0000000000006bb0 g     F .text	00000000000000f0 test_switch_table_i64
0000000000006ca0 g     F .text	00000000000000f0 test_switch_table_i32
0000000000006d90 g     F .text	00000000000000f0 test_switch_table_u32
0000000000006e80 g     F .text	00000000000000f0 test_switch_table_nonzero_i64
0000000000006f70 g     F .text	00000000000000f0 test_switch_table_nonzero_i32
0000000000007060 g     F .text	00000000000000f0 test_switch_table_nonzero_u32
0000000000007150 g     F .text	0000000000000010 test_syscall_2
0000000000007160 g     F .text	0000000000000020 test_syscall
0000000000000000 g     F .text.unlikely.	0000000000000030 test_int
0000000000007180 g     F .text	0000000000000020 test_call_global_tailcall
0000000000000000         *UND*	0000000000000000 tail_call
00000000000071a0 g     F .text	0000000000000020 test_ptr_tailcall
00000000000071c0 g     F .text	0000000000000020 test_call_global_ptr_table_tailcall
0000000000000000         *UND*	0000000000000000 global_ftable
00000000000071e0 g     F .text	0000000000000010 test_builtin_tlb_purge
00000000000071f0 g     F .text	0000000000000020 test_local_tls
0000000000000000 g       .tbss	0000000000000008 x_tls
0000000000000000         *UND*	0000000000000000 __tls_get_addr
0000000000007210 g     F .text	0000000000000020 test_extern_tls
0000000000000000         *UND*	0000000000000000 x_tls_extern
0000000000007230 g     F .text	0000000000000030 test_va_start
0000000000000000         *UND*	0000000000000000 test_va_list_callback
0000000000007260 g     F .text	0000000000000080 test_va_start_end
0000000000000000         *UND*	0000000000000000 test_va_callback
00000000000072e0 g     F .text	0000000000000040 test_printf_valist
0000000000000000         *UND*	0000000000000000 test_printf_callback
0000000000007320 g     F .text	0000000000000040 test_vprintf_valist
0000000000000000         *UND*	0000000000000000 test_vprintf_callback
0000000000007360 g     F .text	0000000000000040 test_vacopy
0000000000000000         *UND*	0000000000000000 test_valist_callback
00000000000073a0 g     F .text	0000000000000010 test_vector_bitcast_v2i64_to_v4i32
00000000000073b0 g     F .text	0000000000000010 test_vector_bitcast_v2i64_to_v8i16
00000000000073c0 g     F .text	0000000000000010 test_vector_bitcast_v2i64_to_v16i8
00000000000073d0 g     F .text	0000000000000010 test_vector_bitcast_v4i32_to_v2i64
00000000000073e0 g     F .text	0000000000000010 test_vector_bitcast_v4i32_to_v8i16
00000000000073f0 g     F .text	0000000000000010 test_vector_bitcast_v4i32_to_v16i8
0000000000007400 g     F .text	0000000000000010 test_vector_bitcast_v8i16_to_v2i64
0000000000007410 g     F .text	0000000000000010 test_vector_bitcast_v8i16_to_v4i32
0000000000007420 g     F .text	0000000000000010 test_vector_bitcast_v8i16_to_v16i8
0000000000007430 g     F .text	0000000000000010 test_vector_bitcast_v16i8_to_v2i64
0000000000007440 g     F .text	0000000000000010 test_vector_bitcast_v16i8_to_v4i32
0000000000007450 g     F .text	0000000000000010 test_vector_bitcast_v16i8_to_v8i16
0000000000007460 g     F .text	0000000000000010 test_vector_bitcast_f128_to_v16i8
0000000000007470 g     F .text	0000000000000010 test_vector_bitcast_f128_to_v8i16
0000000000007480 g     F .text	0000000000000010 test_vector_bitcast_f128_to_v4i32
0000000000007490 g     F .text	0000000000000010 test_vector_bitcast_f128_to_v2i64
00000000000074a0 g     F .text	0000000000000010 test_vector_bitcast_v16i8_to_f128
00000000000074b0 g     F .text	0000000000000010 test_vector_bitcast_v8i16_to_f128
00000000000074c0 g     F .text	0000000000000010 test_vector_bitcast_v4i32_to_f128
00000000000074d0 g     F .text	0000000000000010 test_vector_bitcast_v2i64_to_f128
00000000000074e0 g     F .text	0000000000000010 test_vector_bitcast_i128_to_v16i8
00000000000074f0 g     F .text	0000000000000010 test_vector_bitcast_i128_to_v8i16
0000000000007500 g     F .text	0000000000000010 test_vector_bitcast_i128_to_v4i32
0000000000007510 g     F .text	0000000000000010 test_vector_bitcast_i128_to_v2i64
0000000000007520 g     F .text	0000000000000010 test_vector_bitcast_v16i8_to_i128
0000000000007530 g     F .text	0000000000000010 test_vector_bitcast_v8i16_to_i128
0000000000007540 g     F .text	0000000000000010 test_vector_bitcast_v4i32_to_i128
0000000000007550 g     F .text	0000000000000010 test_vector_bitcast_v2i64_to_i128
0000000000007560 g     F .text	00000000000000c0 test_stack_array
0000000000000000         *UND*	0000000000000000 stack_array_consumer

DYNAMIC SYMBOL TABLE:

Disassembly of section .text:

0000000000000000 <test_i64_abs>:
       0: 00 00 00 c1 40 70 01 00 02 01 00 00 00 00 08 04      	! BUNDLE
	alloc 2
	abs_i64 %r1, %r1
	retf 0


0000000000000010 <test_i32_abs>:
      10: 00 00 00 c1 40 60 01 00 02 01 00 00 00 00 08 04      	! BUNDLE
	alloc 2
	abs_i32 %r1, %r1
	retf 0


0000000000000020 <test_i64_abs_difference>:
      20: 00 00 80 c1 40 60 04 04 04 01 00 00 00 00 08 04      	! BUNDLE
	alloc 3
	abs_diff_i64 %r1, %r2, %r1
	retf 0


0000000000000030 <test_i32_abs_difference>:
      30: 00 00 80 c1 40 70 04 04 04 01 00 00 00 00 08 04      	! BUNDLE
	alloc 3
	abs_diff_i32 %r1, %r2, %r1
	retf 0


0000000000000040 <test_aesenc>:
      40: 00 00 80 c1 40 80 12 08 02 01 00 00 00 00 08 04      	! BUNDLE
	alloc 3
	aes_enc %r1, %r1, %r2
	retf 0


0000000000000050 <test_aesenclast>:
      50: 00 00 80 c1 40 90 12 08 02 01 00 00 00 00 08 04      	! BUNDLE
	alloc 3
	aes_enc_last %r1, %r1, %r2
	retf 0


0000000000000060 <test_aesdec>:
      60: 00 00 80 c1 40 a0 12 08 02 01 00 00 00 00 08 04      	! BUNDLE
	alloc 3
	aes_dec %r1, %r1, %r2
	retf 0


0000000000000070 <test_aesdeclast>:
      70: 00 00 80 c1 40 b0 12 08 02 01 00 00 00 00 08 04      	! BUNDLE
	alloc 3
	aes_dec_last %r1, %r1, %r2
	retf 0


0000000000000080 <test_aesimc>:
      80: 00 00 00 c1 40 c0 12 00 02 01 00 00 00 00 08 04      	! BUNDLE
	alloc 2
	aes_imc %r1, %r1
	retf 0


0000000000000090 <test_aeskeygenassist>:
      90: 00 00 00 c1 40 d0 12 32 02 01 40 4b fe 0f 04 00      	! BUNDLE
	alloc 2
	aes_keygen_assist %r1, %r1, 100
	aes_keygen_assist %r1, %r1, -1

      a0: 00 00 00 80 40 00 00 00 00 00 01 00 00 00 00 04      	! BUNDLE
	retf 0
	nop 0
	nop 0


00000000000000b0 <test_ldi32>:
      b0: 00 00 00 c1 40 20 1b c6 0b 01 08 00 00 00 08 04      	! BUNDLE
	alloc 2
	ld_imm %r1, 12345778
	retf 0


00000000000000c0 <test_ldi32_long>:
      c0: 01 00 00 c1 40 10 8b e6 ad 01 c8 00 00 00 00 00      	! BUNDLE
	alloc 2
	ld_imm.l %r1, 987654321

      d0: 00 00 00 80 40 00 00 00 00 00 01 00 00 00 00 04      	! BUNDLE
	retf 0
	nop 0
	nop 0


00000000000000e0 <test_ldi64>:
      e0: 00 00 00 c1 40 20 1b c6 0b 01 08 00 00 00 08 04      	! BUNDLE
	alloc 2
	ld_imm %r1, 12345778
	retf 0


00000000000000f0 <test_ldi64_long>:
      f0: 01 00 00 c1 40 50 71 17 b7 01 08 7d 69 d3 36 00      	! BUNDLE
	alloc 2
	ld_imm.l %r1, 987654321123456789

     100: 00 00 00 80 40 00 00 00 00 00 01 00 00 00 00 04      	! BUNDLE
	retf 0
	nop 0
	nop 0


0000000000000110 <test_subr_i64>:
     110: 00 00 00 c1 40 20 4d 00 02 01 0e 00 00 00 08 04      	! BUNDLE
	alloc 2
	subr_imm_i64 %r1, %r1, 1234
	retf 0


0000000000000120 <test_subr_i32>:
     120: 00 00 00 c1 40 20 4d 00 02 01 0f 00 00 00 08 04      	! BUNDLE
	alloc 2
	subr_imm_i32 %r1, %r1, 1234
	retf 0


0000000000000130 <test_addil>:
     130: 01 00 80 c1 40 50 f1 05 03 01 8c 59 97 36 6d 03      	! BUNDLE
	alloc 3
	add_imm_i64.l %r1, %r1, 123456789123456789

     140: be fe eb bf 00 a2 ff fa af 7f 40 06 20 08 04 00      	! BUNDLE
	ld_imm.l %r2, 9200848539817279407
	or %r1, %r1, %r2

     150: 00 00 00 80 40 00 00 00 00 00 01 00 00 00 00 04      	! BUNDLE
	retf 0
	nop 0
	nop 0


0000000000000160 <test_andil>:
     160: 01 00 00 c1 40 50 f1 05 03 01 8a 59 97 36 6d 03      	! BUNDLE
	alloc 2
	and_imm.l %r1, %r1, 123456789123456789

     170: 00 00 00 80 40 00 00 00 00 00 01 00 00 00 00 04      	! BUNDLE
	retf 0
	nop 0
	nop 0


0000000000000180 <test_oril>:
     180: 01 00 00 c1 40 50 71 17 03 81 ca 96 be b4 69 1b      	! BUNDLE
	alloc 2
	or_imm.l %r1, %r1, 987654321123456789

     190: 00 00 00 80 40 00 00 00 00 00 01 00 00 00 00 04      	! BUNDLE
	retf 0
	nop 0
	nop 0


00000000000001a0 <test_addadd>:
     1a0: 00 00 00 c2 40 80 18 04 04 81 00 00 00 00 08 04      	! BUNDLE
	alloc 4
	add_add_i64 %r1, %r2, %r1, %r3
	retf 0


00000000000001b0 <test_addsub>:
     1b0: 00 00 00 c2 40 90 18 04 04 81 00 00 00 00 08 04      	! BUNDLE
	alloc 4
	add_sub_i64 %r1, %r2, %r1, %r3
	retf 0


00000000000001c0 <test_subsub>:
     1c0: 00 00 00 c2 40 a0 18 08 02 81 00 00 00 00 08 04      	! BUNDLE
	alloc 4
	sub_sub_i64 %r1, %r1, %r2, %r3
	retf 0


00000000000001d0 <test_mul_i32_i32>:
     1d0: 00 00 80 c1 40 40 00 04 04 01 00 00 00 00 08 04      	! BUNDLE
	alloc 3
	mul_i32 %r1, %r2, %r1
	retf 0


00000000000001e0 <test_mul_i32_imm>:
     1e0: 00 00 00 c1 40 d0 1c 18 02 01 11 00 00 00 08 04      	! BUNDLE
	alloc 2
	mul_imm_i32 %r1, %r1, 98765
	retf 0


00000000000001f0 <test_mul_i32_imm_ext>:
     1f0: 01 00 00 c1 40 80 a7 30 02 01 d1 0b 00 00 00 00      	! BUNDLE
	alloc 2
	mul_imm_i32.l %r1, %r1, 98765432

     200: 00 00 00 80 40 00 00 00 00 00 01 00 00 00 00 04      	! BUNDLE
	retf 0
	nop 0
	nop 0


0000000000000210 <test_mul_u32_imm>:
     210: 00 00 00 c1 40 d0 1c 18 02 01 11 00 00 00 08 04      	! BUNDLE
	alloc 2
	mul_imm_i32 %r1, %r1, 98765
	retf 0


0000000000000220 <test_mul_u32_imm_ext>:
     220: 01 00 00 c1 40 80 a7 30 02 01 d1 0b 00 00 00 00      	! BUNDLE
	alloc 2
	mul_imm_i32.l %r1, %r1, 98765432

     230: 00 00 00 80 40 00 00 00 00 00 01 00 00 00 00 04      	! BUNDLE
	retf 0
	nop 0
	nop 0


0000000000000240 <test_mul_i32_i64>:
     240: 00 00 80 c1 40 40 00 04 04 01 00 00 00 00 08 04      	! BUNDLE
	alloc 3
	mul_i32 %r1, %r2, %r1
	retf 0


0000000000000250 <test_mul_u32_u64>:
     250: 00 00 80 c1 40 50 00 04 04 01 00 00 00 00 08 04      	! BUNDLE
	alloc 3
	mul_u32 %r1, %r2, %r1
	retf 0


0000000000000260 <test_mul_i32_u64>:
     260: 00 00 80 c1 40 40 00 04 04 01 00 00 00 00 08 04      	! BUNDLE
	alloc 3
	mul_i32 %r1, %r2, %r1
	retf 0


0000000000000270 <test_mul_i32_i64_imm>:
     270: 00 00 00 c1 40 d0 1c 18 02 01 11 00 00 00 08 04      	! BUNDLE
	alloc 2
	mul_imm_i32 %r1, %r1, 98765
	retf 0


0000000000000280 <test_mul_i32_i64_imm_ext>:
     280: 01 00 00 c1 40 80 a7 30 02 01 d1 0b 00 00 00 00      	! BUNDLE
	alloc 2
	mul_imm_i32.l %r1, %r1, 98765432

     290: 00 00 00 80 40 00 00 00 00 00 01 00 00 00 00 04      	! BUNDLE
	retf 0
	nop 0
	nop 0


00000000000002a0 <test_mul_u32_u64_imm>:
     2a0: 00 00 00 c1 40 d0 1c 18 02 81 11 00 00 00 08 04      	! BUNDLE
	alloc 2
	mul_imm_u32 %r1, %r1, 98765
	retf 0


00000000000002b0 <test_mul_u32_u64_imm_ext>:
     2b0: 01 00 00 c1 40 80 a7 30 02 81 d1 0b 00 00 00 00      	! BUNDLE
	alloc 2
	mul_imm_u32.l %r1, %r1, 98765432

     2c0: 00 00 00 80 40 00 00 00 00 00 01 00 00 00 00 04      	! BUNDLE
	retf 0
	nop 0
	nop 0


00000000000002d0 <test_mul_i64_i64>:
     2d0: 00 00 80 c1 40 60 02 04 04 01 00 00 00 00 08 04      	! BUNDLE
	alloc 3
	mul_i64 %r1, %r2, %r1
	retf 0


00000000000002e0 <test_atomic_compare_exchange_i8>:
     2e0: 40 00 80 03 41 c0 00 00 fc 7f 28 00 00 10 18 90      	! BUNDLE
	alloc_sp 7, 16
	st_i32 %gz, %sp, 12
	ld_u8 %r6, %r2, 0

     2f0: 04 00 80 41 01 80 14 18 02 05 00 04 60 28 10 00      	! BUNDLE
	mov %r5, %r3
	amx_cas_i8 %r5, %r1, %r6
	cmp_eq_i32 %r4, %r5, %r6

     300: 00 02 30 43 21 00 00 00 04 05 25 03 00 f0 17 9c      	! BUNDLE
	nul_eq_i32 %r5, %r6, 1, 0
	st_i8 %r5, %r2, 0
	ld_u32 %r5, %sp, 12

     310: 08 00 84 02 01 c0 00 00 fc 04 28 00 00 10 18 90      	! BUNDLE
	add_i32 %r4, %r5, %r4
	st_i32 %r4, %sp, 12
	ld_u8 %r6, %r2, 0

     320: 04 00 80 41 01 90 14 18 02 05 00 04 60 28 10 00      	! BUNDLE
	mov %r5, %r3
	amq_cas_i8 %r5, %r1, %r6
	cmp_eq_i32 %r4, %r5, %r6

     330: 00 02 30 43 21 00 00 00 04 05 25 03 00 f0 17 9c      	! BUNDLE
	nul_eq_i32 %r5, %r6, 1, 0
	st_i8 %r5, %r2, 0
	ld_u32 %r5, %sp, 12

     340: 08 00 84 02 01 c0 00 00 fc 04 28 00 00 10 18 90      	! BUNDLE
	add_i32 %r4, %r5, %r4
	st_i32 %r4, %sp, 12
	ld_u8 %r6, %r2, 0

     350: 04 00 80 41 01 90 14 18 02 05 00 04 60 28 10 00      	! BUNDLE
	mov %r5, %r3
	amq_cas_i8 %r5, %r1, %r6
	cmp_eq_i32 %r4, %r5, %r6

     360: 00 02 30 43 21 00 00 00 04 05 25 03 00 f0 17 9c      	! BUNDLE
	nul_eq_i32 %r5, %r6, 1, 0
	st_i8 %r5, %r2, 0
	ld_u32 %r5, %sp, 12

     370: 08 00 84 02 01 c0 00 00 fc 04 28 00 00 10 18 90      	! BUNDLE
	add_i32 %r4, %r5, %r4
	st_i32 %r4, %sp, 12
	ld_u8 %r6, %r2, 0

     380: 04 00 80 41 01 90 14 18 02 05 00 04 60 28 10 00      	! BUNDLE
	mov %r5, %r3
	amq_cas_i8 %r5, %r1, %r6
	cmp_eq_i32 %r4, %r5, %r6

     390: 00 02 30 43 21 00 00 00 04 05 25 03 00 f0 17 9c      	! BUNDLE
	nul_eq_i32 %r5, %r6, 1, 0
	st_i8 %r5, %r2, 0
	ld_u32 %r5, %sp, 12

     3a0: 08 00 84 02 01 c0 00 00 fc 04 28 00 00 10 18 90      	! BUNDLE
	add_i32 %r4, %r5, %r4
	st_i32 %r4, %sp, 12
	ld_u8 %r6, %r2, 0

     3b0: 04 00 80 41 01 90 14 18 02 05 00 04 60 28 10 00      	! BUNDLE
	mov %r5, %r3
	amq_cas_i8 %r5, %r1, %r6
	cmp_eq_i32 %r4, %r5, %r6

     3c0: 00 02 30 43 21 00 00 00 04 05 25 03 00 f0 17 9c      	! BUNDLE
	nul_eq_i32 %r5, %r6, 1, 0
	st_i8 %r5, %r2, 0
	ld_u32 %r5, %sp, 12

     3d0: 08 00 84 02 01 c0 00 00 fc 04 28 00 00 10 18 90      	! BUNDLE
	add_i32 %r4, %r5, %r4
	st_i32 %r4, %sp, 12
	ld_u8 %r6, %r2, 0

     3e0: 04 00 80 41 01 90 14 18 02 05 00 04 60 28 10 00      	! BUNDLE
	mov %r5, %r3
	amq_cas_i8 %r5, %r1, %r6
	cmp_eq_i32 %r4, %r5, %r6

     3f0: 00 02 30 43 21 00 00 00 04 05 25 03 00 f0 17 9c      	! BUNDLE
	nul_eq_i32 %r5, %r6, 1, 0
	st_i8 %r5, %r2, 0
	ld_u32 %r5, %sp, 12

     400: 08 00 84 02 01 c0 00 00 fc 04 28 00 00 10 18 90      	! BUNDLE
	add_i32 %r4, %r5, %r4
	st_i32 %r4, %sp, 12
	ld_u8 %r6, %r2, 0

     410: 04 00 80 41 01 90 14 18 02 05 00 04 60 28 10 00      	! BUNDLE
	mov %r5, %r3
	amq_cas_i8 %r5, %r1, %r6
	cmp_eq_i32 %r4, %r5, %r6

     420: 00 02 30 43 21 00 00 00 04 05 25 03 00 f0 17 9c      	! BUNDLE
	nul_eq_i32 %r5, %r6, 1, 0
	st_i8 %r5, %r2, 0
	ld_u32 %r5, %sp, 12

     430: 08 00 84 02 01 c0 00 00 fc 04 28 00 00 10 18 90      	! BUNDLE
	add_i32 %r4, %r5, %r4
	st_i32 %r4, %sp, 12
	ld_u8 %r6, %r2, 0

     440: 04 00 80 41 01 a0 14 18 02 05 00 04 60 28 10 00      	! BUNDLE
	mov %r5, %r3
	amr_cas_i8 %r5, %r1, %r6
	cmp_eq_i32 %r4, %r5, %r6

     450: 00 02 30 43 21 00 00 00 04 05 25 03 00 f0 17 9c      	! BUNDLE
	nul_eq_i32 %r5, %r6, 1, 0
	st_i8 %r5, %r2, 0
	ld_u32 %r5, %sp, 12

     460: 08 00 84 02 01 c0 00 00 fc 04 28 00 00 10 18 90      	! BUNDLE
	add_i32 %r4, %r5, %r4
	st_i32 %r4, %sp, 12
	ld_u8 %r6, %r2, 0

     470: 04 00 80 41 01 b0 14 18 02 05 00 04 60 28 10 00      	! BUNDLE
	mov %r5, %r3
	amz_cas_i8 %r5, %r1, %r6
	cmp_eq_i32 %r4, %r5, %r6

     480: 00 02 30 43 21 00 00 00 04 05 25 03 00 f0 17 9c      	! BUNDLE
	nul_eq_i32 %r5, %r6, 1, 0
	st_i8 %r5, %r2, 0
	ld_u32 %r5, %sp, 12

     490: 08 00 84 02 01 c0 00 00 fc 04 28 00 00 10 18 90      	! BUNDLE
	add_i32 %r4, %r5, %r4
	st_i32 %r4, %sp, 12
	ld_u8 %r6, %r2, 0

     4a0: 04 00 80 41 01 b0 14 18 02 05 00 04 60 28 10 00      	! BUNDLE
	mov %r5, %r3
	amz_cas_i8 %r5, %r1, %r6
	cmp_eq_i32 %r4, %r5, %r6

     4b0: 00 02 30 43 21 00 00 00 04 05 25 03 00 f0 17 9c      	! BUNDLE
	nul_eq_i32 %r5, %r6, 1, 0
	st_i8 %r5, %r2, 0
	ld_u32 %r5, %sp, 12

     4c0: 08 00 84 02 01 c0 00 00 fc 04 28 00 00 10 18 90      	! BUNDLE
	add_i32 %r4, %r5, %r4
	st_i32 %r4, %sp, 12
	ld_u8 %r6, %r2, 0

     4d0: 04 00 80 41 01 b0 14 18 02 05 00 04 60 28 10 00      	! BUNDLE
	mov %r5, %r3
	amz_cas_i8 %r5, %r1, %r6
	cmp_eq_i32 %r4, %r5, %r6

     4e0: 00 02 30 43 21 00 00 00 04 05 25 03 00 f0 17 9c      	! BUNDLE
	nul_eq_i32 %r5, %r6, 1, 0
	st_i8 %r5, %r2, 0
	ld_u32 %r5, %sp, 12

     4f0: 08 00 84 02 01 c0 00 00 fc 04 28 00 00 10 18 90      	! BUNDLE
	add_i32 %r4, %r5, %r4
	st_i32 %r4, %sp, 12
	ld_u8 %r6, %r2, 0

     500: dc 04 00 00 00 10 00 00 06 05 00 52 60 08 14 00      	! BUNDLE
	fence_sc
	mov %r5, %r3
	amx_cas_i8 %r5, %r1, %r6

     510: 40 00 86 02 01 00 08 c0 0c 85 00 00 00 10 14 94      	! BUNDLE
	cmp_eq_i32 %r4, %r5, %r6
	nul_eq_i32 %r5, %r6, 1, 0
	st_i8 %r5, %r2, 0

     520: 30 00 00 7f c1 29 00 10 0a 04 00 03 00 f0 13 a0      	! BUNDLE
	ld_u32 %r5, %sp, 12
	add_i32 %r4, %r5, %r4
	st_i32 %r4, %sp, 12

     530: 00 00 00 81 01 79 13 00 00 00 40 00 00 18 14 00      	! BUNDLE
	ld_u8 %r6, %r2, 0
	fence_sc
	mov %r5, %r3

     540: 20 05 86 40 01 00 01 18 0a 04 00 20 00 33 14 02      	! BUNDLE
	amx_cas_i8 %r5, %r1, %r6
	cmp_eq_i32 %r4, %r5, %r6
	nul_eq_i32 %r5, %r6, 1, 0

     550: 00 00 00 41 41 c9 00 00 fc 05 a7 00 40 28 10 00      	! BUNDLE
	st_i8 %r5, %r2, 0
	ld_u32 %r5, %sp, 12
	add_i32 %r4, %r5, %r4

     560: 30 00 00 3f 01 0a 00 00 04 06 e4 4d 00 00 00 00      	! BUNDLE
	st_i32 %r4, %sp, 12
	ld_u8 %r6, %r2, 0
	fence_sc

     570: 04 00 80 41 01 80 14 18 02 05 00 04 60 28 10 00      	! BUNDLE
	mov %r5, %r3
	amx_cas_i8 %r5, %r1, %r6
	cmp_eq_i32 %r4, %r5, %r6

     580: 00 02 30 43 21 00 00 00 04 05 25 03 00 f0 17 9c      	! BUNDLE
	nul_eq_i32 %r5, %r6, 1, 0
	st_i8 %r5, %r2, 0
	ld_u32 %r5, %sp, 12

     590: 08 00 84 02 01 c0 00 00 fc 04 28 00 00 10 10 90      	! BUNDLE
	add_i32 %r4, %r5, %r4
	st_i32 %r4, %sp, 12
	ld_u8 %r4, %r2, 0

     5a0: dc 04 00 00 00 80 14 10 02 03 00 04 40 18 04 00      	! BUNDLE
	fence_sc
	amx_cas_i8 %r3, %r1, %r4
	cmp_eq_i32 %r1, %r3, %r4

     5b0: 00 02 30 c2 20 00 00 00 04 03 25 03 00 f0 0b 9c      	! BUNDLE
	nul_eq_i32 %r3, %r4, 1, 0
	st_i8 %r3, %r2, 0
	ld_u32 %r2, %sp, 12

     5c0: 08 00 01 41 00 c0 00 00 fc 01 28 03 00 f0 07 9c      	! BUNDLE
	add_i32 %r1, %r2, %r1
	st_i32 %r1, %sp, 12
	ld_u32 %r1, %sp, 12

     5d0: 40 00 00 80 40 00 00 00 00 00 01 00 00 00 00 04      	! BUNDLE
	retf 16
	nop 0
	nop 0


00000000000005e0 <test_atomic_compare_exchange_i16>:
     5e0: 40 00 80 03 41 c0 00 00 fc 7f 28 00 00 10 18 96      	! BUNDLE
	alloc_sp 7, 16
	st_i32 %gz, %sp, 12
	ld_u16 %r6, %r2, 0

     5f0: 04 00 80 41 01 80 19 18 02 05 00 04 60 28 10 00      	! BUNDLE
	mov %r5, %r3
	amx_cas_i16 %r5, %r1, %r6
	cmp_eq_i32 %r4, %r5, %r6

     600: 00 02 30 43 21 00 00 00 04 85 26 03 00 f0 17 9c      	! BUNDLE
	nul_eq_i32 %r5, %r6, 1, 0
	st_i16 %r5, %r2, 0
	ld_u32 %r5, %sp, 12

     610: 08 00 84 02 01 c0 00 00 fc 04 28 00 00 10 18 96      	! BUNDLE
	add_i32 %r4, %r5, %r4
	st_i32 %r4, %sp, 12
	ld_u16 %r6, %r2, 0

     620: 04 00 80 41 01 90 19 18 02 05 00 04 60 28 10 00      	! BUNDLE
	mov %r5, %r3
	amq_cas_i16 %r5, %r1, %r6
	cmp_eq_i32 %r4, %r5, %r6

     630: 00 02 30 43 21 00 00 00 04 85 26 03 00 f0 17 9c      	! BUNDLE
	nul_eq_i32 %r5, %r6, 1, 0
	st_i16 %r5, %r2, 0
	ld_u32 %r5, %sp, 12

     640: 08 00 84 02 01 c0 00 00 fc 04 28 00 00 10 18 96      	! BUNDLE
	add_i32 %r4, %r5, %r4
	st_i32 %r4, %sp, 12
	ld_u16 %r6, %r2, 0

     650: 04 00 80 41 01 90 19 18 02 05 00 04 60 28 10 00      	! BUNDLE
	mov %r5, %r3
	amq_cas_i16 %r5, %r1, %r6
	cmp_eq_i32 %r4, %r5, %r6

     660: 00 02 30 43 21 00 00 00 04 85 26 03 00 f0 17 9c      	! BUNDLE
	nul_eq_i32 %r5, %r6, 1, 0
	st_i16 %r5, %r2, 0
	ld_u32 %r5, %sp, 12

     670: 08 00 84 02 01 c0 00 00 fc 04 28 00 00 10 18 96      	! BUNDLE
	add_i32 %r4, %r5, %r4
	st_i32 %r4, %sp, 12
	ld_u16 %r6, %r2, 0

     680: 04 00 80 41 01 90 19 18 02 05 00 04 60 28 10 00      	! BUNDLE
	mov %r5, %r3
	amq_cas_i16 %r5, %r1, %r6
	cmp_eq_i32 %r4, %r5, %r6

     690: 00 02 30 43 21 00 00 00 04 85 26 03 00 f0 17 9c      	! BUNDLE
	nul_eq_i32 %r5, %r6, 1, 0
	st_i16 %r5, %r2, 0
	ld_u32 %r5, %sp, 12

     6a0: 08 00 84 02 01 c0 00 00 fc 04 28 00 00 10 18 96      	! BUNDLE
	add_i32 %r4, %r5, %r4
	st_i32 %r4, %sp, 12
	ld_u16 %r6, %r2, 0

     6b0: 04 00 80 41 01 90 19 18 02 05 00 04 60 28 10 00      	! BUNDLE
	mov %r5, %r3
	amq_cas_i16 %r5, %r1, %r6
	cmp_eq_i32 %r4, %r5, %r6

     6c0: 00 02 30 43 21 00 00 00 04 85 26 03 00 f0 17 9c      	! BUNDLE
	nul_eq_i32 %r5, %r6, 1, 0
	st_i16 %r5, %r2, 0
	ld_u32 %r5, %sp, 12

     6d0: 08 00 84 02 01 c0 00 00 fc 04 28 00 00 10 18 96      	! BUNDLE
	add_i32 %r4, %r5, %r4
	st_i32 %r4, %sp, 12
	ld_u16 %r6, %r2, 0

     6e0: 04 00 80 41 01 90 19 18 02 05 00 04 60 28 10 00      	! BUNDLE
	mov %r5, %r3
	amq_cas_i16 %r5, %r1, %r6
	cmp_eq_i32 %r4, %r5, %r6

     6f0: 00 02 30 43 21 00 00 00 04 85 26 03 00 f0 17 9c      	! BUNDLE
	nul_eq_i32 %r5, %r6, 1, 0
	st_i16 %r5, %r2, 0
	ld_u32 %r5, %sp, 12

     700: 08 00 84 02 01 c0 00 00 fc 04 28 00 00 10 18 96      	! BUNDLE
	add_i32 %r4, %r5, %r4
	st_i32 %r4, %sp, 12
	ld_u16 %r6, %r2, 0

     710: 04 00 80 41 01 90 19 18 02 05 00 04 60 28 10 00      	! BUNDLE
	mov %r5, %r3
	amq_cas_i16 %r5, %r1, %r6
	cmp_eq_i32 %r4, %r5, %r6

     720: 00 02 30 43 21 00 00 00 04 85 26 03 00 f0 17 9c      	! BUNDLE
	nul_eq_i32 %r5, %r6, 1, 0
	st_i16 %r5, %r2, 0
	ld_u32 %r5, %sp, 12

     730: 08 00 84 02 01 c0 00 00 fc 04 28 00 00 10 18 96      	! BUNDLE
	add_i32 %r4, %r5, %r4
	st_i32 %r4, %sp, 12
	ld_u16 %r6, %r2, 0

     740: 04 00 80 41 01 a0 19 18 02 05 00 04 60 28 10 00      	! BUNDLE
	mov %r5, %r3
	amr_cas_i16 %r5, %r1, %r6
	cmp_eq_i32 %r4, %r5, %r6

     750: 00 02 30 43 21 00 00 00 04 85 26 03 00 f0 17 9c      	! BUNDLE
	nul_eq_i32 %r5, %r6, 1, 0
	st_i16 %r5, %r2, 0
	ld_u32 %r5, %sp, 12

     760: 08 00 84 02 01 c0 00 00 fc 04 28 00 00 10 18 96      	! BUNDLE
	add_i32 %r4, %r5, %r4
	st_i32 %r4, %sp, 12
	ld_u16 %r6, %r2, 0

     770: 04 00 80 41 01 b0 19 18 02 05 00 04 60 28 10 00      	! BUNDLE
	mov %r5, %r3
	amz_cas_i16 %r5, %r1, %r6
	cmp_eq_i32 %r4, %r5, %r6

     780: 00 02 30 43 21 00 00 00 04 85 26 03 00 f0 17 9c      	! BUNDLE
	nul_eq_i32 %r5, %r6, 1, 0
	st_i16 %r5, %r2, 0
	ld_u32 %r5, %sp, 12

     790: 08 00 84 02 01 c0 00 00 fc 04 28 00 00 10 18 96      	! BUNDLE
	add_i32 %r4, %r5, %r4
	st_i32 %r4, %sp, 12
	ld_u16 %r6, %r2, 0

     7a0: 04 00 80 41 01 b0 19 18 02 05 00 04 60 28 10 00      	! BUNDLE
	mov %r5, %r3
	amz_cas_i16 %r5, %r1, %r6
	cmp_eq_i32 %r4, %r5, %r6

     7b0: 00 02 30 43 21 00 00 00 04 85 26 03 00 f0 17 9c      	! BUNDLE
	nul_eq_i32 %r5, %r6, 1, 0
	st_i16 %r5, %r2, 0
	ld_u32 %r5, %sp, 12

     7c0: 08 00 84 02 01 c0 00 00 fc 04 28 00 00 10 18 96      	! BUNDLE
	add_i32 %r4, %r5, %r4
	st_i32 %r4, %sp, 12
	ld_u16 %r6, %r2, 0

     7d0: 04 00 80 41 01 b0 19 18 02 05 00 04 60 28 10 00      	! BUNDLE
	mov %r5, %r3
	amz_cas_i16 %r5, %r1, %r6
	cmp_eq_i32 %r4, %r5, %r6

     7e0: 00 02 30 43 21 00 00 00 04 85 26 03 00 f0 17 9c      	! BUNDLE
	nul_eq_i32 %r5, %r6, 1, 0
	st_i16 %r5, %r2, 0
	ld_u32 %r5, %sp, 12

     7f0: 08 00 84 02 01 c0 00 00 fc 04 28 00 00 10 18 96      	! BUNDLE
	add_i32 %r4, %r5, %r4
	st_i32 %r4, %sp, 12
	ld_u16 %r6, %r2, 0

     800: dc 04 00 00 00 10 00 00 06 05 00 66 60 08 14 00      	! BUNDLE
	fence_sc
	mov %r5, %r3
	amx_cas_i16 %r5, %r1, %r6

     810: 40 00 86 02 01 00 08 c0 0c 85 00 00 00 10 14 9a      	! BUNDLE
	cmp_eq_i32 %r4, %r5, %r6
	nul_eq_i32 %r5, %r6, 1, 0
	st_i16 %r5, %r2, 0

     820: 30 00 00 7f c1 29 00 10 0a 04 00 03 00 f0 13 a0      	! BUNDLE
	ld_u32 %r5, %sp, 12
	add_i32 %r4, %r5, %r4
	st_i32 %r4, %sp, 12

     830: 00 00 00 81 61 79 13 00 00 00 40 00 00 18 14 00      	! BUNDLE
	ld_u16 %r6, %r2, 0
	fence_sc
	mov %r5, %r3

     840: 60 06 86 40 01 00 01 18 0a 04 00 20 00 33 14 02      	! BUNDLE
	amx_cas_i16 %r5, %r1, %r6
	cmp_eq_i32 %r4, %r5, %r6
	nul_eq_i32 %r5, %r6, 1, 0

     850: 00 00 00 41 a1 c9 00 00 fc 05 a7 00 40 28 10 00      	! BUNDLE
	st_i16 %r5, %r2, 0
	ld_u32 %r5, %sp, 12
	add_i32 %r4, %r5, %r4

     860: 30 00 00 3f 01 0a 00 00 04 86 e5 4d 00 00 00 00      	! BUNDLE
	st_i32 %r4, %sp, 12
	ld_u16 %r6, %r2, 0
	fence_sc

     870: 04 00 80 41 01 80 19 18 02 05 00 04 60 28 10 00      	! BUNDLE
	mov %r5, %r3
	amx_cas_i16 %r5, %r1, %r6
	cmp_eq_i32 %r4, %r5, %r6

     880: 00 02 30 43 21 00 00 00 04 85 26 03 00 f0 17 9c      	! BUNDLE
	nul_eq_i32 %r5, %r6, 1, 0
	st_i16 %r5, %r2, 0
	ld_u32 %r5, %sp, 12

     890: 08 00 84 02 01 c0 00 00 fc 04 28 00 00 10 10 96      	! BUNDLE
	add_i32 %r4, %r5, %r4
	st_i32 %r4, %sp, 12
	ld_u16 %r4, %r2, 0

     8a0: dc 04 00 00 00 80 19 10 02 03 00 04 40 18 04 00      	! BUNDLE
	fence_sc
	amx_cas_i16 %r3, %r1, %r4
	cmp_eq_i32 %r1, %r3, %r4

     8b0: 00 02 30 c2 20 00 00 00 04 83 26 03 00 f0 0b 9c      	! BUNDLE
	nul_eq_i32 %r3, %r4, 1, 0
	st_i16 %r3, %r2, 0
	ld_u32 %r2, %sp, 12

     8c0: 08 00 01 41 00 c0 00 00 fc 01 28 03 00 f0 07 9c      	! BUNDLE
	add_i32 %r1, %r2, %r1
	st_i32 %r1, %sp, 12
	ld_u32 %r1, %sp, 12

     8d0: 40 00 00 80 40 00 00 00 00 00 01 00 00 00 00 04      	! BUNDLE
	retf 16
	nop 0
	nop 0


00000000000008e0 <test_atomic_compare_exchange_i32>:
     8e0: 40 00 80 03 41 c0 00 00 fc 7f 28 00 00 10 18 9c      	! BUNDLE
	alloc_sp 7, 16
	st_i32 %gz, %sp, 12
	ld_u32 %r6, %r2, 0

     8f0: 04 00 80 41 01 80 1e 18 02 05 00 04 60 28 10 00      	! BUNDLE
	mov %r5, %r3
	amx_cas_i32 %r5, %r1, %r6
	cmp_eq_i32 %r4, %r5, %r6

     900: 00 02 30 43 21 00 00 00 04 05 28 03 00 f0 17 9c      	! BUNDLE
	nul_eq_i32 %r5, %r6, 1, 0
	st_i32 %r5, %r2, 0
	ld_u32 %r5, %sp, 12

     910: 08 00 84 02 01 c0 00 00 fc 04 28 00 00 10 18 9c      	! BUNDLE
	add_i32 %r4, %r5, %r4
	st_i32 %r4, %sp, 12
	ld_u32 %r6, %r2, 0

     920: 04 00 80 41 01 90 1e 18 02 05 00 04 60 28 10 00      	! BUNDLE
	mov %r5, %r3
	amq_cas_i32 %r5, %r1, %r6
	cmp_eq_i32 %r4, %r5, %r6

     930: 00 02 30 43 21 00 00 00 04 05 28 03 00 f0 17 9c      	! BUNDLE
	nul_eq_i32 %r5, %r6, 1, 0
	st_i32 %r5, %r2, 0
	ld_u32 %r5, %sp, 12

     940: 08 00 84 02 01 c0 00 00 fc 04 28 00 00 10 18 9c      	! BUNDLE
	add_i32 %r4, %r5, %r4
	st_i32 %r4, %sp, 12
	ld_u32 %r6, %r2, 0

     950: 04 00 80 41 01 90 1e 18 02 05 00 04 60 28 10 00      	! BUNDLE
	mov %r5, %r3
	amq_cas_i32 %r5, %r1, %r6
	cmp_eq_i32 %r4, %r5, %r6

     960: 00 02 30 43 21 00 00 00 04 05 28 03 00 f0 17 9c      	! BUNDLE
	nul_eq_i32 %r5, %r6, 1, 0
	st_i32 %r5, %r2, 0
	ld_u32 %r5, %sp, 12

     970: 08 00 84 02 01 c0 00 00 fc 04 28 00 00 10 18 9c      	! BUNDLE
	add_i32 %r4, %r5, %r4
	st_i32 %r4, %sp, 12
	ld_u32 %r6, %r2, 0

     980: 04 00 80 41 01 90 1e 18 02 05 00 04 60 28 10 00      	! BUNDLE
	mov %r5, %r3
	amq_cas_i32 %r5, %r1, %r6
	cmp_eq_i32 %r4, %r5, %r6

     990: 00 02 30 43 21 00 00 00 04 05 28 03 00 f0 17 9c      	! BUNDLE
	nul_eq_i32 %r5, %r6, 1, 0
	st_i32 %r5, %r2, 0
	ld_u32 %r5, %sp, 12

     9a0: 08 00 84 02 01 c0 00 00 fc 04 28 00 00 10 18 9c      	! BUNDLE
	add_i32 %r4, %r5, %r4
	st_i32 %r4, %sp, 12
	ld_u32 %r6, %r2, 0

     9b0: 04 00 80 41 01 90 1e 18 02 05 00 04 60 28 10 00      	! BUNDLE
	mov %r5, %r3
	amq_cas_i32 %r5, %r1, %r6
	cmp_eq_i32 %r4, %r5, %r6

     9c0: 00 02 30 43 21 00 00 00 04 05 28 03 00 f0 17 9c      	! BUNDLE
	nul_eq_i32 %r5, %r6, 1, 0
	st_i32 %r5, %r2, 0
	ld_u32 %r5, %sp, 12

     9d0: 08 00 84 02 01 c0 00 00 fc 04 28 00 00 10 18 9c      	! BUNDLE
	add_i32 %r4, %r5, %r4
	st_i32 %r4, %sp, 12
	ld_u32 %r6, %r2, 0

     9e0: 04 00 80 41 01 90 1e 18 02 05 00 04 60 28 10 00      	! BUNDLE
	mov %r5, %r3
	amq_cas_i32 %r5, %r1, %r6
	cmp_eq_i32 %r4, %r5, %r6

     9f0: 00 02 30 43 21 00 00 00 04 05 28 03 00 f0 17 9c      	! BUNDLE
	nul_eq_i32 %r5, %r6, 1, 0
	st_i32 %r5, %r2, 0
	ld_u32 %r5, %sp, 12

     a00: 08 00 84 02 01 c0 00 00 fc 04 28 00 00 10 18 9c      	! BUNDLE
	add_i32 %r4, %r5, %r4
	st_i32 %r4, %sp, 12
	ld_u32 %r6, %r2, 0

     a10: 04 00 80 41 01 90 1e 18 02 05 00 04 60 28 10 00      	! BUNDLE
	mov %r5, %r3
	amq_cas_i32 %r5, %r1, %r6
	cmp_eq_i32 %r4, %r5, %r6

     a20: 00 02 30 43 21 00 00 00 04 05 28 03 00 f0 17 9c      	! BUNDLE
	nul_eq_i32 %r5, %r6, 1, 0
	st_i32 %r5, %r2, 0
	ld_u32 %r5, %sp, 12

     a30: 08 00 84 02 01 c0 00 00 fc 04 28 00 00 10 18 9c      	! BUNDLE
	add_i32 %r4, %r5, %r4
	st_i32 %r4, %sp, 12
	ld_u32 %r6, %r2, 0

     a40: 04 00 80 41 01 a0 1e 18 02 05 00 04 60 28 10 00      	! BUNDLE
	mov %r5, %r3
	amr_cas_i32 %r5, %r1, %r6
	cmp_eq_i32 %r4, %r5, %r6

     a50: 00 02 30 43 21 00 00 00 04 05 28 03 00 f0 17 9c      	! BUNDLE
	nul_eq_i32 %r5, %r6, 1, 0
	st_i32 %r5, %r2, 0
	ld_u32 %r5, %sp, 12

     a60: 08 00 84 02 01 c0 00 00 fc 04 28 00 00 10 18 9c      	! BUNDLE
	add_i32 %r4, %r5, %r4
	st_i32 %r4, %sp, 12
	ld_u32 %r6, %r2, 0

     a70: 04 00 80 41 01 b0 1e 18 02 05 00 04 60 28 10 00      	! BUNDLE
	mov %r5, %r3
	amz_cas_i32 %r5, %r1, %r6
	cmp_eq_i32 %r4, %r5, %r6

     a80: 00 02 30 43 21 00 00 00 04 05 28 03 00 f0 17 9c      	! BUNDLE
	nul_eq_i32 %r5, %r6, 1, 0
	st_i32 %r5, %r2, 0
	ld_u32 %r5, %sp, 12

     a90: 08 00 84 02 01 c0 00 00 fc 04 28 00 00 10 18 9c      	! BUNDLE
	add_i32 %r4, %r5, %r4
	st_i32 %r4, %sp, 12
	ld_u32 %r6, %r2, 0

     aa0: 04 00 80 41 01 b0 1e 18 02 05 00 04 60 28 10 00      	! BUNDLE
	mov %r5, %r3
	amz_cas_i32 %r5, %r1, %r6
	cmp_eq_i32 %r4, %r5, %r6

     ab0: 00 02 30 43 21 00 00 00 04 05 28 03 00 f0 17 9c      	! BUNDLE
	nul_eq_i32 %r5, %r6, 1, 0
	st_i32 %r5, %r2, 0
	ld_u32 %r5, %sp, 12

     ac0: 08 00 84 02 01 c0 00 00 fc 04 28 00 00 10 18 9c      	! BUNDLE
	add_i32 %r4, %r5, %r4
	st_i32 %r4, %sp, 12
	ld_u32 %r6, %r2, 0

     ad0: 04 00 80 41 01 b0 1e 18 02 05 00 04 60 28 10 00      	! BUNDLE
	mov %r5, %r3
	amz_cas_i32 %r5, %r1, %r6
	cmp_eq_i32 %r4, %r5, %r6

     ae0: 00 02 30 43 21 00 00 00 04 05 28 03 00 f0 17 9c      	! BUNDLE
	nul_eq_i32 %r5, %r6, 1, 0
	st_i32 %r5, %r2, 0
	ld_u32 %r5, %sp, 12

     af0: 08 00 84 02 01 c0 00 00 fc 04 28 00 00 10 18 9c      	! BUNDLE
	add_i32 %r4, %r5, %r4
	st_i32 %r4, %sp, 12
	ld_u32 %r6, %r2, 0

     b00: dc 04 00 00 00 10 00 00 06 05 00 7a 60 08 14 00      	! BUNDLE
	fence_sc
	mov %r5, %r3
	amx_cas_i32 %r5, %r1, %r6

     b10: 40 00 86 02 01 00 08 c0 0c 85 00 00 00 10 14 a0      	! BUNDLE
	cmp_eq_i32 %r4, %r5, %r6
	nul_eq_i32 %r5, %r6, 1, 0
	st_i32 %r5, %r2, 0

     b20: 30 00 00 7f c1 29 00 10 0a 04 00 03 00 f0 13 a0      	! BUNDLE
	ld_u32 %r5, %sp, 12
	add_i32 %r4, %r5, %r4
	st_i32 %r4, %sp, 12

     b30: 00 00 00 81 c1 79 13 00 00 00 40 00 00 18 14 00      	! BUNDLE
	ld_u32 %r6, %r2, 0
	fence_sc
	mov %r5, %r3

     b40: a0 07 86 40 01 00 01 18 0a 04 00 20 00 33 14 02      	! BUNDLE
	amx_cas_i32 %r5, %r1, %r6
	cmp_eq_i32 %r4, %r5, %r6
	nul_eq_i32 %r5, %r6, 1, 0

     b50: 00 00 00 41 01 ca 00 00 fc 05 a7 00 40 28 10 00      	! BUNDLE
	st_i32 %r5, %r2, 0
	ld_u32 %r5, %sp, 12
	add_i32 %r4, %r5, %r4

     b60: 30 00 00 3f 01 0a 00 00 04 06 e7 4d 00 00 00 00      	! BUNDLE
	st_i32 %r4, %sp, 12
	ld_u32 %r6, %r2, 0
	fence_sc

     b70: 04 00 80 41 01 80 1e 18 02 05 00 04 60 28 10 00      	! BUNDLE
	mov %r5, %r3
	amx_cas_i32 %r5, %r1, %r6
	cmp_eq_i32 %r4, %r5, %r6

     b80: 00 02 30 43 21 00 00 00 04 05 28 03 00 f0 17 9c      	! BUNDLE
	nul_eq_i32 %r5, %r6, 1, 0
	st_i32 %r5, %r2, 0
	ld_u32 %r5, %sp, 12

     b90: 08 00 84 02 01 c0 00 00 fc 04 28 00 00 10 10 9c      	! BUNDLE
	add_i32 %r4, %r5, %r4
	st_i32 %r4, %sp, 12
	ld_u32 %r4, %r2, 0

     ba0: dc 04 00 00 00 80 1e 10 02 03 00 04 40 18 04 00      	! BUNDLE
	fence_sc
	amx_cas_i32 %r3, %r1, %r4
	cmp_eq_i32 %r1, %r3, %r4

     bb0: 00 02 30 c2 20 00 00 00 04 03 28 03 00 f0 0b 9c      	! BUNDLE
	nul_eq_i32 %r3, %r4, 1, 0
	st_i32 %r3, %r2, 0
	ld_u32 %r2, %sp, 12

     bc0: 08 00 01 41 00 c0 00 00 fc 01 28 03 00 f0 07 9c      	! BUNDLE
	add_i32 %r1, %r2, %r1
	st_i32 %r1, %sp, 12
	ld_u32 %r1, %sp, 12

     bd0: 40 00 00 80 40 00 00 00 00 00 01 00 00 00 00 04      	! BUNDLE
	retf 16
	nop 0
	nop 0


0000000000000be0 <test_atomic_compare_exchange_i64>:
     be0: 40 00 80 03 41 c0 00 00 fc 7f 28 00 00 10 18 a2      	! BUNDLE
	alloc_sp 7, 16
	st_i32 %gz, %sp, 12
	ld_u64 %r6, %r2, 0

     bf0: 04 00 80 41 01 80 23 18 02 05 00 02 60 28 10 00      	! BUNDLE
	mov %r5, %r3
	amx_cas_i64 %r5, %r1, %r6
	cmp_eq_i64 %r4, %r5, %r6

     c00: 00 02 00 43 21 00 00 00 04 85 29 03 00 f0 17 9c      	! BUNDLE
	nul_eq_i64 %r5, %r6, 1, 0
	st_i64 %r5, %r2, 0
	ld_u32 %r5, %sp, 12

     c10: 08 00 84 02 01 c0 00 00 fc 04 28 00 00 10 18 a2      	! BUNDLE
	add_i32 %r4, %r5, %r4
	st_i32 %r4, %sp, 12
	ld_u64 %r6, %r2, 0

     c20: 04 00 80 41 01 90 23 18 02 05 00 02 60 28 10 00      	! BUNDLE
	mov %r5, %r3
	amq_cas_i64 %r5, %r1, %r6
	cmp_eq_i64 %r4, %r5, %r6

     c30: 00 02 00 43 21 00 00 00 04 85 29 03 00 f0 17 9c      	! BUNDLE
	nul_eq_i64 %r5, %r6, 1, 0
	st_i64 %r5, %r2, 0
	ld_u32 %r5, %sp, 12

     c40: 08 00 84 02 01 c0 00 00 fc 04 28 00 00 10 18 a2      	! BUNDLE
	add_i32 %r4, %r5, %r4
	st_i32 %r4, %sp, 12
	ld_u64 %r6, %r2, 0

     c50: 04 00 80 41 01 90 23 18 02 05 00 02 60 28 10 00      	! BUNDLE
	mov %r5, %r3
	amq_cas_i64 %r5, %r1, %r6
	cmp_eq_i64 %r4, %r5, %r6

     c60: 00 02 00 43 21 00 00 00 04 85 29 03 00 f0 17 9c      	! BUNDLE
	nul_eq_i64 %r5, %r6, 1, 0
	st_i64 %r5, %r2, 0
	ld_u32 %r5, %sp, 12

     c70: 08 00 84 02 01 c0 00 00 fc 04 28 00 00 10 18 a2      	! BUNDLE
	add_i32 %r4, %r5, %r4
	st_i32 %r4, %sp, 12
	ld_u64 %r6, %r2, 0

     c80: 04 00 80 41 01 90 23 18 02 05 00 02 60 28 10 00      	! BUNDLE
	mov %r5, %r3
	amq_cas_i64 %r5, %r1, %r6
	cmp_eq_i64 %r4, %r5, %r6

     c90: 00 02 00 43 21 00 00 00 04 85 29 03 00 f0 17 9c      	! BUNDLE
	nul_eq_i64 %r5, %r6, 1, 0
	st_i64 %r5, %r2, 0
	ld_u32 %r5, %sp, 12

     ca0: 08 00 84 02 01 c0 00 00 fc 04 28 00 00 10 18 a2      	! BUNDLE
	add_i32 %r4, %r5, %r4
	st_i32 %r4, %sp, 12
	ld_u64 %r6, %r2, 0

     cb0: 04 00 80 41 01 90 23 18 02 05 00 02 60 28 10 00      	! BUNDLE
	mov %r5, %r3
	amq_cas_i64 %r5, %r1, %r6
	cmp_eq_i64 %r4, %r5, %r6

     cc0: 00 02 00 43 21 00 00 00 04 85 29 03 00 f0 17 9c      	! BUNDLE
	nul_eq_i64 %r5, %r6, 1, 0
	st_i64 %r5, %r2, 0
	ld_u32 %r5, %sp, 12

     cd0: 08 00 84 02 01 c0 00 00 fc 04 28 00 00 10 18 a2      	! BUNDLE
	add_i32 %r4, %r5, %r4
	st_i32 %r4, %sp, 12
	ld_u64 %r6, %r2, 0

     ce0: 04 00 80 41 01 90 23 18 02 05 00 02 60 28 10 00      	! BUNDLE
	mov %r5, %r3
	amq_cas_i64 %r5, %r1, %r6
	cmp_eq_i64 %r4, %r5, %r6

     cf0: 00 02 00 43 21 00 00 00 04 85 29 03 00 f0 17 9c      	! BUNDLE
	nul_eq_i64 %r5, %r6, 1, 0
	st_i64 %r5, %r2, 0
	ld_u32 %r5, %sp, 12

     d00: 08 00 84 02 01 c0 00 00 fc 04 28 00 00 10 18 a2      	! BUNDLE
	add_i32 %r4, %r5, %r4
	st_i32 %r4, %sp, 12
	ld_u64 %r6, %r2, 0

     d10: 04 00 80 41 01 90 23 18 02 05 00 02 60 28 10 00      	! BUNDLE
	mov %r5, %r3
	amq_cas_i64 %r5, %r1, %r6
	cmp_eq_i64 %r4, %r5, %r6

     d20: 00 02 00 43 21 00 00 00 04 85 29 03 00 f0 17 9c      	! BUNDLE
	nul_eq_i64 %r5, %r6, 1, 0
	st_i64 %r5, %r2, 0
	ld_u32 %r5, %sp, 12

     d30: 08 00 84 02 01 c0 00 00 fc 04 28 00 00 10 18 a2      	! BUNDLE
	add_i32 %r4, %r5, %r4
	st_i32 %r4, %sp, 12
	ld_u64 %r6, %r2, 0

     d40: 04 00 80 41 01 a0 23 18 02 05 00 02 60 28 10 00      	! BUNDLE
	mov %r5, %r3
	amr_cas_i64 %r5, %r1, %r6
	cmp_eq_i64 %r4, %r5, %r6

     d50: 00 02 00 43 21 00 00 00 04 85 29 03 00 f0 17 9c      	! BUNDLE
	nul_eq_i64 %r5, %r6, 1, 0
	st_i64 %r5, %r2, 0
	ld_u32 %r5, %sp, 12

     d60: 08 00 84 02 01 c0 00 00 fc 04 28 00 00 10 18 a2      	! BUNDLE
	add_i32 %r4, %r5, %r4
	st_i32 %r4, %sp, 12
	ld_u64 %r6, %r2, 0

     d70: 04 00 80 41 01 b0 23 18 02 05 00 02 60 28 10 00      	! BUNDLE
	mov %r5, %r3
	amz_cas_i64 %r5, %r1, %r6
	cmp_eq_i64 %r4, %r5, %r6

     d80: 00 02 00 43 21 00 00 00 04 85 29 03 00 f0 17 9c      	! BUNDLE
	nul_eq_i64 %r5, %r6, 1, 0
	st_i64 %r5, %r2, 0
	ld_u32 %r5, %sp, 12

     d90: 08 00 84 02 01 c0 00 00 fc 04 28 00 00 10 18 a2      	! BUNDLE
	add_i32 %r4, %r5, %r4
	st_i32 %r4, %sp, 12
	ld_u64 %r6, %r2, 0

     da0: 04 00 80 41 01 b0 23 18 02 05 00 02 60 28 10 00      	! BUNDLE
	mov %r5, %r3
	amz_cas_i64 %r5, %r1, %r6
	cmp_eq_i64 %r4, %r5, %r6

     db0: 00 02 00 43 21 00 00 00 04 85 29 03 00 f0 17 9c      	! BUNDLE
	nul_eq_i64 %r5, %r6, 1, 0
	st_i64 %r5, %r2, 0
	ld_u32 %r5, %sp, 12

     dc0: 08 00 84 02 01 c0 00 00 fc 04 28 00 00 10 18 a2      	! BUNDLE
	add_i32 %r4, %r5, %r4
	st_i32 %r4, %sp, 12
	ld_u64 %r6, %r2, 0

     dd0: 04 00 80 41 01 b0 23 18 02 05 00 02 60 28 10 00      	! BUNDLE
	mov %r5, %r3
	amz_cas_i64 %r5, %r1, %r6
	cmp_eq_i64 %r4, %r5, %r6

     de0: 00 02 00 43 21 00 00 00 04 85 29 03 00 f0 17 9c      	! BUNDLE
	nul_eq_i64 %r5, %r6, 1, 0
	st_i64 %r5, %r2, 0
	ld_u32 %r5, %sp, 12

     df0: 08 00 84 02 01 c0 00 00 fc 04 28 00 00 10 18 a2      	! BUNDLE
	add_i32 %r4, %r5, %r4
	st_i32 %r4, %sp, 12
	ld_u64 %r6, %r2, 0

     e00: dc 04 00 00 00 10 00 00 06 05 00 8e 60 08 14 00      	! BUNDLE
	fence_sc
	mov %r5, %r3
	amx_cas_i64 %r5, %r1, %r6

     e10: 20 00 86 02 01 00 08 00 0c 85 00 00 00 10 14 a6      	! BUNDLE
	cmp_eq_i64 %r4, %r5, %r6
	nul_eq_i64 %r5, %r6, 1, 0
	st_i64 %r5, %r2, 0

     e20: 30 00 00 7f c1 29 00 10 0a 04 00 03 00 f0 13 a0      	! BUNDLE
	ld_u32 %r5, %sp, 12
	add_i32 %r4, %r5, %r4
	st_i32 %r4, %sp, 12

     e30: 00 00 00 81 21 7a 13 00 00 00 40 00 00 18 14 00      	! BUNDLE
	ld_u64 %r6, %r2, 0
	fence_sc
	mov %r5, %r3

     e40: e0 08 86 40 01 80 00 18 0a 04 00 20 00 30 14 02      	! BUNDLE
	amx_cas_i64 %r5, %r1, %r6
	cmp_eq_i64 %r4, %r5, %r6
	nul_eq_i64 %r5, %r6, 1, 0

     e50: 00 00 00 41 61 ca 00 00 fc 05 a7 00 40 28 10 00      	! BUNDLE
	st_i64 %r5, %r2, 0
	ld_u32 %r5, %sp, 12
	add_i32 %r4, %r5, %r4

     e60: 30 00 00 3f 01 0a 00 00 04 86 e8 4d 00 00 00 00      	! BUNDLE
	st_i32 %r4, %sp, 12
	ld_u64 %r6, %r2, 0
	fence_sc

     e70: 04 00 80 41 01 80 23 18 02 05 00 02 60 28 10 00      	! BUNDLE
	mov %r5, %r3
	amx_cas_i64 %r5, %r1, %r6
	cmp_eq_i64 %r4, %r5, %r6

     e80: 00 02 00 43 21 00 00 00 04 85 29 03 00 f0 17 9c      	! BUNDLE
	nul_eq_i64 %r5, %r6, 1, 0
	st_i64 %r5, %r2, 0
	ld_u32 %r5, %sp, 12

     e90: 08 00 84 02 01 c0 00 00 fc 04 28 00 00 10 10 a2      	! BUNDLE
	add_i32 %r4, %r5, %r4
	st_i32 %r4, %sp, 12
	ld_u64 %r4, %r2, 0

     ea0: dc 04 00 00 00 80 23 10 02 03 00 02 40 18 04 00      	! BUNDLE
	fence_sc
	amx_cas_i64 %r3, %r1, %r4
	cmp_eq_i64 %r1, %r3, %r4

     eb0: 00 02 00 c2 20 00 00 00 04 83 29 03 00 f0 0b 9c      	! BUNDLE
	nul_eq_i64 %r3, %r4, 1, 0
	st_i64 %r3, %r2, 0
	ld_u32 %r2, %sp, 12

     ec0: 08 00 01 41 00 c0 00 00 fc 01 28 03 00 f0 07 9c      	! BUNDLE
	add_i32 %r1, %r2, %r1
	st_i32 %r1, %sp, 12
	ld_u32 %r1, %sp, 12

     ed0: 40 00 00 80 40 00 00 00 00 00 01 00 00 00 00 04      	! BUNDLE
	retf 16
	nop 0
	nop 0


0000000000000ee0 <test_atomic_compare_exchange_i128>:
     ee0: 40 00 80 03 41 c0 00 00 fc 7f 28 00 00 10 18 a8      	! BUNDLE
	alloc_sp 7, 16
	st_i32 %gz, %sp, 12
	ld_i128 %r6, %r2, 0

     ef0: 04 00 80 41 01 80 28 18 02 05 80 18 60 28 10 00      	! BUNDLE
	mov %r5, %r3
	amx_cas_i128 %r5, %r1, %r6
	cmp_eq_i128 %r4, %r5, %r6

     f00: 10 02 00 43 21 00 00 00 04 85 2a 03 00 f0 17 9c      	! BUNDLE
	nul_eq_i128 %r5, %r6, 1, 0
	st_i128 %r5, %r2, 0
	ld_u32 %r5, %sp, 12

     f10: 08 00 84 02 01 c0 00 00 fc 04 28 00 00 10 18 a8      	! BUNDLE
	add_i32 %r4, %r5, %r4
	st_i32 %r4, %sp, 12
	ld_i128 %r6, %r2, 0

     f20: 04 00 80 41 01 90 28 18 02 05 80 18 60 28 10 00      	! BUNDLE
	mov %r5, %r3
	amq_cas_i128 %r5, %r1, %r6
	cmp_eq_i128 %r4, %r5, %r6

     f30: 10 02 00 43 21 00 00 00 04 85 2a 03 00 f0 17 9c      	! BUNDLE
	nul_eq_i128 %r5, %r6, 1, 0
	st_i128 %r5, %r2, 0
	ld_u32 %r5, %sp, 12

     f40: 08 00 84 02 01 c0 00 00 fc 04 28 00 00 10 18 a8      	! BUNDLE
	add_i32 %r4, %r5, %r4
	st_i32 %r4, %sp, 12
	ld_i128 %r6, %r2, 0

     f50: 04 00 80 41 01 90 28 18 02 05 80 18 60 28 10 00      	! BUNDLE
	mov %r5, %r3
	amq_cas_i128 %r5, %r1, %r6
	cmp_eq_i128 %r4, %r5, %r6

     f60: 10 02 00 43 21 00 00 00 04 85 2a 03 00 f0 17 9c      	! BUNDLE
	nul_eq_i128 %r5, %r6, 1, 0
	st_i128 %r5, %r2, 0
	ld_u32 %r5, %sp, 12

     f70: 08 00 84 02 01 c0 00 00 fc 04 28 00 00 10 18 a8      	! BUNDLE
	add_i32 %r4, %r5, %r4
	st_i32 %r4, %sp, 12
	ld_i128 %r6, %r2, 0

     f80: 04 00 80 41 01 90 28 18 02 05 80 18 60 28 10 00      	! BUNDLE
	mov %r5, %r3
	amq_cas_i128 %r5, %r1, %r6
	cmp_eq_i128 %r4, %r5, %r6

     f90: 10 02 00 43 21 00 00 00 04 85 2a 03 00 f0 17 9c      	! BUNDLE
	nul_eq_i128 %r5, %r6, 1, 0
	st_i128 %r5, %r2, 0
	ld_u32 %r5, %sp, 12

     fa0: 08 00 84 02 01 c0 00 00 fc 04 28 00 00 10 18 a8      	! BUNDLE
	add_i32 %r4, %r5, %r4
	st_i32 %r4, %sp, 12
	ld_i128 %r6, %r2, 0

     fb0: 04 00 80 41 01 90 28 18 02 05 80 18 60 28 10 00      	! BUNDLE
	mov %r5, %r3
	amq_cas_i128 %r5, %r1, %r6
	cmp_eq_i128 %r4, %r5, %r6

     fc0: 10 02 00 43 21 00 00 00 04 85 2a 03 00 f0 17 9c      	! BUNDLE
	nul_eq_i128 %r5, %r6, 1, 0
	st_i128 %r5, %r2, 0
	ld_u32 %r5, %sp, 12

     fd0: 08 00 84 02 01 c0 00 00 fc 04 28 00 00 10 18 a8      	! BUNDLE
	add_i32 %r4, %r5, %r4
	st_i32 %r4, %sp, 12
	ld_i128 %r6, %r2, 0

     fe0: 04 00 80 41 01 90 28 18 02 05 80 18 60 28 10 00      	! BUNDLE
	mov %r5, %r3
	amq_cas_i128 %r5, %r1, %r6
	cmp_eq_i128 %r4, %r5, %r6

     ff0: 10 02 00 43 21 00 00 00 04 85 2a 03 00 f0 17 9c      	! BUNDLE
	nul_eq_i128 %r5, %r6, 1, 0
	st_i128 %r5, %r2, 0
	ld_u32 %r5, %sp, 12

    1000: 08 00 84 02 01 c0 00 00 fc 04 28 00 00 10 18 a8      	! BUNDLE
	add_i32 %r4, %r5, %r4
	st_i32 %r4, %sp, 12
	ld_i128 %r6, %r2, 0

    1010: 04 00 80 41 01 90 28 18 02 05 80 18 60 28 10 00      	! BUNDLE
	mov %r5, %r3
	amq_cas_i128 %r5, %r1, %r6
	cmp_eq_i128 %r4, %r5, %r6

    1020: 10 02 00 43 21 00 00 00 04 85 2a 03 00 f0 17 9c      	! BUNDLE
	nul_eq_i128 %r5, %r6, 1, 0
	st_i128 %r5, %r2, 0
	ld_u32 %r5, %sp, 12

    1030: 08 00 84 02 01 c0 00 00 fc 04 28 00 00 10 18 a8      	! BUNDLE
	add_i32 %r4, %r5, %r4
	st_i32 %r4, %sp, 12
	ld_i128 %r6, %r2, 0

    1040: 04 00 80 41 01 a0 28 18 02 05 80 18 60 28 10 00      	! BUNDLE
	mov %r5, %r3
	amr_cas_i128 %r5, %r1, %r6
	cmp_eq_i128 %r4, %r5, %r6

    1050: 10 02 00 43 21 00 00 00 04 85 2a 03 00 f0 17 9c      	! BUNDLE
	nul_eq_i128 %r5, %r6, 1, 0
	st_i128 %r5, %r2, 0
	ld_u32 %r5, %sp, 12

    1060: 08 00 84 02 01 c0 00 00 fc 04 28 00 00 10 18 a8      	! BUNDLE
	add_i32 %r4, %r5, %r4
	st_i32 %r4, %sp, 12
	ld_i128 %r6, %r2, 0

    1070: 04 00 80 41 01 b0 28 18 02 05 80 18 60 28 10 00      	! BUNDLE
	mov %r5, %r3
	amz_cas_i128 %r5, %r1, %r6
	cmp_eq_i128 %r4, %r5, %r6

    1080: 10 02 00 43 21 00 00 00 04 85 2a 03 00 f0 17 9c      	! BUNDLE
	nul_eq_i128 %r5, %r6, 1, 0
	st_i128 %r5, %r2, 0
	ld_u32 %r5, %sp, 12

    1090: 08 00 84 02 01 c0 00 00 fc 04 28 00 00 10 18 a8      	! BUNDLE
	add_i32 %r4, %r5, %r4
	st_i32 %r4, %sp, 12
	ld_i128 %r6, %r2, 0

    10a0: 04 00 80 41 01 b0 28 18 02 05 80 18 60 28 10 00      	! BUNDLE
	mov %r5, %r3
	amz_cas_i128 %r5, %r1, %r6
	cmp_eq_i128 %r4, %r5, %r6

    10b0: 10 02 00 43 21 00 00 00 04 85 2a 03 00 f0 17 9c      	! BUNDLE
	nul_eq_i128 %r5, %r6, 1, 0
	st_i128 %r5, %r2, 0
	ld_u32 %r5, %sp, 12

    10c0: 08 00 84 02 01 c0 00 00 fc 04 28 00 00 10 18 a8      	! BUNDLE
	add_i32 %r4, %r5, %r4
	st_i32 %r4, %sp, 12
	ld_i128 %r6, %r2, 0

    10d0: 04 00 80 41 01 b0 28 18 02 05 80 18 60 28 10 00      	! BUNDLE
	mov %r5, %r3
	amz_cas_i128 %r5, %r1, %r6
	cmp_eq_i128 %r4, %r5, %r6

    10e0: 10 02 00 43 21 00 00 00 04 85 2a 03 00 f0 17 9c      	! BUNDLE
	nul_eq_i128 %r5, %r6, 1, 0
	st_i128 %r5, %r2, 0
	ld_u32 %r5, %sp, 12

    10f0: 08 00 84 02 01 c0 00 00 fc 04 28 00 00 10 18 a8      	! BUNDLE
	add_i32 %r4, %r5, %r4
	st_i32 %r4, %sp, 12
	ld_i128 %r6, %r2, 0

    1100: dc 04 00 00 00 10 00 00 06 05 00 a2 60 08 14 00      	! BUNDLE
	fence_sc
	mov %r5, %r3
	amx_cas_i128 %r5, %r1, %r6

    1110: 88 01 86 02 01 40 08 00 0c 85 00 00 00 10 14 aa      	! BUNDLE
	cmp_eq_i128 %r4, %r5, %r6
	nul_eq_i128 %r5, %r6, 1, 0
	st_i128 %r5, %r2, 0

    1120: 30 00 00 7f c1 29 00 10 0a 04 00 03 00 f0 13 a0      	! BUNDLE
	ld_u32 %r5, %sp, 12
	add_i32 %r4, %r5, %r4
	st_i32 %r4, %sp, 12

    1130: 00 00 00 81 81 7a 13 00 00 00 40 00 00 18 14 00      	! BUNDLE
	ld_i128 %r6, %r2, 0
	fence_sc
	mov %r5, %r3

    1140: 20 0a 86 40 01 20 06 18 0a 04 00 21 00 30 14 02      	! BUNDLE
	amx_cas_i128 %r5, %r1, %r6
	cmp_eq_i128 %r4, %r5, %r6
	nul_eq_i128 %r5, %r6, 1, 0

    1150: 00 00 00 41 a1 ca 00 00 fc 05 a7 00 40 28 10 00      	! BUNDLE
	st_i128 %r5, %r2, 0
	ld_u32 %r5, %sp, 12
	add_i32 %r4, %r5, %r4

    1160: 30 00 00 3f 01 0a 00 00 04 06 ea 4d 00 00 00 00      	! BUNDLE
	st_i32 %r4, %sp, 12
	ld_i128 %r6, %r2, 0
	fence_sc

    1170: 04 00 80 41 01 80 28 18 02 05 80 18 60 28 10 00      	! BUNDLE
	mov %r5, %r3
	amx_cas_i128 %r5, %r1, %r6
	cmp_eq_i128 %r4, %r5, %r6

    1180: 10 02 00 43 21 00 00 00 04 85 2a 03 00 f0 17 9c      	! BUNDLE
	nul_eq_i128 %r5, %r6, 1, 0
	st_i128 %r5, %r2, 0
	ld_u32 %r5, %sp, 12

    1190: 08 00 84 02 01 c0 00 00 fc 04 28 00 00 10 10 a8      	! BUNDLE
	add_i32 %r4, %r5, %r4
	st_i32 %r4, %sp, 12
	ld_i128 %r4, %r2, 0

    11a0: dc 04 00 00 00 80 28 10 02 03 80 18 40 18 04 00      	! BUNDLE
	fence_sc
	amx_cas_i128 %r3, %r1, %r4
	cmp_eq_i128 %r1, %r3, %r4

    11b0: 10 02 00 c2 20 00 00 00 04 83 2a 03 00 f0 0b 9c      	! BUNDLE
	nul_eq_i128 %r3, %r4, 1, 0
	st_i128 %r3, %r2, 0
	ld_u32 %r2, %sp, 12

    11c0: 08 00 01 41 00 c0 00 00 fc 01 28 03 00 f0 07 9c      	! BUNDLE
	add_i32 %r1, %r2, %r1
	st_i32 %r1, %sp, 12
	ld_u32 %r1, %sp, 12

    11d0: 40 00 00 80 40 00 00 00 00 00 01 00 00 00 00 04      	! BUNDLE
	retf 16
	nop 0
	nop 0


00000000000011e0 <test_atomic_exchange_i8>:
    11e0: 00 00 80 c1 40 40 14 04 04 01 40 51 10 10 04 00      	! BUNDLE
	alloc 3
	amx_swap_u8 %r1, %r2, %r1
	amq_swap_u8 %r1, %r2, %r1

    11f0: 14 05 01 41 00 60 14 04 04 01 c0 51 10 10 04 00      	! BUNDLE
	amq_swap_u8 %r1, %r2, %r1
	amr_swap_u8 %r1, %r2, %r1
	amz_swap_u8 %r1, %r2, %r1

    1200: dc 04 00 00 00 40 14 04 04 01 80 05 87 0b 04 02      	! BUNDLE
	fence_sc
	amx_swap_u8 %r1, %r2, %r1
	slsra_imm_i64 %r1, %r1, 56, 56

    1210: 00 00 00 80 40 00 00 00 00 00 01 00 00 00 00 04      	! BUNDLE
	retf 0
	nop 0
	nop 0


0000000000001220 <test_atomic_exchange_i16>:
    1220: 00 00 80 c1 40 40 19 04 04 01 40 65 10 10 04 00      	! BUNDLE
	alloc 3
	amx_swap_u16 %r1, %r2, %r1
	amq_swap_u16 %r1, %r2, %r1

    1230: 54 06 01 41 00 60 19 04 04 01 c0 65 10 10 04 00      	! BUNDLE
	amq_swap_u16 %r1, %r2, %r1
	amr_swap_u16 %r1, %r2, %r1
	amz_swap_u16 %r1, %r2, %r1

    1240: dc 04 00 00 00 40 19 04 04 01 80 05 06 0b 04 02      	! BUNDLE
	fence_sc
	amx_swap_u16 %r1, %r2, %r1
	slsra_imm_i64 %r1, %r1, 48, 48

    1250: 00 00 00 80 40 00 00 00 00 00 01 00 00 00 00 04      	! BUNDLE
	retf 0
	nop 0
	nop 0


0000000000001260 <test_atomic_exchange_i32>:
    1260: 00 00 80 c1 40 40 1e 04 04 01 40 79 10 10 04 00      	! BUNDLE
	alloc 3
	amx_swap_u32 %r1, %r2, %r1
	amq_swap_u32 %r1, %r2, %r1

    1270: 94 07 01 41 00 60 1e 04 04 01 c0 79 10 10 04 00      	! BUNDLE
	amq_swap_u32 %r1, %r2, %r1
	amr_swap_u32 %r1, %r2, %r1
	amz_swap_u32 %r1, %r2, %r1

    1280: dc 04 00 00 00 40 1e 04 04 01 00 00 00 00 08 04      	! BUNDLE
	fence_sc
	amx_swap_u32 %r1, %r2, %r1
	retf 0


0000000000001290 <test_atomic_exchange_i64>:
    1290: 00 00 80 c1 40 40 23 04 04 01 40 8d 10 10 04 00      	! BUNDLE
	alloc 3
	amx_swap_u64 %r1, %r2, %r1
	amq_swap_u64 %r1, %r2, %r1

    12a0: d4 08 01 41 00 60 23 04 04 01 c0 8d 10 10 04 00      	! BUNDLE
	amq_swap_u64 %r1, %r2, %r1
	amr_swap_u64 %r1, %r2, %r1
	amz_swap_u64 %r1, %r2, %r1

    12b0: dc 04 00 00 00 40 23 04 04 01 00 00 00 00 08 04      	! BUNDLE
	fence_sc
	amx_swap_u64 %r1, %r2, %r1
	retf 0


00000000000012c0 <test_atomic_exchange_i128>:
    12c0: 00 00 80 c1 40 40 28 04 04 01 40 a1 10 10 04 00      	! BUNDLE
	alloc 3
	amx_swap_u128 %r1, %r2, %r1
	amq_swap_u128 %r1, %r2, %r1

    12d0: 14 0a 01 41 00 60 28 04 04 01 c0 a1 10 10 04 00      	! BUNDLE
	amq_swap_u128 %r1, %r2, %r1
	amr_swap_u128 %r1, %r2, %r1
	amz_swap_u128 %r1, %r2, %r1

    12e0: dc 04 00 00 00 40 28 04 04 01 00 00 00 00 08 04      	! BUNDLE
	fence_sc
	amx_swap_u128 %r1, %r2, %r1
	retf 0


00000000000012f0 <test_fence_acquire>:
    12f0: 00 00 80 c0 40 40 13 00 00 00 00 00 00 00 08 04      	! BUNDLE
	alloc 1
	fence_a
	retf 0


0000000000001300 <test_fence_release>:
    1300: 00 00 80 c0 40 50 13 00 00 00 00 00 00 00 08 04      	! BUNDLE
	alloc 1
	fence_r
	retf 0


0000000000001310 <test_fence_acq_rel>:
    1310: 00 00 80 c0 40 60 13 00 00 00 00 00 00 00 08 04      	! BUNDLE
	alloc 1
	fence_ar
	retf 0


0000000000001320 <test_fence_seq_cst>:
    1320: 00 00 80 c0 40 70 13 00 00 00 00 00 00 00 08 04      	! BUNDLE
	alloc 1
	fence_sc
	retf 0


0000000000001330 <test_compiler_fence>:
    1330: 00 00 80 c0 40 00 00 00 00 02 01 00 00 00 00 04      	! BUNDLE
	alloc 1
	retf 0
	nop 0


0000000000001340 <test_atomic_load_u8_u8>:
    1340: 00 00 80 c2 40 00 14 00 02 01 40 50 00 10 08 00      	! BUNDLE
	alloc 5
	amx_ld_i8 %r1, %r1
	amq_ld_i8 %r2, %r2

    1350: 04 05 80 c1 00 70 13 00 00 00 00 50 00 20 10 00      	! BUNDLE
	amq_ld_i8 %r3, %r3
	fence_sc
	amx_ld_i8 %r4, %r4

    1360: 68 00 01 41 00 80 01 0c 02 01 40 06 40 08 04 00      	! BUNDLE
	xor %r1, %r2, %r1
	and %r1, %r1, %r3
	or %r1, %r1, %r4

    1370: d0 04 00 00 00 00 00 00 00 02 01 00 00 00 00 04      	! BUNDLE
	fence_a
	retf 0
	nop 0


0000000000001380 <test_atomic_load_u8_u16>:
    1380: 00 00 80 c2 40 00 14 00 02 01 40 50 00 10 08 00      	! BUNDLE
	alloc 5
	amx_ld_i8 %r1, %r1
	amq_ld_i8 %r2, %r2

    1390: 04 05 80 c1 00 70 13 00 00 00 00 50 00 20 10 00      	! BUNDLE
	amq_ld_i8 %r3, %r3
	fence_sc
	amx_ld_i8 %r4, %r4

    13a0: 68 00 01 41 00 80 01 0c 02 01 40 06 40 08 04 00      	! BUNDLE
	xor %r1, %r2, %r1
	and %r1, %r1, %r3
	or %r1, %r1, %r4

    13b0: d0 04 00 00 00 00 00 00 00 02 01 00 00 00 00 04      	! BUNDLE
	fence_a
	retf 0
	nop 0


00000000000013c0 <test_atomic_load_u8_u32>:
    13c0: 00 00 80 c2 40 00 14 00 02 01 40 50 00 10 08 00      	! BUNDLE
	alloc 5
	amx_ld_i8 %r1, %r1
	amq_ld_i8 %r2, %r2

    13d0: 04 05 80 c1 00 70 13 00 00 00 00 50 00 20 10 00      	! BUNDLE
	amq_ld_i8 %r3, %r3
	fence_sc
	amx_ld_i8 %r4, %r4

    13e0: 68 00 01 41 00 80 01 0c 02 01 40 06 40 08 04 00      	! BUNDLE
	xor %r1, %r2, %r1
	and %r1, %r1, %r3
	or %r1, %r1, %r4

    13f0: d0 04 00 00 00 00 00 00 00 02 01 00 00 00 00 04      	! BUNDLE
	fence_a
	retf 0
	nop 0


0000000000001400 <test_atomic_load_u8_u64>:
    1400: 00 00 80 c2 40 00 14 00 02 01 40 50 00 10 08 00      	! BUNDLE
	alloc 5
	amx_ld_i8 %r1, %r1
	amq_ld_i8 %r2, %r2

    1410: 04 05 80 c1 00 70 13 00 00 00 00 50 00 20 10 00      	! BUNDLE
	amq_ld_i8 %r3, %r3
	fence_sc
	amx_ld_i8 %r4, %r4

    1420: 68 00 01 41 00 80 01 0c 02 01 40 06 40 08 04 00      	! BUNDLE
	xor %r1, %r2, %r1
	and %r1, %r1, %r3
	or %r1, %r1, %r4

    1430: 14 01 80 40 00 40 13 00 00 00 00 00 00 00 08 04      	! BUNDLE
	srl_imm_u32 %r1, %r1, 0
	fence_a
	retf 0


0000000000001440 <test_atomic_load_u16_u16>:
    1440: 00 00 80 c2 40 00 19 00 02 01 40 64 00 10 08 00      	! BUNDLE
	alloc 5
	amx_ld_i16 %r1, %r1
	amq_ld_i16 %r2, %r2

    1450: 44 06 80 c1 00 70 13 00 00 00 00 64 00 20 10 00      	! BUNDLE
	amq_ld_i16 %r3, %r3
	fence_sc
	amx_ld_i16 %r4, %r4

    1460: 68 00 01 41 00 80 01 0c 02 01 40 06 40 08 04 00      	! BUNDLE
	xor %r1, %r2, %r1
	and %r1, %r1, %r3
	or %r1, %r1, %r4

    1470: d0 04 00 00 00 00 00 00 00 02 01 00 00 00 00 04      	! BUNDLE
	fence_a
	retf 0
	nop 0


0000000000001480 <test_atomic_load_u16_u32>:
    1480: 00 00 80 c2 40 00 19 00 02 01 40 64 00 10 08 00      	! BUNDLE
	alloc 5
	amx_ld_i16 %r1, %r1
	amq_ld_i16 %r2, %r2

    1490: 44 06 80 c1 00 70 13 00 00 00 00 64 00 20 10 00      	! BUNDLE
	amq_ld_i16 %r3, %r3
	fence_sc
	amx_ld_i16 %r4, %r4

    14a0: 68 00 01 41 00 80 01 0c 02 01 40 06 40 08 04 00      	! BUNDLE
	xor %r1, %r2, %r1
	and %r1, %r1, %r3
	or %r1, %r1, %r4

    14b0: d0 04 00 00 00 00 00 00 00 02 01 00 00 00 00 04      	! BUNDLE
	fence_a
	retf 0
	nop 0


00000000000014c0 <test_atomic_load_u16_u64>:
    14c0: 00 00 80 c2 40 00 19 00 02 01 40 64 00 10 08 00      	! BUNDLE
	alloc 5
	amx_ld_i16 %r1, %r1
	amq_ld_i16 %r2, %r2

    14d0: 44 06 80 c1 00 70 13 00 00 00 00 64 00 20 10 00      	! BUNDLE
	amq_ld_i16 %r3, %r3
	fence_sc
	amx_ld_i16 %r4, %r4

    14e0: 68 00 01 41 00 80 01 0c 02 01 40 06 40 08 04 00      	! BUNDLE
	xor %r1, %r2, %r1
	and %r1, %r1, %r3
	or %r1, %r1, %r4

    14f0: 14 01 80 40 00 40 13 00 00 00 00 00 00 00 08 04      	! BUNDLE
	srl_imm_u32 %r1, %r1, 0
	fence_a
	retf 0


0000000000001500 <test_atomic_load_u32_u32>:
    1500: 00 00 80 c2 40 00 1e 00 02 01 40 78 00 10 08 00      	! BUNDLE
	alloc 5
	amx_ld_i32 %r1, %r1
	amq_ld_i32 %r2, %r2

    1510: 84 07 80 c1 00 70 13 00 00 00 00 78 00 20 10 00      	! BUNDLE
	amq_ld_i32 %r3, %r3
	fence_sc
	amx_ld_i32 %r4, %r4

    1520: 68 00 01 41 00 80 01 0c 02 01 40 06 40 08 04 00      	! BUNDLE
	xor %r1, %r2, %r1
	and %r1, %r1, %r3
	or %r1, %r1, %r4

    1530: d0 04 00 00 00 00 00 00 00 02 01 00 00 00 00 04      	! BUNDLE
	fence_a
	retf 0
	nop 0


0000000000001540 <test_atomic_load_u32_u64>:
    1540: 00 00 80 c2 40 00 1e 00 02 01 40 78 00 10 08 00      	! BUNDLE
	alloc 5
	amx_ld_i32 %r1, %r1
	amq_ld_i32 %r2, %r2

    1550: 84 07 80 c1 00 70 13 00 00 00 00 78 00 20 10 00      	! BUNDLE
	amq_ld_i32 %r3, %r3
	fence_sc
	amx_ld_i32 %r4, %r4

    1560: 68 00 01 41 00 80 01 0c 02 01 40 06 40 08 04 00      	! BUNDLE
	xor %r1, %r2, %r1
	and %r1, %r1, %r3
	or %r1, %r1, %r4

    1570: 14 01 80 40 00 40 13 00 00 00 00 00 00 00 08 04      	! BUNDLE
	srl_imm_u32 %r1, %r1, 0
	fence_a
	retf 0


0000000000001580 <test_atomic_load_u64_u64>:
    1580: 00 00 80 c2 40 00 23 00 02 01 40 8c 00 10 08 00      	! BUNDLE
	alloc 5
	amx_ld_i64 %r1, %r1
	amq_ld_i64 %r2, %r2

    1590: c4 08 80 c1 00 70 13 00 00 00 00 8c 00 20 10 00      	! BUNDLE
	amq_ld_i64 %r3, %r3
	fence_sc
	amx_ld_i64 %r4, %r4

    15a0: 68 00 01 41 00 80 01 0c 02 01 40 06 40 08 04 00      	! BUNDLE
	xor %r1, %r2, %r1
	and %r1, %r1, %r3
	or %r1, %r1, %r4

    15b0: d0 04 00 00 00 00 00 00 00 02 01 00 00 00 00 04      	! BUNDLE
	fence_a
	retf 0
	nop 0


00000000000015c0 <test_atomic_load_u128_u128>:
    15c0: 00 00 80 c2 40 00 28 00 02 01 40 a0 00 10 08 00      	! BUNDLE
	alloc 5
	amx_ld_i128 %r1, %r1
	amq_ld_i128 %r2, %r2

    15d0: 04 0a 80 c1 00 70 13 00 00 00 00 a0 00 20 10 00      	! BUNDLE
	amq_ld_i128 %r3, %r3
	fence_sc
	amx_ld_i128 %r4, %r4

    15e0: 68 00 01 41 00 80 01 0c 02 01 40 06 40 08 04 00      	! BUNDLE
	xor %r1, %r2, %r1
	and %r1, %r1, %r3
	or %r1, %r1, %r4

    15f0: d0 04 00 00 00 00 00 00 00 02 01 00 00 00 00 04      	! BUNDLE
	fence_a
	retf 0
	nop 0


0000000000001600 <test_atomic_load_op_i128>:
    1600: 00 00 80 c1 40 c0 28 04 04 01 40 18 10 f8 07 00      	! BUNDLE
	alloc 3
	amx_ld_add_u128 %r1, %r2, %r1
	sub_i128 %r1, %gz, %r1

    1610: 30 0a 01 41 00 00 29 04 04 01 00 a5 10 10 04 00      	! BUNDLE
	amx_ld_add_u128 %r1, %r2, %r1
	amx_ld_and_u128 %r1, %r2, %r1
	amx_ld_or_u128 %r1, %r2, %r1

    1620: 60 0a 01 41 00 c0 29 04 04 01 00 a8 10 10 04 00      	! BUNDLE
	amx_ld_xor_u128 %r1, %r2, %r1
	amx_ld_min_i128 %r1, %r2, %r1
	amx_ld_max_i128 %r1, %r2, %r1

    1630: 34 0a 01 41 00 10 06 04 fe 01 40 a3 10 10 04 00      	! BUNDLE
	amq_ld_add_u128 %r1, %r2, %r1
	sub_i128 %r1, %gz, %r1
	amq_ld_add_u128 %r1, %r2, %r1

    1640: 44 0a 01 41 00 50 29 04 04 01 40 a6 10 10 04 00      	! BUNDLE
	amq_ld_and_u128 %r1, %r2, %r1
	amq_ld_or_u128 %r1, %r2, %r1
	amq_ld_xor_u128 %r1, %r2, %r1

    1650: 74 0a 01 41 00 10 2a 04 04 01 40 a3 10 10 04 00      	! BUNDLE
	amq_ld_min_i128 %r1, %r2, %r1
	amq_ld_max_i128 %r1, %r2, %r1
	amq_ld_add_u128 %r1, %r2, %r1

    1660: 84 01 81 7f 00 d0 28 04 04 01 40 a4 10 10 04 00      	! BUNDLE
	sub_i128 %r1, %gz, %r1
	amq_ld_add_u128 %r1, %r2, %r1
	amq_ld_and_u128 %r1, %r2, %r1

    1670: 54 0a 01 41 00 90 29 04 04 01 40 a7 10 10 04 00      	! BUNDLE
	amq_ld_or_u128 %r1, %r2, %r1
	amq_ld_xor_u128 %r1, %r2, %r1
	amq_ld_min_i128 %r1, %r2, %r1

    1680: 84 0a 01 41 00 e0 28 04 04 01 40 18 10 f8 07 00      	! BUNDLE
	amq_ld_max_i128 %r1, %r2, %r1
	amr_ld_add_u128 %r1, %r2, %r1
	sub_i128 %r1, %gz, %r1

    1690: 38 0a 01 41 00 20 29 04 04 01 80 a5 10 10 04 00      	! BUNDLE
	amr_ld_add_u128 %r1, %r2, %r1
	amr_ld_and_u128 %r1, %r2, %r1
	amr_ld_or_u128 %r1, %r2, %r1

    16a0: 68 0a 01 41 00 e0 29 04 04 01 80 a8 10 10 04 00      	! BUNDLE
	amr_ld_xor_u128 %r1, %r2, %r1
	amr_ld_min_i128 %r1, %r2, %r1
	amr_ld_max_i128 %r1, %r2, %r1

    16b0: 3c 0a 01 41 00 10 06 04 fe 01 c0 a3 10 10 04 00      	! BUNDLE
	amz_ld_add_u128 %r1, %r2, %r1
	sub_i128 %r1, %gz, %r1
	amz_ld_add_u128 %r1, %r2, %r1

    16c0: 4c 0a 01 41 00 70 29 04 04 01 c0 a6 10 10 04 00      	! BUNDLE
	amz_ld_and_u128 %r1, %r2, %r1
	amz_ld_or_u128 %r1, %r2, %r1
	amz_ld_xor_u128 %r1, %r2, %r1

    16d0: 7c 0a 01 41 00 30 2a 04 04 01 c0 4d 00 00 00 00      	! BUNDLE
	amz_ld_min_i128 %r1, %r2, %r1
	amz_ld_max_i128 %r1, %r2, %r1
	fence_sc

    16e0: 30 0a 01 41 00 70 13 00 00 00 40 18 10 f8 07 00      	! BUNDLE
	amx_ld_add_u128 %r1, %r2, %r1
	fence_sc
	sub_i128 %r1, %gz, %r1

    16f0: 30 0a 01 41 00 70 13 00 00 00 00 a4 10 10 04 00      	! BUNDLE
	amx_ld_add_u128 %r1, %r2, %r1
	fence_sc
	amx_ld_and_u128 %r1, %r2, %r1

    1700: dc 04 00 00 00 40 29 04 04 01 c0 4d 00 00 00 00      	! BUNDLE
	fence_sc
	amx_ld_or_u128 %r1, %r2, %r1
	fence_sc

    1710: 60 0a 01 41 00 70 13 00 00 00 00 a7 10 10 04 00      	! BUNDLE
	amx_ld_xor_u128 %r1, %r2, %r1
	fence_sc
	amx_ld_min_i128 %r1, %r2, %r1

    1720: dc 04 00 00 00 00 2a 04 04 01 00 00 00 00 08 04      	! BUNDLE
	fence_sc
	amx_ld_max_i128 %r1, %r2, %r1
	retf 0


0000000000001730 <test_atomic_load_op_u128>:
    1730: 00 00 80 c1 40 c0 28 04 04 01 40 18 10 f8 07 00      	! BUNDLE
	alloc 3
	amx_ld_add_u128 %r1, %r2, %r1
	sub_i128 %r1, %gz, %r1

    1740: 30 0a 01 41 00 00 29 04 04 01 00 a5 10 10 04 00      	! BUNDLE
	amx_ld_add_u128 %r1, %r2, %r1
	amx_ld_and_u128 %r1, %r2, %r1
	amx_ld_or_u128 %r1, %r2, %r1

    1750: 60 0a 01 41 00 40 2a 04 04 01 00 aa 10 10 04 00      	! BUNDLE
	amx_ld_xor_u128 %r1, %r2, %r1
	amx_ld_min_u128 %r1, %r2, %r1
	amx_ld_max_u128 %r1, %r2, %r1

    1760: 34 0a 01 41 00 10 06 04 fe 01 40 a3 10 10 04 00      	! BUNDLE
	amq_ld_add_u128 %r1, %r2, %r1
	sub_i128 %r1, %gz, %r1
	amq_ld_add_u128 %r1, %r2, %r1

    1770: 44 0a 01 41 00 50 29 04 04 01 40 a6 10 10 04 00      	! BUNDLE
	amq_ld_and_u128 %r1, %r2, %r1
	amq_ld_or_u128 %r1, %r2, %r1
	amq_ld_xor_u128 %r1, %r2, %r1

    1780: 94 0a 01 41 00 90 2a 04 04 01 40 a3 10 10 04 00      	! BUNDLE
	amq_ld_min_u128 %r1, %r2, %r1
	amq_ld_max_u128 %r1, %r2, %r1
	amq_ld_add_u128 %r1, %r2, %r1

    1790: 84 01 81 7f 00 d0 28 04 04 01 40 a4 10 10 04 00      	! BUNDLE
	sub_i128 %r1, %gz, %r1
	amq_ld_add_u128 %r1, %r2, %r1
	amq_ld_and_u128 %r1, %r2, %r1

    17a0: 54 0a 01 41 00 90 29 04 04 01 40 a9 10 10 04 00      	! BUNDLE
	amq_ld_or_u128 %r1, %r2, %r1
	amq_ld_xor_u128 %r1, %r2, %r1
	amq_ld_min_u128 %r1, %r2, %r1

    17b0: a4 0a 01 41 00 e0 28 04 04 01 40 18 10 f8 07 00      	! BUNDLE
	amq_ld_max_u128 %r1, %r2, %r1
	amr_ld_add_u128 %r1, %r2, %r1
	sub_i128 %r1, %gz, %r1

    17c0: 38 0a 01 41 00 20 29 04 04 01 80 a5 10 10 04 00      	! BUNDLE
	amr_ld_add_u128 %r1, %r2, %r1
	amr_ld_and_u128 %r1, %r2, %r1
	amr_ld_or_u128 %r1, %r2, %r1

    17d0: 68 0a 01 41 00 60 2a 04 04 01 80 aa 10 10 04 00      	! BUNDLE
	amr_ld_xor_u128 %r1, %r2, %r1
	amr_ld_min_u128 %r1, %r2, %r1
	amr_ld_max_u128 %r1, %r2, %r1

    17e0: 3c 0a 01 41 00 10 06 04 fe 01 c0 a3 10 10 04 00      	! BUNDLE
	amz_ld_add_u128 %r1, %r2, %r1
	sub_i128 %r1, %gz, %r1
	amz_ld_add_u128 %r1, %r2, %r1

    17f0: 4c 0a 01 41 00 70 29 04 04 01 c0 a6 10 10 04 00      	! BUNDLE
	amz_ld_and_u128 %r1, %r2, %r1
	amz_ld_or_u128 %r1, %r2, %r1
	amz_ld_xor_u128 %r1, %r2, %r1

    1800: 9c 0a 01 41 00 b0 2a 04 04 01 c0 4d 00 00 00 00      	! BUNDLE
	amz_ld_min_u128 %r1, %r2, %r1
	amz_ld_max_u128 %r1, %r2, %r1
	fence_sc

    1810: 30 0a 01 41 00 70 13 00 00 00 40 18 10 f8 07 00      	! BUNDLE
	amx_ld_add_u128 %r1, %r2, %r1
	fence_sc
	sub_i128 %r1, %gz, %r1

    1820: 30 0a 01 41 00 70 13 00 00 00 00 a4 10 10 04 00      	! BUNDLE
	amx_ld_add_u128 %r1, %r2, %r1
	fence_sc
	amx_ld_and_u128 %r1, %r2, %r1

    1830: dc 04 00 00 00 40 29 04 04 01 c0 4d 00 00 00 00      	! BUNDLE
	fence_sc
	amx_ld_or_u128 %r1, %r2, %r1
	fence_sc

    1840: 60 0a 01 41 00 70 13 00 00 00 00 a9 10 10 04 00      	! BUNDLE
	amx_ld_xor_u128 %r1, %r2, %r1
	fence_sc
	amx_ld_min_u128 %r1, %r2, %r1

    1850: dc 04 00 00 00 80 2a 04 04 01 00 00 00 00 08 04      	! BUNDLE
	fence_sc
	amx_ld_max_u128 %r1, %r2, %r1
	retf 0


0000000000001860 <test_atomic_load_op_i16>:
    1860: 00 00 80 c1 40 c0 19 04 04 01 c0 00 10 f8 07 00      	! BUNDLE
	alloc 3
	amx_ld_add_u16 %r1, %r2, %r1
	sub_i32 %r1, %gz, %r1

    1870: 70 06 01 41 00 00 1a 04 04 01 00 69 10 10 04 00      	! BUNDLE
	amx_ld_add_u16 %r1, %r2, %r1
	amx_ld_and_u16 %r1, %r2, %r1
	amx_ld_or_u16 %r1, %r2, %r1

    1880: a0 06 01 41 00 c0 1a 04 04 01 00 6c 10 10 04 00      	! BUNDLE
	amx_ld_xor_u16 %r1, %r2, %r1
	amx_ld_min_i16 %r1, %r2, %r1
	amx_ld_max_i16 %r1, %r2, %r1

    1890: 74 06 01 41 00 30 00 04 fe 01 40 67 10 10 04 00      	! BUNDLE
	amq_ld_add_u16 %r1, %r2, %r1
	sub_i32 %r1, %gz, %r1
	amq_ld_add_u16 %r1, %r2, %r1

    18a0: 84 06 01 41 00 50 1a 04 04 01 40 6a 10 10 04 00      	! BUNDLE
	amq_ld_and_u16 %r1, %r2, %r1
	amq_ld_or_u16 %r1, %r2, %r1
	amq_ld_xor_u16 %r1, %r2, %r1

    18b0: b4 06 01 41 00 10 1b 04 04 01 40 67 10 10 04 00      	! BUNDLE
	amq_ld_min_i16 %r1, %r2, %r1
	amq_ld_max_i16 %r1, %r2, %r1
	amq_ld_add_u16 %r1, %r2, %r1

    18c0: 0c 00 81 7f 00 d0 19 04 04 01 40 68 10 10 04 00      	! BUNDLE
	sub_i32 %r1, %gz, %r1
	amq_ld_add_u16 %r1, %r2, %r1
	amq_ld_and_u16 %r1, %r2, %r1

    18d0: 94 06 01 41 00 90 1a 04 04 01 40 6b 10 10 04 00      	! BUNDLE
	amq_ld_or_u16 %r1, %r2, %r1
	amq_ld_xor_u16 %r1, %r2, %r1
	amq_ld_min_i16 %r1, %r2, %r1

    18e0: c4 06 01 41 00 e0 19 04 04 01 c0 00 10 f8 07 00      	! BUNDLE
	amq_ld_max_i16 %r1, %r2, %r1
	amr_ld_add_u16 %r1, %r2, %r1
	sub_i32 %r1, %gz, %r1

    18f0: 78 06 01 41 00 20 1a 04 04 01 80 69 10 10 04 00      	! BUNDLE
	amr_ld_add_u16 %r1, %r2, %r1
	amr_ld_and_u16 %r1, %r2, %r1
	amr_ld_or_u16 %r1, %r2, %r1

    1900: a8 06 01 41 00 e0 1a 04 04 01 80 6c 10 10 04 00      	! BUNDLE
	amr_ld_xor_u16 %r1, %r2, %r1
	amr_ld_min_i16 %r1, %r2, %r1
	amr_ld_max_i16 %r1, %r2, %r1

    1910: 7c 06 01 41 00 30 00 04 fe 01 c0 67 10 10 04 00      	! BUNDLE
	amz_ld_add_u16 %r1, %r2, %r1
	sub_i32 %r1, %gz, %r1
	amz_ld_add_u16 %r1, %r2, %r1

    1920: 8c 06 01 41 00 70 1a 04 04 01 c0 6a 10 10 04 00      	! BUNDLE
	amz_ld_and_u16 %r1, %r2, %r1
	amz_ld_or_u16 %r1, %r2, %r1
	amz_ld_xor_u16 %r1, %r2, %r1

    1930: bc 06 01 41 00 30 1b 04 04 01 c0 4d 00 00 00 00      	! BUNDLE
	amz_ld_min_i16 %r1, %r2, %r1
	amz_ld_max_i16 %r1, %r2, %r1
	fence_sc

    1940: 70 06 01 41 00 70 13 00 00 00 c0 00 10 f8 07 00      	! BUNDLE
	amx_ld_add_u16 %r1, %r2, %r1
	fence_sc
	sub_i32 %r1, %gz, %r1

    1950: 70 06 01 41 00 70 13 00 00 00 00 68 10 10 04 00      	! BUNDLE
	amx_ld_add_u16 %r1, %r2, %r1
	fence_sc
	amx_ld_and_u16 %r1, %r2, %r1

    1960: dc 04 00 00 00 40 1a 04 04 01 c0 4d 00 00 00 00      	! BUNDLE
	fence_sc
	amx_ld_or_u16 %r1, %r2, %r1
	fence_sc

    1970: a0 06 01 41 00 70 13 00 00 00 00 6b 10 10 04 00      	! BUNDLE
	amx_ld_xor_u16 %r1, %r2, %r1
	fence_sc
	amx_ld_min_i16 %r1, %r2, %r1

    1980: dc 04 00 00 00 00 1b 04 04 01 80 05 06 0b 04 02      	! BUNDLE
	fence_sc
	amx_ld_max_i16 %r1, %r2, %r1
	slsra_imm_i64 %r1, %r1, 48, 48

    1990: 00 00 00 80 40 00 00 00 00 00 01 00 00 00 00 04      	! BUNDLE
	retf 0
	nop 0
	nop 0


00000000000019a0 <test_atomic_load_op_u16>:
    19a0: 00 00 80 c1 40 c0 19 04 04 01 c0 00 10 f8 07 00      	! BUNDLE
	alloc 3
	amx_ld_add_u16 %r1, %r2, %r1
	sub_i32 %r1, %gz, %r1

    19b0: 70 06 01 41 00 00 1a 04 04 01 00 69 10 10 04 00      	! BUNDLE
	amx_ld_add_u16 %r1, %r2, %r1
	amx_ld_and_u16 %r1, %r2, %r1
	amx_ld_or_u16 %r1, %r2, %r1

    19c0: a0 06 01 41 00 40 1b 04 04 01 00 6e 10 10 04 00      	! BUNDLE
	amx_ld_xor_u16 %r1, %r2, %r1
	amx_ld_min_u16 %r1, %r2, %r1
	amx_ld_max_u16 %r1, %r2, %r1

    19d0: 74 06 01 41 00 30 00 04 fe 01 40 67 10 10 04 00      	! BUNDLE
	amq_ld_add_u16 %r1, %r2, %r1
	sub_i32 %r1, %gz, %r1
	amq_ld_add_u16 %r1, %r2, %r1

    19e0: 84 06 01 41 00 50 1a 04 04 01 40 6a 10 10 04 00      	! BUNDLE
	amq_ld_and_u16 %r1, %r2, %r1
	amq_ld_or_u16 %r1, %r2, %r1
	amq_ld_xor_u16 %r1, %r2, %r1

    19f0: d4 06 01 41 00 90 1b 04 04 01 40 67 10 10 04 00      	! BUNDLE
	amq_ld_min_u16 %r1, %r2, %r1
	amq_ld_max_u16 %r1, %r2, %r1
	amq_ld_add_u16 %r1, %r2, %r1

    1a00: 0c 00 81 7f 00 d0 19 04 04 01 40 68 10 10 04 00      	! BUNDLE
	sub_i32 %r1, %gz, %r1
	amq_ld_add_u16 %r1, %r2, %r1
	amq_ld_and_u16 %r1, %r2, %r1

    1a10: 94 06 01 41 00 90 1a 04 04 01 40 6d 10 10 04 00      	! BUNDLE
	amq_ld_or_u16 %r1, %r2, %r1
	amq_ld_xor_u16 %r1, %r2, %r1
	amq_ld_min_u16 %r1, %r2, %r1

    1a20: e4 06 01 41 00 e0 19 04 04 01 c0 00 10 f8 07 00      	! BUNDLE
	amq_ld_max_u16 %r1, %r2, %r1
	amr_ld_add_u16 %r1, %r2, %r1
	sub_i32 %r1, %gz, %r1

    1a30: 78 06 01 41 00 20 1a 04 04 01 80 69 10 10 04 00      	! BUNDLE
	amr_ld_add_u16 %r1, %r2, %r1
	amr_ld_and_u16 %r1, %r2, %r1
	amr_ld_or_u16 %r1, %r2, %r1

    1a40: a8 06 01 41 00 60 1b 04 04 01 80 6e 10 10 04 00      	! BUNDLE
	amr_ld_xor_u16 %r1, %r2, %r1
	amr_ld_min_u16 %r1, %r2, %r1
	amr_ld_max_u16 %r1, %r2, %r1

    1a50: 7c 06 01 41 00 30 00 04 fe 01 c0 67 10 10 04 00      	! BUNDLE
	amz_ld_add_u16 %r1, %r2, %r1
	sub_i32 %r1, %gz, %r1
	amz_ld_add_u16 %r1, %r2, %r1

    1a60: 8c 06 01 41 00 70 1a 04 04 01 c0 6a 10 10 04 00      	! BUNDLE
	amz_ld_and_u16 %r1, %r2, %r1
	amz_ld_or_u16 %r1, %r2, %r1
	amz_ld_xor_u16 %r1, %r2, %r1

    1a70: dc 06 01 41 00 b0 1b 04 04 01 c0 4d 00 00 00 00      	! BUNDLE
	amz_ld_min_u16 %r1, %r2, %r1
	amz_ld_max_u16 %r1, %r2, %r1
	fence_sc

    1a80: 70 06 01 41 00 70 13 00 00 00 c0 00 10 f8 07 00      	! BUNDLE
	amx_ld_add_u16 %r1, %r2, %r1
	fence_sc
	sub_i32 %r1, %gz, %r1

    1a90: 70 06 01 41 00 70 13 00 00 00 00 68 10 10 04 00      	! BUNDLE
	amx_ld_add_u16 %r1, %r2, %r1
	fence_sc
	amx_ld_and_u16 %r1, %r2, %r1

    1aa0: dc 04 00 00 00 40 1a 04 04 01 c0 4d 00 00 00 00      	! BUNDLE
	fence_sc
	amx_ld_or_u16 %r1, %r2, %r1
	fence_sc

    1ab0: a0 06 01 41 00 70 13 00 00 00 00 6d 10 10 04 00      	! BUNDLE
	amx_ld_xor_u16 %r1, %r2, %r1
	fence_sc
	amx_ld_min_u16 %r1, %r2, %r1

    1ac0: dc 04 00 00 00 80 1b 04 04 01 00 00 00 00 08 04      	! BUNDLE
	fence_sc
	amx_ld_max_u16 %r1, %r2, %r1
	retf 0


0000000000001ad0 <test_atomic_load_op_i32>:
    1ad0: 00 00 80 c1 40 c0 1e 04 04 01 c0 00 10 f8 07 00      	! BUNDLE
	alloc 3
	amx_ld_add_u32 %r1, %r2, %r1
	sub_i32 %r1, %gz, %r1

    1ae0: b0 07 01 41 00 00 1f 04 04 01 00 7d 10 10 04 00      	! BUNDLE
	amx_ld_add_u32 %r1, %r2, %r1
	amx_ld_and_u32 %r1, %r2, %r1
	amx_ld_or_u32 %r1, %r2, %r1

    1af0: e0 07 01 41 00 c0 1f 04 04 01 00 80 10 10 04 00      	! BUNDLE
	amx_ld_xor_u32 %r1, %r2, %r1
	amx_ld_min_i32 %r1, %r2, %r1
	amx_ld_max_i32 %r1, %r2, %r1

    1b00: b4 07 01 41 00 30 00 04 fe 01 40 7b 10 10 04 00      	! BUNDLE
	amq_ld_add_u32 %r1, %r2, %r1
	sub_i32 %r1, %gz, %r1
	amq_ld_add_u32 %r1, %r2, %r1

    1b10: c4 07 01 41 00 50 1f 04 04 01 40 7e 10 10 04 00      	! BUNDLE
	amq_ld_and_u32 %r1, %r2, %r1
	amq_ld_or_u32 %r1, %r2, %r1
	amq_ld_xor_u32 %r1, %r2, %r1

    1b20: f4 07 01 41 00 10 20 04 04 01 40 7b 10 10 04 00      	! BUNDLE
	amq_ld_min_i32 %r1, %r2, %r1
	amq_ld_max_i32 %r1, %r2, %r1
	amq_ld_add_u32 %r1, %r2, %r1

    1b30: 0c 00 81 7f 00 d0 1e 04 04 01 40 7c 10 10 04 00      	! BUNDLE
	sub_i32 %r1, %gz, %r1
	amq_ld_add_u32 %r1, %r2, %r1
	amq_ld_and_u32 %r1, %r2, %r1

    1b40: d4 07 01 41 00 90 1f 04 04 01 40 7f 10 10 04 00      	! BUNDLE
	amq_ld_or_u32 %r1, %r2, %r1
	amq_ld_xor_u32 %r1, %r2, %r1
	amq_ld_min_i32 %r1, %r2, %r1

    1b50: 04 08 01 41 00 e0 1e 04 04 01 c0 00 10 f8 07 00      	! BUNDLE
	amq_ld_max_i32 %r1, %r2, %r1
	amr_ld_add_u32 %r1, %r2, %r1
	sub_i32 %r1, %gz, %r1

    1b60: b8 07 01 41 00 20 1f 04 04 01 80 7d 10 10 04 00      	! BUNDLE
	amr_ld_add_u32 %r1, %r2, %r1
	amr_ld_and_u32 %r1, %r2, %r1
	amr_ld_or_u32 %r1, %r2, %r1

    1b70: e8 07 01 41 00 e0 1f 04 04 01 80 80 10 10 04 00      	! BUNDLE
	amr_ld_xor_u32 %r1, %r2, %r1
	amr_ld_min_i32 %r1, %r2, %r1
	amr_ld_max_i32 %r1, %r2, %r1

    1b80: bc 07 01 41 00 30 00 04 fe 01 c0 7b 10 10 04 00      	! BUNDLE
	amz_ld_add_u32 %r1, %r2, %r1
	sub_i32 %r1, %gz, %r1
	amz_ld_add_u32 %r1, %r2, %r1

    1b90: cc 07 01 41 00 70 1f 04 04 01 c0 7e 10 10 04 00      	! BUNDLE
	amz_ld_and_u32 %r1, %r2, %r1
	amz_ld_or_u32 %r1, %r2, %r1
	amz_ld_xor_u32 %r1, %r2, %r1

    1ba0: fc 07 01 41 00 30 20 04 04 01 c0 4d 00 00 00 00      	! BUNDLE
	amz_ld_min_i32 %r1, %r2, %r1
	amz_ld_max_i32 %r1, %r2, %r1
	fence_sc

    1bb0: b0 07 01 41 00 70 13 00 00 00 c0 00 10 f8 07 00      	! BUNDLE
	amx_ld_add_u32 %r1, %r2, %r1
	fence_sc
	sub_i32 %r1, %gz, %r1

    1bc0: b0 07 01 41 00 70 13 00 00 00 00 7c 10 10 04 00      	! BUNDLE
	amx_ld_add_u32 %r1, %r2, %r1
	fence_sc
	amx_ld_and_u32 %r1, %r2, %r1

    1bd0: dc 04 00 00 00 40 1f 04 04 01 c0 4d 00 00 00 00      	! BUNDLE
	fence_sc
	amx_ld_or_u32 %r1, %r2, %r1
	fence_sc

    1be0: e0 07 01 41 00 70 13 00 00 00 00 7f 10 10 04 00      	! BUNDLE
	amx_ld_xor_u32 %r1, %r2, %r1
	fence_sc
	amx_ld_min_i32 %r1, %r2, %r1

    1bf0: dc 04 00 00 00 00 20 04 04 01 00 00 00 00 08 04      	! BUNDLE
	fence_sc
	amx_ld_max_i32 %r1, %r2, %r1
	retf 0


0000000000001c00 <test_atomic_load_op_u32>:
    1c00: 00 00 80 c1 40 c0 1e 04 04 01 c0 00 10 f8 07 00      	! BUNDLE
	alloc 3
	amx_ld_add_u32 %r1, %r2, %r1
	sub_i32 %r1, %gz, %r1

    1c10: b0 07 01 41 00 00 1f 04 04 01 00 7d 10 10 04 00      	! BUNDLE
	amx_ld_add_u32 %r1, %r2, %r1
	amx_ld_and_u32 %r1, %r2, %r1
	amx_ld_or_u32 %r1, %r2, %r1

    1c20: e0 07 01 41 00 40 20 04 04 01 00 82 10 10 04 00      	! BUNDLE
	amx_ld_xor_u32 %r1, %r2, %r1
	amx_ld_min_u32 %r1, %r2, %r1
	amx_ld_max_u32 %r1, %r2, %r1

    1c30: b4 07 01 41 00 30 00 04 fe 01 40 7b 10 10 04 00      	! BUNDLE
	amq_ld_add_u32 %r1, %r2, %r1
	sub_i32 %r1, %gz, %r1
	amq_ld_add_u32 %r1, %r2, %r1

    1c40: c4 07 01 41 00 50 1f 04 04 01 40 7e 10 10 04 00      	! BUNDLE
	amq_ld_and_u32 %r1, %r2, %r1
	amq_ld_or_u32 %r1, %r2, %r1
	amq_ld_xor_u32 %r1, %r2, %r1

    1c50: 14 08 01 41 00 90 20 04 04 01 40 7b 10 10 04 00      	! BUNDLE
	amq_ld_min_u32 %r1, %r2, %r1
	amq_ld_max_u32 %r1, %r2, %r1
	amq_ld_add_u32 %r1, %r2, %r1

    1c60: 0c 00 81 7f 00 d0 1e 04 04 01 40 7c 10 10 04 00      	! BUNDLE
	sub_i32 %r1, %gz, %r1
	amq_ld_add_u32 %r1, %r2, %r1
	amq_ld_and_u32 %r1, %r2, %r1

    1c70: d4 07 01 41 00 90 1f 04 04 01 40 81 10 10 04 00      	! BUNDLE
	amq_ld_or_u32 %r1, %r2, %r1
	amq_ld_xor_u32 %r1, %r2, %r1
	amq_ld_min_u32 %r1, %r2, %r1

    1c80: 24 08 01 41 00 e0 1e 04 04 01 c0 00 10 f8 07 00      	! BUNDLE
	amq_ld_max_u32 %r1, %r2, %r1
	amr_ld_add_u32 %r1, %r2, %r1
	sub_i32 %r1, %gz, %r1

    1c90: b8 07 01 41 00 20 1f 04 04 01 80 7d 10 10 04 00      	! BUNDLE
	amr_ld_add_u32 %r1, %r2, %r1
	amr_ld_and_u32 %r1, %r2, %r1
	amr_ld_or_u32 %r1, %r2, %r1

    1ca0: e8 07 01 41 00 60 20 04 04 01 80 82 10 10 04 00      	! BUNDLE
	amr_ld_xor_u32 %r1, %r2, %r1
	amr_ld_min_u32 %r1, %r2, %r1
	amr_ld_max_u32 %r1, %r2, %r1

    1cb0: bc 07 01 41 00 30 00 04 fe 01 c0 7b 10 10 04 00      	! BUNDLE
	amz_ld_add_u32 %r1, %r2, %r1
	sub_i32 %r1, %gz, %r1
	amz_ld_add_u32 %r1, %r2, %r1

    1cc0: cc 07 01 41 00 70 1f 04 04 01 c0 7e 10 10 04 00      	! BUNDLE
	amz_ld_and_u32 %r1, %r2, %r1
	amz_ld_or_u32 %r1, %r2, %r1
	amz_ld_xor_u32 %r1, %r2, %r1

    1cd0: 1c 08 01 41 00 b0 20 04 04 01 c0 4d 00 00 00 00      	! BUNDLE
	amz_ld_min_u32 %r1, %r2, %r1
	amz_ld_max_u32 %r1, %r2, %r1
	fence_sc

    1ce0: b0 07 01 41 00 70 13 00 00 00 c0 00 10 f8 07 00      	! BUNDLE
	amx_ld_add_u32 %r1, %r2, %r1
	fence_sc
	sub_i32 %r1, %gz, %r1

    1cf0: b0 07 01 41 00 70 13 00 00 00 00 7c 10 10 04 00      	! BUNDLE
	amx_ld_add_u32 %r1, %r2, %r1
	fence_sc
	amx_ld_and_u32 %r1, %r2, %r1

    1d00: dc 04 00 00 00 40 1f 04 04 01 c0 4d 00 00 00 00      	! BUNDLE
	fence_sc
	amx_ld_or_u32 %r1, %r2, %r1
	fence_sc

    1d10: e0 07 01 41 00 70 13 00 00 00 00 81 10 10 04 00      	! BUNDLE
	amx_ld_xor_u32 %r1, %r2, %r1
	fence_sc
	amx_ld_min_u32 %r1, %r2, %r1

    1d20: dc 04 00 00 00 80 20 04 04 01 00 00 00 00 08 04      	! BUNDLE
	fence_sc
	amx_ld_max_u32 %r1, %r2, %r1
	retf 0


0000000000001d30 <test_atomic_load_op_i64>:
    1d30: 00 00 80 c1 40 c0 23 04 04 01 40 08 10 f8 07 00      	! BUNDLE
	alloc 3
	amx_ld_add_u64 %r1, %r2, %r1
	sub_i64 %r1, %gz, %r1

    1d40: f0 08 01 41 00 00 24 04 04 01 00 91 10 10 04 00      	! BUNDLE
	amx_ld_add_u64 %r1, %r2, %r1
	amx_ld_and_u64 %r1, %r2, %r1
	amx_ld_or_u64 %r1, %r2, %r1

    1d50: 20 09 01 41 00 c0 24 04 04 01 00 94 10 10 04 00      	! BUNDLE
	amx_ld_xor_u64 %r1, %r2, %r1
	amx_ld_min_i64 %r1, %r2, %r1
	amx_ld_max_i64 %r1, %r2, %r1

    1d60: f4 08 01 41 00 10 02 04 fe 01 40 8f 10 10 04 00      	! BUNDLE
	amq_ld_add_u64 %r1, %r2, %r1
	sub_i64 %r1, %gz, %r1
	amq_ld_add_u64 %r1, %r2, %r1

    1d70: 04 09 01 41 00 50 24 04 04 01 40 92 10 10 04 00      	! BUNDLE
	amq_ld_and_u64 %r1, %r2, %r1
	amq_ld_or_u64 %r1, %r2, %r1
	amq_ld_xor_u64 %r1, %r2, %r1

    1d80: 34 09 01 41 00 10 25 04 04 01 40 8f 10 10 04 00      	! BUNDLE
	amq_ld_min_i64 %r1, %r2, %r1
	amq_ld_max_i64 %r1, %r2, %r1
	amq_ld_add_u64 %r1, %r2, %r1

    1d90: 84 00 81 7f 00 d0 23 04 04 01 40 90 10 10 04 00      	! BUNDLE
	sub_i64 %r1, %gz, %r1
	amq_ld_add_u64 %r1, %r2, %r1
	amq_ld_and_u64 %r1, %r2, %r1

    1da0: 14 09 01 41 00 90 24 04 04 01 40 93 10 10 04 00      	! BUNDLE
	amq_ld_or_u64 %r1, %r2, %r1
	amq_ld_xor_u64 %r1, %r2, %r1
	amq_ld_min_i64 %r1, %r2, %r1

    1db0: 44 09 01 41 00 e0 23 04 04 01 40 08 10 f8 07 00      	! BUNDLE
	amq_ld_max_i64 %r1, %r2, %r1
	amr_ld_add_u64 %r1, %r2, %r1
	sub_i64 %r1, %gz, %r1

    1dc0: f8 08 01 41 00 20 24 04 04 01 80 91 10 10 04 00      	! BUNDLE
	amr_ld_add_u64 %r1, %r2, %r1
	amr_ld_and_u64 %r1, %r2, %r1
	amr_ld_or_u64 %r1, %r2, %r1

    1dd0: 28 09 01 41 00 e0 24 04 04 01 80 94 10 10 04 00      	! BUNDLE
	amr_ld_xor_u64 %r1, %r2, %r1
	amr_ld_min_i64 %r1, %r2, %r1
	amr_ld_max_i64 %r1, %r2, %r1

    1de0: fc 08 01 41 00 10 02 04 fe 01 c0 8f 10 10 04 00      	! BUNDLE
	amz_ld_add_u64 %r1, %r2, %r1
	sub_i64 %r1, %gz, %r1
	amz_ld_add_u64 %r1, %r2, %r1

    1df0: 0c 09 01 41 00 70 24 04 04 01 c0 92 10 10 04 00      	! BUNDLE
	amz_ld_and_u64 %r1, %r2, %r1
	amz_ld_or_u64 %r1, %r2, %r1
	amz_ld_xor_u64 %r1, %r2, %r1

    1e00: 3c 09 01 41 00 30 25 04 04 01 c0 4d 00 00 00 00      	! BUNDLE
	amz_ld_min_i64 %r1, %r2, %r1
	amz_ld_max_i64 %r1, %r2, %r1
	fence_sc

    1e10: f0 08 01 41 00 70 13 00 00 00 40 08 10 f8 07 00      	! BUNDLE
	amx_ld_add_u64 %r1, %r2, %r1
	fence_sc
	sub_i64 %r1, %gz, %r1

    1e20: f0 08 01 41 00 70 13 00 00 00 00 90 10 10 04 00      	! BUNDLE
	amx_ld_add_u64 %r1, %r2, %r1
	fence_sc
	amx_ld_and_u64 %r1, %r2, %r1

    1e30: dc 04 00 00 00 40 24 04 04 01 c0 4d 00 00 00 00      	! BUNDLE
	fence_sc
	amx_ld_or_u64 %r1, %r2, %r1
	fence_sc

    1e40: 20 09 01 41 00 70 13 00 00 00 00 93 10 10 04 00      	! BUNDLE
	amx_ld_xor_u64 %r1, %r2, %r1
	fence_sc
	amx_ld_min_i64 %r1, %r2, %r1

    1e50: dc 04 00 00 00 00 25 04 04 01 00 00 00 00 08 04      	! BUNDLE
	fence_sc
	amx_ld_max_i64 %r1, %r2, %r1
	retf 0


0000000000001e60 <test_atomic_load_op_u64>:
    1e60: 00 00 80 c1 40 c0 23 04 04 01 40 08 10 f8 07 00      	! BUNDLE
	alloc 3
	amx_ld_add_u64 %r1, %r2, %r1
	sub_i64 %r1, %gz, %r1

    1e70: f0 08 01 41 00 00 24 04 04 01 00 91 10 10 04 00      	! BUNDLE
	amx_ld_add_u64 %r1, %r2, %r1
	amx_ld_and_u64 %r1, %r2, %r1
	amx_ld_or_u64 %r1, %r2, %r1

    1e80: 20 09 01 41 00 40 25 04 04 01 00 96 10 10 04 00      	! BUNDLE
	amx_ld_xor_u64 %r1, %r2, %r1
	amx_ld_min_u64 %r1, %r2, %r1
	amx_ld_max_u64 %r1, %r2, %r1

    1e90: f4 08 01 41 00 10 02 04 fe 01 40 8f 10 10 04 00      	! BUNDLE
	amq_ld_add_u64 %r1, %r2, %r1
	sub_i64 %r1, %gz, %r1
	amq_ld_add_u64 %r1, %r2, %r1

    1ea0: 04 09 01 41 00 50 24 04 04 01 40 92 10 10 04 00      	! BUNDLE
	amq_ld_and_u64 %r1, %r2, %r1
	amq_ld_or_u64 %r1, %r2, %r1
	amq_ld_xor_u64 %r1, %r2, %r1

    1eb0: 54 09 01 41 00 90 25 04 04 01 40 8f 10 10 04 00      	! BUNDLE
	amq_ld_min_u64 %r1, %r2, %r1
	amq_ld_max_u64 %r1, %r2, %r1
	amq_ld_add_u64 %r1, %r2, %r1

    1ec0: 84 00 81 7f 00 d0 23 04 04 01 40 90 10 10 04 00      	! BUNDLE
	sub_i64 %r1, %gz, %r1
	amq_ld_add_u64 %r1, %r2, %r1
	amq_ld_and_u64 %r1, %r2, %r1

    1ed0: 14 09 01 41 00 90 24 04 04 01 40 95 10 10 04 00      	! BUNDLE
	amq_ld_or_u64 %r1, %r2, %r1
	amq_ld_xor_u64 %r1, %r2, %r1
	amq_ld_min_u64 %r1, %r2, %r1

    1ee0: 64 09 01 41 00 e0 23 04 04 01 40 08 10 f8 07 00      	! BUNDLE
	amq_ld_max_u64 %r1, %r2, %r1
	amr_ld_add_u64 %r1, %r2, %r1
	sub_i64 %r1, %gz, %r1

    1ef0: f8 08 01 41 00 20 24 04 04 01 80 91 10 10 04 00      	! BUNDLE
	amr_ld_add_u64 %r1, %r2, %r1
	amr_ld_and_u64 %r1, %r2, %r1
	amr_ld_or_u64 %r1, %r2, %r1

    1f00: 28 09 01 41 00 60 25 04 04 01 80 96 10 10 04 00      	! BUNDLE
	amr_ld_xor_u64 %r1, %r2, %r1
	amr_ld_min_u64 %r1, %r2, %r1
	amr_ld_max_u64 %r1, %r2, %r1

    1f10: fc 08 01 41 00 10 02 04 fe 01 c0 8f 10 10 04 00      	! BUNDLE
	amz_ld_add_u64 %r1, %r2, %r1
	sub_i64 %r1, %gz, %r1
	amz_ld_add_u64 %r1, %r2, %r1

    1f20: 0c 09 01 41 00 70 24 04 04 01 c0 92 10 10 04 00      	! BUNDLE
	amz_ld_and_u64 %r1, %r2, %r1
	amz_ld_or_u64 %r1, %r2, %r1
	amz_ld_xor_u64 %r1, %r2, %r1

    1f30: 5c 09 01 41 00 b0 25 04 04 01 c0 4d 00 00 00 00      	! BUNDLE
	amz_ld_min_u64 %r1, %r2, %r1
	amz_ld_max_u64 %r1, %r2, %r1
	fence_sc

    1f40: f0 08 01 41 00 70 13 00 00 00 40 08 10 f8 07 00      	! BUNDLE
	amx_ld_add_u64 %r1, %r2, %r1
	fence_sc
	sub_i64 %r1, %gz, %r1

    1f50: f0 08 01 41 00 70 13 00 00 00 00 90 10 10 04 00      	! BUNDLE
	amx_ld_add_u64 %r1, %r2, %r1
	fence_sc
	amx_ld_and_u64 %r1, %r2, %r1

    1f60: dc 04 00 00 00 40 24 04 04 01 c0 4d 00 00 00 00      	! BUNDLE
	fence_sc
	amx_ld_or_u64 %r1, %r2, %r1
	fence_sc

    1f70: 20 09 01 41 00 70 13 00 00 00 00 95 10 10 04 00      	! BUNDLE
	amx_ld_xor_u64 %r1, %r2, %r1
	fence_sc
	amx_ld_min_u64 %r1, %r2, %r1

    1f80: dc 04 00 00 00 80 25 04 04 01 00 00 00 00 08 04      	! BUNDLE
	fence_sc
	amx_ld_max_u64 %r1, %r2, %r1
	retf 0


0000000000001f90 <test_atomic_load_op_i8>:
    1f90: 00 00 80 c1 40 c0 14 04 04 01 c0 00 10 f8 07 00      	! BUNDLE
	alloc 3
	amx_ld_add_u8 %r1, %r2, %r1
	sub_i32 %r1, %gz, %r1

    1fa0: 30 05 01 41 00 00 15 04 04 01 00 55 10 10 04 00      	! BUNDLE
	amx_ld_add_u8 %r1, %r2, %r1
	amx_ld_and_u8 %r1, %r2, %r1
	amx_ld_or_u8 %r1, %r2, %r1

    1fb0: 60 05 01 41 00 c0 15 04 04 01 00 58 10 10 04 00      	! BUNDLE
	amx_ld_xor_u8 %r1, %r2, %r1
	amx_ld_min_i8 %r1, %r2, %r1
	amx_ld_max_i8 %r1, %r2, %r1

    1fc0: 34 05 01 41 00 30 00 04 fe 01 40 53 10 10 04 00      	! BUNDLE
	amq_ld_add_u8 %r1, %r2, %r1
	sub_i32 %r1, %gz, %r1
	amq_ld_add_u8 %r1, %r2, %r1

    1fd0: 44 05 01 41 00 50 15 04 04 01 40 56 10 10 04 00      	! BUNDLE
	amq_ld_and_u8 %r1, %r2, %r1
	amq_ld_or_u8 %r1, %r2, %r1
	amq_ld_xor_u8 %r1, %r2, %r1

    1fe0: 74 05 01 41 00 10 16 04 04 01 40 53 10 10 04 00      	! BUNDLE
	amq_ld_min_i8 %r1, %r2, %r1
	amq_ld_max_i8 %r1, %r2, %r1
	amq_ld_add_u8 %r1, %r2, %r1

    1ff0: 0c 00 81 7f 00 d0 14 04 04 01 40 54 10 10 04 00      	! BUNDLE
	sub_i32 %r1, %gz, %r1
	amq_ld_add_u8 %r1, %r2, %r1
	amq_ld_and_u8 %r1, %r2, %r1

    2000: 54 05 01 41 00 90 15 04 04 01 40 57 10 10 04 00      	! BUNDLE
	amq_ld_or_u8 %r1, %r2, %r1
	amq_ld_xor_u8 %r1, %r2, %r1
	amq_ld_min_i8 %r1, %r2, %r1

    2010: 84 05 01 41 00 e0 14 04 04 01 c0 00 10 f8 07 00      	! BUNDLE
	amq_ld_max_i8 %r1, %r2, %r1
	amr_ld_add_u8 %r1, %r2, %r1
	sub_i32 %r1, %gz, %r1

    2020: 38 05 01 41 00 20 15 04 04 01 80 55 10 10 04 00      	! BUNDLE
	amr_ld_add_u8 %r1, %r2, %r1
	amr_ld_and_u8 %r1, %r2, %r1
	amr_ld_or_u8 %r1, %r2, %r1

    2030: 68 05 01 41 00 e0 15 04 04 01 80 58 10 10 04 00      	! BUNDLE
	amr_ld_xor_u8 %r1, %r2, %r1
	amr_ld_min_i8 %r1, %r2, %r1
	amr_ld_max_i8 %r1, %r2, %r1

    2040: 3c 05 01 41 00 30 00 04 fe 01 c0 53 10 10 04 00      	! BUNDLE
	amz_ld_add_u8 %r1, %r2, %r1
	sub_i32 %r1, %gz, %r1
	amz_ld_add_u8 %r1, %r2, %r1

    2050: 4c 05 01 41 00 70 15 04 04 01 c0 56 10 10 04 00      	! BUNDLE
	amz_ld_and_u8 %r1, %r2, %r1
	amz_ld_or_u8 %r1, %r2, %r1
	amz_ld_xor_u8 %r1, %r2, %r1

    2060: 7c 05 01 41 00 30 16 04 04 01 c0 4d 00 00 00 00      	! BUNDLE
	amz_ld_min_i8 %r1, %r2, %r1
	amz_ld_max_i8 %r1, %r2, %r1
	fence_sc

    2070: 30 05 01 41 00 70 13 00 00 00 c0 00 10 f8 07 00      	! BUNDLE
	amx_ld_add_u8 %r1, %r2, %r1
	fence_sc
	sub_i32 %r1, %gz, %r1

    2080: 30 05 01 41 00 70 13 00 00 00 00 54 10 10 04 00      	! BUNDLE
	amx_ld_add_u8 %r1, %r2, %r1
	fence_sc
	amx_ld_and_u8 %r1, %r2, %r1

    2090: dc 04 00 00 00 40 15 04 04 01 c0 4d 00 00 00 00      	! BUNDLE
	fence_sc
	amx_ld_or_u8 %r1, %r2, %r1
	fence_sc

    20a0: 60 05 01 41 00 70 13 00 00 00 00 57 10 10 04 00      	! BUNDLE
	amx_ld_xor_u8 %r1, %r2, %r1
	fence_sc
	amx_ld_min_i8 %r1, %r2, %r1

    20b0: dc 04 00 00 00 00 16 04 04 01 80 05 87 0b 04 02      	! BUNDLE
	fence_sc
	amx_ld_max_i8 %r1, %r2, %r1
	slsra_imm_i64 %r1, %r1, 56, 56

    20c0: 00 00 00 80 40 00 00 00 00 00 01 00 00 00 00 04      	! BUNDLE
	retf 0
	nop 0
	nop 0


00000000000020d0 <test_atomic_load_op_u8>:
    20d0: 00 00 80 c1 40 c0 14 04 04 01 c0 00 10 f8 07 00      	! BUNDLE
	alloc 3
	amx_ld_add_u8 %r1, %r2, %r1
	sub_i32 %r1, %gz, %r1

    20e0: 30 05 01 41 00 00 15 04 04 01 00 55 10 10 04 00      	! BUNDLE
	amx_ld_add_u8 %r1, %r2, %r1
	amx_ld_and_u8 %r1, %r2, %r1
	amx_ld_or_u8 %r1, %r2, %r1

    20f0: 60 05 01 41 00 40 16 04 04 01 00 5a 10 10 04 00      	! BUNDLE
	amx_ld_xor_u8 %r1, %r2, %r1
	amx_ld_min_u8 %r1, %r2, %r1
	amx_ld_max_u8 %r1, %r2, %r1

    2100: 34 05 01 41 00 30 00 04 fe 01 40 53 10 10 04 00      	! BUNDLE
	amq_ld_add_u8 %r1, %r2, %r1
	sub_i32 %r1, %gz, %r1
	amq_ld_add_u8 %r1, %r2, %r1

    2110: 44 05 01 41 00 50 15 04 04 01 40 56 10 10 04 00      	! BUNDLE
	amq_ld_and_u8 %r1, %r2, %r1
	amq_ld_or_u8 %r1, %r2, %r1
	amq_ld_xor_u8 %r1, %r2, %r1

    2120: 94 05 01 41 00 90 16 04 04 01 40 53 10 10 04 00      	! BUNDLE
	amq_ld_min_u8 %r1, %r2, %r1
	amq_ld_max_u8 %r1, %r2, %r1
	amq_ld_add_u8 %r1, %r2, %r1

    2130: 0c 00 81 7f 00 d0 14 04 04 01 40 54 10 10 04 00      	! BUNDLE
	sub_i32 %r1, %gz, %r1
	amq_ld_add_u8 %r1, %r2, %r1
	amq_ld_and_u8 %r1, %r2, %r1

    2140: 54 05 01 41 00 90 15 04 04 01 40 59 10 10 04 00      	! BUNDLE
	amq_ld_or_u8 %r1, %r2, %r1
	amq_ld_xor_u8 %r1, %r2, %r1
	amq_ld_min_u8 %r1, %r2, %r1

    2150: a4 05 01 41 00 e0 14 04 04 01 c0 00 10 f8 07 00      	! BUNDLE
	amq_ld_max_u8 %r1, %r2, %r1
	amr_ld_add_u8 %r1, %r2, %r1
	sub_i32 %r1, %gz, %r1

    2160: 38 05 01 41 00 20 15 04 04 01 80 55 10 10 04 00      	! BUNDLE
	amr_ld_add_u8 %r1, %r2, %r1
	amr_ld_and_u8 %r1, %r2, %r1
	amr_ld_or_u8 %r1, %r2, %r1

    2170: 68 05 01 41 00 60 16 04 04 01 80 5a 10 10 04 00      	! BUNDLE
	amr_ld_xor_u8 %r1, %r2, %r1
	amr_ld_min_u8 %r1, %r2, %r1
	amr_ld_max_u8 %r1, %r2, %r1

    2180: 3c 05 01 41 00 30 00 04 fe 01 c0 53 10 10 04 00      	! BUNDLE
	amz_ld_add_u8 %r1, %r2, %r1
	sub_i32 %r1, %gz, %r1
	amz_ld_add_u8 %r1, %r2, %r1

    2190: 4c 05 01 41 00 70 15 04 04 01 c0 56 10 10 04 00      	! BUNDLE
	amz_ld_and_u8 %r1, %r2, %r1
	amz_ld_or_u8 %r1, %r2, %r1
	amz_ld_xor_u8 %r1, %r2, %r1

    21a0: 9c 05 01 41 00 b0 16 04 04 01 c0 4d 00 00 00 00      	! BUNDLE
	amz_ld_min_u8 %r1, %r2, %r1
	amz_ld_max_u8 %r1, %r2, %r1
	fence_sc

    21b0: 30 05 01 41 00 70 13 00 00 00 c0 00 10 f8 07 00      	! BUNDLE
	amx_ld_add_u8 %r1, %r2, %r1
	fence_sc
	sub_i32 %r1, %gz, %r1

    21c0: 30 05 01 41 00 70 13 00 00 00 00 54 10 10 04 00      	! BUNDLE
	amx_ld_add_u8 %r1, %r2, %r1
	fence_sc
	amx_ld_and_u8 %r1, %r2, %r1

    21d0: dc 04 00 00 00 40 15 04 04 01 c0 4d 00 00 00 00      	! BUNDLE
	fence_sc
	amx_ld_or_u8 %r1, %r2, %r1
	fence_sc

    21e0: 60 05 01 41 00 70 13 00 00 00 00 59 10 10 04 00      	! BUNDLE
	amx_ld_xor_u8 %r1, %r2, %r1
	fence_sc
	amx_ld_min_u8 %r1, %r2, %r1

    21f0: dc 04 00 00 00 80 16 04 04 01 00 00 00 00 08 04      	! BUNDLE
	fence_sc
	amx_ld_max_u8 %r1, %r2, %r1
	retf 0


0000000000002200 <test_atomic_store_i8>:
    2200: 00 00 80 c2 40 20 14 00 02 04 c0 50 00 10 10 00      	! BUNDLE
	alloc 5
	amx_st_i8 %r4, %r1
	amr_st_i8 %r4, %r2

    2210: dc 04 00 00 00 20 14 00 06 04 00 00 00 00 08 04      	! BUNDLE
	fence_sc
	amx_st_i8 %r4, %r3
	retf 0


0000000000002220 <test_atomic_store_i16>:
    2220: 00 00 80 c2 40 20 19 00 02 04 c0 64 00 10 10 00      	! BUNDLE
	alloc 5
	amx_st_i16 %r4, %r1
	amr_st_i16 %r4, %r2

    2230: dc 04 00 00 00 20 19 00 06 04 00 00 00 00 08 04      	! BUNDLE
	fence_sc
	amx_st_i16 %r4, %r3
	retf 0


0000000000002240 <test_atomic_store_i32>:
    2240: 00 00 80 c2 40 20 1e 00 02 04 c0 78 00 10 10 00      	! BUNDLE
	alloc 5
	amx_st_i32 %r4, %r1
	amr_st_i32 %r4, %r2

    2250: dc 04 00 00 00 20 1e 00 06 04 00 00 00 00 08 04      	! BUNDLE
	fence_sc
	amx_st_i32 %r4, %r3
	retf 0


0000000000002260 <test_atomic_store_i64>:
    2260: 00 00 80 c2 40 20 23 00 02 04 c0 8c 00 10 10 00      	! BUNDLE
	alloc 5
	amx_st_i64 %r4, %r1
	amr_st_i64 %r4, %r2

    2270: dc 04 00 00 00 20 23 00 06 04 00 00 00 00 08 04      	! BUNDLE
	fence_sc
	amx_st_i64 %r4, %r3
	retf 0


0000000000002280 <test_atomic_store_i128>:
    2280: 00 00 80 c2 40 20 28 00 02 04 c0 a0 00 10 10 00      	! BUNDLE
	alloc 5
	amx_st_i128 %r4, %r1
	amr_st_i128 %r4, %r2

    2290: dc 04 00 00 00 20 28 00 06 04 00 00 00 00 08 04      	! BUNDLE
	fence_sc
	amx_st_i128 %r4, %r3
	retf 0


00000000000022a0 <test_bit_clear_i32>:
    22a0: 00 00 80 c1 40 c0 06 08 02 01 00 00 00 00 08 04      	! BUNDLE
	alloc 3
	bit_clear %r1, %r1, %r2
	retf 0


00000000000022b0 <test_bit_clear_imm_i32>:
    22b0: 00 00 00 c1 40 d0 06 50 02 01 00 00 00 00 08 04      	! BUNDLE
	alloc 2
	bit_clear_imm %r1, %r1, 20
	retf 0


00000000000022c0 <test_bit_clear_i64_i32>:
    22c0: 00 00 80 c1 40 c0 06 08 02 01 00 00 00 00 08 04      	! BUNDLE
	alloc 3
	bit_clear %r1, %r1, %r2
	retf 0


00000000000022d0 <test_bit_clear_i64_i64>:
    22d0: 00 00 80 c1 40 c0 06 08 02 01 00 00 00 00 08 04      	! BUNDLE
	alloc 3
	bit_clear %r1, %r1, %r2
	retf 0


00000000000022e0 <test_bit_clear_imm_i64>:
    22e0: 00 00 00 c1 40 d0 06 78 02 01 00 00 00 00 08 04      	! BUNDLE
	alloc 2
	bit_clear_imm %r1, %r1, 30
	retf 0


00000000000022f0 <test_bit_flip_i32>:
    22f0: 00 00 80 c1 40 00 07 08 02 01 00 00 00 00 08 04      	! BUNDLE
	alloc 3
	bit_flip %r1, %r1, %r2
	retf 0


0000000000002300 <test_bit_flip_imm_i32>:
    2300: 00 00 00 c1 40 10 07 50 02 01 00 00 00 00 08 04      	! BUNDLE
	alloc 2
	bit_flip_imm %r1, %r1, 20
	retf 0


0000000000002310 <test_bit_flip_i64_i32>:
    2310: 00 00 80 c1 40 00 07 08 02 01 00 00 00 00 08 04      	! BUNDLE
	alloc 3
	bit_flip %r1, %r1, %r2
	retf 0


0000000000002320 <test_bit_flip_i64_i64>:
    2320: 00 00 80 c1 40 00 07 08 02 01 00 00 00 00 08 04      	! BUNDLE
	alloc 3
	bit_flip %r1, %r1, %r2
	retf 0


0000000000002330 <test_bit_flip_imm_i64>:
    2330: 00 00 00 c1 40 10 07 78 02 01 00 00 00 00 08 04      	! BUNDLE
	alloc 2
	bit_flip_imm %r1, %r1, 30
	retf 0


0000000000002340 <test_bit_flip_i128_i32>:
    2340: 00 00 80 c1 40 00 07 08 02 01 00 00 00 00 08 04      	! BUNDLE
	alloc 3
	bit_flip %r1, %r1, %r2
	retf 0


0000000000002350 <test_bit_flip_i128_i64>:
    2350: 00 00 80 c1 40 00 07 08 02 01 00 00 00 00 08 04      	! BUNDLE
	alloc 3
	bit_flip %r1, %r1, %r2
	retf 0


0000000000002360 <test_bit_flip_imm_i128>:
    2360: 00 00 00 c1 40 10 07 a0 02 01 00 00 00 00 08 04      	! BUNDLE
	alloc 2
	bit_flip_imm %r1, %r1, 40
	retf 0


0000000000002370 <test_bit_set_i32>:
    2370: 00 00 80 c1 40 e0 06 08 02 01 00 00 00 00 08 04      	! BUNDLE
	alloc 3
	bit_set %r1, %r1, %r2
	retf 0


0000000000002380 <test_bit_set_imm_i32>:
    2380: 00 00 00 c1 40 f0 06 50 02 01 00 00 00 00 08 04      	! BUNDLE
	alloc 2
	bit_set_imm %r1, %r1, 20
	retf 0


0000000000002390 <test_bit_set_i64_i32>:
    2390: 00 00 80 c1 40 e0 06 08 02 01 00 00 00 00 08 04      	! BUNDLE
	alloc 3
	bit_set %r1, %r1, %r2
	retf 0


00000000000023a0 <test_bit_set_i64_i64>:
    23a0: 00 00 80 c1 40 e0 06 08 02 01 00 00 00 00 08 04      	! BUNDLE
	alloc 3
	bit_set %r1, %r1, %r2
	retf 0


00000000000023b0 <test_bit_set_imm_i64>:
    23b0: 00 00 00 c1 40 f0 06 78 02 01 00 00 00 00 08 04      	! BUNDLE
	alloc 2
	bit_set_imm %r1, %r1, 30
	retf 0


00000000000023c0 <test_bit_set_i128_i32>:
    23c0: 00 00 80 c1 40 e0 06 08 02 01 00 00 00 00 08 04      	! BUNDLE
	alloc 3
	bit_set %r1, %r1, %r2
	retf 0


00000000000023d0 <test_bit_set_i128_i64>:
    23d0: 00 00 80 c1 40 e0 06 08 02 01 00 00 00 00 08 04      	! BUNDLE
	alloc 3
	bit_set %r1, %r1, %r2
	retf 0


00000000000023e0 <test_bit_set_imm_i128>:
    23e0: 00 00 00 c1 40 f0 06 a0 02 01 00 00 00 00 08 04      	! BUNDLE
	alloc 2
	bit_set_imm %r1, %r1, 40
	retf 0


00000000000023f0 <test_i32_inv>:
    23f0: 00 00 00 c1 40 70 05 00 02 01 00 00 00 00 08 04      	! BUNDLE
	alloc 2
	not %r1, %r1
	retf 0


0000000000002400 <test_i64_inv>:
    2400: 00 00 00 c1 40 70 05 00 02 01 00 00 00 00 08 04      	! BUNDLE
	alloc 2
	not %r1, %r1
	retf 0


0000000000002410 <test_i128_inv>:
    2410: 00 00 00 c1 40 70 05 00 02 01 00 00 00 00 08 04      	! BUNDLE
	alloc 2
	not %r1, %r1
	retf 0


0000000000002420 <test_i32_and>:
    2420: 00 00 80 c1 40 80 01 04 04 01 00 00 00 00 08 04      	! BUNDLE
	alloc 3
	and %r1, %r2, %r1
	retf 0


0000000000002430 <test_i64_and>:
    2430: 00 00 80 c1 40 80 01 04 04 01 00 00 00 00 08 04      	! BUNDLE
	alloc 3
	and %r1, %r2, %r1
	retf 0


0000000000002440 <test_i128_and>:
    2440: 00 00 80 c1 40 80 01 04 04 01 00 00 00 00 08 04      	! BUNDLE
	alloc 3
	and %r1, %r2, %r1
	retf 0


0000000000002450 <test_i32_andi>:
    2450: 00 00 00 c1 40 90 03 03 02 01 0a 00 00 00 08 04      	! BUNDLE
	alloc 2
	and_imm %r1, %r1, 12345
	retf 0


0000000000002460 <test_i32_andi_ext>:
    2460: 01 00 00 c1 40 50 d1 bc 03 01 8a 0e 00 00 00 00      	! BUNDLE
	alloc 2
	and_imm.l %r1, %r1, 123456789

    2470: 00 00 00 80 40 00 00 00 00 00 01 00 00 00 00 04      	! BUNDLE
	retf 0
	nop 0
	nop 0


0000000000002480 <test_i64_andi>:
    2480: 00 00 00 c1 40 90 03 03 02 01 0a 00 00 00 08 04      	! BUNDLE
	alloc 2
	and_imm %r1, %r1, 12345
	retf 0


0000000000002490 <test_i64_andi_ext>:
    2490: 01 00 00 c1 40 50 d1 bc 03 01 8a 0e 00 00 00 00      	! BUNDLE
	alloc 2
	and_imm.l %r1, %r1, 123456789

    24a0: 00 00 00 80 40 00 00 00 00 00 01 00 00 00 00 04      	! BUNDLE
	retf 0
	nop 0
	nop 0


00000000000024b0 <test_i128_andi>:
    24b0: 00 00 00 c1 40 90 03 03 02 01 0a 00 00 00 08 04      	! BUNDLE
	alloc 2
	and_imm %r1, %r1, 12345
	retf 0


00000000000024c0 <test_i128_andi_ext>:
    24c0: 01 00 00 c1 40 50 d1 bc 03 01 8a 0e 00 00 00 00      	! BUNDLE
	alloc 2
	and_imm.l %r1, %r1, 123456789

    24d0: 00 00 00 80 40 00 00 00 00 00 01 00 00 00 00 04      	! BUNDLE
	retf 0
	nop 0
	nop 0


00000000000024e0 <test_i32_andn>:
    24e0: 00 00 80 c1 40 b0 01 08 02 01 00 00 00 00 08 04      	! BUNDLE
	alloc 3
	andn %r1, %r1, %r2
	retf 0


00000000000024f0 <test_i64_andn>:
    24f0: 00 00 80 c1 40 b0 01 08 02 01 00 00 00 00 08 04      	! BUNDLE
	alloc 3
	andn %r1, %r1, %r2
	retf 0


0000000000002500 <test_i128_andn>:
    2500: 00 00 80 c1 40 b0 01 08 02 01 00 00 00 00 08 04      	! BUNDLE
	alloc 3
	andn %r1, %r1, %r2
	retf 0


0000000000002510 <test_i32_andni>:
    2510: 00 00 00 c1 40 90 03 03 02 01 09 00 00 00 08 04      	! BUNDLE
	alloc 2
	andn_imm %r1, %r1, 12345
	retf 0


0000000000002520 <test_i32_andni_ext>:
    2520: 01 00 00 c1 40 50 d1 bc 03 01 89 0e 00 00 00 00      	! BUNDLE
	alloc 2
	andn_imm.l %r1, %r1, 123456789

    2530: 00 00 00 80 40 00 00 00 00 00 01 00 00 00 00 04      	! BUNDLE
	retf 0
	nop 0
	nop 0


0000000000002540 <test_i64_andni>:
    2540: 00 00 00 c1 40 90 03 03 02 01 09 00 00 00 08 04      	! BUNDLE
	alloc 2
	andn_imm %r1, %r1, 12345
	retf 0


0000000000002550 <test_i64_andni_ext>:
    2550: 01 00 00 c1 40 50 d1 bc 03 01 89 0e 00 00 00 00      	! BUNDLE
	alloc 2
	andn_imm.l %r1, %r1, 123456789

    2560: 00 00 00 80 40 00 00 00 00 00 01 00 00 00 00 04      	! BUNDLE
	retf 0
	nop 0
	nop 0


0000000000002570 <test_i128_andni>:
    2570: 00 00 00 c1 40 90 03 03 02 01 09 00 00 00 08 04      	! BUNDLE
	alloc 2
	andn_imm %r1, %r1, 12345
	retf 0


0000000000002580 <test_i128_andni_ext>:
    2580: 01 00 00 c1 40 50 d1 bc 03 01 89 0e 00 00 00 00      	! BUNDLE
	alloc 2
	andn_imm.l %r1, %r1, 123456789

    2590: 00 00 00 80 40 00 00 00 00 00 01 00 00 00 00 04      	! BUNDLE
	retf 0
	nop 0
	nop 0


00000000000025a0 <test_i32_or>:
    25a0: 00 00 80 c1 40 90 01 04 04 01 00 00 00 00 08 04      	! BUNDLE
	alloc 3
	or %r1, %r2, %r1
	retf 0


00000000000025b0 <test_i64_or>:
    25b0: 00 00 80 c1 40 90 01 04 04 01 00 00 00 00 08 04      	! BUNDLE
	alloc 3
	or %r1, %r2, %r1
	retf 0


00000000000025c0 <test_i128_or>:
    25c0: 00 00 80 c1 40 90 01 04 04 01 00 00 00 00 08 04      	! BUNDLE
	alloc 3
	or %r1, %r2, %r1
	retf 0


00000000000025d0 <test_i32_ori>:
    25d0: 00 00 00 c1 40 90 03 03 02 81 0a 00 00 00 08 04      	! BUNDLE
	alloc 2
	or_imm %r1, %r1, 12345
	retf 0


00000000000025e0 <test_i32_ori_ext>:
    25e0: 01 00 00 c1 40 50 d1 bc 03 81 8a 0e 00 00 00 00      	! BUNDLE
	alloc 2
	or_imm.l %r1, %r1, 123456789

    25f0: 00 00 00 80 40 00 00 00 00 00 01 00 00 00 00 04      	! BUNDLE
	retf 0
	nop 0
	nop 0


0000000000002600 <test_i64_ori>:
    2600: 00 00 00 c1 40 90 03 03 02 81 0a 00 00 00 08 04      	! BUNDLE
	alloc 2
	or_imm %r1, %r1, 12345
	retf 0


0000000000002610 <test_i64_ori_ext>:
    2610: 01 00 00 c1 40 50 d1 bc 03 81 8a 0e 00 00 00 00      	! BUNDLE
	alloc 2
	or_imm.l %r1, %r1, 123456789

    2620: 00 00 00 80 40 00 00 00 00 00 01 00 00 00 00 04      	! BUNDLE
	retf 0
	nop 0
	nop 0


0000000000002630 <test_i128_ori>:
    2630: 00 00 00 c1 40 90 03 03 02 81 0a 00 00 00 08 04      	! BUNDLE
	alloc 2
	or_imm %r1, %r1, 12345
	retf 0


0000000000002640 <test_i128_ori_ext>:
    2640: 01 00 00 c1 40 50 d1 bc 03 81 8a 0e 00 00 00 00      	! BUNDLE
	alloc 2
	or_imm.l %r1, %r1, 123456789

    2650: 00 00 00 80 40 00 00 00 00 00 01 00 00 00 00 04      	! BUNDLE
	retf 0
	nop 0
	nop 0


0000000000002660 <test_i32_orn>:
    2660: 00 00 80 c1 40 f0 01 08 02 01 00 00 00 00 08 04      	! BUNDLE
	alloc 3
	orn %r1, %r1, %r2
	retf 0


0000000000002670 <test_i64_orn>:
    2670: 00 00 80 c1 40 f0 01 08 02 01 00 00 00 00 08 04      	! BUNDLE
	alloc 3
	orn %r1, %r1, %r2
	retf 0


0000000000002680 <test_i128_orn>:
    2680: 00 00 80 c1 40 f0 01 08 02 01 00 00 00 00 08 04      	! BUNDLE
	alloc 3
	orn %r1, %r1, %r2
	retf 0


0000000000002690 <test_i32_orni>:
    2690: 00 00 00 c1 40 90 03 03 02 81 09 00 00 00 08 04      	! BUNDLE
	alloc 2
	orn_imm %r1, %r1, 12345
	retf 0


00000000000026a0 <test_i32_orni_ext>:
    26a0: 01 00 00 c1 40 50 d1 bc 03 81 89 0e 00 00 00 00      	! BUNDLE
	alloc 2
	orn_imm.l %r1, %r1, 123456789

    26b0: 00 00 00 80 40 00 00 00 00 00 01 00 00 00 00 04      	! BUNDLE
	retf 0
	nop 0
	nop 0


00000000000026c0 <test_i64_orni>:
    26c0: 00 00 00 c1 40 90 03 03 02 81 09 00 00 00 08 04      	! BUNDLE
	alloc 2
	orn_imm %r1, %r1, 12345
	retf 0


00000000000026d0 <test_i64_orni_ext>:
    26d0: 01 00 00 c1 40 50 d1 bc 03 81 89 0e 00 00 00 00      	! BUNDLE
	alloc 2
	orn_imm.l %r1, %r1, 123456789

    26e0: 00 00 00 80 40 00 00 00 00 00 01 00 00 00 00 04      	! BUNDLE
	retf 0
	nop 0
	nop 0


00000000000026f0 <test_i128_orni>:
    26f0: 00 00 00 c1 40 90 03 03 02 81 09 00 00 00 08 04      	! BUNDLE
	alloc 2
	orn_imm %r1, %r1, 12345
	retf 0


0000000000002700 <test_i128_orni_ext>:
    2700: 01 00 00 c1 40 50 d1 bc 03 81 89 0e 00 00 00 00      	! BUNDLE
	alloc 2
	orn_imm.l %r1, %r1, 123456789

    2710: 00 00 00 80 40 00 00 00 00 00 01 00 00 00 00 04      	! BUNDLE
	retf 0
	nop 0
	nop 0


0000000000002720 <test_i32_xor>:
    2720: 00 00 80 c1 40 a0 01 04 04 01 00 00 00 00 08 04      	! BUNDLE
	alloc 3
	xor %r1, %r2, %r1
	retf 0


0000000000002730 <test_i64_xor>:
    2730: 00 00 80 c1 40 a0 01 04 04 01 00 00 00 00 08 04      	! BUNDLE
	alloc 3
	xor %r1, %r2, %r1
	retf 0


0000000000002740 <test_i128_xor>:
    2740: 00 00 80 c1 40 a0 01 04 04 01 00 00 00 00 08 04      	! BUNDLE
	alloc 3
	xor %r1, %r2, %r1
	retf 0


0000000000002750 <test_i32_xori>:
    2750: 00 00 00 c1 40 90 03 03 02 01 0b 00 00 00 08 04      	! BUNDLE
	alloc 2
	xor_imm %r1, %r1, 12345
	retf 0


0000000000002760 <test_i32_xori_ext>:
    2760: 01 00 00 c1 40 50 d1 bc 03 01 8b 0e 00 00 00 00      	! BUNDLE
	alloc 2
	xor_imm.l %r1, %r1, 123456789

    2770: 00 00 00 80 40 00 00 00 00 00 01 00 00 00 00 04      	! BUNDLE
	retf 0
	nop 0
	nop 0


0000000000002780 <test_i64_xori>:
    2780: 00 00 00 c1 40 90 03 03 02 01 0b 00 00 00 08 04      	! BUNDLE
	alloc 2
	xor_imm %r1, %r1, 12345
	retf 0


0000000000002790 <test_i64_xori_ext>:
    2790: 01 00 00 c1 40 50 d1 bc 03 01 8b 0e 00 00 00 00      	! BUNDLE
	alloc 2
	xor_imm.l %r1, %r1, 123456789

    27a0: 00 00 00 80 40 00 00 00 00 00 01 00 00 00 00 04      	! BUNDLE
	retf 0
	nop 0
	nop 0


00000000000027b0 <test_i128_xori>:
    27b0: 00 00 00 c1 40 90 03 03 02 01 0b 00 00 00 08 04      	! BUNDLE
	alloc 2
	xor_imm %r1, %r1, 12345
	retf 0


00000000000027c0 <test_i128_xori_ext>:
    27c0: 01 00 00 c1 40 50 d1 bc 03 01 8b 0e 00 00 00 00      	! BUNDLE
	alloc 2
	xor_imm.l %r1, %r1, 123456789

    27d0: 00 00 00 80 40 00 00 00 00 00 01 00 00 00 00 04      	! BUNDLE
	retf 0
	nop 0
	nop 0


00000000000027e0 <test_i1_and>:
    27e0: 00 00 80 c1 40 80 01 08 02 01 00 00 00 00 08 04      	! BUNDLE
	alloc 3
	and %r1, %r1, %r2
	retf 0


00000000000027f0 <test_i1_or>:
    27f0: 00 00 80 c1 40 90 01 08 02 01 00 00 00 00 08 04      	! BUNDLE
	alloc 3
	or %r1, %r1, %r2
	retf 0


0000000000002800 <test_i1_xor>:
    2800: 00 00 80 c1 40 a0 01 08 02 01 00 00 00 00 08 04      	! BUNDLE
	alloc 3
	xor %r1, %r1, %r2
	retf 0


0000000000002810 <test_i1_not>:
    2810: 00 00 00 c1 40 10 00 00 02 01 0b 00 00 00 08 04      	! BUNDLE
	alloc 2
	xor_imm %r1, %r1, 1
	retf 0


0000000000002820 <test_i1_andn>:
    2820: 00 00 80 c1 40 10 00 00 02 01 0b 06 10 10 04 00      	! BUNDLE
	alloc 3
	xor_imm %r1, %r1, 1
	and %r1, %r2, %r1

    2830: 00 00 00 80 40 00 00 00 00 00 01 00 00 00 00 04      	! BUNDLE
	retf 0
	nop 0
	nop 0


0000000000002840 <test_i1_orn>:
    2840: 00 00 80 c1 40 10 00 00 02 01 4b 06 10 10 04 00      	! BUNDLE
	alloc 3
	xor_imm %r1, %r1, 1
	or %r1, %r2, %r1

    2850: 00 00 00 80 40 00 00 00 00 00 01 00 00 00 00 04      	! BUNDLE
	retf 0
	nop 0
	nop 0


0000000000002860 <test_i1_nand>:
    2860: 00 00 80 c1 40 80 01 08 02 01 40 00 00 08 04 2c      	! BUNDLE
	alloc 3
	and %r1, %r1, %r2
	xor_imm %r1, %r1, 1

    2870: 00 00 00 80 40 00 00 00 00 00 01 00 00 00 00 04      	! BUNDLE
	retf 0
	nop 0
	nop 0


0000000000002880 <test_i1_to_i32>:
    2880: 00 00 00 c1 40 00 00 00 00 02 01 00 00 00 00 04      	! BUNDLE
	alloc 2
	retf 0
	nop 0


0000000000002890 <test_i1_to_i64>:
    2890: 00 00 00 c1 40 00 00 00 00 02 01 00 00 00 00 04      	! BUNDLE
	alloc 2
	retf 0
	nop 0


00000000000028a0 <test_i1_inv>:
    28a0: 00 00 00 c1 40 10 00 00 00 01 08 00 00 00 08 04      	! BUNDLE
	alloc 2
	ld_imm %r1, 1
	retf 0


00000000000028b0 <test_imm_to_i1>:
    28b0: 00 00 00 c1 40 10 00 00 00 01 08 00 00 00 08 04      	! BUNDLE
	alloc 2
	ld_imm %r1, 1
	retf 0


00000000000028c0 <test_write_i1>:
    28c0: 00 00 00 c1 40 10 00 00 00 01 08 00 00 00 04 b4      	! BUNDLE
	alloc 2
	ld_imm %r1, 1
	st_iprel_i8 %r1, 0

		00000000000028c0:  R_POSTRISC_C_PCREL_FWD	test_bool_true
    28d0: 00 00 00 c0 5f 0b 00 00 00 01 2d 00 00 00 fc b5      	! BUNDLE
	st_iprel_i8 %gz, 0
	st_iprel_i8 %r1, 0
	st_iprel_i8 %gz, 0

		00000000000028d0:  R_POSTRISC_A_PCREL_FWD	test_bool_false
		00000000000028d0:  R_POSTRISC_B_PCREL_FWD	test_i8_true
		00000000000028d0:  R_POSTRISC_C_PCREL_FWD	test_i8_false
    28e0: 00 00 00 40 a0 0b 00 00 00 ff 2e 00 00 00 04 c0      	! BUNDLE
	st_iprel_i16 %r1, 0
	st_iprel_i16 %gz, 0
	st_iprel_i32 %r1, 0

		00000000000028e0:  R_POSTRISC_A_PCREL_FWD	test_i16_true
		00000000000028e0:  R_POSTRISC_B_PCREL_FWD	test_i16_false
		00000000000028e0:  R_POSTRISC_C_PCREL_FWD	test_i32_true
    28f0: 00 00 00 c0 1f 0c 00 00 00 81 31 00 00 00 fc c7      	! BUNDLE
	st_iprel_i32 %gz, 0
	st_iprel_i64 %r1, 0
	st_iprel_i64 %gz, 0

		00000000000028f0:  R_POSTRISC_A_PCREL_FWD	test_i32_false
		00000000000028f0:  R_POSTRISC_B_PCREL_FWD	test_i64_true
		00000000000028f0:  R_POSTRISC_C_PCREL_FWD	test_i64_false
    2900: 00 00 00 80 40 00 00 00 00 00 01 00 00 00 00 04      	! BUNDLE
	retf 0
	nop 0
	nop 0


0000000000002910 <test_branch_i64_eqi>:
    2910: 00 00 00 c2 40 70 17 c0 42 81 00 00 00 00 0c cc      	! BUNDLE
	alloc 4
	nul_ne_imm_i64 %r1, 534, 2, 0
	lda_iprel %r3, 0

		0000000000002910:  R_POSTRISC_C_PCREL_FWD	.Lstr.98
    2920: 00 00 00 80 00 0d 00 00 00 02 01 00 00 00 00 04      	! BUNDLE
	call %r2, 0
	retf 0
	nop 0

		0000000000002920:  R_POSTRISC_A_JUMP	puts

0000000000002930 <test_branch_i64_nei>:
    2930: 00 00 00 c2 40 60 17 c0 42 81 00 00 00 00 0c cc      	! BUNDLE
	alloc 4
	nul_eq_imm_i64 %r1, 534, 2, 0
	lda_iprel %r3, 0

		0000000000002930:  R_POSTRISC_C_PCREL_FWD	.Lstr.98
    2940: 00 00 00 80 00 0d 00 00 00 02 01 00 00 00 00 04      	! BUNDLE
	call %r2, 0
	retf 0
	nop 0

		0000000000002940:  R_POSTRISC_A_JUMP	puts

0000000000002950 <test_branch_i64_lti>:
    2950: 00 00 00 c2 40 80 07 c2 42 81 00 00 00 00 0c cc      	! BUNDLE
	alloc 4
	nul_lt_imm_i64 %r1, 534, 0, 2
	lda_iprel %r3, 0

		0000000000002950:  R_POSTRISC_C_PCREL_FWD	.Lstr.98
    2960: 00 00 00 80 00 0d 00 00 00 02 01 00 00 00 00 04      	! BUNDLE
	call %r2, 0
	retf 0
	nop 0

		0000000000002960:  R_POSTRISC_A_JUMP	puts

0000000000002970 <test_branch_i64_lei>:
    2970: 00 00 00 c2 40 80 07 e2 42 81 00 00 00 00 0c cc      	! BUNDLE
	alloc 4
	nul_lt_imm_i64 %r1, 535, 0, 2
	lda_iprel %r3, 0

		0000000000002970:  R_POSTRISC_C_PCREL_FWD	.Lstr.98
    2980: 00 00 00 80 00 0d 00 00 00 02 01 00 00 00 00 04      	! BUNDLE
	call %r2, 0
	retf 0
	nop 0

		0000000000002980:  R_POSTRISC_A_JUMP	puts

0000000000002990 <test_branch_i64_gti>:
    2990: 00 00 00 c2 40 80 17 e0 42 81 00 00 00 00 0c cc      	! BUNDLE
	alloc 4
	nul_lt_imm_i64 %r1, 535, 2, 0
	lda_iprel %r3, 0

		0000000000002990:  R_POSTRISC_C_PCREL_FWD	.Lstr.98
    29a0: 00 00 00 80 00 0d 00 00 00 02 01 00 00 00 00 04      	! BUNDLE
	call %r2, 0
	retf 0
	nop 0

		00000000000029a0:  R_POSTRISC_A_JUMP	puts

00000000000029b0 <test_branch_i64_gei>:
    29b0: 00 00 00 c2 40 80 17 c0 42 81 00 00 00 00 0c cc      	! BUNDLE
	alloc 4
	nul_lt_imm_i64 %r1, 534, 2, 0
	lda_iprel %r3, 0

		00000000000029b0:  R_POSTRISC_C_PCREL_FWD	.Lstr.98
    29c0: 00 00 00 80 00 0d 00 00 00 02 01 00 00 00 00 04      	! BUNDLE
	call %r2, 0
	retf 0
	nop 0

		00000000000029c0:  R_POSTRISC_A_JUMP	puts

00000000000029d0 <test_branch_ext_i64_eqi>:
    29d0: 01 00 00 c2 40 70 17 c0 29 81 00 00 60 bc 00 00      	! BUNDLE
	alloc 4
	nul_ne_imm_i64.l %r1, 12345678, 2, 0

    29e0: 00 00 00 c0 c0 0c 00 00 00 02 34 00 00 00 08 04      	! BUNDLE
	lda_iprel %r3, 0
	call %r2, 0
	retf 0

		00000000000029e0:  R_POSTRISC_A_PCREL_FWD	.Lstr.98
		00000000000029e0:  R_POSTRISC_B_JUMP	puts

00000000000029f0 <test_branch_ext_i64_nei>:
    29f0: 01 00 00 c2 40 60 17 c0 29 81 00 00 60 bc 00 00      	! BUNDLE
	alloc 4
	nul_eq_imm_i64.l %r1, 12345678, 2, 0

    2a00: 00 00 00 c0 c0 0c 00 00 00 02 34 00 00 00 08 04      	! BUNDLE
	lda_iprel %r3, 0
	call %r2, 0
	retf 0

		0000000000002a00:  R_POSTRISC_A_PCREL_FWD	.Lstr.98
		0000000000002a00:  R_POSTRISC_B_JUMP	puts

0000000000002a10 <test_branch_ext_i64_lti>:
    2a10: 01 00 00 c2 40 80 07 c2 29 81 00 00 60 bc 00 00      	! BUNDLE
	alloc 4
	nul_lt_imm_i64.l %r1, 12345678, 0, 2

    2a20: 00 00 00 c0 c0 0c 00 00 00 02 34 00 00 00 08 04      	! BUNDLE
	lda_iprel %r3, 0
	call %r2, 0
	retf 0

		0000000000002a20:  R_POSTRISC_A_PCREL_FWD	.Lstr.98
		0000000000002a20:  R_POSTRISC_B_JUMP	puts

0000000000002a30 <test_branch_ext_i64_lei>:
    2a30: 01 00 00 c2 40 80 07 e2 29 81 00 00 60 bc 00 00      	! BUNDLE
	alloc 4
	nul_lt_imm_i64.l %r1, 12345679, 0, 2

    2a40: 00 00 00 c0 c0 0c 00 00 00 02 34 00 00 00 08 04      	! BUNDLE
	lda_iprel %r3, 0
	call %r2, 0
	retf 0

		0000000000002a40:  R_POSTRISC_A_PCREL_FWD	.Lstr.98
		0000000000002a40:  R_POSTRISC_B_JUMP	puts

0000000000002a50 <test_branch_ext_i64_gti>:
    2a50: 01 00 00 c2 40 80 17 e0 29 81 00 00 60 bc 00 00      	! BUNDLE
	alloc 4
	nul_lt_imm_i64.l %r1, 12345679, 2, 0

    2a60: 00 00 00 c0 c0 0c 00 00 00 02 34 00 00 00 08 04      	! BUNDLE
	lda_iprel %r3, 0
	call %r2, 0
	retf 0

		0000000000002a60:  R_POSTRISC_A_PCREL_FWD	.Lstr.98
		0000000000002a60:  R_POSTRISC_B_JUMP	puts

0000000000002a70 <test_branch_ext_i64_gei>:
    2a70: 01 00 00 c2 40 80 17 c0 29 81 00 00 60 bc 00 00      	! BUNDLE
	alloc 4
	nul_lt_imm_i64.l %r1, 12345678, 2, 0

    2a80: 00 00 00 c0 c0 0c 00 00 00 02 34 00 00 00 08 04      	! BUNDLE
	lda_iprel %r3, 0
	call %r2, 0
	retf 0

		0000000000002a80:  R_POSTRISC_A_PCREL_FWD	.Lstr.98
		0000000000002a80:  R_POSTRISC_B_JUMP	puts

0000000000002a90 <test_branch_i32_eqi>:
    2a90: 00 00 00 c2 40 10 17 c0 42 81 00 00 00 00 0c cc      	! BUNDLE
	alloc 4
	nul_ne_imm_i32 %r1, 534, 2, 0
	lda_iprel %r3, 0

		0000000000002a90:  R_POSTRISC_C_PCREL_FWD	.Lstr.98
    2aa0: 00 00 00 80 00 0d 00 00 00 02 01 00 00 00 00 04      	! BUNDLE
	call %r2, 0
	retf 0
	nop 0

		0000000000002aa0:  R_POSTRISC_A_JUMP	puts

0000000000002ab0 <test_branch_i32_nei>:
    2ab0: 00 00 00 c2 40 00 17 c0 42 81 00 00 00 00 0c cc      	! BUNDLE
	alloc 4
	nul_eq_imm_i32 %r1, 534, 2, 0
	lda_iprel %r3, 0

		0000000000002ab0:  R_POSTRISC_C_PCREL_FWD	.Lstr.98
    2ac0: 00 00 00 80 00 0d 00 00 00 02 01 00 00 00 00 04      	! BUNDLE
	call %r2, 0
	retf 0
	nop 0

		0000000000002ac0:  R_POSTRISC_A_JUMP	puts

0000000000002ad0 <test_branch_i32_lti>:
    2ad0: 00 00 00 c2 40 20 07 c2 42 81 00 00 00 00 0c cc      	! BUNDLE
	alloc 4
	nul_lt_imm_i32 %r1, 534, 0, 2
	lda_iprel %r3, 0

		0000000000002ad0:  R_POSTRISC_C_PCREL_FWD	.Lstr.98
    2ae0: 00 00 00 80 00 0d 00 00 00 02 01 00 00 00 00 04      	! BUNDLE
	call %r2, 0
	retf 0
	nop 0

		0000000000002ae0:  R_POSTRISC_A_JUMP	puts

0000000000002af0 <test_branch_i32_lei>:
    2af0: 00 00 00 c2 40 20 07 e2 42 81 00 00 00 00 0c cc      	! BUNDLE
	alloc 4
	nul_lt_imm_i32 %r1, 535, 0, 2
	lda_iprel %r3, 0

		0000000000002af0:  R_POSTRISC_C_PCREL_FWD	.Lstr.98
    2b00: 00 00 00 80 00 0d 00 00 00 02 01 00 00 00 00 04      	! BUNDLE
	call %r2, 0
	retf 0
	nop 0

		0000000000002b00:  R_POSTRISC_A_JUMP	puts

0000000000002b10 <test_branch_i32_gti>:
    2b10: 00 00 00 c2 40 20 17 e0 42 81 00 00 00 00 0c cc      	! BUNDLE
	alloc 4
	nul_lt_imm_i32 %r1, 535, 2, 0
	lda_iprel %r3, 0

		0000000000002b10:  R_POSTRISC_C_PCREL_FWD	.Lstr.98
    2b20: 00 00 00 80 00 0d 00 00 00 02 01 00 00 00 00 04      	! BUNDLE
	call %r2, 0
	retf 0
	nop 0

		0000000000002b20:  R_POSTRISC_A_JUMP	puts

0000000000002b30 <test_branch_i32_gei>:
    2b30: 00 00 00 c2 40 20 17 c0 42 81 00 00 00 00 0c cc      	! BUNDLE
	alloc 4
	nul_lt_imm_i32 %r1, 534, 2, 0
	lda_iprel %r3, 0

		0000000000002b30:  R_POSTRISC_C_PCREL_FWD	.Lstr.98
    2b40: 00 00 00 80 00 0d 00 00 00 02 01 00 00 00 00 04      	! BUNDLE
	call %r2, 0
	retf 0
	nop 0

		0000000000002b40:  R_POSTRISC_A_JUMP	puts

0000000000002b50 <test_branch_ext_i32_eqi>:
    2b50: 01 00 00 c2 40 10 17 c0 29 81 00 00 60 bc 00 00      	! BUNDLE
	alloc 4
	nul_ne_imm_i32.l %r1, 12345678, 2, 0

    2b60: 00 00 00 c0 c0 0c 00 00 00 02 34 00 00 00 08 04      	! BUNDLE
	lda_iprel %r3, 0
	call %r2, 0
	retf 0

		0000000000002b60:  R_POSTRISC_A_PCREL_FWD	.Lstr.98
		0000000000002b60:  R_POSTRISC_B_JUMP	puts

0000000000002b70 <test_branch_ext_i32_nei>:
    2b70: 01 00 00 c2 40 00 17 c0 29 81 00 00 60 bc 00 00      	! BUNDLE
	alloc 4
	nul_eq_imm_i32.l %r1, 12345678, 2, 0

    2b80: 00 00 00 c0 c0 0c 00 00 00 02 34 00 00 00 08 04      	! BUNDLE
	lda_iprel %r3, 0
	call %r2, 0
	retf 0

		0000000000002b80:  R_POSTRISC_A_PCREL_FWD	.Lstr.98
		0000000000002b80:  R_POSTRISC_B_JUMP	puts

0000000000002b90 <test_branch_ext_i32_lti>:
    2b90: 01 00 00 c2 40 20 07 c2 29 81 00 00 60 bc 00 00      	! BUNDLE
	alloc 4
	nul_lt_imm_i32.l %r1, 12345678, 0, 2

    2ba0: 00 00 00 c0 c0 0c 00 00 00 02 34 00 00 00 08 04      	! BUNDLE
	lda_iprel %r3, 0
	call %r2, 0
	retf 0

		0000000000002ba0:  R_POSTRISC_A_PCREL_FWD	.Lstr.98
		0000000000002ba0:  R_POSTRISC_B_JUMP	puts

0000000000002bb0 <test_branch_ext_i32_lei>:
    2bb0: 01 00 00 c2 40 20 07 e2 29 81 00 00 60 bc 00 00      	! BUNDLE
	alloc 4
	nul_lt_imm_i32.l %r1, 12345679, 0, 2

    2bc0: 00 00 00 c0 c0 0c 00 00 00 02 34 00 00 00 08 04      	! BUNDLE
	lda_iprel %r3, 0
	call %r2, 0
	retf 0

		0000000000002bc0:  R_POSTRISC_A_PCREL_FWD	.Lstr.98
		0000000000002bc0:  R_POSTRISC_B_JUMP	puts

0000000000002bd0 <test_branch_ext_i32_gti>:
    2bd0: 01 00 00 c2 40 20 17 e0 29 81 00 00 60 bc 00 00      	! BUNDLE
	alloc 4
	nul_lt_imm_i32.l %r1, 12345679, 2, 0

    2be0: 00 00 00 c0 c0 0c 00 00 00 02 34 00 00 00 08 04      	! BUNDLE
	lda_iprel %r3, 0
	call %r2, 0
	retf 0

		0000000000002be0:  R_POSTRISC_A_PCREL_FWD	.Lstr.98
		0000000000002be0:  R_POSTRISC_B_JUMP	puts

0000000000002bf0 <test_branch_ext_i32_gei>:
    2bf0: 01 00 00 c2 40 20 17 c0 29 81 00 00 60 bc 00 00      	! BUNDLE
	alloc 4
	nul_lt_imm_i32.l %r1, 12345678, 2, 0

    2c00: 00 00 00 c0 c0 0c 00 00 00 02 34 00 00 00 08 04      	! BUNDLE
	lda_iprel %r3, 0
	call %r2, 0
	retf 0

		0000000000002c00:  R_POSTRISC_A_PCREL_FWD	.Lstr.98
		0000000000002c00:  R_POSTRISC_B_JUMP	puts

0000000000002c10 <test_bit_1>:
    2c10: 40 00 80 02 41 00 20 c0 05 81 00 02 00 f0 0b a6      	! BUNDLE
	alloc_sp 5, 16
	nul_bs %r1, %r2, 4, 0
	st_i64 %r2, %sp, 8

    2c20: 00 00 00 00 c1 0c 00 00 fc 81 29 00 00 00 0c d0      	! BUNDLE
	lda_iprel %r4, 0
	st_i64 %r1, %sp, 0
	call %r3, 0

		0000000000002c20:  R_POSTRISC_A_PCREL_FWD	.L.str.1
		0000000000002c20:  R_POSTRISC_C_JUMP	printf
    2c30: 40 00 00 80 40 00 00 00 00 00 01 00 00 00 00 04      	! BUNDLE
	retf 16
	nop 0
	nop 0


0000000000002c40 <test_bit_2>:
    2c40: 40 00 80 02 41 00 20 80 05 81 00 02 00 f0 0b a6      	! BUNDLE
	alloc_sp 5, 16
	nul_bc %r1, %r2, 4, 0
	st_i64 %r2, %sp, 8

    2c50: 00 00 00 00 c1 0c 00 00 fc 81 29 00 00 00 0c d0      	! BUNDLE
	lda_iprel %r4, 0
	st_i64 %r1, %sp, 0
	call %r3, 0

		0000000000002c50:  R_POSTRISC_A_PCREL_FWD	.L.str.2
		0000000000002c50:  R_POSTRISC_C_JUMP	printf
    2c60: 40 00 00 80 40 00 00 00 00 00 01 00 00 00 00 04      	! BUNDLE
	retf 16
	nop 0
	nop 0


0000000000002c70 <test_bit_3>:
    2c70: 40 00 80 02 41 00 20 c0 05 81 00 02 00 f0 0b a6      	! BUNDLE
	alloc_sp 5, 16
	nul_bs %r1, %r2, 4, 0
	st_i64 %r2, %sp, 8

    2c80: 00 00 00 00 c1 0c 00 00 fc 81 29 00 00 00 0c d0      	! BUNDLE
	lda_iprel %r4, 0
	st_i64 %r1, %sp, 0
	call %r3, 0

		0000000000002c80:  R_POSTRISC_A_PCREL_FWD	.L.str.3
		0000000000002c80:  R_POSTRISC_C_JUMP	printf
    2c90: 40 00 00 80 40 00 00 00 00 00 01 00 00 00 00 04      	! BUNDLE
	retf 16
	nop 0
	nop 0


0000000000002ca0 <test_bit_4>:
    2ca0: 40 00 80 02 41 00 20 a0 1f 81 00 02 00 f0 0b a6      	! BUNDLE
	alloc_sp 5, 16
	nul_bc_imm %r1, 15, 4, 0
	st_i64 %r2, %sp, 8

    2cb0: 00 00 00 00 c1 0c 00 00 fc 81 29 00 00 00 0c d0      	! BUNDLE
	lda_iprel %r4, 0
	st_i64 %r1, %sp, 0
	call %r3, 0

		0000000000002cb0:  R_POSTRISC_A_PCREL_FWD	.L.str.4
		0000000000002cb0:  R_POSTRISC_C_JUMP	printf
    2cc0: 40 00 00 80 40 00 00 00 00 00 01 00 00 00 00 04      	! BUNDLE
	retf 16
	nop 0
	nop 0


0000000000002cd0 <test_bit_5>:
    2cd0: 40 00 80 02 41 00 20 e0 1d 81 00 02 00 f0 0b a6      	! BUNDLE
	alloc_sp 5, 16
	nul_bs_imm %r1, 14, 4, 0
	st_i64 %r2, %sp, 8

    2ce0: 00 00 00 00 c1 0c 00 00 fc 81 29 00 00 00 0c d0      	! BUNDLE
	lda_iprel %r4, 0
	st_i64 %r1, %sp, 0
	call %r3, 0

		0000000000002ce0:  R_POSTRISC_A_PCREL_FWD	.L.str.5
		0000000000002ce0:  R_POSTRISC_C_JUMP	printf
    2cf0: 40 00 00 80 40 00 00 00 00 00 01 00 00 00 00 04      	! BUNDLE
	retf 16
	nop 0
	nop 0


0000000000002d00 <test_bit_i32_1>:
    2d00: 40 00 80 02 41 00 20 c0 05 81 00 01 00 f0 0b a0      	! BUNDLE
	alloc_sp 5, 16
	nul_bs %r1, %r2, 4, 0
	st_i32 %r2, %sp, 4

    2d10: 00 00 00 00 c1 0c 00 00 fc 01 28 00 00 00 0c d0      	! BUNDLE
	lda_iprel %r4, 0
	st_i32 %r1, %sp, 0
	call %r3, 0

		0000000000002d10:  R_POSTRISC_A_PCREL_FWD	.L.str.6
		0000000000002d10:  R_POSTRISC_C_JUMP	printf
    2d20: 40 00 00 80 40 00 00 00 00 00 01 00 00 00 00 04      	! BUNDLE
	retf 16
	nop 0
	nop 0


0000000000002d30 <test_bit_i32_2>:
    2d30: 40 00 80 02 41 00 20 80 05 81 00 01 00 f0 0b a0      	! BUNDLE
	alloc_sp 5, 16
	nul_bc %r1, %r2, 4, 0
	st_i32 %r2, %sp, 4

    2d40: 00 00 00 00 c1 0c 00 00 fc 01 28 00 00 00 0c d0      	! BUNDLE
	lda_iprel %r4, 0
	st_i32 %r1, %sp, 0
	call %r3, 0

		0000000000002d40:  R_POSTRISC_A_PCREL_FWD	.L.str.7
		0000000000002d40:  R_POSTRISC_C_JUMP	printf
    2d50: 40 00 00 80 40 00 00 00 00 00 01 00 00 00 00 04      	! BUNDLE
	retf 16
	nop 0
	nop 0


0000000000002d60 <test_bit_i32_3>:
    2d60: 40 00 80 02 41 00 20 c0 05 81 00 01 00 f0 0b a0      	! BUNDLE
	alloc_sp 5, 16
	nul_bs %r1, %r2, 4, 0
	st_i32 %r2, %sp, 4

    2d70: 00 00 00 00 c1 0c 00 00 fc 01 28 00 00 00 0c d0      	! BUNDLE
	lda_iprel %r4, 0
	st_i32 %r1, %sp, 0
	call %r3, 0

		0000000000002d70:  R_POSTRISC_A_PCREL_FWD	.L.str.8
		0000000000002d70:  R_POSTRISC_C_JUMP	printf
    2d80: 40 00 00 80 40 00 00 00 00 00 01 00 00 00 00 04      	! BUNDLE
	retf 16
	nop 0
	nop 0


0000000000002d90 <test_bit_i32_4>:
    2d90: 40 00 80 02 41 00 20 a0 1f 81 00 01 00 f0 0b a0      	! BUNDLE
	alloc_sp 5, 16
	nul_bc_imm %r1, 15, 4, 0
	st_i32 %r2, %sp, 4

    2da0: 00 00 00 00 c1 0c 00 00 fc 01 28 00 00 00 0c d0      	! BUNDLE
	lda_iprel %r4, 0
	st_i32 %r1, %sp, 0
	call %r3, 0

		0000000000002da0:  R_POSTRISC_A_PCREL_FWD	.L.str.9
		0000000000002da0:  R_POSTRISC_C_JUMP	printf
    2db0: 40 00 00 80 40 00 00 00 00 00 01 00 00 00 00 04      	! BUNDLE
	retf 16
	nop 0
	nop 0


0000000000002dc0 <test_bit_i32_5>:
    2dc0: 40 00 80 02 41 00 20 e0 1d 81 00 01 00 f0 0b a0      	! BUNDLE
	alloc_sp 5, 16
	nul_bs_imm %r1, 14, 4, 0
	st_i32 %r2, %sp, 4

    2dd0: 00 00 00 00 c1 0c 00 00 fc 01 28 00 00 00 0c d0      	! BUNDLE
	lda_iprel %r4, 0
	st_i32 %r1, %sp, 0
	call %r3, 0

		0000000000002dd0:  R_POSTRISC_A_PCREL_FWD	.L.str.10
		0000000000002dd0:  R_POSTRISC_C_JUMP	printf
    2de0: 40 00 00 80 40 00 00 00 00 00 01 00 00 00 00 04      	! BUNDLE
	retf 16
	nop 0
	nop 0


0000000000002df0 <test_ball>:
    2df0: 40 00 80 02 41 10 00 00 02 02 00 9f 00 e8 07 02      	! BUNDLE
	alloc_sp 5, 16
	mov %r2, %r1
	nul_mask_all %r1, 2000, 4, 0

    2e00: 40 1f 00 41 00 03 00 00 00 04 33 00 00 f0 07 a6      	! BUNDLE
	add_imm_i64 %r1, %r2, 2000
	lda_iprel %r4, 0
	st_i64 %r1, %sp, 0

		0000000000002e00:  R_POSTRISC_B_PCREL_FWD	.L.str.11
    2e10: 00 00 00 c0 00 dd 27 00 e0 82 00 e2 04 08 04 30      	! BUNDLE
	call %r3, 0
	nul_mask_notall %r2, 1792, 4, 0
	add_imm_i64 %r1, %r1, 5000

		0000000000002e10:  R_POSTRISC_A_JUMP	printf
    2e20: 00 00 00 00 c1 0c 00 00 fc 81 29 00 00 00 0c d0      	! BUNDLE
	lda_iprel %r4, 0
	st_i64 %r1, %sp, 0
	call %r3, 0

		0000000000002e20:  R_POSTRISC_A_PCREL_FWD	.L.str.11
		0000000000002e20:  R_POSTRISC_C_JUMP	printf
    2e30: f8 09 00 b0 20 80 bb 00 02 01 0c 00 00 00 10 cc      	! BUNDLE
	nul_mask_none %r2, 1536, 4, 0
	add_imm_i64 %r1, %r1, 3000
	lda_iprel %r4, 0

		0000000000002e30:  R_POSTRISC_C_PCREL_FWD	.L.str.11
    2e40: 00 00 00 7f 60 0a 00 00 00 03 f4 9f 00 e0 08 02      	! BUNDLE
	st_i64 %r1, %sp, 0
	call %r3, 0
	nul_mask_any %r2, 448, 4, 0

		0000000000002e40:  R_POSTRISC_B_JUMP	printf
    2e50: 80 3e 80 40 00 03 00 00 00 04 33 00 00 f0 07 a6      	! BUNDLE
	add_imm_i64 %r1, %r1, 4000
	lda_iprel %r4, 0
	st_i64 %r1, %sp, 0

		0000000000002e50:  R_POSTRISC_B_PCREL_FWD	.L.str.11
    2e60: 00 00 00 c0 00 0d 01 00 00 02 01 00 00 00 00 04      	! BUNDLE
	call %r3, 0
	retf 16
	nop 0

		0000000000002e60:  R_POSTRISC_A_JUMP	printf

0000000000002e70 <test_builtin_get_special_reg>:
    2e70: 00 00 80 c1 40 50 10 00 00 02 00 00 00 00 04 d0      	! BUNDLE
	alloc 3
	get_spr %r2, %ip
	call %r1, 0

		0000000000002e70:  R_POSTRISC_C_JUMP	consume_sr64
    2e80: 14 04 01 80 00 00 00 00 00 01 74 41 20 00 08 00      	! BUNDLE
	get_spr %r2, %eip
	call %r1, 0
	get_spr %r2, %fpcr

		0000000000002e80:  R_POSTRISC_B_JUMP	consume_sr64
    2e90: 00 00 00 40 00 5d 10 0c 00 02 00 00 00 00 04 d0      	! BUNDLE
	call %r1, 0
	get_spr %r2, %eca
	call %r1, 0

		0000000000002e90:  R_POSTRISC_A_JUMP	consume_sr64
		0000000000002e90:  R_POSTRISC_C_JUMP	consume_sr64
    2ea0: 14 04 08 80 00 00 00 00 00 01 74 41 90 00 08 00      	! BUNDLE
	get_spr %r2, %rsc
	call %r1, 0
	get_spr %r2, %rsp

		0000000000002ea0:  R_POSTRISC_B_JUMP	consume_sr64
    2eb0: 00 00 00 40 00 5d 10 28 00 02 00 00 00 00 04 d0      	! BUNDLE
	call %r1, 0
	get_spr %r2, %bsp
	call %r1, 0

		0000000000002eb0:  R_POSTRISC_A_JUMP	consume_sr64
		0000000000002eb0:  R_POSTRISC_C_JUMP	consume_sr64
    2ec0: 14 04 11 80 00 00 00 00 00 01 74 41 20 01 08 00      	! BUNDLE
	get_spr %r2, %reip
	call %r1, 0
	get_spr %r2, %kip

		0000000000002ec0:  R_POSTRISC_B_JUMP	consume_sr64
    2ed0: 00 00 00 40 00 5d 10 4c 00 02 00 00 00 00 04 d0      	! BUNDLE
	call %r1, 0
	get_spr %r2, %ksp
	call %r1, 0

		0000000000002ed0:  R_POSTRISC_A_JUMP	consume_sr64
		0000000000002ed0:  R_POSTRISC_C_JUMP	consume_sr64
    2ee0: 14 04 14 80 00 00 00 00 00 01 74 41 50 01 08 00      	! BUNDLE
	get_spr %r2, %krsp
	call %r1, 0
	get_spr %r2, %peb

		0000000000002ee0:  R_POSTRISC_B_JUMP	consume_sr64
    2ef0: 00 00 00 40 00 5d 10 58 00 02 00 00 00 00 04 d0      	! BUNDLE
	call %r1, 0
	get_spr %r2, %teb
	call %r1, 0

		0000000000002ef0:  R_POSTRISC_A_JUMP	consume_sr64
		0000000000002ef0:  R_POSTRISC_C_JUMP	consume_sr64
    2f00: 14 04 17 80 00 00 00 00 00 01 74 41 80 01 08 00      	! BUNDLE
	get_spr %r2, %itc
	call %r1, 0
	get_spr %r2, %itm

		0000000000002f00:  R_POSTRISC_B_JUMP	consume_sr64
    2f10: 00 00 00 40 00 5d 10 64 00 02 00 00 00 00 04 d0      	! BUNDLE
	call %r1, 0
	get_spr %r2, %pta
	call %r1, 0

		0000000000002f10:  R_POSTRISC_A_JUMP	consume_sr64
		0000000000002f10:  R_POSTRISC_C_JUMP	consume_sr64
    2f20: 14 04 1a 80 00 00 00 00 00 01 74 41 80 02 08 00      	! BUNDLE
	get_spr %r2, %iva
	call %r1, 0
	get_spr %r2, %iip

		0000000000002f20:  R_POSTRISC_B_JUMP	consume_sr64
    2f30: 00 00 00 40 00 5d 10 a4 00 02 00 00 00 00 04 d0      	! BUNDLE
	call %r1, 0
	get_spr %r2, %iipa
	call %r1, 0

		0000000000002f30:  R_POSTRISC_A_JUMP	consume_sr64
		0000000000002f30:  R_POSTRISC_C_JUMP	consume_sr64
    2f40: 14 04 2b 80 00 00 00 00 00 01 74 41 c0 02 08 00      	! BUNDLE
	get_spr %r2, %cause
	call %r1, 0
	get_spr %r2, %ifa

		0000000000002f40:  R_POSTRISC_B_JUMP	consume_sr64
    2f50: 00 00 00 40 00 5d 10 00 01 02 00 00 00 00 04 d0      	! BUNDLE
	call %r1, 0
	get_spr %r2, %irr0
	call %r1, 0

		0000000000002f50:  R_POSTRISC_A_JUMP	consume_sr64
		0000000000002f50:  R_POSTRISC_C_JUMP	consume_sr64
    2f60: 14 04 41 80 00 00 00 00 00 01 74 41 20 04 08 00      	! BUNDLE
	get_spr %r2, %irr1
	call %r1, 0
	get_spr %r2, %irr2

		0000000000002f60:  R_POSTRISC_B_JUMP	consume_sr64
    2f70: 00 00 00 40 00 5d 10 0c 01 02 00 00 00 00 04 d0      	! BUNDLE
	call %r1, 0
	get_spr %r2, %irr3
	call %r1, 0

		0000000000002f70:  R_POSTRISC_A_JUMP	consume_sr64
		0000000000002f70:  R_POSTRISC_C_JUMP	consume_sr64
    2f80: 14 04 48 80 00 00 00 00 00 01 74 41 90 04 08 00      	! BUNDLE
	get_spr %r2, %isr0
	call %r1, 0
	get_spr %r2, %isr1

		0000000000002f80:  R_POSTRISC_B_JUMP	consume_sr64
    2f90: 00 00 00 40 00 5d 10 28 01 02 00 00 00 00 04 d0      	! BUNDLE
	call %r1, 0
	get_spr %r2, %isr2
	call %r1, 0

		0000000000002f90:  R_POSTRISC_A_JUMP	consume_sr64
		0000000000002f90:  R_POSTRISC_C_JUMP	consume_sr64
    2fa0: 14 04 4b 80 00 00 00 00 00 01 74 41 00 05 08 00      	! BUNDLE
	get_spr %r2, %isr3
	call %r1, 0
	get_spr %r2, %iv

		0000000000002fa0:  R_POSTRISC_B_JUMP	consume_sr64
    2fb0: 00 00 00 40 00 5d 10 44 01 02 00 00 00 00 04 d0      	! BUNDLE
	call %r1, 0
	get_spr %r2, %lid
	call %r1, 0

		0000000000002fb0:  R_POSTRISC_A_JUMP	consume_sr64
		0000000000002fb0:  R_POSTRISC_C_JUMP	consume_sr64
    2fc0: 14 04 52 80 00 00 00 00 00 01 74 41 30 05 08 00      	! BUNDLE
	get_spr %r2, %tpr
	call %r1, 0
	get_spr %r2, %itcv

		0000000000002fc0:  R_POSTRISC_B_JUMP	consume_sr64
    2fd0: 00 00 00 40 00 5d 10 50 01 02 00 00 00 00 04 d0      	! BUNDLE
	call %r1, 0
	get_spr %r2, %tsv
	call %r1, 0

		0000000000002fd0:  R_POSTRISC_A_JUMP	consume_sr64
		0000000000002fd0:  R_POSTRISC_C_JUMP	consume_sr64
    2fe0: 14 04 55 80 00 00 00 00 00 01 74 41 60 05 08 00      	! BUNDLE
	get_spr %r2, %pmv
	call %r1, 0
	get_spr %r2, %cmcv

		0000000000002fe0:  R_POSTRISC_B_JUMP	consume_sr64
    2ff0: 00 00 00 40 00 5d 10 b4 00 02 00 00 00 00 04 d0      	! BUNDLE
	call %r1, 0
	get_spr %r2, %iib
	call %r1, 0

		0000000000002ff0:  R_POSTRISC_A_JUMP	consume_sr64
		0000000000002ff0:  R_POSTRISC_C_JUMP	consume_sr128
    3000: 14 04 10 80 00 00 00 00 00 01 74 41 a0 02 08 00      	! BUNDLE
	get_spr %r2, %psr
	call %r1, 0
	get_spr %r2, %ipsr

		0000000000003000:  R_POSTRISC_B_JUMP	consume_sr64
    3010: 00 00 00 40 00 0d 00 00 00 02 01 00 00 00 00 04      	! BUNDLE
	call %r1, 0
	retf 0
	nop 0

		0000000000003010:  R_POSTRISC_A_JUMP	consume_sr64

0000000000003020 <test_builtin_set_special_reg>:
    3020: 00 00 80 c1 40 60 10 00 00 01 80 41 10 00 04 00      	! BUNDLE
	alloc 3
	set_spr %r1, %ip
	set_spr %r1, %eip

    3030: 18 04 02 40 00 60 10 0c 00 01 80 41 80 00 04 00      	! BUNDLE
	set_spr %r1, %fpcr
	set_spr %r1, %eca
	set_spr %r1, %rsc

    3040: 18 04 09 40 00 60 10 28 00 01 80 41 10 01 04 00      	! BUNDLE
	set_spr %r1, %rsp
	set_spr %r1, %bsp
	set_spr %r1, %reip

    3050: 18 04 12 40 00 60 10 4c 00 01 80 41 40 01 04 00      	! BUNDLE
	set_spr %r1, %kip
	set_spr %r1, %ksp
	set_spr %r1, %krsp

    3060: 18 04 15 40 00 60 10 58 00 01 80 41 70 01 04 00      	! BUNDLE
	set_spr %r1, %peb
	set_spr %r1, %teb
	set_spr %r1, %itc

    3070: 18 04 18 40 00 60 10 64 00 01 80 41 a0 01 04 00      	! BUNDLE
	set_spr %r1, %itm
	set_spr %r1, %pta
	set_spr %r1, %iva

    3080: 18 04 28 40 00 60 10 a4 00 01 80 41 b0 02 04 00      	! BUNDLE
	set_spr %r1, %iip
	set_spr %r1, %iipa
	set_spr %r1, %cause

    3090: 18 04 2c 40 00 60 10 00 01 01 80 41 10 04 04 00      	! BUNDLE
	set_spr %r1, %ifa
	set_spr %r1, %irr0
	set_spr %r1, %irr1

    30a0: 18 04 42 40 00 60 10 0c 01 01 80 41 80 04 04 00      	! BUNDLE
	set_spr %r1, %irr2
	set_spr %r1, %irr3
	set_spr %r1, %isr0

    30b0: 18 04 49 40 00 60 10 28 01 01 80 41 b0 04 04 00      	! BUNDLE
	set_spr %r1, %isr1
	set_spr %r1, %isr2
	set_spr %r1, %isr3

    30c0: 18 04 50 40 00 60 10 44 01 01 80 41 20 05 04 00      	! BUNDLE
	set_spr %r1, %iv
	set_spr %r1, %lid
	set_spr %r1, %tpr

    30d0: 18 04 53 40 00 60 10 50 01 01 80 41 50 05 04 00      	! BUNDLE
	set_spr %r1, %itcv
	set_spr %r1, %tsv
	set_spr %r1, %pmv

    30e0: 18 04 56 40 00 60 10 40 00 01 80 41 d0 02 08 00      	! BUNDLE
	set_spr %r1, %cmcv
	set_spr %r1, %psr
	set_spr %r2, %iib

    30f0: 18 04 2a 40 00 00 00 00 00 02 01 00 00 00 00 04      	! BUNDLE
	set_spr %r1, %ipsr
	retf 0
	nop 0


0000000000003100 <test_i128_load_store>:
    3100: 00 00 80 c1 40 00 01 00 02 02 2a 00 00 08 08 aa      	! BUNDLE
	alloc 3
	ld_i128 %r2, %r1, 16
	st_i128 %r2, %r1, 0

    3110: c0 00 80 40 80 0a 00 00 00 02 01 00 00 00 00 04      	! BUNDLE
	ld_i128 %r1, %r1, 48
	retf 0
	nop 0


0000000000003120 <test_builtin_va>:
    3120: 40 00 80 03 41 00 01 00 fc 02 cc 1b 20 10 08 00      	! BUNDLE
	alloc_sp 7, 16
	add_imm_i64 %r2, %sp, 16
	bit_set_imm %r2, %r2, 2

    3130: 20 00 00 bf 60 0a 01 00 fc 02 a7 47 10 30 14 02      	! BUNDLE
	st_i64 %r2, %sp, 8
	ld_u32 %r2, %sp, 16
	mov2 %r5, %r6, %r1, %r2

    3140: 00 00 00 00 01 8d 00 00 fc 81 e8 67 00 08 04 02      	! BUNDLE
	call %r4, 0
	ld_u64 %r1, %sp, 8
	alignup_u64 %r1, %r1, 0, 3

		0000000000003140:  R_POSTRISC_A_JUMP	test_builtin_va_consume_i32
    3150: 20 00 80 c0 00 83 00 00 fc 83 29 00 00 08 18 a2      	! BUNDLE
	add_imm_i64 %r3, %r1, 8
	st_i64 %r3, %sp, 8
	ld_u64 %r6, %r1, 0

    3160: 00 00 00 40 01 8d 00 00 fc 81 e8 87 00 08 04 02      	! BUNDLE
	call %r5, 0
	ld_u64 %r1, %sp, 8
	alignup_u64 %r1, %r1, 0, 4

		0000000000003160:  R_POSTRISC_A_JUMP	test_builtin_va_consume_f64
    3170: 40 00 80 c0 00 83 00 00 fc 83 29 00 00 08 18 a8      	! BUNDLE
	add_imm_i64 %r3, %r1, 16
	st_i64 %r3, %sp, 8
	ld_i128 %r6, %r1, 0

    3180: 00 00 00 40 01 1d 00 00 04 01 00 04 00 00 08 04      	! BUNDLE
	call %r5, 0
	mov %r1, %r2
	retf 16

		0000000000003180:  R_POSTRISC_A_JUMP	test_builtin_va_consume_f128

0000000000003190 <test_test_builtin_va>:
    3190: 40 04 00 03 41 00 10 00 fc 83 2a 3c 00 f0 07 a0      	! BUNDLE
	alloc_sp 6, 272
	st_i128 %r3, %sp, 256
	st_i32 %r1, %sp, 240

    31a0: a0 03 00 bf 60 0a 0e 00 fc 01 28 34 00 f0 0f aa      	! BUNDLE
	st_i64 %r2, %sp, 232
	st_i32 %r1, %sp, 224
	st_i128 %r3, %sp, 208

    31b0: 20 03 00 bf 60 0a 0c 00 fc 01 28 2c 00 f0 0f aa      	! BUNDLE
	st_i64 %r2, %sp, 200
	st_i32 %r1, %sp, 192
	st_i128 %r3, %sp, 176

    31c0: a0 02 00 bf 60 0a 0a 00 fc 01 28 24 00 f0 0f aa      	! BUNDLE
	st_i64 %r2, %sp, 168
	st_i32 %r1, %sp, 160
	st_i128 %r3, %sp, 144

    31d0: 20 02 00 bf 60 0a 08 00 fc 01 28 1c 00 f0 0f aa      	! BUNDLE
	st_i64 %r2, %sp, 136
	st_i32 %r1, %sp, 128
	st_i128 %r3, %sp, 112

    31e0: a0 01 00 bf 60 0a 06 00 fc 01 28 14 00 f0 0f aa      	! BUNDLE
	st_i64 %r2, %sp, 104
	st_i32 %r1, %sp, 96
	st_i128 %r3, %sp, 80

    31f0: 20 01 00 bf 60 0a 04 00 fc 01 28 0c 00 f0 0f aa      	! BUNDLE
	st_i64 %r2, %sp, 72
	st_i32 %r1, %sp, 64
	st_i128 %r3, %sp, 48

    3200: a0 00 00 bf 60 0a 02 00 fc 01 28 04 00 f0 0f aa      	! BUNDLE
	st_i64 %r2, %sp, 40
	st_i32 %r1, %sp, 32
	st_i128 %r3, %sp, 16

    3210: 20 00 00 bf 60 0a 00 00 00 05 33 00 00 f0 07 a0      	! BUNDLE
	st_i64 %r2, %sp, 8
	lda_iprel %r5, 0
	st_i32 %r1, %sp, 0

		0000000000003210:  R_POSTRISC_B_PCREL_FWD	.L.str.12
    3220: 00 00 00 00 01 1d 00 00 0a 01 00 44 00 00 08 04      	! BUNDLE
	call %r4, 0
	mov %r1, %r5
	retf 272

		0000000000003220:  R_POSTRISC_A_JUMP	test_builtin_va

0000000000003230 <test_builtin_vector_i8>:
    3230: 00 00 80 c1 40 80 50 08 02 02 80 41 11 10 08 00      	! BUNDLE
	alloc 3
	addc_vu8 %r2, %r1, %r2
	addo_vi8 %r2, %r2, %r1

    3240: 2c 14 01 81 00 a0 50 04 04 02 00 41 11 10 08 00      	! BUNDLE
	add_sat_vi8 %r2, %r2, %r1
	add_sat_vu8 %r2, %r2, %r1
	add_vu8 %r2, %r2, %r1

    3250: 3c 14 01 81 00 e0 50 04 04 02 00 44 11 10 08 00      	! BUNDLE
	avg_vu8 %r2, %r2, %r1
	avg_vi8 %r2, %r2, %r1
	cmp_eq_vi8 %r2, %r2, %r1

    3260: 44 14 01 81 00 20 51 04 04 02 00 40 11 10 08 00      	! BUNDLE
	cmp_lt_vi8 %r2, %r2, %r1
	cmp_lt_vu8 %r2, %r2, %r1
	max_vi8 %r2, %r2, %r1

    3270: 04 14 01 81 00 20 50 04 04 02 c0 40 11 10 08 00      	! BUNDLE
	max_vu8 %r2, %r2, %r1
	min_vi8 %r2, %r2, %r1
	min_vu8 %r2, %r2, %r1

    3280: 64 14 01 81 00 a0 51 04 04 02 c0 44 11 10 08 00      	! BUNDLE
	rol_vu8 %r2, %r2, %r1
	ror_vu8 %r2, %r2, %r1
	sll_vu8 %r2, %r2, %r1

    3290: 5c 14 01 81 00 50 51 04 04 02 40 42 11 10 08 00      	! BUNDLE
	sra_vi8 %r2, %r2, %r1
	srl_vu8 %r2, %r2, %r1
	subb_vu8 %r2, %r2, %r1

    32a0: 1c 14 01 81 00 50 50 04 04 02 00 43 11 10 08 00      	! BUNDLE
	subo_vi8 %r2, %r2, %r1
	sub_vu8 %r2, %r2, %r1
	sub_sat_vi8 %r2, %r2, %r1

    32b0: 34 14 01 41 00 00 00 00 00 02 01 00 00 00 00 04      	! BUNDLE
	sub_sat_vu8 %r1, %r2, %r1
	retf 0
	nop 0


00000000000032c0 <test_builtin_vector_i16>:
    32c0: 00 00 80 c1 40 80 58 08 02 02 80 61 11 10 08 00      	! BUNDLE
	alloc 3
	addc_vu16 %r2, %r1, %r2
	addo_vi16 %r2, %r2, %r1

    32d0: 2c 16 01 81 00 a0 58 04 04 02 00 61 11 10 08 00      	! BUNDLE
	add_sat_vi16 %r2, %r2, %r1
	add_sat_vu16 %r2, %r2, %r1
	add_vu16 %r2, %r2, %r1

    32e0: 3c 16 01 81 00 e0 58 04 04 02 00 64 11 10 08 00      	! BUNDLE
	avg_vu16 %r2, %r2, %r1
	avg_vi16 %r2, %r2, %r1
	cmp_eq_vi16 %r2, %r2, %r1

    32f0: 44 16 01 81 00 20 59 04 04 02 00 60 11 10 08 00      	! BUNDLE
	cmp_lt_vi16 %r2, %r2, %r1
	cmp_lt_vu16 %r2, %r2, %r1
	max_vi16 %r2, %r2, %r1

    3300: 04 16 01 81 00 20 58 04 04 02 c0 60 11 10 08 00      	! BUNDLE
	max_vu16 %r2, %r2, %r1
	min_vi16 %r2, %r2, %r1
	min_vu16 %r2, %r2, %r1

    3310: 64 16 01 81 00 a0 59 04 04 02 c0 64 11 10 08 00      	! BUNDLE
	rol_vu16 %r2, %r2, %r1
	ror_vu16 %r2, %r2, %r1
	sll_vu16 %r2, %r2, %r1

    3320: 5c 16 01 81 00 50 59 04 04 02 40 62 11 10 08 00      	! BUNDLE
	sra_vi16 %r2, %r2, %r1
	srl_vu16 %r2, %r2, %r1
	subb_vu16 %r2, %r2, %r1

    3330: 1c 16 01 81 00 50 58 04 04 02 00 63 11 10 08 00      	! BUNDLE
	subo_vi16 %r2, %r2, %r1
	sub_vu16 %r2, %r2, %r1
	sub_sat_vi16 %r2, %r2, %r1

    3340: 34 16 01 41 00 00 00 00 00 02 01 00 00 00 00 04      	! BUNDLE
	sub_sat_vu16 %r1, %r2, %r1
	retf 0
	nop 0


0000000000003350 <test_builtin_vector_i32>:
    3350: 00 00 80 c1 40 80 60 08 02 02 80 81 11 10 08 00      	! BUNDLE
	alloc 3
	addc_vu32 %r2, %r1, %r2
	addo_vi32 %r2, %r2, %r1

    3360: 2c 18 01 81 00 a0 60 04 04 02 00 81 11 10 08 00      	! BUNDLE
	add_sat_vi32 %r2, %r2, %r1
	add_sat_vu32 %r2, %r2, %r1
	add_vu32 %r2, %r2, %r1

    3370: 3c 18 01 81 00 e0 60 04 04 02 00 84 11 10 08 00      	! BUNDLE
	avg_vu32 %r2, %r2, %r1
	avg_vi32 %r2, %r2, %r1
	cmp_eq_vi32 %r2, %r2, %r1

    3380: 44 18 01 81 00 20 61 04 04 02 00 80 11 10 08 00      	! BUNDLE
	cmp_lt_vi32 %r2, %r2, %r1
	cmp_lt_vu32 %r2, %r2, %r1
	max_vi32 %r2, %r2, %r1

    3390: 04 18 01 81 00 20 60 04 04 02 c0 80 11 10 08 00      	! BUNDLE
	max_vu32 %r2, %r2, %r1
	min_vi32 %r2, %r2, %r1
	min_vu32 %r2, %r2, %r1

    33a0: 64 18 01 81 00 a0 61 04 04 02 c0 84 11 10 08 00      	! BUNDLE
	rol_vu32 %r2, %r2, %r1
	ror_vu32 %r2, %r2, %r1
	sll_vu32 %r2, %r2, %r1

    33b0: 5c 18 01 81 00 50 61 04 04 02 40 82 11 10 08 00      	! BUNDLE
	sra_vi32 %r2, %r2, %r1
	srl_vu32 %r2, %r2, %r1
	subb_vu32 %r2, %r2, %r1

    33c0: 1c 18 01 81 00 50 60 04 04 02 00 83 11 10 08 00      	! BUNDLE
	subo_vi32 %r2, %r2, %r1
	sub_vu32 %r2, %r2, %r1
	sub_sat_vi32 %r2, %r2, %r1

    33d0: 34 18 01 41 00 00 00 00 00 02 01 00 00 00 00 04      	! BUNDLE
	sub_sat_vu32 %r1, %r2, %r1
	retf 0
	nop 0


00000000000033e0 <test_builtin_vector_i64>:
    33e0: 00 00 80 c1 40 80 68 08 02 02 80 a1 11 10 08 00      	! BUNDLE
	alloc 3
	addc_vu64 %r2, %r1, %r2
	addo_vi64 %r2, %r2, %r1

    33f0: 2c 1a 01 81 00 a0 68 04 04 02 00 a1 11 10 08 00      	! BUNDLE
	add_sat_vi64 %r2, %r2, %r1
	add_sat_vu64 %r2, %r2, %r1
	add_vu64 %r2, %r2, %r1

    3400: 3c 1a 01 81 00 e0 68 04 04 02 00 a4 11 10 08 00      	! BUNDLE
	avg_vu64 %r2, %r2, %r1
	avg_vi64 %r2, %r2, %r1
	cmp_eq_vi64 %r2, %r2, %r1

    3410: 44 1a 01 81 00 20 69 04 04 02 00 a0 11 10 08 00      	! BUNDLE
	cmp_lt_vi64 %r2, %r2, %r1
	cmp_lt_vu64 %r2, %r2, %r1
	max_vi64 %r2, %r2, %r1

    3420: 04 1a 01 81 00 20 68 04 04 02 c0 a0 11 10 08 00      	! BUNDLE
	max_vu64 %r2, %r2, %r1
	min_vi64 %r2, %r2, %r1
	min_vu64 %r2, %r2, %r1

    3430: 64 1a 01 81 00 a0 69 04 04 02 c0 a4 11 10 08 00      	! BUNDLE
	rol_vu64 %r2, %r2, %r1
	ror_vu64 %r2, %r2, %r1
	sll_vu64 %r2, %r2, %r1

    3440: 5c 1a 01 81 00 50 69 04 04 02 40 a2 11 10 08 00      	! BUNDLE
	sra_vi64 %r2, %r2, %r1
	srl_vu64 %r2, %r2, %r1
	subb_vu64 %r2, %r2, %r1

    3450: 1c 1a 01 81 00 50 68 04 04 02 00 a3 11 10 08 00      	! BUNDLE
	subo_vi64 %r2, %r2, %r1
	sub_vu64 %r2, %r2, %r1
	sub_sat_vi64 %r2, %r2, %r1

    3460: 34 1a 01 41 00 00 00 00 00 02 01 00 00 00 00 04      	! BUNDLE
	sub_sat_vu64 %r1, %r2, %r1
	retf 0
	nop 0


0000000000003470 <test_builtin_vector_mixed>:
    3470: 00 00 80 c4 40 b0 51 08 02 01 00 47 21 08 04 00      	! BUNDLE
	alloc 9
	merge_high_vu8 %r1, %r1, %r2
	merge_low_vu8 %r1, %r1, %r2

    3480: 6c 16 84 40 00 c0 59 10 02 01 c0 86 61 08 04 00      	! BUNDLE
	merge_high_vu16 %r1, %r1, %r4
	merge_low_vu16 %r1, %r1, %r4
	merge_high_vu32 %r1, %r1, %r6

    3490: 70 18 86 40 00 b0 69 20 02 01 00 a7 81 08 04 00      	! BUNDLE
	merge_low_vu32 %r1, %r1, %r6
	merge_high_vu64 %r1, %r1, %r8
	merge_low_vu64 %r1, %r1, %r8

    34a0: 90 16 87 40 00 40 62 14 02 01 40 a8 71 08 04 00      	! BUNDLE
	pack_sat_vi16 %r1, %r1, %r7
	pack_sat_vi32 %r1, %r1, %r5
	pack_sat_vi64 %r1, %r1, %r7

    34b0: 9c 16 83 40 00 70 62 18 02 01 40 a9 81 08 04 00      	! BUNDLE
	pack_usat_vi16 %r1, %r1, %r3
	pack_usat_vi32 %r1, %r1, %r6
	pack_usat_vi64 %r1, %r1, %r8

    34c0: 98 16 84 40 00 60 62 18 02 01 00 a9 81 08 04 00      	! BUNDLE
	pack_mod_vu16 %r1, %r1, %r4
	pack_mod_vu32 %r1, %r1, %r6
	pack_mod_vu64 %r1, %r1, %r8

    34d0: 94 16 84 40 00 50 62 18 02 01 80 a8 81 08 04 00      	! BUNDLE
	pack_sat_vu16 %r1, %r1, %r4
	pack_sat_vu32 %r1, %r1, %r6
	pack_sat_vu64 %r1, %r1, %r8

    34e0: 84 14 80 40 00 10 5a 00 02 01 40 88 01 08 04 00      	! BUNDLE
	unpack_high_vi8 %r1, %r1
	unpack_high_vi16 %r1, %r1
	unpack_high_vi32 %r1, %r1

    34f0: 80 14 80 40 00 00 5a 00 02 01 00 88 01 08 04 00      	! BUNDLE
	unpack_low_vi8 %r1, %r1
	unpack_low_vi16 %r1, %r1
	unpack_low_vi32 %r1, %r1

    3500: 8c 14 80 40 00 30 5a 00 02 01 c0 88 01 08 04 00      	! BUNDLE
	unpack_high_vu8 %r1, %r1
	unpack_high_vu16 %r1, %r1
	unpack_high_vu32 %r1, %r1

    3510: 88 14 80 40 00 20 5a 00 02 01 80 88 01 08 04 00      	! BUNDLE
	unpack_low_vu8 %r1, %r1
	unpack_low_vu16 %r1, %r1
	unpack_low_vu32 %r1, %r1

    3520: 00 00 00 80 40 00 00 00 00 00 01 00 00 00 00 04      	! BUNDLE
	retf 0
	nop 0
	nop 0


0000000000003530 <test_builtin_popcount>:
    3530: 00 00 00 c1 40 b0 05 7c 02 01 00 00 00 00 08 04      	! BUNDLE
	alloc 2
	cnt_pop %r1, %r1, 31
	retf 0


0000000000003540 <test_builtin_popcountl>:
    3540: 00 00 00 c1 40 b0 05 fc 02 01 00 00 00 00 08 04      	! BUNDLE
	alloc 2
	cnt_pop %r1, %r1, 63
	retf 0


0000000000003550 <test_builtin_ctz>:
    3550: 00 00 00 c1 40 d0 05 7c 02 01 00 00 00 00 08 04      	! BUNDLE
	alloc 2
	cnt_tz %r1, %r1, 31
	retf 0


0000000000003560 <test_builtin_ctzl>:
    3560: 00 00 00 c1 40 d0 05 fc 02 01 00 00 00 00 08 04      	! BUNDLE
	alloc 2
	cnt_tz %r1, %r1, 63
	retf 0


0000000000003570 <test_builtin_clz>:
    3570: 00 00 00 c1 40 c0 05 7c 02 01 00 00 00 00 08 04      	! BUNDLE
	alloc 2
	cnt_lz %r1, %r1, 31
	retf 0


0000000000003580 <test_builtin_clzl>:
    3580: 00 00 00 c1 40 c0 05 fc 02 01 00 00 00 00 08 04      	! BUNDLE
	alloc 2
	cnt_lz %r1, %r1, 63
	retf 0


0000000000003590 <test_builtin_readcyclecounter>:
    3590: 00 00 00 c1 40 50 10 5c 00 01 00 00 00 00 08 04      	! BUNDLE
	alloc 2
	get_spr %r1, %itc
	retf 0


00000000000035a0 <test_builtin_thread_pointer>:
    35a0: 00 00 00 c1 40 10 00 00 f8 01 00 00 00 00 08 04      	! BUNDLE
	alloc 2
	mov %r1, %tp
	retf 0


00000000000035b0 <test_builtin_set_thread_pointer>:
    35b0: 00 00 00 c1 40 10 00 00 02 7c 00 00 00 00 08 04      	! BUNDLE
	alloc 2
	mov %tp, %r1
	retf 0


00000000000035c0 <test_frame_buitin>:
    35c0: 00 00 80 01 41 10 00 00 fa 02 00 00 00 f0 f7 31      	! BUNDLE
	alloc_sp 3, 0
	mov %r2, %fp
	add_imm_i64 %fp, %sp, 0

    35d0: 80 00 7d 40 00 10 00 00 fa 7e 40 00 00 10 f4 01      	! BUNDLE
	add_i64 %r1, %r0, %fp
	mov %sp, %fp
	mov %fp, %r2

    35e0: 00 00 00 80 40 00 00 00 00 00 01 00 00 00 00 04      	! BUNDLE
	retf 0
	nop 0
	nop 0


00000000000035f0 <test_builtin_stack_pointer>:
    35f0: 00 00 00 c1 40 10 00 00 fc 01 00 00 00 00 08 04      	! BUNDLE
	alloc 2
	mov %r1, %sp
	retf 0


0000000000003600 <test_builtin_bitreverse>:
    3600: 40 00 00 03 41 20 00 04 04 01 80 17 f0 09 0c 00      	! BUNDLE
	alloc_sp 6, 16
	add_i32 %r1, %r2, %r1
	permb %r3, %r1, 31

    3610: 00 00 00 40 c1 0c 00 00 fc 03 28 00 00 00 10 d0      	! BUNDLE
	lda_iprel %r5, 0
	st_i32 %r3, %sp, 0
	call %r4, 0

		0000000000003610:  R_POSTRISC_A_PCREL_FWD	.L.str.13
		0000000000003610:  R_POSTRISC_C_JUMP	printf
    3620: 10 01 00 41 00 b0 00 00 02 01 8c 17 f0 0b 08 00      	! BUNDLE
	sra_imm_i32 %r1, %r2, 0
	add_imm_i64 %r1, %r1, 11
	permb %r2, %r1, 63

    3630: 00 00 00 40 c1 0c 00 00 fc 82 29 00 00 00 10 d0      	! BUNDLE
	lda_iprel %r5, 0
	st_i64 %r2, %sp, 0
	call %r4, 0

		0000000000003630:  R_POSTRISC_A_PCREL_FWD	.L.str.14
		0000000000003630:  R_POSTRISC_C_JUMP	printf
    3640: 00 1c 03 41 20 01 01 00 00 02 01 00 00 00 00 04      	! BUNDLE
	lda_xi32 %r1, %r2, %r3, 0, 0
	retf 16
	nop 0


0000000000003650 <test_builtin_halt>:
    3650: 00 00 80 c0 40 00 11 00 00 00 00 00 00 00 08 04      	! BUNDLE
	alloc 1
	halt
	retf 0


0000000000003660 <test_builtin_undef>:
    3660: 00 00 80 c0 40 00 00 00 00 00 00 00 00 00 08 04      	! BUNDLE
	alloc 1
	undef
	retf 0


0000000000003670 <test_builtin_rfi>:
    3670: 00 00 80 c0 40 f0 10 00 00 00 00 00 00 00 08 04      	! BUNDLE
	alloc 1
	rfi
	retf 0


0000000000003680 <test_builtin_nop>:
    3680: 00 00 80 c0 40 70 68 2d 01 00 81 00 00 00 00 04      	! BUNDLE
	alloc 1
	nop 1234567
	nop 2

    3690: 56 7c 41 33 40 a0 4b 9b b6 01 c0 1e 00 00 00 04      	! BUNDLE
	nop.l 123456789123456789
	nop 123

    36a0: ee 01 00 00 40 00 00 00 00 00 00 00 00 00 08 04      	! BUNDLE
	nop.l 123
	retf 0


00000000000036b0 <test_builtin_tpa>:
    36b0: 00 00 00 c1 40 10 11 00 02 01 00 00 00 00 08 04      	! BUNDLE
	alloc 2
	tpa %r1, %r1
	retf 0


00000000000036c0 <test_builtin_random>:
    36c0: 00 00 80 c1 40 40 10 00 02 01 00 41 00 f8 0b 00      	! BUNDLE
	alloc 3
	random %r1, %r1
	random %r2, %gz

    36d0: 80 00 01 41 00 00 00 00 00 02 01 00 00 00 00 04      	! BUNDLE
	add_i64 %r1, %r2, %r1
	retf 0
	nop 0


00000000000036e0 <test_builtin_cache>:
    36e0: 00 00 00 c1 40 00 00 00 02 11 01 fa 00 08 44 04      	! BUNDLE
	alloc 2
	dcbf %r1, 0
	dcbf %r1, 1000

    36f0: 02 28 eb 40 44 c0 1d 00 00 00 00 00 00 08 40 04      	! BUNDLE
	dcbf.l %r1, 1000000000
	dcbt %r1, 0

    3700: a1 0f 80 00 44 00 a0 ac 03 10 01 77 00 00 00 00      	! BUNDLE
	dcbt %r1, 1000
	dcbt.l %r1, 1000000000

    3710: 00 00 80 80 44 80 3e 00 02 12 81 00 00 00 00 04      	! BUNDLE
	dcbi %r1, 0
	dcbi %r1, 1000
	nop 2

    3720: 02 28 eb 80 44 c0 1d 00 00 00 00 00 00 08 4c 04      	! BUNDLE
	dcbi.l %r1, 1000000000
	icbi %r1, 0

    3730: a1 0f 80 c0 44 00 a0 ac 03 13 01 77 00 00 00 00      	! BUNDLE
	icbi %r1, 1000
	icbi.l %r1, 1000000000

    3740: 00 00 00 80 40 00 00 00 00 00 01 00 00 00 00 04      	! BUNDLE
	retf 0
	nop 0
	nop 0


0000000000003750 <test_clmul>:
    3750: 00 00 00 c2 40 00 12 08 02 03 40 48 30 08 04 00      	! BUNDLE
	alloc 4
	clmul_ll %r3, %r1, %r2
	clmul_hl %r1, %r1, %r3

    3760: 88 04 82 40 00 00 00 00 00 02 01 00 00 00 00 04      	! BUNDLE
	clmul_hh %r1, %r1, %r2
	retf 0
	nop 0


0000000000003770 <test_i128_eq>:
    3770: 00 00 80 c1 40 20 06 08 02 01 00 00 00 00 08 04      	! BUNDLE
	alloc 3
	cmp_eq_i128 %r1, %r1, %r2
	retf 0


0000000000003780 <test_i128_ne>:
    3780: 00 00 80 c1 40 30 06 08 02 01 00 00 00 00 08 04      	! BUNDLE
	alloc 3
	cmp_ne_i128 %r1, %r1, %r2
	retf 0


0000000000003790 <test_i128_lt>:
    3790: 00 00 80 c1 40 40 06 08 02 01 00 00 00 00 08 04      	! BUNDLE
	alloc 3
	cmp_lt_i128 %r1, %r1, %r2
	retf 0


00000000000037a0 <test_i128_le>:
    37a0: 00 00 80 c1 40 50 06 08 02 01 00 00 00 00 08 04      	! BUNDLE
	alloc 3
	cmp_le_i128 %r1, %r1, %r2
	retf 0


00000000000037b0 <test_i128_gt>:
    37b0: 00 00 80 c1 40 40 06 04 04 01 00 00 00 00 08 04      	! BUNDLE
	alloc 3
	cmp_lt_i128 %r1, %r2, %r1
	retf 0


00000000000037c0 <test_i128_ge>:
    37c0: 00 00 80 c1 40 50 06 04 04 01 00 00 00 00 08 04      	! BUNDLE
	alloc 3
	cmp_le_i128 %r1, %r2, %r1
	retf 0


00000000000037d0 <test_u128_lt>:
    37d0: 00 00 80 c1 40 60 06 08 02 01 00 00 00 00 08 04      	! BUNDLE
	alloc 3
	cmp_lt_u128 %r1, %r1, %r2
	retf 0


00000000000037e0 <test_u128_le>:
    37e0: 00 00 80 c1 40 70 06 08 02 01 00 00 00 00 08 04      	! BUNDLE
	alloc 3
	cmp_le_u128 %r1, %r1, %r2
	retf 0


00000000000037f0 <test_u128_gt>:
    37f0: 00 00 80 c1 40 60 06 04 04 01 00 00 00 00 08 04      	! BUNDLE
	alloc 3
	cmp_lt_u128 %r1, %r2, %r1
	retf 0


0000000000003800 <test_u128_ge>:
    3800: 00 00 80 c1 40 70 06 04 04 01 00 00 00 00 08 04      	! BUNDLE
	alloc 3
	cmp_le_u128 %r1, %r2, %r1
	retf 0


0000000000003810 <test_i128_eq_imm>:
    3810: 00 00 00 c1 40 20 4d 00 02 01 20 00 00 00 08 04      	! BUNDLE
	alloc 2
	cmp_eq_imm_i128 %r1, %r1, 1234
	retf 0


0000000000003820 <test_i128_ne_imm>:
    3820: 00 00 00 c1 40 20 4d 00 02 81 20 00 00 00 08 04      	! BUNDLE
	alloc 2
	cmp_ne_imm_i128 %r1, %r1, 1234
	retf 0


0000000000003830 <test_i128_lt_imm>:
    3830: 00 00 00 c1 40 20 4d 00 02 01 21 00 00 00 08 04      	! BUNDLE
	alloc 2
	cmp_lt_imm_i128 %r1, %r1, 1234
	retf 0


0000000000003840 <test_i128_gt_imm>:
    3840: 00 00 00 c1 40 20 4d 00 02 01 22 00 00 00 08 04      	! BUNDLE
	alloc 2
	cmp_gt_imm_i128 %r1, %r1, 1234
	retf 0


0000000000003850 <test_i128_le_imm>:
    3850: 00 00 00 c1 40 30 4d 00 02 01 21 00 00 00 08 04      	! BUNDLE
	alloc 2
	cmp_lt_imm_i128 %r1, %r1, 1235
	retf 0


0000000000003860 <test_i128_ge_imm>:
    3860: 00 00 00 c1 40 10 4d 00 02 01 22 00 00 00 08 04      	! BUNDLE
	alloc 2
	cmp_gt_imm_i128 %r1, %r1, 1233
	retf 0


0000000000003870 <test_u128_lt_imm>:
    3870: 00 00 00 c1 40 20 4d 00 02 81 21 00 00 00 08 04      	! BUNDLE
	alloc 2
	cmp_lt_imm_u128 %r1, %r1, 1234
	retf 0


0000000000003880 <test_u128_gt_imm>:
    3880: 00 00 00 c1 40 20 4d 00 02 81 22 00 00 00 08 04      	! BUNDLE
	alloc 2
	cmp_gt_imm_u128 %r1, %r1, 1234
	retf 0


0000000000003890 <test_u128_le_imm>:
    3890: 00 00 00 c1 40 30 4d 00 02 81 21 00 00 00 08 04      	! BUNDLE
	alloc 2
	cmp_lt_imm_u128 %r1, %r1, 1235
	retf 0


00000000000038a0 <test_u128_ge_imm>:
    38a0: 00 00 00 c1 40 10 4d 00 02 81 22 00 00 00 08 04      	! BUNDLE
	alloc 2
	cmp_gt_imm_u128 %r1, %r1, 1233
	retf 0


00000000000038b0 <test_i32_eq>:
    38b0: 00 00 80 c1 40 00 01 08 02 01 00 00 00 00 08 04      	! BUNDLE
	alloc 3
	cmp_eq_i32 %r1, %r1, %r2
	retf 0


00000000000038c0 <test_i32_ne>:
    38c0: 00 00 80 c1 40 10 01 08 02 01 00 00 00 00 08 04      	! BUNDLE
	alloc 3
	cmp_ne_i32 %r1, %r1, %r2
	retf 0


00000000000038d0 <test_i32_lt>:
    38d0: 00 00 80 c1 40 20 01 08 02 01 00 00 00 00 08 04      	! BUNDLE
	alloc 3
	cmp_lt_i32 %r1, %r1, %r2
	retf 0


00000000000038e0 <test_i32_le>:
    38e0: 00 00 80 c1 40 30 01 08 02 01 00 00 00 00 08 04      	! BUNDLE
	alloc 3
	cmp_le_i32 %r1, %r1, %r2
	retf 0


00000000000038f0 <test_i32_gt>:
    38f0: 00 00 80 c1 40 20 01 04 04 01 00 00 00 00 08 04      	! BUNDLE
	alloc 3
	cmp_lt_i32 %r1, %r2, %r1
	retf 0


0000000000003900 <test_i32_ge>:
    3900: 00 00 80 c1 40 30 01 04 04 01 00 00 00 00 08 04      	! BUNDLE
	alloc 3
	cmp_le_i32 %r1, %r2, %r1
	retf 0


0000000000003910 <test_u32_lt>:
    3910: 00 00 80 c1 40 40 01 08 02 01 00 00 00 00 08 04      	! BUNDLE
	alloc 3
	cmp_lt_u32 %r1, %r1, %r2
	retf 0


0000000000003920 <test_u32_le>:
    3920: 00 00 80 c1 40 50 01 08 02 01 00 00 00 00 08 04      	! BUNDLE
	alloc 3
	cmp_le_u32 %r1, %r1, %r2
	retf 0


0000000000003930 <test_u32_gt>:
    3930: 00 00 80 c1 40 40 01 04 04 01 00 00 00 00 08 04      	! BUNDLE
	alloc 3
	cmp_lt_u32 %r1, %r2, %r1
	retf 0


0000000000003940 <test_u32_ge>:
    3940: 00 00 80 c1 40 50 01 04 04 01 00 00 00 00 08 04      	! BUNDLE
	alloc 3
	cmp_le_u32 %r1, %r2, %r1
	retf 0


0000000000003950 <test_i32_eq_imm>:
    3950: 00 00 00 c1 40 20 4d 00 02 01 1d 00 00 00 08 04      	! BUNDLE
	alloc 2
	cmp_eq_imm_i32 %r1, %r1, 1234
	retf 0


0000000000003960 <test_i32_ne_imm>:
    3960: 00 00 00 c1 40 20 4d 00 02 81 1d 00 00 00 08 04      	! BUNDLE
	alloc 2
	cmp_ne_imm_i32 %r1, %r1, 1234
	retf 0


0000000000003970 <test_i32_lt_imm>:
    3970: 00 00 00 c1 40 20 4d 00 02 01 1e 00 00 00 08 04      	! BUNDLE
	alloc 2
	cmp_lt_imm_i32 %r1, %r1, 1234
	retf 0


0000000000003980 <test_i32_gt_imm>:
    3980: 00 00 00 c1 40 20 4d 00 02 01 1f 00 00 00 08 04      	! BUNDLE
	alloc 2
	cmp_gt_imm_i32 %r1, %r1, 1234
	retf 0


0000000000003990 <test_i32_le_imm>:
    3990: 00 00 00 c1 40 30 4d 00 02 01 1e 00 00 00 08 04      	! BUNDLE
	alloc 2
	cmp_lt_imm_i32 %r1, %r1, 1235
	retf 0


00000000000039a0 <test_i32_ge_imm>:
    39a0: 00 00 00 c1 40 10 4d 00 02 01 1f 00 00 00 08 04      	! BUNDLE
	alloc 2
	cmp_gt_imm_i32 %r1, %r1, 1233
	retf 0


00000000000039b0 <test_u32_lt_imm>:
    39b0: 00 00 00 c1 40 20 4d 00 02 81 1e 00 00 00 08 04      	! BUNDLE
	alloc 2
	cmp_lt_imm_u32 %r1, %r1, 1234
	retf 0


00000000000039c0 <test_u32_gt_imm>:
    39c0: 00 00 00 c1 40 20 4d 00 02 81 1f 00 00 00 08 04      	! BUNDLE
	alloc 2
	cmp_gt_imm_u32 %r1, %r1, 1234
	retf 0


00000000000039d0 <test_u32_le_imm>:
    39d0: 00 00 00 c1 40 30 4d 00 02 81 1e 00 00 00 08 04      	! BUNDLE
	alloc 2
	cmp_lt_imm_u32 %r1, %r1, 1235
	retf 0


00000000000039e0 <test_u32_ge_imm>:
    39e0: 00 00 00 c1 40 10 4d 00 02 81 1f 00 00 00 08 04      	! BUNDLE
	alloc 2
	cmp_gt_imm_u32 %r1, %r1, 1233
	retf 0


00000000000039f0 <test_bool_eq>:
    39f0: 00 00 80 c1 40 a0 01 08 02 01 40 00 00 08 04 2c      	! BUNDLE
	alloc 3
	xor %r1, %r1, %r2
	xor_imm %r1, %r1, 1

    3a00: 00 00 00 80 40 00 00 00 00 00 01 00 00 00 00 04      	! BUNDLE
	retf 0
	nop 0
	nop 0


0000000000003a10 <test_bool_ne>:
    3a10: 00 00 80 c1 40 a0 01 08 02 01 00 00 00 00 08 04      	! BUNDLE
	alloc 3
	xor %r1, %r1, %r2
	retf 0


0000000000003a20 <test_bool_lt>:
    3a20: 00 00 80 c1 40 10 00 00 02 01 0b 06 10 10 04 00      	! BUNDLE
	alloc 3
	xor_imm %r1, %r1, 1
	and %r1, %r2, %r1

    3a30: 00 00 00 80 40 00 00 00 00 00 01 00 00 00 00 04      	! BUNDLE
	retf 0
	nop 0
	nop 0


0000000000003a40 <test_bool_le>:
    3a40: 00 00 80 c1 40 10 00 00 02 01 4b 06 10 10 04 00      	! BUNDLE
	alloc 3
	xor_imm %r1, %r1, 1
	or %r1, %r2, %r1

    3a50: 00 00 00 80 40 00 00 00 00 00 01 00 00 00 00 04      	! BUNDLE
	retf 0
	nop 0
	nop 0


0000000000003a60 <test_bool_gt>:
    3a60: 00 00 80 c1 40 10 00 00 04 02 0b 06 20 08 04 00      	! BUNDLE
	alloc 3
	xor_imm %r2, %r2, 1
	and %r1, %r1, %r2

    3a70: 00 00 00 80 40 00 00 00 00 00 01 00 00 00 00 04      	! BUNDLE
	retf 0
	nop 0
	nop 0


0000000000003a80 <test_bool_ge>:
    3a80: 00 00 80 c1 40 10 00 00 04 02 4b 06 20 08 04 00      	! BUNDLE
	alloc 3
	xor_imm %r2, %r2, 1
	or %r1, %r1, %r2

    3a90: 00 00 00 80 40 00 00 00 00 00 01 00 00 00 00 04      	! BUNDLE
	retf 0
	nop 0
	nop 0


0000000000003aa0 <test_ptr_eq>:
    3aa0: 00 00 80 c1 40 80 00 08 02 01 00 00 00 00 08 04      	! BUNDLE
	alloc 3
	cmp_eq_i64 %r1, %r1, %r2
	retf 0


0000000000003ab0 <test_ptr_ne>:
    3ab0: 00 00 80 c1 40 90 00 08 02 01 00 00 00 00 08 04      	! BUNDLE
	alloc 3
	cmp_ne_i64 %r1, %r1, %r2
	retf 0


0000000000003ac0 <test_ptr_lt>:
    3ac0: 00 00 80 c1 40 c0 00 08 02 01 00 00 00 00 08 04      	! BUNDLE
	alloc 3
	cmp_lt_u64 %r1, %r1, %r2
	retf 0


0000000000003ad0 <test_ptr_le>:
    3ad0: 00 00 80 c1 40 d0 00 08 02 01 00 00 00 00 08 04      	! BUNDLE
	alloc 3
	cmp_le_u64 %r1, %r1, %r2
	retf 0


0000000000003ae0 <test_ptr_gt>:
    3ae0: 00 00 80 c1 40 c0 00 04 04 01 00 00 00 00 08 04      	! BUNDLE
	alloc 3
	cmp_lt_u64 %r1, %r2, %r1
	retf 0


0000000000003af0 <test_ptr_ge>:
    3af0: 00 00 80 c1 40 d0 00 04 04 01 00 00 00 00 08 04      	! BUNDLE
	alloc 3
	cmp_le_u64 %r1, %r2, %r1
	retf 0


0000000000003b00 <test_i64_eq>:
    3b00: 00 00 80 c1 40 80 00 08 02 01 00 00 00 00 08 04      	! BUNDLE
	alloc 3
	cmp_eq_i64 %r1, %r1, %r2
	retf 0


0000000000003b10 <test_i64_ne>:
    3b10: 00 00 80 c1 40 90 00 08 02 01 00 00 00 00 08 04      	! BUNDLE
	alloc 3
	cmp_ne_i64 %r1, %r1, %r2
	retf 0


0000000000003b20 <test_i64_lt>:
    3b20: 00 00 80 c1 40 a0 00 08 02 01 00 00 00 00 08 04      	! BUNDLE
	alloc 3
	cmp_lt_i64 %r1, %r1, %r2
	retf 0


0000000000003b30 <test_i64_le>:
    3b30: 00 00 80 c1 40 b0 00 08 02 01 00 00 00 00 08 04      	! BUNDLE
	alloc 3
	cmp_le_i64 %r1, %r1, %r2
	retf 0


0000000000003b40 <test_i64_gt>:
    3b40: 00 00 80 c1 40 a0 00 04 04 01 00 00 00 00 08 04      	! BUNDLE
	alloc 3
	cmp_lt_i64 %r1, %r2, %r1
	retf 0


0000000000003b50 <test_i64_ge>:
    3b50: 00 00 80 c1 40 b0 00 04 04 01 00 00 00 00 08 04      	! BUNDLE
	alloc 3
	cmp_le_i64 %r1, %r2, %r1
	retf 0


0000000000003b60 <test_u64_lt>:
    3b60: 00 00 80 c1 40 c0 00 08 02 01 00 00 00 00 08 04      	! BUNDLE
	alloc 3
	cmp_lt_u64 %r1, %r1, %r2
	retf 0


0000000000003b70 <test_u64_le>:
    3b70: 00 00 80 c1 40 d0 00 08 02 01 00 00 00 00 08 04      	! BUNDLE
	alloc 3
	cmp_le_u64 %r1, %r1, %r2
	retf 0


0000000000003b80 <test_u64_gt>:
    3b80: 00 00 80 c1 40 c0 00 04 04 01 00 00 00 00 08 04      	! BUNDLE
	alloc 3
	cmp_lt_u64 %r1, %r2, %r1
	retf 0


0000000000003b90 <test_u64_ge>:
    3b90: 00 00 80 c1 40 d0 00 04 04 01 00 00 00 00 08 04      	! BUNDLE
	alloc 3
	cmp_le_u64 %r1, %r2, %r1
	retf 0


0000000000003ba0 <test_i64_eq_imm>:
    3ba0: 00 00 00 c1 40 20 4d 00 02 01 1a 00 00 00 08 04      	! BUNDLE
	alloc 2
	cmp_eq_imm_i64 %r1, %r1, 1234
	retf 0


0000000000003bb0 <test_i64_ne_imm>:
    3bb0: 00 00 00 c1 40 20 4d 00 02 81 1a 00 00 00 08 04      	! BUNDLE
	alloc 2
	cmp_ne_imm_i64 %r1, %r1, 1234
	retf 0


0000000000003bc0 <test_i64_lt_imm>:
    3bc0: 00 00 00 c1 40 20 4d 00 02 01 1b 00 00 00 08 04      	! BUNDLE
	alloc 2
	cmp_lt_imm_i64 %r1, %r1, 1234
	retf 0


0000000000003bd0 <test_i64_gt_imm>:
    3bd0: 00 00 00 c1 40 20 4d 00 02 01 1c 00 00 00 08 04      	! BUNDLE
	alloc 2
	cmp_gt_imm_i64 %r1, %r1, 1234
	retf 0


0000000000003be0 <test_i64_le_imm>:
    3be0: 00 00 00 c1 40 30 4d 00 02 01 1b 00 00 00 08 04      	! BUNDLE
	alloc 2
	cmp_lt_imm_i64 %r1, %r1, 1235
	retf 0


0000000000003bf0 <test_i64_ge_imm>:
    3bf0: 00 00 00 c1 40 10 4d 00 02 01 1c 00 00 00 08 04      	! BUNDLE
	alloc 2
	cmp_gt_imm_i64 %r1, %r1, 1233
	retf 0


0000000000003c00 <test_u64_lt_imm>:
    3c00: 00 00 00 c1 40 20 4d 00 02 81 1b 00 00 00 08 04      	! BUNDLE
	alloc 2
	cmp_lt_imm_u64 %r1, %r1, 1234
	retf 0


0000000000003c10 <test_u64_gt_imm>:
    3c10: 00 00 00 c1 40 20 4d 00 02 81 1c 00 00 00 08 04      	! BUNDLE
	alloc 2
	cmp_gt_imm_u64 %r1, %r1, 1234
	retf 0


0000000000003c20 <test_u64_le_imm>:
    3c20: 00 00 00 c1 40 30 4d 00 02 81 1b 00 00 00 08 04      	! BUNDLE
	alloc 2
	cmp_lt_imm_u64 %r1, %r1, 1235
	retf 0


0000000000003c30 <test_u64_ge_imm>:
    3c30: 00 00 00 c1 40 10 4d 00 02 81 1c 00 00 00 08 04      	! BUNDLE
	alloc 2
	cmp_gt_imm_u64 %r1, %r1, 1233
	retf 0


0000000000003c40 <test_cpuid>:
    3c40: 00 00 00 c2 40 10 90 10 02 02 40 40 00 08 0c 00      	! BUNDLE
	alloc 4
	cpuid %r2, %r1, 33
	cpuid %r3, %r1, 0

    3c50: 40 9c 80 40 00 13 10 00 02 01 00 22 20 18 04 02      	! BUNDLE
	add_imm_i64 %r1, %r1, 10000
	cpuid %r1, %r1, 0
	add_add_i64 %r1, %r3, %r2, %r1

    3c60: 00 00 00 80 40 00 00 00 00 00 01 00 00 00 00 04      	! BUNDLE
	retf 0
	nop 0
	nop 0


0000000000003c70 <test_crc32c>:
    3c70: 00 00 00 c2 40 00 1a 08 02 81 00 00 00 00 08 04      	! BUNDLE
	alloc 4
	crc32c %r1, %r1, %r2, %r3
	retf 0


0000000000003c80 <TestDebugRegisters>:
    3c80: 00 00 80 c1 40 c0 90 00 02 02 c0 42 02 08 08 00      	! BUNDLE
	alloc 3
	get_mr %r2, %r1, 1
	set_mr %r2, %r1, 1

    3c90: 28 44 80 80 00 90 90 00 02 02 00 42 02 08 08 00      	! BUNDLE
	get_ibr %r2, %r1, 2
	set_ibr %r2, %r1, 1
	get_dbr %r2, %r1, 1

    3ca0: 1c 44 80 80 00 00 00 00 00 02 01 00 00 00 00 04      	! BUNDLE
	set_dbr %r2, %r1, 2
	retf 0
	nop 0


0000000000003cb0 <test_divide_pow2_32>:
    3cb0: 00 00 80 c1 40 80 06 08 02 01 00 00 00 00 08 04      	! BUNDLE
	alloc 3
	srd_i32 %r1, %r1, %r2
	retf 0


0000000000003cc0 <test_divide_pow2_imm_32>:
    3cc0: 00 00 00 c1 40 90 06 28 02 01 00 00 00 00 08 04      	! BUNDLE
	alloc 2
	srd_imm_i32 %r1, %r1, 10
	retf 0


0000000000003cd0 <test_divide_pow2_64>:
    3cd0: 00 00 80 c1 40 b0 03 08 02 01 00 00 00 00 08 04      	! BUNDLE
	alloc 3
	srd_i64 %r1, %r1, %r2
	retf 0


0000000000003ce0 <test_divide_pow2_imm_64>:
    3ce0: 00 00 00 c1 40 f0 03 28 02 01 00 00 00 00 08 04      	! BUNDLE
	alloc 2
	srd_imm_i64 %r1, %r1, 10
	retf 0


0000000000003cf0 <test_fma_f16>:
    3cf0: 00 00 00 c2 40 d0 1d 08 02 83 c0 77 20 08 0c 02      	! BUNDLE
	alloc 4
	madd_f16 %r3, %r1, %r2, %r3
	nmadd_f16 %r3, %r1, %r2, %r3

    3d00: 78 07 82 80 20 00 16 08 02 81 00 00 00 00 08 04      	! BUNDLE
	msub_f16 %r2, %r1, %r2, %r3
	nmsub_f16 %r1, %r1, %r2, %r2
	retf 0


0000000000003d10 <test_fma_f32>:
    3d10: 00 00 00 c2 40 10 1d 08 02 83 c0 74 20 08 0c 02      	! BUNDLE
	alloc 4
	madd_f32 %r3, %r1, %r2, %r3
	nmadd_f32 %r3, %r1, %r2, %r3

    3d20: 48 07 82 80 20 40 15 08 02 81 00 00 00 00 08 04      	! BUNDLE
	msub_f32 %r2, %r1, %r2, %r3
	nmsub_f32 %r1, %r1, %r2, %r2
	retf 0


0000000000003d30 <test_fma_f64>:
    3d30: 00 00 00 c2 40 10 1c 08 02 83 c0 70 20 08 0c 02      	! BUNDLE
	alloc 4
	madd_f64 %r3, %r1, %r2, %r3
	nmadd_f64 %r3, %r1, %r2, %r3

    3d40: 08 07 82 80 20 40 14 08 02 81 00 00 00 00 08 04      	! BUNDLE
	msub_f64 %r2, %r1, %r2, %r3
	nmsub_f64 %r1, %r1, %r2, %r2
	retf 0


0000000000003d50 <test_fma_f128>:
    3d50: 00 00 00 c2 40 90 1b 08 02 83 c0 6e 20 08 0c 02      	! BUNDLE
	alloc 4
	madd_f128 %r3, %r1, %r2, %r3
	nmadd_f128 %r3, %r1, %r2, %r3

    3d60: e8 06 82 80 20 c0 13 08 02 81 00 00 00 00 08 04      	! BUNDLE
	msub_f128 %r2, %r1, %r2, %r3
	nmsub_f128 %r1, %r1, %r2, %r2
	retf 0


0000000000003d70 <test_fma_v8f16>:
    3d70: 00 00 00 c2 40 20 1e 08 02 83 00 79 20 08 0c 02      	! BUNDLE
	alloc 4
	madd_vf16 %r3, %r1, %r2, %r3
	nmadd_vf16 %r3, %r1, %r2, %r3

    3d80: 8c 07 82 80 20 50 16 08 02 81 00 00 00 00 08 04      	! BUNDLE
	msub_vf16 %r2, %r1, %r2, %r3
	nmsub_vf16 %r1, %r1, %r2, %r2
	retf 0


0000000000003d90 <test_fma_v4f32>:
    3d90: 00 00 00 c2 40 60 1d 08 02 83 00 76 20 08 0c 02      	! BUNDLE
	alloc 4
	madd_vf32 %r3, %r1, %r2, %r3
	nmadd_vf32 %r3, %r1, %r2, %r3

    3da0: 5c 07 82 80 20 90 15 08 02 81 00 00 00 00 08 04      	! BUNDLE
	msub_vf32 %r2, %r1, %r2, %r3
	nmsub_vf32 %r1, %r1, %r2, %r2
	retf 0


0000000000003db0 <test_fma_v2f64>:
    3db0: 00 00 00 c2 40 60 1c 08 02 83 00 72 20 08 0c 02      	! BUNDLE
	alloc 4
	madd_vf64 %r3, %r1, %r2, %r3
	nmadd_vf64 %r3, %r1, %r2, %r3

    3dc0: 1c 07 82 80 20 90 14 08 02 81 00 00 00 00 08 04      	! BUNDLE
	msub_vf64 %r2, %r1, %r2, %r3
	nmsub_vf64 %r1, %r1, %r2, %r2
	retf 0


0000000000003dd0 <ffff>:
    3dd0: 00 00 80 c1 40 00 00 00 fc 81 28 00 00 08 08 9c      	! BUNDLE
	alloc 3
	ld_u64 %r1, %sp, 0
	ld_u32 %r2, %r1, 0

    3de0: 10 00 80 40 c0 39 30 08 02 01 00 00 00 00 08 04      	! BUNDLE
	ld_u32 %r1, %r1, 4
	add_f32 %r1, %r1, %r2
	retf 0


0000000000003df0 <i64_test>:
    3df0: 80 01 80 05 41 00 02 04 04 03 00 16 00 f0 0f a6      	! BUNDLE
	alloc_sp 11, 96
	add_i64 %r3, %r2, %r1
	st_i64 %r3, %sp, 88

    3e00: 84 00 82 c0 00 00 05 00 fc 83 29 fa 00 10 0c 38      	! BUNDLE
	sub_i64 %r3, %r1, %r2
	st_i64 %r3, %sp, 80
	subr_imm_i64 %r3, %r2, 1000

    3e10: 21 01 00 ff 60 0a a0 ac 05 03 0e 77 00 00 00 00      	! BUNDLE
	st_i64 %r3, %sp, 72
	subr_imm_i64.l %r3, %r2, 1000000000

    3e20: 00 01 00 ff 60 ca f9 ff 03 03 0c 0e 00 f0 0f a6      	! BUNDLE
	st_i64 %r3, %sp, 64
	add_imm_i64 %r3, %r1, -100
	st_i64 %r3, %sp, 56

    3e30: c0 00 00 ff 60 8a 05 00 fc 83 28 14 00 f0 13 a2      	! BUNDLE
	st_i64 %r3, %sp, 48
	ld_u64 %r3, %sp, 88
	ld_u64 %r4, %sp, 80

    3e40: 20 01 00 7f 21 0a 04 00 fc 86 28 0e 00 f0 1f a2      	! BUNDLE
	ld_u64 %r5, %sp, 72
	ld_u64 %r6, %sp, 64
	ld_u64 %r7, %sp, 56

    3e50: c0 00 00 3f 22 8a 38 14 08 84 40 82 60 18 0c 02      	! BUNDLE
	ld_u64 %r8, %sp, 48
	add_add_i64 %r4, %r4, %r5, %r7
	add_sub_i64 %r3, %r3, %r6, %r4

    3e60: 80 00 88 c1 00 80 02 00 fc 83 29 02 80 09 08 06      	! BUNDLE
	add_i64 %r3, %r3, %r8
	st_i64 %r3, %sp, 40
	br_le_i64 %r2, %r1, 128

    3e70: 60 01 00 bf 20 7a 00 60 02 82 01 0a 00 f0 07 a2      	! BUNDLE
	ld_u64 %r2, %sp, 88
	br_le_i64 %r2, %r1, 112
	ld_u64 %r1, %sp, 40

    3e80: fc ff ff 40 00 03 00 00 00 0a 33 00 00 f0 07 a6      	! BUNDLE
	add_imm_i64 %r1, %r1, -1
	lda_iprel %r10, 0
	st_i64 %r1, %sp, 0

		0000000000003e80:  R_POSTRISC_B_PCREL_FWD	.L.str.15
    3e90: 00 00 00 40 02 8d 05 00 fc 81 28 14 00 f0 0b a2      	! BUNDLE
	call %r9, 0
	ld_u64 %r1, %sp, 88
	ld_u64 %r2, %sp, 80

		0000000000003e90:  R_POSTRISC_A_JUMP	printf
    3ea0: 00 01 00 ff 20 9a 18 04 04 81 00 08 00 f0 07 a6      	! BUNDLE
	ld_u64 %r3, %sp, 64
	add_sub_i64 %r1, %r2, %r1, %r3
	st_i64 %r1, %sp, 32

    3eb0: 60 01 00 7f 20 0a 05 00 fc 82 28 10 00 f0 0f a2      	! BUNDLE
	ld_u64 %r1, %sp, 88
	ld_u64 %r2, %sp, 80
	ld_u64 %r3, %sp, 64

    3ec0: 28 06 82 40 20 80 01 00 fc 81 29 0a 00 f0 07 a2      	! BUNDLE
	sub_sub_i64 %r1, %r1, %r2, %r3
	st_i64 %r1, %sp, 24
	ld_u64 %r1, %sp, 40

    3ed0: 80 01 00 80 40 00 00 00 00 00 01 00 00 00 00 04      	! BUNDLE
	retf 96
	nop 0
	nop 0

    3ee0: a0 00 00 7f 20 1a 00 00 02 01 0c 00 00 00 28 cc      	! BUNDLE
	ld_u64 %r1, %sp, 40
	add_imm_i64 %r1, %r1, 1
	lda_iprel %r10, 0

		0000000000003ee0:  R_POSTRISC_C_PCREL_FWD	.L.str.16
    3ef0: 00 00 00 7f 60 0a 00 00 00 09 74 00 00 f8 2b 00      	! BUNDLE
	st_i64 %r1, %sp, 0
	call %r9, 0
	mov %r10, %gz

		0000000000003ef0:  R_POSTRISC_B_JUMP	printf
    3f00: 00 00 00 40 02 0d 00 00 00 00 01 00 00 00 00 04      	! BUNDLE
	call %r9, 0
	nop 0
	nop 0

		0000000000003f00:  R_POSTRISC_A_JUMP	exit

0000000000003f10 <NeverReturn>:
    3f10: 40 00 80 03 41 40 00 c0 fe 81 01 00 00 00 0c cc      	! BUNDLE
	alloc_sp 7, 16
	br_eq_i32 %r1, %gz, 64
	lda_iprel %r3, 0

		0000000000003f10:  R_POSTRISC_C_PCREL_FWD	.L.str.17
    3f20: 00 00 00 7f 00 1a 00 00 06 06 00 00 00 00 14 d0      	! BUNDLE
	st_i32 %r1, %sp, 0
	mov %r6, %r3
	call %r5, 0

		0000000000003f20:  R_POSTRISC_C_JUMP	printf
    3f30: 00 00 00 00 21 1c 00 00 08 04 cc ff ff 0f 04 34      	! BUNDLE
	ld_iprel_u64 %r4, 0
	add_imm_i64 %r4, %r4, 1
	add_imm_i32 %r1, %r1, -1

		0000000000003f30:  R_POSTRISC_A_PCREL_FWD	uglbx
    3f40: 00 00 00 00 61 ec ff ff fe 81 01 00 00 00 00 04      	! BUNDLE
	st_iprel_i64 %r4, 0
	br_ne_i32 %r1, %gz, -32
	nop 0

		0000000000003f40:  R_POSTRISC_A_PCREL_FWD	uglbx
    3f50: 00 00 00 40 c0 0c 00 00 00 00 01 00 00 00 00 04      	! BUNDLE
	lda_iprel %r1, 0
	nop 0
	nop 0

		0000000000003f50:  R_POSTRISC_A_PCREL_FWD	.L.str.18
    3f60: 00 00 00 bf 00 1a 00 00 02 06 00 00 00 00 14 d0      	! BUNDLE
	st_i32 %r2, %sp, 0
	mov %r6, %r1
	call %r5, 0

		0000000000003f60:  R_POSTRISC_C_JUMP	printf
    3f70: 00 00 00 c0 c0 fb ff ff 05 02 cd ff ff 1f 0c 34      	! BUNDLE
	ld_iprel_u32 %r3, 0
	add_imm_i32 %r2, %r2, -1
	add_imm_i32 %r3, %r3, -1

		0000000000003f70:  R_POSTRISC_A_PCREL_FWD	glbx
    3f80: 00 00 00 c0 00 ec ff ff ff 01 01 00 00 00 00 04      	! BUNDLE
	st_iprel_i32 %r3, 0
	jmp -32
	nop 0

		0000000000003f80:  R_POSTRISC_A_PCREL_FWD	glbx

0000000000003f90 <i64_add>:
    3f90: 00 00 80 c1 40 00 00 00 00 82 af 00 00 00 00 04      	! BUNDLE
	alloc 3
	ld_iprel_i32 %r2, 0
	nop 2

		0000000000003f90:  R_POSTRISC_B_PCREL_FWD	glbx
    3fa0: 4a 1d 82 40 00 91 00 00 00 00 00 00 00 00 04 c0      	! BUNDLE
	lda_xi64.l %r1, %r1, %r2, 0, 1234
	st_iprel_i32 %r1, 0

		0000000000003fa0:  R_POSTRISC_C_PCREL_FWD	glbx
    3fb0: 00 00 00 80 40 00 00 00 00 00 01 00 00 00 00 04      	! BUNDLE
	retf 0
	nop 0
	nop 0


0000000000003fc0 <i32_add>:
    3fc0: 00 00 00 c3 40 00 00 00 00 03 6f 00 00 08 14 00      	! BUNDLE
	alloc 6
	ld_iprel_u32 %r3, 0
	mov %r5, %r1

		0000000000003fc0:  R_POSTRISC_B_PCREL_FWD	glb
    3fd0: 00 00 00 00 01 0d 00 00 00 82 b4 00 10 10 04 00      	! BUNDLE
	call %r4, 0
	lda_r %r2, 0
	add_i32 %r1, %r2, %r1

		0000000000003fd0:  R_POSTRISC_A_JUMP	cccc
		0000000000003fd0:  R_POSTRISC_B_JUMP	cccc
    3fe0: 08 00 83 40 00 20 00 14 02 01 40 0e 0c 08 04 34      	! BUNDLE
	add_i32 %r1, %r1, %r3
	add_i32 %r1, %r1, %r5
	add_imm_i32 %r1, %r1, 12345

    3ff0: 00 00 00 80 40 00 00 00 00 00 01 00 00 00 00 04      	! BUNDLE
	retf 0
	nop 0
	nop 0


0000000000004000 <u32_add>:
    4000: 00 00 80 c1 40 00 00 00 00 02 af 00 10 10 04 00      	! BUNDLE
	alloc 3
	ld_iprel_u32 %r2, 0
	add_i32 %r1, %r2, %r1

		0000000000004000:  R_POSTRISC_B_PCREL_FWD	uglb
    4010: 00 00 00 80 40 00 00 00 00 00 01 00 00 00 00 04      	! BUNDLE
	retf 0
	nop 0
	nop 0


0000000000004020 <float_test>:
    4020: 40 00 80 02 41 30 00 60 02 02 03 00 00 00 10 cc      	! BUNDLE
	alloc_sp 5, 16
	br_ole_f64 %r2, %r1, 48
	lda_iprel %r4, 0

		0000000000004020:  R_POSTRISC_C_PCREL_FWD	.L.str.19
    4030: 00 00 00 7f 60 0a 00 00 00 03 74 00 00 20 04 00      	! BUNDLE
	st_i64 %r1, %sp, 0
	call %r3, 0
	mov %r1, %r4

		0000000000004030:  R_POSTRISC_B_JUMP	printf
    4040: 40 00 00 80 40 00 00 00 00 00 01 00 00 00 00 04      	! BUNDLE
	retf 16
	nop 0
	nop 0

    4050: 08 00 00 40 00 02 01 00 00 02 01 00 00 00 00 04      	! BUNDLE
	ld_imm %r1, 2
	retf 16
	nop 0


0000000000004060 <main>:
    4060: 00 00 00 c1 40 10 00 00 fe 01 00 00 00 00 08 04      	! BUNDLE
	alloc 2
	mov %r1, %gz
	retf 0


0000000000004070 <test_fp_arithmetic_f16>:
    4070: 00 00 00 c2 40 30 48 04 04 03 00 21 21 08 04 00      	! BUNDLE
	alloc 4
	add_f16 %r3, %r2, %r1
	sub_f16 %r1, %r1, %r2

    4080: 18 12 81 41 00 80 48 08 02 01 00 00 00 00 08 04      	! BUNDLE
	mul_f16 %r1, %r3, %r1
	div_f16 %r1, %r1, %r2
	retf 0


0000000000004090 <test_fp_arithmetic_f32>:
    4090: 00 00 00 c2 40 30 30 04 04 03 00 c1 20 08 04 00      	! BUNDLE
	alloc 4
	add_f32 %r3, %r2, %r1
	sub_f32 %r1, %r1, %r2

    40a0: 18 0c 81 41 00 80 30 08 02 01 00 00 00 00 08 04      	! BUNDLE
	mul_f32 %r1, %r3, %r1
	div_f32 %r1, %r1, %r2
	retf 0


00000000000040b0 <test_fp_arithmetic_f64>:
    40b0: 00 00 00 c2 40 30 38 04 04 03 00 e1 20 08 04 00      	! BUNDLE
	alloc 4
	add_f64 %r3, %r2, %r1
	sub_f64 %r1, %r1, %r2

    40c0: 18 0e 81 41 00 80 38 08 02 01 00 00 00 00 08 04      	! BUNDLE
	mul_f64 %r1, %r3, %r1
	div_f64 %r1, %r1, %r2
	retf 0


00000000000040d0 <test_fp_arithmetic_f128>:
    40d0: 00 00 00 c2 40 30 40 04 04 03 00 01 21 08 04 00      	! BUNDLE
	alloc 4
	add_f128 %r3, %r2, %r1
	sub_f128 %r1, %r1, %r2

    40e0: 18 10 81 41 00 80 40 08 02 01 00 00 00 00 08 04      	! BUNDLE
	mul_f128 %r1, %r3, %r1
	div_f128 %r1, %r1, %r2
	retf 0


00000000000040f0 <test_fp_bitcast_i16_to_f16>:
    40f0: 40 00 00 01 41 e0 00 00 fc 81 a6 03 00 f0 07 96      	! BUNDLE
	alloc_sp 2, 16
	st_i16 %r1, %sp, 14
	ld_u16 %r1, %sp, 14

    4100: 40 00 00 80 40 00 00 00 00 00 01 00 00 00 00 04      	! BUNDLE
	retf 16
	nop 0
	nop 0


0000000000004110 <test_fp_bitcast_f16_to_i16>:
    4110: 40 00 00 01 41 e0 00 00 fc 81 a6 03 00 f0 07 98      	! BUNDLE
	alloc_sp 2, 16
	st_i16 %r1, %sp, 14
	ld_i16 %r1, %sp, 14

    4120: 40 00 00 80 40 00 00 00 00 00 01 00 00 00 00 04      	! BUNDLE
	retf 16
	nop 0
	nop 0


0000000000004130 <test_fp_bitcast_i32_to_f32>:
    4130: 00 00 00 c1 40 00 00 00 00 02 01 00 00 00 00 04      	! BUNDLE
	alloc 2
	retf 0
	nop 0


0000000000004140 <test_fp_bitcast_f32_to_i32>:
    4140: 00 00 00 c1 40 00 00 00 00 02 01 00 00 00 00 04      	! BUNDLE
	alloc 2
	retf 0
	nop 0


0000000000004150 <test_fp_bitcast_i64_to_f64>:
    4150: 00 00 00 c1 40 00 00 00 00 02 01 00 00 00 00 04      	! BUNDLE
	alloc 2
	retf 0
	nop 0


0000000000004160 <test_fp_bitcast_f64_to_i64>:
    4160: 00 00 00 c1 40 00 00 00 00 02 01 00 00 00 00 04      	! BUNDLE
	alloc 2
	retf 0
	nop 0


0000000000004170 <test_fp_bitcast_i128_to_f128>:
    4170: 00 00 00 c1 40 00 00 00 00 02 01 00 00 00 00 04      	! BUNDLE
	alloc 2
	retf 0
	nop 0


0000000000004180 <test_fp_bitcast_f128_to_i128>:
    4180: 00 00 00 c1 40 00 00 00 00 02 01 00 00 00 00 04      	! BUNDLE
	alloc 2
	retf 0
	nop 0


0000000000004190 <test_fp_branch_f32_eq>:
    4190: 00 00 80 c2 40 10 10 00 04 81 00 00 00 00 10 cc      	! BUNDLE
	alloc 5
	nul_oeq_f32 %r1, %r2, 2, 0
	lda_iprel %r4, 0

		0000000000004190:  R_POSTRISC_C_PCREL_FWD	.Lstr.99
    41a0: 00 00 00 c0 00 0d 00 00 00 02 01 00 00 00 00 04      	! BUNDLE
	call %r3, 0
	retf 0
	nop 0

		00000000000041a0:  R_POSTRISC_A_JUMP	puts

00000000000041b0 <test_fp_branch_f32_ne>:
    41b0: 00 00 80 c2 40 10 10 20 04 81 00 00 00 00 10 cc      	! BUNDLE
	alloc 5
	nul_one_f32 %r1, %r2, 2, 0
	lda_iprel %r4, 0

		00000000000041b0:  R_POSTRISC_C_PCREL_FWD	.Lstr.100
    41c0: 00 00 00 c0 00 0d 00 00 00 02 01 00 00 00 00 04      	! BUNDLE
	call %r3, 0
	retf 0
	nop 0

		00000000000041c0:  R_POSTRISC_A_JUMP	puts

00000000000041d0 <test_fp_branch_f32_lt>:
    41d0: 00 00 80 c2 40 10 10 40 04 81 00 00 00 00 10 cc      	! BUNDLE
	alloc 5
	nul_olt_f32 %r1, %r2, 2, 0
	lda_iprel %r4, 0

		00000000000041d0:  R_POSTRISC_C_PCREL_FWD	.Lstr.101
    41e0: 00 00 00 c0 00 0d 00 00 00 02 01 00 00 00 00 04      	! BUNDLE
	call %r3, 0
	retf 0
	nop 0

		00000000000041e0:  R_POSTRISC_A_JUMP	puts

00000000000041f0 <test_fp_branch_f32_le>:
    41f0: 00 00 80 c2 40 10 10 60 04 81 00 00 00 00 10 cc      	! BUNDLE
	alloc 5
	nul_ole_f32 %r1, %r2, 2, 0
	lda_iprel %r4, 0

		00000000000041f0:  R_POSTRISC_C_PCREL_FWD	.Lstr.102
    4200: 00 00 00 c0 00 0d 00 00 00 02 01 00 00 00 00 04      	! BUNDLE
	call %r3, 0
	retf 0
	nop 0

		0000000000004200:  R_POSTRISC_A_JUMP	puts

0000000000004210 <test_fp_branch_f32_gt>:
    4210: 00 00 80 c2 40 10 10 40 02 82 00 00 00 00 10 cc      	! BUNDLE
	alloc 5
	nul_olt_f32 %r2, %r1, 2, 0
	lda_iprel %r4, 0

		0000000000004210:  R_POSTRISC_C_PCREL_FWD	.Lstr.103
    4220: 00 00 00 c0 00 0d 00 00 00 02 01 00 00 00 00 04      	! BUNDLE
	call %r3, 0
	retf 0
	nop 0

		0000000000004220:  R_POSTRISC_A_JUMP	puts

0000000000004230 <test_fp_branch_f32_ge>:
    4230: 00 00 80 c2 40 10 10 60 02 82 00 00 00 00 10 cc      	! BUNDLE
	alloc 5
	nul_ole_f32 %r2, %r1, 2, 0
	lda_iprel %r4, 0

		0000000000004230:  R_POSTRISC_C_PCREL_FWD	.Lstr.104
    4240: 00 00 00 c0 00 0d 00 00 00 02 01 00 00 00 00 04      	! BUNDLE
	call %r3, 0
	retf 0
	nop 0

		0000000000004240:  R_POSTRISC_A_JUMP	puts

0000000000004250 <test_fp_branch_f64_eq>:
    4250: 00 00 80 c2 40 20 10 00 04 81 00 00 00 00 10 cc      	! BUNDLE
	alloc 5
	nul_oeq_f64 %r1, %r2, 2, 0
	lda_iprel %r4, 0

		0000000000004250:  R_POSTRISC_C_PCREL_FWD	.Lstr.105
    4260: 00 00 00 c0 00 0d 00 00 00 02 01 00 00 00 00 04      	! BUNDLE
	call %r3, 0
	retf 0
	nop 0

		0000000000004260:  R_POSTRISC_A_JUMP	puts

0000000000004270 <test_fp_branch_f64_ne>:
    4270: 00 00 80 c2 40 20 10 20 04 81 00 00 00 00 10 cc      	! BUNDLE
	alloc 5
	nul_one_f64 %r1, %r2, 2, 0
	lda_iprel %r4, 0

		0000000000004270:  R_POSTRISC_C_PCREL_FWD	.Lstr.106
    4280: 00 00 00 c0 00 0d 00 00 00 02 01 00 00 00 00 04      	! BUNDLE
	call %r3, 0
	retf 0
	nop 0

		0000000000004280:  R_POSTRISC_A_JUMP	puts

0000000000004290 <test_fp_branch_f64_lt>:
    4290: 00 00 80 c2 40 20 10 40 04 81 00 00 00 00 10 cc      	! BUNDLE
	alloc 5
	nul_olt_f64 %r1, %r2, 2, 0
	lda_iprel %r4, 0

		0000000000004290:  R_POSTRISC_C_PCREL_FWD	.Lstr.107
    42a0: 00 00 00 c0 00 0d 00 00 00 02 01 00 00 00 00 04      	! BUNDLE
	call %r3, 0
	retf 0
	nop 0

		00000000000042a0:  R_POSTRISC_A_JUMP	puts

00000000000042b0 <test_fp_branch_f64_le>:
    42b0: 00 00 80 c2 40 20 10 60 04 81 00 00 00 00 10 cc      	! BUNDLE
	alloc 5
	nul_ole_f64 %r1, %r2, 2, 0
	lda_iprel %r4, 0

		00000000000042b0:  R_POSTRISC_C_PCREL_FWD	.Lstr.108
    42c0: 00 00 00 c0 00 0d 00 00 00 02 01 00 00 00 00 04      	! BUNDLE
	call %r3, 0
	retf 0
	nop 0

		00000000000042c0:  R_POSTRISC_A_JUMP	puts

00000000000042d0 <test_fp_branch_f64_gt>:
    42d0: 00 00 80 c2 40 20 10 40 02 82 00 00 00 00 10 cc      	! BUNDLE
	alloc 5
	nul_olt_f64 %r2, %r1, 2, 0
	lda_iprel %r4, 0

		00000000000042d0:  R_POSTRISC_C_PCREL_FWD	.Lstr.109
    42e0: 00 00 00 c0 00 0d 00 00 00 02 01 00 00 00 00 04      	! BUNDLE
	call %r3, 0
	retf 0
	nop 0

		00000000000042e0:  R_POSTRISC_A_JUMP	puts

00000000000042f0 <test_fp_branch_f64_ge>:
    42f0: 00 00 80 c2 40 20 10 60 02 82 00 00 00 00 10 cc      	! BUNDLE
	alloc 5
	nul_ole_f64 %r2, %r1, 2, 0
	lda_iprel %r4, 0

		00000000000042f0:  R_POSTRISC_C_PCREL_FWD	.Lstr.110
    4300: 00 00 00 c0 00 0d 00 00 00 02 01 00 00 00 00 04      	! BUNDLE
	call %r3, 0
	retf 0
	nop 0

		0000000000004300:  R_POSTRISC_A_JUMP	puts

0000000000004310 <test_fp_branch_f128_eq>:
    4310: 00 00 80 c2 40 30 10 00 04 81 00 00 00 00 10 cc      	! BUNDLE
	alloc 5
	nul_oeq_f128 %r1, %r2, 2, 0
	lda_iprel %r4, 0

		0000000000004310:  R_POSTRISC_C_PCREL_FWD	.Lstr.111
    4320: 00 00 00 c0 00 0d 00 00 00 02 01 00 00 00 00 04      	! BUNDLE
	call %r3, 0
	retf 0
	nop 0

		0000000000004320:  R_POSTRISC_A_JUMP	puts

0000000000004330 <test_fp_branch_f128_ne>:
    4330: 00 00 80 c2 40 30 10 20 04 81 00 00 00 00 10 cc      	! BUNDLE
	alloc 5
	nul_one_f128 %r1, %r2, 2, 0
	lda_iprel %r4, 0

		0000000000004330:  R_POSTRISC_C_PCREL_FWD	.Lstr.112
    4340: 00 00 00 c0 00 0d 00 00 00 02 01 00 00 00 00 04      	! BUNDLE
	call %r3, 0
	retf 0
	nop 0

		0000000000004340:  R_POSTRISC_A_JUMP	puts

0000000000004350 <test_fp_branch_f128_lt>:
    4350: 00 00 80 c2 40 30 10 40 04 81 00 00 00 00 10 cc      	! BUNDLE
	alloc 5
	nul_olt_f128 %r1, %r2, 2, 0
	lda_iprel %r4, 0

		0000000000004350:  R_POSTRISC_C_PCREL_FWD	.Lstr.113
    4360: 00 00 00 c0 00 0d 00 00 00 02 01 00 00 00 00 04      	! BUNDLE
	call %r3, 0
	retf 0
	nop 0

		0000000000004360:  R_POSTRISC_A_JUMP	puts

0000000000004370 <test_fp_branch_f128_le>:
    4370: 00 00 80 c2 40 30 10 60 04 81 00 00 00 00 10 cc      	! BUNDLE
	alloc 5
	nul_ole_f128 %r1, %r2, 2, 0
	lda_iprel %r4, 0

		0000000000004370:  R_POSTRISC_C_PCREL_FWD	.Lstr.114
    4380: 00 00 00 c0 00 0d 00 00 00 02 01 00 00 00 00 04      	! BUNDLE
	call %r3, 0
	retf 0
	nop 0

		0000000000004380:  R_POSTRISC_A_JUMP	puts

0000000000004390 <test_fp_branch_f128_gt>:
    4390: 00 00 80 c2 40 30 10 40 02 82 00 00 00 00 10 cc      	! BUNDLE
	alloc 5
	nul_olt_f128 %r2, %r1, 2, 0
	lda_iprel %r4, 0

		0000000000004390:  R_POSTRISC_C_PCREL_FWD	.Lstr.115
    43a0: 00 00 00 c0 00 0d 00 00 00 02 01 00 00 00 00 04      	! BUNDLE
	call %r3, 0
	retf 0
	nop 0

		00000000000043a0:  R_POSTRISC_A_JUMP	puts

00000000000043b0 <test_fp_branch_f128_ge>:
    43b0: 00 00 80 c2 40 30 10 60 02 82 00 00 00 00 10 cc      	! BUNDLE
	alloc 5
	nul_ole_f128 %r2, %r1, 2, 0
	lda_iprel %r4, 0

		00000000000043b0:  R_POSTRISC_C_PCREL_FWD	.Lstr.116
    43c0: 00 00 00 c0 00 0d 00 00 00 02 01 00 00 00 00 04      	! BUNDLE
	call %r3, 0
	retf 0
	nop 0

		00000000000043c0:  R_POSTRISC_A_JUMP	puts

00000000000043d0 <test_builtin_f32_isnan>:
    43d0: 00 00 00 c1 40 10 00 00 fe 01 00 00 00 00 08 04      	! BUNDLE
	alloc 2
	mov %r1, %gz
	retf 0


00000000000043e0 <test_builtin_f32_copysign>:
    43e0: 00 00 80 c1 40 00 0d 04 04 81 00 00 00 00 08 04      	! BUNDLE
	alloc 3
	merge_f32 %r1, %r2, %r1, %r1
	retf 0


00000000000043f0 <test_builtin_f64_copysign>:
    43f0: 00 00 80 c1 40 00 0c 04 04 81 00 00 00 00 08 04      	! BUNDLE
	alloc 3
	merge_f64 %r1, %r2, %r1, %r1
	retf 0


0000000000004400 <test_builtin_f128_copysign>:
    4400: 00 00 80 c1 40 80 0b 04 04 81 00 00 00 00 08 04      	! BUNDLE
	alloc 3
	merge_f128 %r1, %r2, %r1, %r1
	retf 0


0000000000004410 <test_compare_f16_eq>:
    4410: 00 00 80 c1 40 b0 49 08 02 01 00 00 00 00 08 04      	! BUNDLE
	alloc 3
	cmp_oeq_f16 %r1, %r1, %r2
	retf 0


0000000000004420 <test_compare_f16_ne>:
    4420: 00 00 80 c1 40 c0 49 08 02 01 00 00 00 00 08 04      	! BUNDLE
	alloc 3
	cmp_one_f16 %r1, %r1, %r2
	retf 0


0000000000004430 <test_compare_f16_lt>:
    4430: 00 00 80 c1 40 d0 49 08 02 01 00 00 00 00 08 04      	! BUNDLE
	alloc 3
	cmp_olt_f16 %r1, %r1, %r2
	retf 0


0000000000004440 <test_compare_f16_le>:
    4440: 00 00 80 c1 40 e0 49 08 02 01 00 00 00 00 08 04      	! BUNDLE
	alloc 3
	cmp_ole_f16 %r1, %r1, %r2
	retf 0


0000000000004450 <test_compare_f16_gt>:
    4450: 00 00 80 c1 40 d0 49 04 04 01 00 00 00 00 08 04      	! BUNDLE
	alloc 3
	cmp_olt_f16 %r1, %r2, %r1
	retf 0


0000000000004460 <test_compare_f16_ge>:
    4460: 00 00 80 c1 40 e0 49 04 04 01 00 00 00 00 08 04      	! BUNDLE
	alloc 3
	cmp_ole_f16 %r1, %r2, %r1
	retf 0


0000000000004470 <test_compare_f32_eq>:
    4470: 00 00 80 c1 40 b0 31 08 02 01 00 00 00 00 08 04      	! BUNDLE
	alloc 3
	cmp_oeq_f32 %r1, %r1, %r2
	retf 0


0000000000004480 <test_compare_f32_ne>:
    4480: 00 00 80 c1 40 c0 31 08 02 01 00 00 00 00 08 04      	! BUNDLE
	alloc 3
	cmp_one_f32 %r1, %r1, %r2
	retf 0


0000000000004490 <test_compare_f32_lt>:
    4490: 00 00 80 c1 40 d0 31 08 02 01 00 00 00 00 08 04      	! BUNDLE
	alloc 3
	cmp_olt_f32 %r1, %r1, %r2
	retf 0


00000000000044a0 <test_compare_f32_le>:
    44a0: 00 00 80 c1 40 e0 31 08 02 01 00 00 00 00 08 04      	! BUNDLE
	alloc 3
	cmp_ole_f32 %r1, %r1, %r2
	retf 0


00000000000044b0 <test_compare_f32_gt>:
    44b0: 00 00 80 c1 40 d0 31 04 04 01 00 00 00 00 08 04      	! BUNDLE
	alloc 3
	cmp_olt_f32 %r1, %r2, %r1
	retf 0


00000000000044c0 <test_compare_f32_ge>:
    44c0: 00 00 80 c1 40 e0 31 04 04 01 00 00 00 00 08 04      	! BUNDLE
	alloc 3
	cmp_ole_f32 %r1, %r2, %r1
	retf 0


00000000000044d0 <test_compare_f64_eq>:
    44d0: 00 00 80 c1 40 b0 39 08 02 01 00 00 00 00 08 04      	! BUNDLE
	alloc 3
	cmp_oeq_f64 %r1, %r1, %r2
	retf 0


00000000000044e0 <test_compare_f64_ne>:
    44e0: 00 00 80 c1 40 c0 39 08 02 01 00 00 00 00 08 04      	! BUNDLE
	alloc 3
	cmp_one_f64 %r1, %r1, %r2
	retf 0


00000000000044f0 <test_compare_f64_lt>:
    44f0: 00 00 80 c1 40 d0 39 08 02 01 00 00 00 00 08 04      	! BUNDLE
	alloc 3
	cmp_olt_f64 %r1, %r1, %r2
	retf 0


0000000000004500 <test_compare_f64_le>:
    4500: 00 00 80 c1 40 e0 39 08 02 01 00 00 00 00 08 04      	! BUNDLE
	alloc 3
	cmp_ole_f64 %r1, %r1, %r2
	retf 0


0000000000004510 <test_compare_f64_gt>:
    4510: 00 00 80 c1 40 d0 39 04 04 01 00 00 00 00 08 04      	! BUNDLE
	alloc 3
	cmp_olt_f64 %r1, %r2, %r1
	retf 0


0000000000004520 <test_compare_f64_ge>:
    4520: 00 00 80 c1 40 e0 39 04 04 01 00 00 00 00 08 04      	! BUNDLE
	alloc 3
	cmp_ole_f64 %r1, %r2, %r1
	retf 0


0000000000004530 <test_compare_f128_eq>:
    4530: 00 00 80 c1 40 b0 41 08 02 01 00 00 00 00 08 04      	! BUNDLE
	alloc 3
	cmp_oeq_f128 %r1, %r1, %r2
	retf 0


0000000000004540 <test_compare_f128_ne>:
    4540: 00 00 80 c1 40 c0 41 08 02 01 00 00 00 00 08 04      	! BUNDLE
	alloc 3
	cmp_one_f128 %r1, %r1, %r2
	retf 0


0000000000004550 <test_compare_f128_lt>:
    4550: 00 00 80 c1 40 d0 41 08 02 01 00 00 00 00 08 04      	! BUNDLE
	alloc 3
	cmp_olt_f128 %r1, %r1, %r2
	retf 0


0000000000004560 <test_compare_f128_le>:
    4560: 00 00 80 c1 40 e0 41 08 02 01 00 00 00 00 08 04      	! BUNDLE
	alloc 3
	cmp_ole_f128 %r1, %r1, %r2
	retf 0


0000000000004570 <test_compare_f128_gt>:
    4570: 00 00 80 c1 40 d0 41 04 04 01 00 00 00 00 08 04      	! BUNDLE
	alloc 3
	cmp_olt_f128 %r1, %r2, %r1
	retf 0


0000000000004580 <test_compare_f128_ge>:
    4580: 00 00 80 c1 40 e0 41 04 04 01 00 00 00 00 08 04      	! BUNDLE
	alloc 3
	cmp_ole_f128 %r1, %r2, %r1
	retf 0


0000000000004590 <test_conv_f16_to_f32>:
    4590: 00 00 00 c1 40 b0 07 00 02 01 00 00 00 00 08 04      	! BUNDLE
	alloc 2
	extend_f16_f32 %r1, %r1
	retf 0


00000000000045a0 <test_conv_f16_to_f64>:
    45a0: 00 00 00 c1 40 c0 07 00 02 01 00 00 00 00 08 04      	! BUNDLE
	alloc 2
	extend_f16_f64 %r1, %r1
	retf 0


00000000000045b0 <test_conv_f16_to_f128>:
    45b0: 00 00 00 c1 40 d0 07 00 02 01 00 00 00 00 08 04      	! BUNDLE
	alloc 2
	extend_f16_f128 %r1, %r1
	retf 0


00000000000045c0 <test_conv_f64_to_f128>:
    45c0: 00 00 00 c1 40 a0 07 00 02 01 00 00 00 00 08 04      	! BUNDLE
	alloc 2
	extend_f64_f128 %r1, %r1
	retf 0


00000000000045d0 <test_conv_f32_to_f64>:
    45d0: 00 00 00 c1 40 80 07 00 02 01 00 00 00 00 08 04      	! BUNDLE
	alloc 2
	extend_f32_f64 %r1, %r1
	retf 0


00000000000045e0 <test_conv_f32_to_f128>:
    45e0: 00 00 00 c1 40 90 07 00 02 01 00 00 00 00 08 04      	! BUNDLE
	alloc 2
	extend_f32_f128 %r1, %r1
	retf 0


00000000000045f0 <test_conv_f32_to_f16>:
    45f0: 00 00 00 c1 40 10 08 00 02 01 00 00 00 00 08 04      	! BUNDLE
	alloc 2
	cvt_f32_f16 %r1, %r1
	retf 0


0000000000004600 <test_conv_f64_to_f16>:
    4600: 00 00 00 c1 40 20 08 00 02 01 00 00 00 00 08 04      	! BUNDLE
	alloc 2
	cvt_f64_f16 %r1, %r1
	retf 0


0000000000004610 <test_conv_f64_to_f32>:
    4610: 00 00 00 c1 40 e0 07 00 02 01 00 00 00 00 08 04      	! BUNDLE
	alloc 2
	cvt_f64_f32 %r1, %r1
	retf 0


0000000000004620 <test_conv_f128_to_f16>:
    4620: 00 00 00 c1 40 30 08 00 02 01 00 00 00 00 08 04      	! BUNDLE
	alloc 2
	cvt_f128_f16 %r1, %r1
	retf 0


0000000000004630 <test_conv_f128_to_f32>:
    4630: 00 00 00 c1 40 00 08 00 02 01 00 00 00 00 08 04      	! BUNDLE
	alloc 2
	cvt_f128_f32 %r1, %r1
	retf 0


0000000000004640 <test_conv_f128_to_f64>:
    4640: 00 00 00 c1 40 f0 07 00 02 01 00 00 00 00 08 04      	! BUNDLE
	alloc 2
	cvt_f128_f64 %r1, %r1
	retf 0


0000000000004650 <test_conv_f16_to_i32>:
    4650: 00 00 00 c1 40 50 4a 00 02 01 00 00 00 00 08 04      	! BUNDLE
	alloc 2
	trunk_f16_i32 %r1, %r1
	retf 0


0000000000004660 <test_conv_f16_to_u32>:
    4660: 00 00 00 c1 40 60 4a 00 02 01 00 00 00 00 08 04      	! BUNDLE
	alloc 2
	trunk_f16_u32 %r1, %r1
	retf 0


0000000000004670 <test_conv_f16_to_i64>:
    4670: 00 00 00 c1 40 90 4a 00 02 01 00 00 00 00 08 04      	! BUNDLE
	alloc 2
	trunk_f16_i64 %r1, %r1
	retf 0


0000000000004680 <test_conv_f16_to_u64>:
    4680: 00 00 00 c1 40 a0 4a 00 02 01 00 00 00 00 08 04      	! BUNDLE
	alloc 2
	trunk_f16_u64 %r1, %r1
	retf 0


0000000000004690 <test_conv_f16_to_i128>:
    4690: 00 00 00 c1 40 d0 4a 00 02 01 00 00 00 00 08 04      	! BUNDLE
	alloc 2
	trunk_f16_i128 %r1, %r1
	retf 0


00000000000046a0 <test_conv_f16_to_u128>:
    46a0: 00 00 00 c1 40 e0 4a 00 02 01 00 00 00 00 08 04      	! BUNDLE
	alloc 2
	trunk_f16_u128 %r1, %r1
	retf 0


00000000000046b0 <test_conv_i32_to_f16>:
    46b0: 00 00 00 c1 40 70 4a 00 02 01 00 00 00 00 08 04      	! BUNDLE
	alloc 2
	cvt_i32_f16 %r1, %r1
	retf 0


00000000000046c0 <test_conv_u32_to_f16>:
    46c0: 00 00 00 c1 40 80 4a 00 02 01 00 00 00 00 08 04      	! BUNDLE
	alloc 2
	cvt_u32_f16 %r1, %r1
	retf 0


00000000000046d0 <test_conv_i64_to_f16>:
    46d0: 00 00 00 c1 40 b0 4a 00 02 01 00 00 00 00 08 04      	! BUNDLE
	alloc 2
	cvt_i64_f16 %r1, %r1
	retf 0


00000000000046e0 <test_conv_u64_to_f16>:
    46e0: 00 00 00 c1 40 c0 4a 00 02 01 00 00 00 00 08 04      	! BUNDLE
	alloc 2
	cvt_u64_f16 %r1, %r1
	retf 0


00000000000046f0 <test_conv_i128_to_f16>:
    46f0: 00 00 00 c1 40 f0 4a 00 02 01 00 00 00 00 08 04      	! BUNDLE
	alloc 2
	cvt_i128_f16 %r1, %r1
	retf 0


0000000000004700 <test_conv_u128_to_f16>:
    4700: 00 00 00 c1 40 00 4b 00 02 01 00 00 00 00 08 04      	! BUNDLE
	alloc 2
	cvt_u128_f16 %r1, %r1
	retf 0


0000000000004710 <test_conv_f32_to_i32>:
    4710: 00 00 00 c1 40 50 32 00 02 01 00 00 00 00 08 04      	! BUNDLE
	alloc 2
	trunk_f32_i32 %r1, %r1
	retf 0


0000000000004720 <test_conv_f32_to_u32>:
    4720: 00 00 00 c1 40 60 32 00 02 01 00 00 00 00 08 04      	! BUNDLE
	alloc 2
	trunk_f32_u32 %r1, %r1
	retf 0


0000000000004730 <test_conv_f32_to_i64>:
    4730: 00 00 00 c1 40 90 32 00 02 01 00 00 00 00 08 04      	! BUNDLE
	alloc 2
	trunk_f32_i64 %r1, %r1
	retf 0


0000000000004740 <test_conv_f32_to_u64>:
    4740: 00 00 00 c1 40 a0 32 00 02 01 00 00 00 00 08 04      	! BUNDLE
	alloc 2
	trunk_f32_u64 %r1, %r1
	retf 0


0000000000004750 <test_conv_f32_to_i128>:
    4750: 00 00 00 c1 40 d0 32 00 02 01 00 00 00 00 08 04      	! BUNDLE
	alloc 2
	trunk_f32_i128 %r1, %r1
	retf 0


0000000000004760 <test_conv_f32_to_u128>:
    4760: 00 00 00 c1 40 e0 32 00 02 01 00 00 00 00 08 04      	! BUNDLE
	alloc 2
	trunk_f32_u128 %r1, %r1
	retf 0


0000000000004770 <test_conv_i32_to_f32>:
    4770: 00 00 00 c1 40 70 32 00 02 01 00 00 00 00 08 04      	! BUNDLE
	alloc 2
	cvt_i32_f32 %r1, %r1
	retf 0


0000000000004780 <test_conv_u32_to_f32>:
    4780: 00 00 00 c1 40 80 32 00 02 01 00 00 00 00 08 04      	! BUNDLE
	alloc 2
	cvt_u32_f32 %r1, %r1
	retf 0


0000000000004790 <test_conv_i64_to_f32>:
    4790: 00 00 00 c1 40 b0 32 00 02 01 00 00 00 00 08 04      	! BUNDLE
	alloc 2
	cvt_i64_f32 %r1, %r1
	retf 0


00000000000047a0 <test_conv_u64_to_f32>:
    47a0: 00 00 00 c1 40 c0 32 00 02 01 00 00 00 00 08 04      	! BUNDLE
	alloc 2
	cvt_u64_f32 %r1, %r1
	retf 0


00000000000047b0 <test_conv_i128_to_f32>:
    47b0: 00 00 00 c1 40 f0 32 00 02 01 00 00 00 00 08 04      	! BUNDLE
	alloc 2
	cvt_i128_f32 %r1, %r1
	retf 0


00000000000047c0 <test_conv_u128_to_f32>:
    47c0: 00 00 00 c1 40 00 33 00 02 01 00 00 00 00 08 04      	! BUNDLE
	alloc 2
	cvt_u128_f32 %r1, %r1
	retf 0


00000000000047d0 <test_conv_f64_to_i32>:
    47d0: 00 00 00 c1 40 50 3a 00 02 01 00 00 00 00 08 04      	! BUNDLE
	alloc 2
	trunk_f64_i32 %r1, %r1
	retf 0


00000000000047e0 <test_conv_f64_to_u32>:
    47e0: 00 00 00 c1 40 60 3a 00 02 01 00 00 00 00 08 04      	! BUNDLE
	alloc 2
	trunk_f64_u32 %r1, %r1
	retf 0


00000000000047f0 <test_conv_f64_to_i64>:
    47f0: 00 00 00 c1 40 90 3a 00 02 01 00 00 00 00 08 04      	! BUNDLE
	alloc 2
	trunk_f64_i64 %r1, %r1
	retf 0


0000000000004800 <test_conv_f64_to_u64>:
    4800: 00 00 00 c1 40 a0 3a 00 02 01 00 00 00 00 08 04      	! BUNDLE
	alloc 2
	trunk_f64_u64 %r1, %r1
	retf 0


0000000000004810 <test_conv_f64_to_i128>:
    4810: 00 00 00 c1 40 d0 3a 00 02 01 00 00 00 00 08 04      	! BUNDLE
	alloc 2
	trunk_f64_i128 %r1, %r1
	retf 0


0000000000004820 <test_conv_f64_to_u128>:
    4820: 00 00 00 c1 40 e0 3a 00 02 01 00 00 00 00 08 04      	! BUNDLE
	alloc 2
	trunk_f64_u128 %r1, %r1
	retf 0


0000000000004830 <test_conv_i32_to_f64>:
    4830: 00 00 00 c1 40 70 3a 00 02 01 00 00 00 00 08 04      	! BUNDLE
	alloc 2
	cvt_i32_f64 %r1, %r1
	retf 0


0000000000004840 <test_conv_u32_to_f64>:
    4840: 00 00 00 c1 40 80 3a 00 02 01 00 00 00 00 08 04      	! BUNDLE
	alloc 2
	cvt_u32_f64 %r1, %r1
	retf 0


0000000000004850 <test_conv_i64_to_f64>:
    4850: 00 00 00 c1 40 b0 3a 00 02 01 00 00 00 00 08 04      	! BUNDLE
	alloc 2
	cvt_i64_f64 %r1, %r1
	retf 0


0000000000004860 <test_conv_u64_to_f64>:
    4860: 00 00 00 c1 40 c0 3a 00 02 01 00 00 00 00 08 04      	! BUNDLE
	alloc 2
	cvt_u64_f64 %r1, %r1
	retf 0


0000000000004870 <test_conv_i128_to_f64>:
    4870: 00 00 00 c1 40 f0 3a 00 02 01 00 00 00 00 08 04      	! BUNDLE
	alloc 2
	cvt_i128_f64 %r1, %r1
	retf 0


0000000000004880 <test_conv_u128_to_f64>:
    4880: 00 00 00 c1 40 00 3b 00 02 01 00 00 00 00 08 04      	! BUNDLE
	alloc 2
	cvt_u128_f64 %r1, %r1
	retf 0


0000000000004890 <test_conv_f128_to_i32>:
    4890: 00 00 00 c1 40 50 42 00 02 01 00 00 00 00 08 04      	! BUNDLE
	alloc 2
	trunk_f128_i32 %r1, %r1
	retf 0


00000000000048a0 <test_conv_f128_to_u32>:
    48a0: 00 00 00 c1 40 60 42 00 02 01 00 00 00 00 08 04      	! BUNDLE
	alloc 2
	trunk_f128_u32 %r1, %r1
	retf 0


00000000000048b0 <test_conv_f128_to_i64>:
    48b0: 00 00 00 c1 40 90 42 00 02 01 00 00 00 00 08 04      	! BUNDLE
	alloc 2
	trunk_f128_i64 %r1, %r1
	retf 0


00000000000048c0 <test_conv_f128_to_u64>:
    48c0: 00 00 00 c1 40 a0 42 00 02 01 00 00 00 00 08 04      	! BUNDLE
	alloc 2
	trunk_f128_u64 %r1, %r1
	retf 0


00000000000048d0 <test_conv_f128_to_i128>:
    48d0: 00 00 00 c1 40 d0 42 00 02 01 00 00 00 00 08 04      	! BUNDLE
	alloc 2
	trunk_f128_i128 %r1, %r1
	retf 0


00000000000048e0 <test_conv_f128_to_u128>:
    48e0: 00 00 00 c1 40 e0 42 00 02 01 00 00 00 00 08 04      	! BUNDLE
	alloc 2
	trunk_f128_u128 %r1, %r1
	retf 0


00000000000048f0 <test_conv_i32_to_f128>:
    48f0: 00 00 00 c1 40 70 42 00 02 01 00 00 00 00 08 04      	! BUNDLE
	alloc 2
	cvt_i32_f128 %r1, %r1
	retf 0


0000000000004900 <test_conv_u32_to_f128>:
    4900: 00 00 00 c1 40 80 42 00 02 01 00 00 00 00 08 04      	! BUNDLE
	alloc 2
	cvt_u32_f128 %r1, %r1
	retf 0


0000000000004910 <test_conv_i64_to_f128>:
    4910: 00 00 00 c1 40 b0 42 00 02 01 00 00 00 00 08 04      	! BUNDLE
	alloc 2
	cvt_i64_f128 %r1, %r1
	retf 0


0000000000004920 <test_conv_u64_to_f128>:
    4920: 00 00 00 c1 40 c0 42 00 02 01 00 00 00 00 08 04      	! BUNDLE
	alloc 2
	cvt_u64_f128 %r1, %r1
	retf 0


0000000000004930 <test_conv_i128_to_f128>:
    4930: 00 00 00 c1 40 f0 42 00 02 01 00 00 00 00 08 04      	! BUNDLE
	alloc 2
	cvt_i128_f128 %r1, %r1
	retf 0


0000000000004940 <test_conv_u128_to_f128>:
    4940: 00 00 00 c1 40 00 43 00 02 01 00 00 00 00 08 04      	! BUNDLE
	alloc 2
	cvt_u128_f128 %r1, %r1
	retf 0


0000000000004950 <test_fp_immediate_f16>:
    4950: 00 00 00 c1 40 70 fe 02 00 01 08 00 00 00 08 04      	! BUNDLE
	alloc 2
	ld_imm %r1, 12263
	retf 0


0000000000004960 <test_fp_immediate_f32>:
    4960: 01 00 00 c1 40 00 68 cd df 01 c8 00 00 00 00 00      	! BUNDLE
	alloc 2
	ld_imm.l %r1, 1039980160

    4970: 00 00 00 80 40 00 00 00 00 00 01 00 00 00 00 04      	! BUNDLE
	retf 0
	nop 0
	nop 0


0000000000004980 <test_fp_immediate_f64>:
    4980: 01 00 00 c1 40 f0 6b eb a7 01 c8 3f 6b fe fe 02      	! BUNDLE
	alloc 2
	ld_imm.l %r1, -4629811673862064449

    4990: 00 00 00 80 40 00 00 00 00 00 01 00 00 00 00 04      	! BUNDLE
	retf 0
	nop 0
	nop 0


00000000000049a0 <test_fp_immediate_f128>:
    49a0: 01 00 00 c1 40 30 64 ae 0c 01 88 6a 83 13 d1 03      	! BUNDLE
	alloc 2
	ld_imm.l %r1, -845303600433666493

    49b0: ae ad 9f 7e 20 f2 ac f9 fb 3f 00 00 00 00 08 04      	! BUNDLE
	ld_imm_high.l %r1, 4610553164962720619
	retf 0


00000000000049c0 <test_fp_immediate_f128_int>:
    49c0: 00 00 00 c1 40 00 00 00 00 01 88 00 00 00 00 04      	! BUNDLE
	alloc 2
	ld_imm %r1, 0
	nop 2

    49d0: 02 00 00 40 20 02 00 60 03 40 00 00 00 00 08 04      	! BUNDLE
	ld_imm_high.l %r1, 4612635996473786368
	retf 0


00000000000049e0 <test_fp_immediate_f128_denorm>:
    49e0: 00 00 00 c1 40 00 00 00 00 01 88 00 00 00 00 04      	! BUNDLE
	alloc 2
	ld_imm %r1, 0
	nop 2

    49f0: 02 00 00 40 20 02 00 00 a4 83 00 00 00 00 08 04      	! BUNDLE
	ld_imm_high.l %r1, -8961037358560444416
	retf 0


0000000000004a00 <test_roundeven_f32>:
    4a00: 00 00 00 c1 40 80 31 00 02 01 00 00 00 00 08 04      	! BUNDLE
	alloc 2
	roundeven_f32 %r1, %r1
	retf 0


0000000000004a10 <test_round_f32>:
    4a10: 00 00 00 c1 40 40 31 00 02 01 00 00 00 00 08 04      	! BUNDLE
	alloc 2
	round_f32 %r1, %r1
	retf 0


0000000000004a20 <test_floor_f32>:
    4a20: 00 00 00 c1 40 60 31 00 02 01 00 00 00 00 08 04      	! BUNDLE
	alloc 2
	floor_f32 %r1, %r1
	retf 0


0000000000004a30 <test_ceil_f32>:
    4a30: 00 00 00 c1 40 50 31 00 02 01 00 00 00 00 08 04      	! BUNDLE
	alloc 2
	ceil_f32 %r1, %r1
	retf 0


0000000000004a40 <test_trunc_f32>:
    4a40: 00 00 00 c1 40 70 31 00 02 01 00 00 00 00 08 04      	! BUNDLE
	alloc 2
	trunk_f32 %r1, %r1
	retf 0


0000000000004a50 <test_nearbyint_f32>:
    4a50: 00 00 00 c1 40 90 31 00 02 01 00 00 00 00 08 04      	! BUNDLE
	alloc 2
	nearbyint_f32 %r1, %r1
	retf 0


0000000000004a60 <test_rint_f32>:
    4a60: 00 00 00 c1 40 a0 31 00 02 01 00 00 00 00 08 04      	! BUNDLE
	alloc 2
	rint_f32 %r1, %r1
	retf 0


0000000000004a70 <test_roundeven_f64>:
    4a70: 00 00 00 c1 40 80 39 00 02 01 00 00 00 00 08 04      	! BUNDLE
	alloc 2
	roundeven_f64 %r1, %r1
	retf 0


0000000000004a80 <test_round_f64>:
    4a80: 00 00 00 c1 40 40 39 00 02 01 00 00 00 00 08 04      	! BUNDLE
	alloc 2
	round_f64 %r1, %r1
	retf 0


0000000000004a90 <test_floor_f64>:
    4a90: 00 00 00 c1 40 60 39 00 02 01 00 00 00 00 08 04      	! BUNDLE
	alloc 2
	floor_f64 %r1, %r1
	retf 0


0000000000004aa0 <test_ceil_f64>:
    4aa0: 00 00 00 c1 40 50 39 00 02 01 00 00 00 00 08 04      	! BUNDLE
	alloc 2
	ceil_f64 %r1, %r1
	retf 0


0000000000004ab0 <test_trunc_f64>:
    4ab0: 00 00 00 c1 40 70 39 00 02 01 00 00 00 00 08 04      	! BUNDLE
	alloc 2
	trunk_f64 %r1, %r1
	retf 0


0000000000004ac0 <test_nearbyint_f64>:
    4ac0: 00 00 00 c1 40 90 39 00 02 01 00 00 00 00 08 04      	! BUNDLE
	alloc 2
	nearbyint_f64 %r1, %r1
	retf 0


0000000000004ad0 <test_rint_f64>:
    4ad0: 00 00 00 c1 40 a0 39 00 02 01 00 00 00 00 08 04      	! BUNDLE
	alloc 2
	rint_f64 %r1, %r1
	retf 0


0000000000004ae0 <test_roundeven_f128>:
    4ae0: 00 00 00 c1 40 80 41 00 02 01 00 00 00 00 08 04      	! BUNDLE
	alloc 2
	roundeven_f128 %r1, %r1
	retf 0


0000000000004af0 <test_round_f128>:
    4af0: 00 00 00 c1 40 40 41 00 02 01 00 00 00 00 08 04      	! BUNDLE
	alloc 2
	round_f128 %r1, %r1
	retf 0


0000000000004b00 <test_floor_f128>:
    4b00: 00 00 00 c1 40 60 41 00 02 01 00 00 00 00 08 04      	! BUNDLE
	alloc 2
	floor_f128 %r1, %r1
	retf 0


0000000000004b10 <test_ceil_f128>:
    4b10: 00 00 00 c1 40 50 41 00 02 01 00 00 00 00 08 04      	! BUNDLE
	alloc 2
	ceil_f128 %r1, %r1
	retf 0


0000000000004b20 <test_trunc_f128>:
    4b20: 00 00 00 c1 40 70 41 00 02 01 00 00 00 00 08 04      	! BUNDLE
	alloc 2
	trunk_f128 %r1, %r1
	retf 0


0000000000004b30 <test_nearbyint_f128>:
    4b30: 00 00 00 c1 40 90 41 00 02 01 00 00 00 00 08 04      	! BUNDLE
	alloc 2
	nearbyint_f128 %r1, %r1
	retf 0


0000000000004b40 <test_rint_f128>:
    4b40: 00 00 00 c1 40 a0 41 00 02 01 00 00 00 00 08 04      	! BUNDLE
	alloc 2
	rint_f128 %r1, %r1
	retf 0


0000000000004b50 <test_fneg_f32>:
    4b50: 00 00 00 c1 40 90 30 00 02 01 00 00 00 00 08 04      	! BUNDLE
	alloc 2
	neg_f32 %r1, %r1
	retf 0


0000000000004b60 <test_fabs_f32>:
    4b60: 00 00 00 c1 40 a0 30 00 02 01 00 00 00 00 08 04      	! BUNDLE
	alloc 2
	abs_f32 %r1, %r1
	retf 0


0000000000004b70 <test_fnabs_f32>:
    4b70: 00 00 00 c1 40 b0 30 00 02 01 00 00 00 00 08 04      	! BUNDLE
	alloc 2
	nabs_f32 %r1, %r1
	retf 0


0000000000004b80 <test_fabsd_f32>:
    4b80: 00 00 80 c1 40 c0 30 08 02 01 00 00 00 00 08 04      	! BUNDLE
	alloc 3
	abs_diff_f32 %r1, %r1, %r2
	retf 0


0000000000004b90 <test_fnabsd_f32>:
    4b90: 00 00 80 c1 40 d0 30 08 02 01 00 00 00 00 08 04      	! BUNDLE
	alloc 3
	nabs_diff_f32 %r1, %r1, %r2
	retf 0


0000000000004ba0 <test_fneg_f64>:
    4ba0: 00 00 00 c1 40 90 38 00 02 01 00 00 00 00 08 04      	! BUNDLE
	alloc 2
	neg_f64 %r1, %r1
	retf 0


0000000000004bb0 <test_fabs_f64>:
    4bb0: 00 00 00 c1 40 a0 38 00 02 01 00 00 00 00 08 04      	! BUNDLE
	alloc 2
	abs_f64 %r1, %r1
	retf 0


0000000000004bc0 <test_fnabs_f64>:
    4bc0: 00 00 00 c1 40 b0 38 00 02 01 00 00 00 00 08 04      	! BUNDLE
	alloc 2
	nabs_f64 %r1, %r1
	retf 0


0000000000004bd0 <test_fabsd_f64>:
    4bd0: 00 00 80 c1 40 c0 38 08 02 01 00 00 00 00 08 04      	! BUNDLE
	alloc 3
	abs_diff_f64 %r1, %r1, %r2
	retf 0


0000000000004be0 <test_fnabsd_f64>:
    4be0: 00 00 80 c1 40 d0 38 08 02 01 00 00 00 00 08 04      	! BUNDLE
	alloc 3
	nabs_diff_f64 %r1, %r1, %r2
	retf 0


0000000000004bf0 <test_fneg_f128>:
    4bf0: 00 00 00 c1 40 90 40 00 02 01 00 00 00 00 08 04      	! BUNDLE
	alloc 2
	neg_f128 %r1, %r1
	retf 0


0000000000004c00 <test_fabs_f128>:
    4c00: 00 00 00 c1 40 a0 40 00 02 01 00 00 00 00 08 04      	! BUNDLE
	alloc 2
	abs_f128 %r1, %r1
	retf 0


0000000000004c10 <test_fnabs_f128>:
    4c10: 00 00 00 c1 40 b0 40 00 02 01 00 00 00 00 08 04      	! BUNDLE
	alloc 2
	nabs_f128 %r1, %r1
	retf 0


0000000000004c20 <test_fabsd_f128>:
    4c20: 00 00 80 c1 40 c0 40 08 02 01 00 00 00 00 08 04      	! BUNDLE
	alloc 3
	abs_diff_f128 %r1, %r1, %r2
	retf 0


0000000000004c30 <test_fnabsd_f128>:
    4c30: 00 00 80 c1 40 d0 40 08 02 01 00 00 00 00 08 04      	! BUNDLE
	alloc 3
	nabs_diff_f128 %r1, %r1, %r2
	retf 0


0000000000004c40 <fp_store_zero_dummy_return>:
    4c40: 00 00 00 c3 40 00 00 00 00 81 2d 00 0f 00 08 20      	! BUNDLE
	alloc 6
	ld_iprel_u16 %r1, 0
	ld_imm %r2, 15360

		0000000000004c40:  R_POSTRISC_B_PCREL_FWD	f16_zero
    4c50: 00 00 00 c0 c0 3b 48 08 02 01 00 00 00 00 04 ba      	! BUNDLE
	ld_iprel_u32 %r3, 0
	add_f16 %r1, %r1, %r2
	st_iprel_i16 %r1, 0

		0000000000004c50:  R_POSTRISC_A_PCREL_FWD	f32_zero
		0000000000004c50:  R_POSTRISC_C_PCREL_FWD	f16_zero
    4c60: 02 00 00 be 00 32 00 00 00 00 00 00 00 00 10 c2      	! BUNDLE
	ld_imm.l %r2, 1065353216
	ld_iprel_u64 %r4, 0

		0000000000004c60:  R_POSTRISC_C_PCREL_FWD	f64_zero
    4c70: 0c 0c 82 81 00 00 00 00 00 03 32 00 00 00 08 c0      	! BUNDLE
	add_f32 %r2, %r3, %r2
	ld_iprel_i128 %r3, 0
	st_iprel_i32 %r2, 0

		0000000000004c70:  R_POSTRISC_B_PCREL_FWD	f128_zero
		0000000000004c70:  R_POSTRISC_C_PCREL_FWD	f32_zero
    4c80: 02 00 00 40 01 02 00 00 f0 3f c0 e0 50 20 10 00      	! BUNDLE
	ld_imm.l %r5, 4607182418800017408
	add_f64 %r4, %r4, %r5

    4c90: 00 00 00 40 01 02 00 00 00 84 b1 00 00 00 00 04      	! BUNDLE
	ld_imm %r5, 0
	st_iprel_i64 %r4, 0
	nop 2

		0000000000004c90:  R_POSTRISC_B_PCREL_FWD	f64_zero
    4ca0: 02 00 00 40 21 02 00 00 ff 3f c0 00 51 18 0c 00      	! BUNDLE
	ld_imm_high.l %r5, 4611404543450677248
	add_f128 %r3, %r3, %r5

    4cb0: ec 01 80 40 00 30 30 04 04 01 00 1e 00 08 04 00      	! BUNDLE
	extend_f16_f32 %r1, %r1
	add_f32 %r1, %r2, %r1
	extend_f32_f64 %r1, %r1

    4cc0: 0c 0e 01 42 00 a0 07 00 02 01 c0 00 11 18 04 00      	! BUNDLE
	add_f64 %r1, %r4, %r1
	extend_f64_f128 %r1, %r1
	add_f128 %r1, %r3, %r1

    4cd0: fc 01 80 40 00 00 00 00 00 83 32 00 00 00 08 04      	! BUNDLE
	cvt_f128_f64 %r1, %r1
	st_iprel_i128 %r3, 0
	retf 0

		0000000000004cd0:  R_POSTRISC_B_PCREL_FWD	f128_zero

0000000000004ce0 <test_store_based_f16_zero>:
    4ce0: 00 00 00 c2 40 00 f4 01 02 ff 26 00 00 00 fc bb      	! BUNDLE
	alloc 4
	st_i16 %gz, %r1, 8000
	st_iprel_i16 %gz, 0

		0000000000004ce0:  R_POSTRISC_C_PCREL_FWD	f16_zero
    4cf0: 50 2a 82 c0 1f 41 a9 0c 02 ff 04 00 00 00 08 04      	! BUNDLE
	st_xi64_i16 %gz, %r1, %r2, 1, 20
	st_xi32_i16 %gz, %r1, %r3, 1, 20
	retf 0


0000000000004d00 <test_store_based_f32_zero>:
    4d00: 00 00 00 c2 40 00 e8 03 02 7f 28 00 00 00 fc c1      	! BUNDLE
	alloc 4
	st_i32 %gz, %r1, 16000
	st_iprel_i32 %gz, 0

		0000000000004d00:  R_POSTRISC_C_PCREL_FWD	f32_zero
    4d10: a0 50 82 c0 1f 81 42 0d 02 ff 04 00 00 00 08 04      	! BUNDLE
	st_xi64_i32 %gz, %r1, %r2, 2, 40
	st_xi32_i32 %gz, %r1, %r3, 2, 40
	retf 0


0000000000004d20 <test_store_based_f64_zero>:
    4d20: 00 00 00 c2 40 00 d0 07 02 ff 29 00 00 00 fc c7      	! BUNDLE
	alloc 4
	st_i64 %gz, %r1, 32000
	st_iprel_i64 %gz, 0

		0000000000004d20:  R_POSTRISC_C_PCREL_FWD	f64_zero
    4d30: a0 76 82 c0 1f 81 da 0d 02 ff 04 00 00 00 08 04      	! BUNDLE
	st_xi64_i64 %gz, %r1, %r2, 3, 40
	st_xi32_i64 %gz, %r1, %r3, 3, 40
	retf 0


0000000000004d40 <test_store_based_f128_zero>:
    4d40: 00 00 00 c2 40 00 a0 0f 02 ff 2a 00 00 00 fc cb      	! BUNDLE
	alloc 4
	st_i128 %gz, %r1, 64000
	st_iprel_i128 %gz, 0

		0000000000004d40:  R_POSTRISC_C_PCREL_FWD	f128_zero
    4d50: c0 9a 82 c0 1f 01 6b 0e 02 ff 04 00 00 00 08 04      	! BUNDLE
	st_xi64_i128 %gz, %r1, %r2, 4, 48
	st_xi32_i128 %gz, %r1, %r3, 4, 48
	retf 0


0000000000004d60 <test_function_pointer>:
    4d60: 00 00 80 c2 40 10 00 00 04 04 40 15 f0 0f 0c 00      	! BUNDLE
	alloc 5
	mov %r4, %r2
	call_ri %r3, %r1, %gz

    4d70: 08 00 02 42 00 00 00 00 00 02 01 00 00 00 00 04      	! BUNDLE
	add_i32 %r1, %r4, %r2
	retf 0
	nop 0


0000000000004d80 <test_function_call>:
    4d80: 00 00 80 c2 40 10 00 00 04 04 00 00 00 00 0c d0      	! BUNDLE
	alloc 5
	mov %r4, %r2
	call %r3, 0

		0000000000004d80:  R_POSTRISC_C_JUMP	ccc
    4d90: 08 00 02 42 00 00 00 00 00 02 01 00 00 00 00 04      	! BUNDLE
	add_i32 %r1, %r4, %r2
	retf 0
	nop 0


0000000000004da0 <test_function>:
    4da0: 00 00 80 c2 40 10 00 00 02 04 00 00 00 00 0c d0      	! BUNDLE
	alloc 5
	mov %r4, %r1
	call %r3, 0

		0000000000004da0:  R_POSTRISC_C_JUMP	xprintf
    4db0: 08 00 02 42 00 00 00 00 00 02 01 00 00 00 00 04      	! BUNDLE
	add_i32 %r1, %r4, %r2
	retf 0
	nop 0


0000000000004dc0 <test_callmi>:
    4dc0: 00 00 80 c2 40 70 19 04 04 82 80 15 00 10 0c 00      	! BUNDLE
	alloc 5
	sl_add_i64 %r2, %r2, %r1, 3
	call_mi %r3, %r2, 0

    4dd0: 08 00 01 42 00 00 00 00 00 02 01 00 00 00 00 04      	! BUNDLE
	add_i32 %r1, %r4, %r1
	retf 0
	nop 0


0000000000004de0 <test_callmi_folding>:
    4de0: 00 00 80 c2 40 10 00 00 04 04 80 15 60 08 0c 00      	! BUNDLE
	alloc 5
	mov %r4, %r2
	call_mi %r3, %r1, 48

    4df0: 08 00 00 42 40 03 00 00 00 02 01 00 00 00 00 04      	! BUNDLE
	add_imm_i32 %r1, %r4, 2
	retf 0
	nop 0


0000000000004e00 <test_callplt_folding>:
    4e00: 00 00 00 c2 40 10 00 00 02 03 00 00 00 00 08 ce      	! BUNDLE
	alloc 4
	mov %r3, %r1
	call_plt %r2, 0

		0000000000004e00:  R_POSTRISC_C_PCREL_FWD	gftable+0x28
    4e10: 08 00 80 41 40 03 00 00 00 02 01 00 00 00 00 04      	! BUNDLE
	add_imm_i32 %r1, %r3, 2
	retf 0
	nop 0


0000000000004e20 <test_global_function_pointer_target>:
    4e20: 00 00 00 c1 40 10 00 00 02 01 0d 00 00 00 08 04      	! BUNDLE
	alloc 2
	add_imm_i32 %r1, %r1, 1
	retf 0


0000000000004e30 <test_static_function_pointer_materialize>:
    4e30: 00 00 00 c1 40 10 00 00 00 81 34 00 00 00 08 04      	! BUNDLE
	alloc 2
	lda_r %r1, 1
	retf 0


0000000000004e40 <test_static_function_pointer_target>:
    4e40: 00 00 00 c1 40 10 00 00 02 01 0d 00 00 00 08 04      	! BUNDLE
	alloc 2
	add_imm_i32 %r1, %r1, 1
	retf 0


0000000000004e50 <test_global_function_pointer_materialize>:
    4e50: 00 00 00 c1 40 00 00 00 00 81 34 00 00 00 08 04      	! BUNDLE
	alloc 2
	lda_r %r1, 0
	retf 0

		0000000000004e50:  R_POSTRISC_B_JUMP	test_global_function_pointer_target

0000000000004e60 <test_extern_function_pointer_materialize>:
    4e60: 00 00 00 c1 40 00 00 00 00 81 34 00 00 00 08 04      	! BUNDLE
	alloc 2
	lda_r %r1, 0
	retf 0

		0000000000004e60:  R_POSTRISC_B_JUMP	test_extern_function_pointer_target

0000000000004e70 <test_fshr_u32>:
    4e70: 00 00 80 c1 40 f0 a0 04 04 81 00 00 00 00 08 04      	! BUNDLE
	alloc 3
	srp_imm_i32 %r1, %r2, %r1, 20
	retf 0


0000000000004e80 <test_fshr_u64>:
    4e80: 00 00 80 c1 40 20 a1 04 04 81 00 00 00 00 08 04      	! BUNDLE
	alloc 3
	srp_imm_i64 %r1, %r2, %r1, 20
	retf 0


0000000000004e90 <test_fshr_u128>:
    4e90: 00 00 80 c1 40 e0 a2 04 04 81 00 00 00 00 08 04      	! BUNDLE
	alloc 3
	srp_imm_i128 %r1, %r2, %r1, 20
	retf 0


0000000000004ea0 <test_rotate_u32>:
    4ea0: 00 00 00 c1 40 f0 a0 04 02 81 00 00 00 00 08 04      	! BUNDLE
	alloc 2
	srp_imm_i32 %r1, %r1, %r1, 20
	retf 0


0000000000004eb0 <test_rotate_u64>:
    4eb0: 00 00 00 c1 40 20 a1 04 02 81 00 00 00 00 08 04      	! BUNDLE
	alloc 2
	srp_imm_i64 %r1, %r1, %r1, 20
	retf 0


0000000000004ec0 <test_rotate_u128>:
    4ec0: 00 00 00 c1 40 e0 a2 04 02 81 00 00 00 00 08 04      	! BUNDLE
	alloc 2
	srp_imm_i128 %r1, %r1, %r1, 20
	retf 0


0000000000004ed0 <test_global_data>:
    4ed0: 00 00 80 c1 40 00 00 00 00 82 70 00 00 10 08 30      	! BUNDLE
	alloc 3
	ld_iprel_u64 %r2, 0
	add_imm_i64 %r2, %r2, 1

		0000000000004ed0:  R_POSTRISC_B_PCREL_FWD	x_bss
    4ee0: 00 00 00 80 60 0c 00 00 00 82 70 00 00 10 08 30      	! BUNDLE
	st_iprel_i64 %r2, 0
	ld_iprel_u64 %r2, 0
	add_imm_i64 %r2, %r2, 1

		0000000000004ee0:  R_POSTRISC_A_PCREL_FWD	x_bss
		0000000000004ee0:  R_POSTRISC_B_PCREL_FWD	x_bss_extern
    4ef0: 00 00 00 80 60 0c 00 00 00 02 01 00 00 00 00 04      	! BUNDLE
	st_iprel_i64 %r2, 0
	retf 0
	nop 0

		0000000000004ef0:  R_POSTRISC_A_PCREL_FWD	x_bss_extern

0000000000004f00 <test_global_i8_ptr>:
    4f00: 00 00 00 c1 40 00 00 00 00 01 33 00 00 00 08 04      	! BUNDLE
	alloc 2
	lda_iprel %r1, 0
	retf 0

		0000000000004f00:  R_POSTRISC_B_PCREL_FWD	global_i8

0000000000004f10 <test_global_i8>:
    4f10: 00 00 00 c1 40 00 00 00 00 81 2c 00 00 00 08 04      	! BUNDLE
	alloc 2
	ld_iprel_i8 %r1, 0
	retf 0

		0000000000004f10:  R_POSTRISC_B_PCREL_FWD	global_i8

0000000000004f20 <test_global_u8>:
    4f20: 00 00 00 c1 40 00 00 00 00 01 2c 00 00 00 08 04      	! BUNDLE
	alloc 2
	ld_iprel_u8 %r1, 0
	retf 0

		0000000000004f20:  R_POSTRISC_B_PCREL_FWD	global_u8

0000000000004f30 <test_global_i16>:
    4f30: 00 00 00 c1 40 00 00 00 00 01 2e 00 00 00 08 04      	! BUNDLE
	alloc 2
	ld_iprel_i16 %r1, 0
	retf 0

		0000000000004f30:  R_POSTRISC_B_PCREL_FWD	global_i16

0000000000004f40 <test_global_u16>:
    4f40: 00 00 00 c1 40 00 00 00 00 81 2d 00 00 00 08 04      	! BUNDLE
	alloc 2
	ld_iprel_u16 %r1, 0
	retf 0

		0000000000004f40:  R_POSTRISC_B_PCREL_FWD	global_u16

0000000000004f50 <test_global_i8_to_i16>:
    4f50: 00 00 00 c1 40 00 00 00 00 81 2c 00 00 00 08 04      	! BUNDLE
	alloc 2
	ld_iprel_i8 %r1, 0
	retf 0

		0000000000004f50:  R_POSTRISC_B_PCREL_FWD	global_i8

0000000000004f60 <test_global_u8_to_u16>:
    4f60: 00 00 00 c1 40 00 00 00 00 01 2c 00 00 00 08 04      	! BUNDLE
	alloc 2
	ld_iprel_u8 %r1, 0
	retf 0

		0000000000004f60:  R_POSTRISC_B_PCREL_FWD	global_u8

0000000000004f70 <test_global_i32>:
    4f70: 00 00 00 c1 40 00 00 00 00 01 2f 00 00 00 08 04      	! BUNDLE
	alloc 2
	ld_iprel_u32 %r1, 0
	retf 0

		0000000000004f70:  R_POSTRISC_B_PCREL_FWD	global_i32

0000000000004f80 <test_global_u32>:
    4f80: 00 00 00 c1 40 00 00 00 00 01 2f 00 00 00 08 04      	! BUNDLE
	alloc 2
	ld_iprel_u32 %r1, 0
	retf 0

		0000000000004f80:  R_POSTRISC_B_PCREL_FWD	global_u32

0000000000004f90 <test_global_i8_to_i32>:
    4f90: 00 00 00 c1 40 00 00 00 00 81 2c 00 00 00 08 04      	! BUNDLE
	alloc 2
	ld_iprel_i8 %r1, 0
	retf 0

		0000000000004f90:  R_POSTRISC_B_PCREL_FWD	global_i8

0000000000004fa0 <test_global_u8_to_u32>:
    4fa0: 00 00 00 c1 40 00 00 00 00 01 2c 00 00 00 08 04      	! BUNDLE
	alloc 2
	ld_iprel_u8 %r1, 0
	retf 0

		0000000000004fa0:  R_POSTRISC_B_PCREL_FWD	global_u8

0000000000004fb0 <test_global_i16_to_i32>:
    4fb0: 00 00 00 c1 40 00 00 00 00 01 2e 00 00 00 08 04      	! BUNDLE
	alloc 2
	ld_iprel_i16 %r1, 0
	retf 0

		0000000000004fb0:  R_POSTRISC_B_PCREL_FWD	global_i16

0000000000004fc0 <test_global_u16_to_u32>:
    4fc0: 00 00 00 c1 40 00 00 00 00 81 2d 00 00 00 08 04      	! BUNDLE
	alloc 2
	ld_iprel_u16 %r1, 0
	retf 0

		0000000000004fc0:  R_POSTRISC_B_PCREL_FWD	global_u16

0000000000004fd0 <test_global_i8_to_i64>:
    4fd0: 00 00 00 c1 40 00 00 00 00 81 2c 00 00 00 08 04      	! BUNDLE
	alloc 2
	ld_iprel_i8 %r1, 0
	retf 0

		0000000000004fd0:  R_POSTRISC_B_PCREL_FWD	global_i8

0000000000004fe0 <test_global_u8_to_u64>:
    4fe0: 00 00 00 c1 40 00 00 00 00 01 2c 00 00 00 08 04      	! BUNDLE
	alloc 2
	ld_iprel_u8 %r1, 0
	retf 0

		0000000000004fe0:  R_POSTRISC_B_PCREL_FWD	global_u8

0000000000004ff0 <test_global_i16_to_i64>:
    4ff0: 00 00 00 c1 40 00 00 00 00 01 2e 00 00 00 08 04      	! BUNDLE
	alloc 2
	ld_iprel_i16 %r1, 0
	retf 0

		0000000000004ff0:  R_POSTRISC_B_PCREL_FWD	global_i16

0000000000005000 <test_global_u16_to_u64>:
    5000: 00 00 00 c1 40 00 00 00 00 81 2d 00 00 00 08 04      	! BUNDLE
	alloc 2
	ld_iprel_u16 %r1, 0
	retf 0

		0000000000005000:  R_POSTRISC_B_PCREL_FWD	global_u16

0000000000005010 <test_global_i32_to_i64>:
    5010: 00 00 00 c1 40 00 00 00 00 81 2f 00 00 00 08 04      	! BUNDLE
	alloc 2
	ld_iprel_i32 %r1, 0
	retf 0

		0000000000005010:  R_POSTRISC_B_PCREL_FWD	global_i32

0000000000005020 <test_global_u32_to_u64>:
    5020: 00 00 00 c1 40 00 00 00 00 01 2f 00 00 00 08 04      	! BUNDLE
	alloc 2
	ld_iprel_u32 %r1, 0
	retf 0

		0000000000005020:  R_POSTRISC_B_PCREL_FWD	global_u32

0000000000005030 <test_global_i64>:
    5030: 00 00 00 c1 40 00 00 00 00 81 30 00 00 00 08 04      	! BUNDLE
	alloc 2
	ld_iprel_u64 %r1, 0
	retf 0

		0000000000005030:  R_POSTRISC_B_PCREL_FWD	global_i64

0000000000005040 <test_global_u64>:
    5040: 00 00 00 c1 40 00 00 00 00 81 30 00 00 00 08 04      	! BUNDLE
	alloc 2
	ld_iprel_u64 %r1, 0
	retf 0

		0000000000005040:  R_POSTRISC_B_PCREL_FWD	global_u64

0000000000005050 <test_global_array_folding_i8>:
    5050: 00 00 00 c1 40 00 00 00 00 81 2c 00 00 00 08 04      	! BUNDLE
	alloc 2
	ld_iprel_i8 %r1, 0
	retf 0

		0000000000005050:  R_POSTRISC_B_PCREL_FWD	global_array_i8+0x5

0000000000005060 <test_global_array_folding_i16>:
    5060: 00 00 00 c1 40 00 00 00 00 01 2e 00 00 00 08 04      	! BUNDLE
	alloc 2
	ld_iprel_i16 %r1, 0
	retf 0

		0000000000005060:  R_POSTRISC_B_PCREL_FWD	global_array_i16+0xa

0000000000005070 <test_global_array_folding_i32>:
    5070: 00 00 00 c1 40 00 00 00 00 01 2f 00 00 00 08 04      	! BUNDLE
	alloc 2
	ld_iprel_u32 %r1, 0
	retf 0

		0000000000005070:  R_POSTRISC_B_PCREL_FWD	global_array_i32+0x14

0000000000005080 <test_global_array_folding_i64>:
    5080: 00 00 00 c1 40 00 00 00 00 81 30 00 00 00 08 04      	! BUNDLE
	alloc 2
	ld_iprel_u64 %r1, 0
	retf 0

		0000000000005080:  R_POSTRISC_B_PCREL_FWD	global_array_i64+0x28

0000000000005090 <test_ldi128>:
    5090: 00 00 00 c1 40 20 1b c6 0b 01 08 00 00 00 08 04      	! BUNDLE
	alloc 2
	ld_imm %r1, 12345778
	retf 0


00000000000050a0 <test_ldi128_long>:
    50a0: 01 00 00 c1 40 50 71 17 b7 01 08 7d 69 d3 36 00      	! BUNDLE
	alloc 2
	ld_imm.l %r1, 987654321123456789

    50b0: 00 00 00 80 40 00 00 00 00 00 01 00 00 00 00 04      	! BUNDLE
	retf 0
	nop 0
	nop 0


00000000000050c0 <test_ldi128_verylong>:
    50c0: 01 00 00 c1 40 f0 ff ff 23 01 c8 ff ff ff ff 03      	! BUNDLE
	alloc 2
	ld_imm.l %r1, -230686721

    50d0: fe ff 3f 40 20 02 00 00 00 00 00 00 00 00 08 04      	! BUNDLE
	ld_imm_high.l %r1, 1048575
	retf 0


00000000000050e0 <test_subr_i128>:
    50e0: 00 00 80 c1 40 20 4d 00 00 02 48 18 10 10 04 00      	! BUNDLE
	alloc 3
	ld_imm %r2, 1234
	sub_i128 %r1, %r2, %r1

    50f0: 00 00 00 80 40 00 00 00 00 00 01 00 00 00 00 04      	! BUNDLE
	retf 0
	nop 0
	nop 0


0000000000005100 <test_addi_i128>:
    5100: 01 00 80 c1 40 50 f1 05 cd 02 88 2e 6d da 06 00      	! BUNDLE
	alloc 3
	ld_imm.l %r2, 123456789123456789

    5110: 81 01 82 40 00 f0 fa af ff 02 88 fe eb bf fe 01      	! BUNDLE
	add_i128 %r1, %r1, %r2
	ld_imm.l %r2, 9200848539817279407

    5120: 64 00 82 40 00 00 00 00 00 02 01 00 00 00 00 04      	! BUNDLE
	or %r1, %r1, %r2
	retf 0
	nop 0


0000000000005130 <test_andi_i128>:
    5130: 01 00 00 c1 40 50 f1 05 03 01 8a 59 97 36 6d 03      	! BUNDLE
	alloc 2
	and_imm.l %r1, %r1, 123456789123456789

    5140: 00 00 00 80 40 00 00 00 00 00 01 00 00 00 00 04      	! BUNDLE
	retf 0
	nop 0
	nop 0


0000000000005150 <test_ori_i128>:
    5150: 01 00 00 c1 40 50 71 17 03 81 ca 96 be b4 69 1b      	! BUNDLE
	alloc 2
	or_imm.l %r1, %r1, 987654321123456789

    5160: 00 00 00 80 40 00 00 00 00 00 01 00 00 00 00 04      	! BUNDLE
	retf 0
	nop 0
	nop 0


0000000000005170 <test_add_i128>:
    5170: 00 00 80 c1 40 00 06 04 04 01 00 00 00 00 08 04      	! BUNDLE
	alloc 3
	add_i128 %r1, %r2, %r1
	retf 0


0000000000005180 <test_sub_i128>:
    5180: 00 00 80 c1 40 10 06 08 02 01 00 00 00 00 08 04      	! BUNDLE
	alloc 3
	sub_i128 %r1, %r1, %r2
	retf 0


0000000000005190 <test_immediate_i32>:
    5190: 00 00 00 c1 40 b0 2e 43 8a 01 08 00 00 00 08 04      	! BUNDLE
	alloc 2
	ld_imm %r1, -123456789
	retf 0


00000000000051a0 <test_immediate_u32>:
    51a0: 00 00 00 c1 40 50 d1 bc 75 01 08 00 00 00 08 04      	! BUNDLE
	alloc 2
	ld_imm %r1, 123456789
	retf 0


00000000000051b0 <test_immediate_i32_long>:
    51b0: 01 00 00 c1 40 e0 d2 9f 66 01 c8 fe ff ff ff 03      	! BUNDLE
	alloc 2
	ld_imm.l %r1, -1234567890

    51c0: 00 00 00 80 40 00 00 00 00 00 01 00 00 00 00 04      	! BUNDLE
	retf 0
	nop 0
	nop 0


00000000000051d0 <test_immediate_u32_long>:
    51d0: 01 00 00 c1 40 20 2d 60 99 01 08 01 00 00 00 00      	! BUNDLE
	alloc 2
	ld_imm.l %r1, 1234567890

    51e0: 00 00 00 80 40 00 00 00 00 00 01 00 00 00 00 04      	! BUNDLE
	retf 0
	nop 0
	nop 0


00000000000051f0 <test_immediate_i64>:
    51f0: 00 00 00 c1 40 20 eb 39 f4 01 08 00 00 00 08 04      	! BUNDLE
	alloc 2
	ld_imm %r1, -12345678
	retf 0


0000000000005200 <test_immediate_u64>:
    5200: 00 00 00 c1 40 e0 14 c6 0b 01 08 00 00 00 08 04      	! BUNDLE
	alloc 2
	ld_imm %r1, 12345678
	retf 0


0000000000005210 <test_immediate_i64_long>:
    5210: 01 00 00 c1 40 50 b3 4f e0 01 08 82 fb ff ff 03      	! BUNDLE
	alloc 2
	ld_imm.l %r1, -1234567890123

    5220: 00 00 00 80 40 00 00 00 00 00 01 00 00 00 00 04      	! BUNDLE
	retf 0
	nop 0
	nop 0


0000000000005230 <test_immediate_u64_long>:
    5230: 01 00 00 c1 40 b0 4c b0 1f 01 c8 7d 04 00 00 00      	! BUNDLE
	alloc 2
	ld_imm.l %r1, 1234567890123

    5240: 00 00 00 80 40 00 00 00 00 00 01 00 00 00 00 04      	! BUNDLE
	retf 0
	nop 0
	nop 0


0000000000005250 <test_immediate_size_max>:
    5250: 01 00 00 c1 40 f0 ff ff ff 01 c8 ff ff ff ff 01      	! BUNDLE
	alloc 2
	ld_imm.l %r1, 9223372036854775807

    5260: 00 00 00 80 40 00 00 00 00 00 01 00 00 00 00 04      	! BUNDLE
	retf 0
	nop 0
	nop 0


0000000000005270 <test_div_i32>:
    5270: 00 00 80 c1 40 a0 02 08 02 01 00 00 00 00 08 04      	! BUNDLE
	alloc 3
	div_i32 %r1, %r1, %r2
	retf 0


0000000000005280 <test_div_i64>:
    5280: 00 00 80 c1 40 80 02 08 02 01 00 00 00 00 08 04      	! BUNDLE
	alloc 3
	div_i64 %r1, %r1, %r2
	retf 0


0000000000005290 <test_div_u32>:
    5290: 00 00 80 c1 40 b0 02 08 02 01 00 00 00 00 08 04      	! BUNDLE
	alloc 3
	div_u32 %r1, %r1, %r2
	retf 0


00000000000052a0 <test_div_u64>:
    52a0: 00 00 80 c1 40 90 02 08 02 01 00 00 00 00 08 04      	! BUNDLE
	alloc 3
	div_u64 %r1, %r1, %r2
	retf 0


00000000000052b0 <test_divi_i32>:
    52b0: 00 00 00 c1 40 80 3e 00 02 01 14 00 00 00 08 04      	! BUNDLE
	alloc 2
	div_imm_i32 %r1, %r1, 1000
	retf 0


00000000000052c0 <test_divi_i64>:
    52c0: 00 00 00 c1 40 80 3e 00 02 01 12 00 00 00 08 04      	! BUNDLE
	alloc 2
	div_imm_i64 %r1, %r1, 1000
	retf 0


00000000000052d0 <test_divi_u32>:
    52d0: 00 00 00 c1 40 80 3e 00 02 81 14 00 00 00 08 04      	! BUNDLE
	alloc 2
	div_imm_u32 %r1, %r1, 1000
	retf 0


00000000000052e0 <test_divi_u64>:
    52e0: 00 00 00 c1 40 80 3e 00 02 81 12 00 00 00 08 04      	! BUNDLE
	alloc 2
	div_imm_u64 %r1, %r1, 1000
	retf 0


00000000000052f0 <test_divi_ext_i32>:
    52f0: 01 00 00 c1 40 00 a0 ac 03 01 14 77 00 00 00 00      	! BUNDLE
	alloc 2
	div_imm_i32.l %r1, %r1, 1000000000

    5300: 00 00 00 80 40 00 00 00 00 00 01 00 00 00 00 04      	! BUNDLE
	retf 0
	nop 0
	nop 0


0000000000005310 <test_divi_ext_i64>:
    5310: 01 00 00 c1 40 00 a0 ac 03 01 12 77 00 00 00 00      	! BUNDLE
	alloc 2
	div_imm_i64.l %r1, %r1, 1000000000

    5320: 00 00 00 80 40 00 00 00 00 00 01 00 00 00 00 04      	! BUNDLE
	retf 0
	nop 0
	nop 0


0000000000005330 <test_divi_ext_u32>:
    5330: 01 00 00 c1 40 00 a0 ac 03 81 14 77 00 00 00 00      	! BUNDLE
	alloc 2
	div_imm_u32.l %r1, %r1, 1000000000

    5340: 00 00 00 80 40 00 00 00 00 00 01 00 00 00 00 04      	! BUNDLE
	retf 0
	nop 0
	nop 0


0000000000005350 <test_divi_ext_u64>:
    5350: 01 00 00 c1 40 00 a0 ac 03 81 12 77 00 00 00 00      	! BUNDLE
	alloc 2
	div_imm_u64.l %r1, %r1, 1000000000

    5360: 00 00 00 80 40 00 00 00 00 00 01 00 00 00 00 04      	! BUNDLE
	retf 0
	nop 0
	nop 0


0000000000005370 <test_neg_i32>:
    5370: 00 00 00 c1 40 e0 00 00 02 01 00 00 00 00 08 04      	! BUNDLE
	alloc 2
	neg_i32 %r1, %r1
	retf 0


0000000000005380 <test_neg_i64>:
    5380: 00 00 00 c1 40 f0 00 00 02 01 00 00 00 00 08 04      	! BUNDLE
	alloc 2
	neg_i64 %r1, %r1
	retf 0


0000000000005390 <test_neg_i128>:
    5390: 00 00 00 c1 40 a0 06 00 02 01 00 00 00 00 08 04      	! BUNDLE
	alloc 2
	neg_i128 %r1, %r1
	retf 0


00000000000053a0 <test_rem_i32>:
    53a0: 00 00 80 c1 40 e0 02 08 02 01 00 00 00 00 08 04      	! BUNDLE
	alloc 3
	rem_i32 %r1, %r1, %r2
	retf 0


00000000000053b0 <test_rem_i64>:
    53b0: 00 00 80 c1 40 c0 02 08 02 01 00 00 00 00 08 04      	! BUNDLE
	alloc 3
	rem_i64 %r1, %r1, %r2
	retf 0


00000000000053c0 <test_rem_u32>:
    53c0: 00 00 80 c1 40 f0 02 08 02 01 00 00 00 00 08 04      	! BUNDLE
	alloc 3
	rem_u32 %r1, %r1, %r2
	retf 0


00000000000053d0 <test_rem_u64>:
    53d0: 00 00 80 c1 40 d0 02 08 02 01 00 00 00 00 08 04      	! BUNDLE
	alloc 3
	rem_u64 %r1, %r1, %r2
	retf 0


00000000000053e0 <test_rem_imm_i32>:
    53e0: 00 00 00 c1 40 80 3e 00 02 01 15 00 00 00 08 04      	! BUNDLE
	alloc 2
	rem_imm_i32 %r1, %r1, 1000
	retf 0


00000000000053f0 <test_rem_imm_u32>:
    53f0: 00 00 00 c1 40 80 3e 00 02 81 15 00 00 00 08 04      	! BUNDLE
	alloc 2
	rem_imm_u32 %r1, %r1, 1000
	retf 0


0000000000005400 <test_rem_imm_i64>:
    5400: 00 00 00 c1 40 80 3e 00 02 01 13 00 00 00 08 04      	! BUNDLE
	alloc 2
	rem_imm_i64 %r1, %r1, 1000
	retf 0


0000000000005410 <test_rem_imm_u64>:
    5410: 00 00 00 c1 40 80 3e 00 02 81 13 00 00 00 08 04      	! BUNDLE
	alloc 2
	rem_imm_u64 %r1, %r1, 1000
	retf 0


0000000000005420 <test_rem_imm_ext_i32>:
    5420: 01 00 00 c1 40 00 a0 ac 03 01 15 77 00 00 00 00      	! BUNDLE
	alloc 2
	rem_imm_i32.l %r1, %r1, 1000000000

    5430: 00 00 00 80 40 00 00 00 00 00 01 00 00 00 00 04      	! BUNDLE
	retf 0
	nop 0
	nop 0


0000000000005440 <test_rem_imm_ext_u32>:
    5440: 01 00 00 c1 40 00 a0 ac 03 81 15 77 00 00 00 00      	! BUNDLE
	alloc 2
	rem_imm_u32.l %r1, %r1, 1000000000

    5450: 00 00 00 80 40 00 00 00 00 00 01 00 00 00 00 04      	! BUNDLE
	retf 0
	nop 0
	nop 0


0000000000005460 <test_rem_imm_ext_i64>:
    5460: 01 00 00 c1 40 00 a0 ac 03 01 13 77 00 00 00 00      	! BUNDLE
	alloc 2
	rem_imm_i64.l %r1, %r1, 1000000000

    5470: 00 00 00 80 40 00 00 00 00 00 01 00 00 00 00 04      	! BUNDLE
	retf 0
	nop 0
	nop 0


0000000000005480 <test_rem_imm_ext_u64>:
    5480: 01 00 00 c1 40 00 a0 ac 03 81 13 77 00 00 00 00      	! BUNDLE
	alloc 2
	rem_imm_u64.l %r1, %r1, 1000000000

    5490: 00 00 00 80 40 00 00 00 00 00 01 00 00 00 00 04      	! BUNDLE
	retf 0
	nop 0
	nop 0


00000000000054a0 <test_load_based_u32>:
    54a0: 00 00 00 c1 40 00 e8 03 02 01 27 00 00 00 08 04      	! BUNDLE
	alloc 2
	ld_u32 %r1, %r1, 16000
	retf 0


00000000000054b0 <test_load_based_u16>:
    54b0: 00 00 00 c1 40 00 f4 01 02 81 25 00 00 00 08 04      	! BUNDLE
	alloc 2
	ld_u16 %r1, %r1, 8000
	retf 0


00000000000054c0 <test_load_based_u8>:
    54c0: 00 00 00 c1 40 00 fa 00 02 01 24 00 00 00 08 04      	! BUNDLE
	alloc 2
	ld_u8 %r1, %r1, 4000
	retf 0


00000000000054d0 <test_load_based_i32>:
    54d0: 00 00 00 c1 40 00 e8 03 02 01 27 00 00 00 08 04      	! BUNDLE
	alloc 2
	ld_u32 %r1, %r1, 16000
	retf 0


00000000000054e0 <test_load_based_i16>:
    54e0: 00 00 00 c1 40 00 f4 01 02 01 26 00 00 00 08 04      	! BUNDLE
	alloc 2
	ld_i16 %r1, %r1, 8000
	retf 0


00000000000054f0 <test_load_based_i8>:
    54f0: 00 00 00 c1 40 00 fa 00 02 81 24 00 00 00 08 04      	! BUNDLE
	alloc 2
	ld_i8 %r1, %r1, 4000
	retf 0


0000000000005500 <test_base_index_u32_u32>:
    5500: 00 00 00 c2 40 b0 02 0c 04 02 00 20 27 08 04 14      	! BUNDLE
	alloc 4
	div_u32 %r2, %r2, %r3
	ld_xu32_u64 %r1, %r1, %r2, 3, 0

    5510: 00 00 00 80 40 00 00 00 00 00 01 00 00 00 00 04      	! BUNDLE
	retf 0
	nop 0
	nop 0


0000000000005520 <test_base_address>:
    5520: 01 00 00 c4 40 00 00 74 03 85 68 87 74 01 00 00      	! BUNDLE
	alloc 8
	ld_u64.l %r5, %r1, 800000000000

    5530: 01 7d 80 80 21 0a c8 09 02 07 04 84 d7 17 00 00      	! BUNDLE
	ld_u64 %r6, %r1, 8000
	ld_xi64_u64.l %r7, %r1, %r2, 3, 800000000

    5540: 42 73 84 40 00 01 00 00 00 00 80 00 00 00 00 04      	! BUNDLE
	ld_xi64_u64.l %r1, %r1, %r4, 3, 80
	nop 2

    5550: 82 92 82 81 00 11 00 00 00 00 80 00 00 00 00 04      	! BUNDLE
	ld_xi64_u64.l %r2, %r3, %r2, 4, 160
	nop 2

    5560: 22 93 84 c1 00 c1 00 00 00 00 00 08 50 30 10 00      	! BUNDLE
	ld_xi64_u64.l %r3, %r3, %r4, 4, 1608
	add_i64 %r4, %r6, %r5

    5570: 20 02 07 42 20 80 18 08 02 81 00 00 00 00 08 04      	! BUNDLE
	add_add_i64 %r1, %r4, %r7, %r1
	add_add_i64 %r1, %r1, %r2, %r3
	retf 0


0000000000005580 <MemoryIndexed>:
    5580: 00 00 80 c2 40 30 00 20 00 03 36 00 00 00 00 04      	! BUNDLE
	alloc 5
	br_lt_imm_i64 %r3, 1, 48
	nop 0

    5590: 00 00 80 00 21 8a 4a 12 04 04 04 00 00 08 10 a6      	! BUNDLE
	ld_u64 %r4, %r1, 0
	ld_xi64_u64 %r4, %r2, %r4, 4, 40
	st_i64 %r4, %r1, 0

    55a0: fc ff ff c1 00 83 00 00 02 01 cc ff ff f8 0f 06      	! BUNDLE
	add_imm_i64 %r3, %r3, -1
	add_imm_i64 %r1, %r1, 8
	br_ne_i64 %r3, %gz, -16

    55b0: 00 00 00 80 40 00 00 00 00 00 01 00 00 00 00 04      	! BUNDLE
	retf 0
	nop 0
	nop 0


00000000000055c0 <test_base_index_i32>:
    55c0: 00 00 80 c1 40 00 c8 09 02 81 04 00 00 00 08 04      	! BUNDLE
	alloc 3
	ld_xi32_u64 %r1, %r1, %r2, 3, 0
	retf 0


00000000000055d0 <test_base_index_i32_offset>:
    55d0: 00 00 80 c1 40 80 ca 09 02 81 04 00 00 00 08 04      	! BUNDLE
	alloc 3
	ld_xi32_u64 %r1, %r1, %r2, 3, 40
	retf 0


00000000000055e0 <test_base_index_u32>:
    55e0: 00 00 80 c1 40 00 c8 09 02 01 05 00 00 00 08 04      	! BUNDLE
	alloc 3
	ld_xu32_u64 %r1, %r1, %r2, 3, 0
	retf 0


00000000000055f0 <test_base_index_u32_offset>:
    55f0: 00 00 80 c1 40 40 01 00 04 02 0d 20 27 08 04 14      	! BUNDLE
	alloc 3
	add_imm_i32 %r2, %r2, 20
	ld_xu32_u64 %r1, %r1, %r2, 3, 0

    5600: 00 00 00 80 40 00 00 00 00 00 01 00 00 00 00 04      	! BUNDLE
	retf 0
	nop 0
	nop 0


0000000000005610 <test_base_index_i64>:
    5610: 00 00 80 c1 40 80 ca 09 02 01 04 00 00 00 08 04      	! BUNDLE
	alloc 3
	ld_xi64_u64 %r1, %r1, %r2, 3, 40
	retf 0


0000000000005620 <test_base_index_i32_struct>:
    5620: 01 00 80 c1 40 80 4c 0a 02 81 84 00 00 00 00 00      	! BUNDLE
	alloc 3
	ld_xi32_u64.l %r1, %r1, %r2, 4, 328

    5630: 00 00 00 80 40 00 00 00 00 00 01 00 00 00 00 04      	! BUNDLE
	retf 0
	nop 0
	nop 0


0000000000005640 <test_base_index_u32_struct>:
    5640: 00 00 80 c1 40 40 01 00 04 02 0d 22 29 08 04 14      	! BUNDLE
	alloc 3
	add_imm_i32 %r2, %r2, 20
	ld_xu32_u64 %r1, %r1, %r2, 4, 8

    5650: 00 00 00 80 40 00 00 00 00 00 01 00 00 00 00 04      	! BUNDLE
	retf 0
	nop 0
	nop 0


0000000000005660 <for_loop>:
    5660: 00 00 80 c3 40 10 00 00 fe 04 00 01 80 00 04 d8      	! BUNDLE
	alloc 7
	mov %r4, %gz
	br_lt_imm_i64 %r1, 1, 64

    5670: 40 01 80 41 01 03 00 00 00 00 01 00 00 00 00 04      	! BUNDLE
	add_imm_i64 %r5, %r3, 80
	nop 0
	nop 0

    5680: 00 00 80 82 21 0a 02 10 0c 04 c0 ff ff 0f 04 30      	! BUNDLE
	ld_u64 %r6, %r5, 0
	add_i64 %r4, %r6, %r4
	add_imm_i64 %r1, %r1, -1

    5690: 20 00 80 42 01 f3 ff 3f fe 81 01 00 00 00 00 04      	! BUNDLE
	add_imm_i64 %r5, %r5, 8
	br_ne_i64 %r1, %gz, -16
	nop 0

    56a0: a2 72 82 41 00 11 00 00 00 00 00 08 40 08 04 00      	! BUNDLE
	ld_xi64_u64.l %r1, %r3, %r2, 3, 168
	add_i64 %r1, %r1, %r4

    56b0: 00 00 00 80 40 00 00 00 00 00 01 00 00 00 00 04      	! BUNDLE
	retf 0
	nop 0
	nop 0


00000000000056c0 <for_loop_32>:
    56c0: 00 00 80 c3 40 10 00 00 fe 04 00 01 80 00 04 e4      	! BUNDLE
	alloc 7
	mov %r4, %gz
	br_lt_imm_i32 %r1, 1, 64

    56d0: 14 01 80 40 00 80 02 00 06 05 0c 00 00 00 00 04      	! BUNDLE
	srl_imm_u32 %r1, %r1, 0
	add_imm_i64 %r5, %r3, 40
	nop 0

    56e0: 00 00 80 82 c1 29 00 10 0c 04 c0 ff ff 0f 04 30      	! BUNDLE
	ld_u32 %r6, %r5, 0
	add_i32 %r4, %r6, %r4
	add_imm_i64 %r1, %r1, -1

    56f0: 10 00 80 42 01 f3 ff 3f fe 81 01 00 00 00 00 04      	! BUNDLE
	add_imm_i64 %r5, %r5, 4
	br_ne_i64 %r1, %gz, -16
	nop 0

    5700: 52 4d 82 41 20 01 00 00 00 00 80 00 40 08 04 00      	! BUNDLE
	ld_xi32_u32.l %r1, %r3, %r2, 2, 84
	add_i32 %r1, %r1, %r4

    5710: 00 00 00 80 40 00 00 00 00 00 01 00 00 00 00 04      	! BUNDLE
	retf 0
	nop 0
	nop 0


0000000000005720 <test_i64_min_lt>:
    5720: 00 00 80 c1 40 20 03 08 02 01 00 00 00 00 08 04      	! BUNDLE
	alloc 3
	min_i64 %r1, %r1, %r2
	retf 0


0000000000005730 <test_u64_min_lt>:
    5730: 00 00 80 c1 40 30 03 08 02 01 00 00 00 00 08 04      	! BUNDLE
	alloc 3
	min_u64 %r1, %r1, %r2
	retf 0


0000000000005740 <test_i64_min_le>:
    5740: 00 00 80 c1 40 20 03 08 02 01 00 00 00 00 08 04      	! BUNDLE
	alloc 3
	min_i64 %r1, %r1, %r2
	retf 0


0000000000005750 <test_u64_min_le>:
    5750: 00 00 80 c1 40 30 03 08 02 01 00 00 00 00 08 04      	! BUNDLE
	alloc 3
	min_u64 %r1, %r1, %r2
	retf 0


0000000000005760 <test_i64_min_gt>:
    5760: 00 00 80 c1 40 20 03 04 04 01 00 00 00 00 08 04      	! BUNDLE
	alloc 3
	min_i64 %r1, %r2, %r1
	retf 0


0000000000005770 <test_u64_min_gt>:
    5770: 00 00 80 c1 40 30 03 04 04 01 00 00 00 00 08 04      	! BUNDLE
	alloc 3
	min_u64 %r1, %r2, %r1
	retf 0


0000000000005780 <test_i64_min_ge>:
    5780: 00 00 80 c1 40 20 03 04 04 01 00 00 00 00 08 04      	! BUNDLE
	alloc 3
	min_i64 %r1, %r2, %r1
	retf 0


0000000000005790 <test_u64_min_ge>:
    5790: 00 00 80 c1 40 30 03 04 04 01 00 00 00 00 08 04      	! BUNDLE
	alloc 3
	min_u64 %r1, %r2, %r1
	retf 0


00000000000057a0 <test_i64_max_lt>:
    57a0: 00 00 80 c1 40 00 03 08 02 01 00 00 00 00 08 04      	! BUNDLE
	alloc 3
	max_i64 %r1, %r1, %r2
	retf 0


00000000000057b0 <test_u64_max_lt>:
    57b0: 00 00 80 c1 40 10 03 08 02 01 00 00 00 00 08 04      	! BUNDLE
	alloc 3
	max_u64 %r1, %r1, %r2
	retf 0


00000000000057c0 <test_i64_max_le>:
    57c0: 00 00 80 c1 40 00 03 08 02 01 00 00 00 00 08 04      	! BUNDLE
	alloc 3
	max_i64 %r1, %r1, %r2
	retf 0


00000000000057d0 <test_u64_max_le>:
    57d0: 00 00 80 c1 40 10 03 08 02 01 00 00 00 00 08 04      	! BUNDLE
	alloc 3
	max_u64 %r1, %r1, %r2
	retf 0


00000000000057e0 <test_i64_max_gt>:
    57e0: 00 00 80 c1 40 00 03 04 04 01 00 00 00 00 08 04      	! BUNDLE
	alloc 3
	max_i64 %r1, %r2, %r1
	retf 0


00000000000057f0 <test_u64_max_gt>:
    57f0: 00 00 80 c1 40 10 03 04 04 01 00 00 00 00 08 04      	! BUNDLE
	alloc 3
	max_u64 %r1, %r2, %r1
	retf 0


0000000000005800 <test_i64_max_ge>:
    5800: 00 00 80 c1 40 00 03 04 04 01 00 00 00 00 08 04      	! BUNDLE
	alloc 3
	max_i64 %r1, %r2, %r1
	retf 0


0000000000005810 <test_u64_max_ge>:
    5810: 00 00 80 c1 40 10 03 04 04 01 00 00 00 00 08 04      	! BUNDLE
	alloc 3
	max_u64 %r1, %r2, %r1
	retf 0


0000000000005820 <test_i32_min_lt>:
    5820: 00 00 80 c1 40 60 03 08 02 01 00 00 00 00 08 04      	! BUNDLE
	alloc 3
	min_i32 %r1, %r1, %r2
	retf 0


0000000000005830 <test_u32_min_lt>:
    5830: 00 00 80 c1 40 70 03 08 02 01 00 00 00 00 08 04      	! BUNDLE
	alloc 3
	min_u32 %r1, %r1, %r2
	retf 0


0000000000005840 <test_i32_min_le>:
    5840: 00 00 80 c1 40 60 03 08 02 01 00 00 00 00 08 04      	! BUNDLE
	alloc 3
	min_i32 %r1, %r1, %r2
	retf 0


0000000000005850 <test_u32_min_le>:
    5850: 00 00 80 c1 40 70 03 08 02 01 00 00 00 00 08 04      	! BUNDLE
	alloc 3
	min_u32 %r1, %r1, %r2
	retf 0


0000000000005860 <test_i32_min_gt>:
    5860: 00 00 80 c1 40 60 03 04 04 01 00 00 00 00 08 04      	! BUNDLE
	alloc 3
	min_i32 %r1, %r2, %r1
	retf 0


0000000000005870 <test_u32_min_gt>:
    5870: 00 00 80 c1 40 70 03 04 04 01 00 00 00 00 08 04      	! BUNDLE
	alloc 3
	min_u32 %r1, %r2, %r1
	retf 0


0000000000005880 <test_i32_min_ge>:
    5880: 00 00 80 c1 40 60 03 04 04 01 00 00 00 00 08 04      	! BUNDLE
	alloc 3
	min_i32 %r1, %r2, %r1
	retf 0


0000000000005890 <test_u32_min_ge>:
    5890: 00 00 80 c1 40 70 03 04 04 01 00 00 00 00 08 04      	! BUNDLE
	alloc 3
	min_u32 %r1, %r2, %r1
	retf 0


00000000000058a0 <test_i32_max_lt>:
    58a0: 00 00 80 c1 40 40 03 08 02 01 00 00 00 00 08 04      	! BUNDLE
	alloc 3
	max_i32 %r1, %r1, %r2
	retf 0


00000000000058b0 <test_u32_max_lt>:
    58b0: 00 00 80 c1 40 50 03 08 02 01 00 00 00 00 08 04      	! BUNDLE
	alloc 3
	max_u32 %r1, %r1, %r2
	retf 0


00000000000058c0 <test_i32_max_le>:
    58c0: 00 00 80 c1 40 40 03 08 02 01 00 00 00 00 08 04      	! BUNDLE
	alloc 3
	max_i32 %r1, %r1, %r2
	retf 0


00000000000058d0 <test_u32_max_le>:
    58d0: 00 00 80 c1 40 50 03 08 02 01 00 00 00 00 08 04      	! BUNDLE
	alloc 3
	max_u32 %r1, %r1, %r2
	retf 0


00000000000058e0 <test_i32_max_gt>:
    58e0: 00 00 80 c1 40 40 03 04 04 01 00 00 00 00 08 04      	! BUNDLE
	alloc 3
	max_i32 %r1, %r2, %r1
	retf 0


00000000000058f0 <test_u32_max_gt>:
    58f0: 00 00 80 c1 40 50 03 04 04 01 00 00 00 00 08 04      	! BUNDLE
	alloc 3
	max_u32 %r1, %r2, %r1
	retf 0


0000000000005900 <test_i32_max_ge>:
    5900: 00 00 80 c1 40 40 03 04 04 01 00 00 00 00 08 04      	! BUNDLE
	alloc 3
	max_i32 %r1, %r2, %r1
	retf 0


0000000000005910 <test_u32_max_ge>:
    5910: 00 00 80 c1 40 50 03 04 04 01 00 00 00 00 08 04      	! BUNDLE
	alloc 3
	max_u32 %r1, %r2, %r1
	retf 0


0000000000005920 <test_i32_min_lt_imm>:
    5920: 00 00 00 c1 40 80 3e 00 02 01 19 00 00 00 08 04      	! BUNDLE
	alloc 2
	min_imm_i32 %r1, %r1, 1000
	retf 0


0000000000005930 <test_u32_min_lt_imm>:
    5930: 00 00 00 c1 40 80 3e 00 02 81 19 00 00 00 08 04      	! BUNDLE
	alloc 2
	min_imm_u32 %r1, %r1, 1000
	retf 0


0000000000005940 <test_i32_min_le_imm>:
    5940: 00 00 00 c1 40 80 3e 00 02 01 19 00 00 00 08 04      	! BUNDLE
	alloc 2
	min_imm_i32 %r1, %r1, 1000
	retf 0


0000000000005950 <test_u32_min_le_imm>:
    5950: 00 00 00 c1 40 80 3e 00 02 81 19 00 00 00 08 04      	! BUNDLE
	alloc 2
	min_imm_u32 %r1, %r1, 1000
	retf 0


0000000000005960 <test_i32_min_gt_imm>:
    5960: 00 00 00 c1 40 80 3e 00 02 01 19 00 00 00 08 04      	! BUNDLE
	alloc 2
	min_imm_i32 %r1, %r1, 1000
	retf 0


0000000000005970 <test_u32_min_gt_imm>:
    5970: 00 00 00 c1 40 80 3e 00 02 81 19 00 00 00 08 04      	! BUNDLE
	alloc 2
	min_imm_u32 %r1, %r1, 1000
	retf 0


0000000000005980 <test_i32_min_ge_imm>:
    5980: 00 00 00 c1 40 80 3e 00 02 01 19 00 00 00 08 04      	! BUNDLE
	alloc 2
	min_imm_i32 %r1, %r1, 1000
	retf 0


0000000000005990 <test_u32_min_ge_imm>:
    5990: 00 00 00 c1 40 80 3e 00 02 81 19 00 00 00 08 04      	! BUNDLE
	alloc 2
	min_imm_u32 %r1, %r1, 1000
	retf 0


00000000000059a0 <test_i32_min_lt_imm_ext>:
    59a0: 01 00 00 c1 40 00 a0 ac 03 01 19 77 00 00 00 00      	! BUNDLE
	alloc 2
	min_imm_i32.l %r1, %r1, 1000000000

    59b0: 00 00 00 80 40 00 00 00 00 00 01 00 00 00 00 04      	! BUNDLE
	retf 0
	nop 0
	nop 0


00000000000059c0 <test_u32_min_lt_imm_ext>:
    59c0: 01 00 00 c1 40 00 a0 ac 03 81 19 77 00 00 00 00      	! BUNDLE
	alloc 2
	min_imm_u32.l %r1, %r1, 1000000000

    59d0: 00 00 00 80 40 00 00 00 00 00 01 00 00 00 00 04      	! BUNDLE
	retf 0
	nop 0
	nop 0


00000000000059e0 <test_i32_min_le_imm_ext>:
    59e0: 01 00 00 c1 40 00 a0 ac 03 01 19 77 00 00 00 00      	! BUNDLE
	alloc 2
	min_imm_i32.l %r1, %r1, 1000000000

    59f0: 00 00 00 80 40 00 00 00 00 00 01 00 00 00 00 04      	! BUNDLE
	retf 0
	nop 0
	nop 0


0000000000005a00 <test_u32_min_le_imm_ext>:
    5a00: 01 00 00 c1 40 00 a0 ac 03 81 19 77 00 00 00 00      	! BUNDLE
	alloc 2
	min_imm_u32.l %r1, %r1, 1000000000

    5a10: 00 00 00 80 40 00 00 00 00 00 01 00 00 00 00 04      	! BUNDLE
	retf 0
	nop 0
	nop 0


0000000000005a20 <test_i32_min_gt_imm_ext>:
    5a20: 01 00 00 c1 40 00 a0 ac 03 01 19 77 00 00 00 00      	! BUNDLE
	alloc 2
	min_imm_i32.l %r1, %r1, 1000000000

    5a30: 00 00 00 80 40 00 00 00 00 00 01 00 00 00 00 04      	! BUNDLE
	retf 0
	nop 0
	nop 0


0000000000005a40 <test_u32_min_gt_imm_ext>:
    5a40: 01 00 00 c1 40 00 a0 ac 03 81 19 77 00 00 00 00      	! BUNDLE
	alloc 2
	min_imm_u32.l %r1, %r1, 1000000000

    5a50: 00 00 00 80 40 00 00 00 00 00 01 00 00 00 00 04      	! BUNDLE
	retf 0
	nop 0
	nop 0


0000000000005a60 <test_i32_min_ge_imm_ext>:
    5a60: 01 00 00 c1 40 00 a0 ac 03 01 19 77 00 00 00 00      	! BUNDLE
	alloc 2
	min_imm_i32.l %r1, %r1, 1000000000

    5a70: 00 00 00 80 40 00 00 00 00 00 01 00 00 00 00 04      	! BUNDLE
	retf 0
	nop 0
	nop 0


0000000000005a80 <test_u32_min_ge_imm_ext>:
    5a80: 01 00 00 c1 40 00 a0 ac 03 81 19 77 00 00 00 00      	! BUNDLE
	alloc 2
	min_imm_u32.l %r1, %r1, 1000000000

    5a90: 00 00 00 80 40 00 00 00 00 00 01 00 00 00 00 04      	! BUNDLE
	retf 0
	nop 0
	nop 0


0000000000005aa0 <test_i32_max_lt_imm>:
    5aa0: 00 00 00 c1 40 80 3e 00 02 01 18 00 00 00 08 04      	! BUNDLE
	alloc 2
	max_imm_i32 %r1, %r1, 1000
	retf 0


0000000000005ab0 <test_u32_max_lt_imm>:
    5ab0: 00 00 00 c1 40 80 3e 00 02 81 18 00 00 00 08 04      	! BUNDLE
	alloc 2
	max_imm_u32 %r1, %r1, 1000
	retf 0


0000000000005ac0 <test_i32_max_le_imm>:
    5ac0: 00 00 00 c1 40 80 3e 00 02 01 18 00 00 00 08 04      	! BUNDLE
	alloc 2
	max_imm_i32 %r1, %r1, 1000
	retf 0


0000000000005ad0 <test_u32_max_le_imm>:
    5ad0: 00 00 00 c1 40 80 3e 00 02 81 18 00 00 00 08 04      	! BUNDLE
	alloc 2
	max_imm_u32 %r1, %r1, 1000
	retf 0


0000000000005ae0 <test_i32_max_gt_imm>:
    5ae0: 00 00 00 c1 40 80 3e 00 02 01 18 00 00 00 08 04      	! BUNDLE
	alloc 2
	max_imm_i32 %r1, %r1, 1000
	retf 0


0000000000005af0 <test_u32_max_gt_imm>:
    5af0: 00 00 00 c1 40 80 3e 00 02 81 18 00 00 00 08 04      	! BUNDLE
	alloc 2
	max_imm_u32 %r1, %r1, 1000
	retf 0


0000000000005b00 <test_i32_max_ge_imm>:
    5b00: 00 00 00 c1 40 80 3e 00 02 01 18 00 00 00 08 04      	! BUNDLE
	alloc 2
	max_imm_i32 %r1, %r1, 1000
	retf 0


0000000000005b10 <test_u32_max_ge_imm>:
    5b10: 00 00 00 c1 40 80 3e 00 02 81 18 00 00 00 08 04      	! BUNDLE
	alloc 2
	max_imm_u32 %r1, %r1, 1000
	retf 0


0000000000005b20 <test_i32_max_lt_imm_ext>:
    5b20: 01 00 00 c1 40 00 a0 ac 03 01 18 77 00 00 00 00      	! BUNDLE
	alloc 2
	max_imm_i32.l %r1, %r1, 1000000000

    5b30: 00 00 00 80 40 00 00 00 00 00 01 00 00 00 00 04      	! BUNDLE
	retf 0
	nop 0
	nop 0


0000000000005b40 <test_u32_max_lt_imm_ext>:
    5b40: 01 00 00 c1 40 00 a0 ac 03 81 18 77 00 00 00 00      	! BUNDLE
	alloc 2
	max_imm_u32.l %r1, %r1, 1000000000

    5b50: 00 00 00 80 40 00 00 00 00 00 01 00 00 00 00 04      	! BUNDLE
	retf 0
	nop 0
	nop 0


0000000000005b60 <test_i32_max_le_imm_ext>:
    5b60: 01 00 00 c1 40 00 a0 ac 03 01 18 77 00 00 00 00      	! BUNDLE
	alloc 2
	max_imm_i32.l %r1, %r1, 1000000000

    5b70: 00 00 00 80 40 00 00 00 00 00 01 00 00 00 00 04      	! BUNDLE
	retf 0
	nop 0
	nop 0


0000000000005b80 <test_u32_max_le_imm_ext>:
    5b80: 01 00 00 c1 40 00 a0 ac 03 81 18 77 00 00 00 00      	! BUNDLE
	alloc 2
	max_imm_u32.l %r1, %r1, 1000000000

    5b90: 00 00 00 80 40 00 00 00 00 00 01 00 00 00 00 04      	! BUNDLE
	retf 0
	nop 0
	nop 0


0000000000005ba0 <test_i32_max_gt_imm_ext>:
    5ba0: 01 00 00 c1 40 00 a0 ac 03 01 18 77 00 00 00 00      	! BUNDLE
	alloc 2
	max_imm_i32.l %r1, %r1, 1000000000

    5bb0: 00 00 00 80 40 00 00 00 00 00 01 00 00 00 00 04      	! BUNDLE
	retf 0
	nop 0
	nop 0


0000000000005bc0 <test_u32_max_gt_imm_ext>:
    5bc0: 01 00 00 c1 40 00 a0 ac 03 81 18 77 00 00 00 00      	! BUNDLE
	alloc 2
	max_imm_u32.l %r1, %r1, 1000000000

    5bd0: 00 00 00 80 40 00 00 00 00 00 01 00 00 00 00 04      	! BUNDLE
	retf 0
	nop 0
	nop 0


0000000000005be0 <test_i32_max_ge_imm_ext>:
    5be0: 01 00 00 c1 40 00 a0 ac 03 01 18 77 00 00 00 00      	! BUNDLE
	alloc 2
	max_imm_i32.l %r1, %r1, 1000000000

    5bf0: 00 00 00 80 40 00 00 00 00 00 01 00 00 00 00 04      	! BUNDLE
	retf 0
	nop 0
	nop 0


0000000000005c00 <test_u32_max_ge_imm_ext>:
    5c00: 01 00 00 c1 40 00 a0 ac 03 81 18 77 00 00 00 00      	! BUNDLE
	alloc 2
	max_imm_u32.l %r1, %r1, 1000000000

    5c10: 00 00 00 80 40 00 00 00 00 00 01 00 00 00 00 04      	! BUNDLE
	retf 0
	nop 0
	nop 0


0000000000005c20 <test_i64_min_lt_imm>:
    5c20: 00 00 00 c1 40 80 3e 00 02 01 17 00 00 00 08 04      	! BUNDLE
	alloc 2
	min_imm_i64 %r1, %r1, 1000
	retf 0


0000000000005c30 <test_u64_min_lt_imm>:
    5c30: 00 00 00 c1 40 80 3e 00 02 81 17 00 00 00 08 04      	! BUNDLE
	alloc 2
	min_imm_u64 %r1, %r1, 1000
	retf 0


0000000000005c40 <test_i64_min_le_imm>:
    5c40: 00 00 00 c1 40 80 3e 00 02 01 17 00 00 00 08 04      	! BUNDLE
	alloc 2
	min_imm_i64 %r1, %r1, 1000
	retf 0


0000000000005c50 <test_u64_min_le_imm>:
    5c50: 00 00 00 c1 40 80 3e 00 02 81 17 00 00 00 08 04      	! BUNDLE
	alloc 2
	min_imm_u64 %r1, %r1, 1000
	retf 0


0000000000005c60 <test_i64_min_gt_imm>:
    5c60: 00 00 00 c1 40 80 3e 00 02 01 17 00 00 00 08 04      	! BUNDLE
	alloc 2
	min_imm_i64 %r1, %r1, 1000
	retf 0


0000000000005c70 <test_u64_min_gt_imm>:
    5c70: 00 00 00 c1 40 80 3e 00 02 81 17 00 00 00 08 04      	! BUNDLE
	alloc 2
	min_imm_u64 %r1, %r1, 1000
	retf 0


0000000000005c80 <test_i64_min_ge_imm>:
    5c80: 00 00 00 c1 40 80 3e 00 02 01 17 00 00 00 08 04      	! BUNDLE
	alloc 2
	min_imm_i64 %r1, %r1, 1000
	retf 0


0000000000005c90 <test_u64_min_ge_imm>:
    5c90: 00 00 00 c1 40 80 3e 00 02 81 17 00 00 00 08 04      	! BUNDLE
	alloc 2
	min_imm_u64 %r1, %r1, 1000
	retf 0


0000000000005ca0 <test_i64_min_lt_imm_ext>:
    5ca0: 01 00 00 c1 40 00 a0 ac 03 01 17 77 00 00 00 00      	! BUNDLE
	alloc 2
	min_imm_i64.l %r1, %r1, 1000000000

    5cb0: 00 00 00 80 40 00 00 00 00 00 01 00 00 00 00 04      	! BUNDLE
	retf 0
	nop 0
	nop 0


0000000000005cc0 <test_u64_min_lt_imm_ext>:
    5cc0: 01 00 00 c1 40 00 a0 ac 03 81 17 77 00 00 00 00      	! BUNDLE
	alloc 2
	min_imm_u64.l %r1, %r1, 1000000000

    5cd0: 00 00 00 80 40 00 00 00 00 00 01 00 00 00 00 04      	! BUNDLE
	retf 0
	nop 0
	nop 0


0000000000005ce0 <test_i64_min_le_imm_ext>:
    5ce0: 01 00 00 c1 40 00 a0 ac 03 01 17 77 00 00 00 00      	! BUNDLE
	alloc 2
	min_imm_i64.l %r1, %r1, 1000000000

    5cf0: 00 00 00 80 40 00 00 00 00 00 01 00 00 00 00 04      	! BUNDLE
	retf 0
	nop 0
	nop 0


0000000000005d00 <test_u64_min_le_imm_ext>:
    5d00: 01 00 00 c1 40 00 a0 ac 03 81 17 77 00 00 00 00      	! BUNDLE
	alloc 2
	min_imm_u64.l %r1, %r1, 1000000000

    5d10: 00 00 00 80 40 00 00 00 00 00 01 00 00 00 00 04      	! BUNDLE
	retf 0
	nop 0
	nop 0


0000000000005d20 <test_i64_min_gt_imm_ext>:
    5d20: 01 00 00 c1 40 00 a0 ac 03 01 17 77 00 00 00 00      	! BUNDLE
	alloc 2
	min_imm_i64.l %r1, %r1, 1000000000

    5d30: 00 00 00 80 40 00 00 00 00 00 01 00 00 00 00 04      	! BUNDLE
	retf 0
	nop 0
	nop 0


0000000000005d40 <test_u64_min_gt_imm_ext>:
    5d40: 01 00 00 c1 40 00 a0 ac 03 81 17 77 00 00 00 00      	! BUNDLE
	alloc 2
	min_imm_u64.l %r1, %r1, 1000000000

    5d50: 00 00 00 80 40 00 00 00 00 00 01 00 00 00 00 04      	! BUNDLE
	retf 0
	nop 0
	nop 0


0000000000005d60 <test_i64_min_ge_imm_ext>:
    5d60: 01 00 00 c1 40 00 a0 ac 03 01 17 77 00 00 00 00      	! BUNDLE
	alloc 2
	min_imm_i64.l %r1, %r1, 1000000000

    5d70: 00 00 00 80 40 00 00 00 00 00 01 00 00 00 00 04      	! BUNDLE
	retf 0
	nop 0
	nop 0


0000000000005d80 <test_u64_min_ge_imm_ext>:
    5d80: 01 00 00 c1 40 00 a0 ac 03 81 17 77 00 00 00 00      	! BUNDLE
	alloc 2
	min_imm_u64.l %r1, %r1, 1000000000

    5d90: 00 00 00 80 40 00 00 00 00 00 01 00 00 00 00 04      	! BUNDLE
	retf 0
	nop 0
	nop 0


0000000000005da0 <test_i64_max_lt_imm>:
    5da0: 00 00 00 c1 40 80 3e 00 02 01 16 00 00 00 08 04      	! BUNDLE
	alloc 2
	max_imm_i64 %r1, %r1, 1000
	retf 0


0000000000005db0 <test_u64_max_lt_imm>:
    5db0: 00 00 00 c1 40 80 3e 00 02 81 16 00 00 00 08 04      	! BUNDLE
	alloc 2
	max_imm_u64 %r1, %r1, 1000
	retf 0


0000000000005dc0 <test_i64_max_le_imm>:
    5dc0: 00 00 00 c1 40 80 3e 00 02 01 16 00 00 00 08 04      	! BUNDLE
	alloc 2
	max_imm_i64 %r1, %r1, 1000
	retf 0


0000000000005dd0 <test_u64_max_le_imm>:
    5dd0: 00 00 00 c1 40 80 3e 00 02 81 16 00 00 00 08 04      	! BUNDLE
	alloc 2
	max_imm_u64 %r1, %r1, 1000
	retf 0


0000000000005de0 <test_i64_max_gt_imm>:
    5de0: 00 00 00 c1 40 80 3e 00 02 01 16 00 00 00 08 04      	! BUNDLE
	alloc 2
	max_imm_i64 %r1, %r1, 1000
	retf 0


0000000000005df0 <test_u64_max_gt_imm>:
    5df0: 00 00 00 c1 40 80 3e 00 02 81 16 00 00 00 08 04      	! BUNDLE
	alloc 2
	max_imm_u64 %r1, %r1, 1000
	retf 0


0000000000005e00 <test_i64_max_ge_imm>:
    5e00: 00 00 00 c1 40 80 3e 00 02 01 16 00 00 00 08 04      	! BUNDLE
	alloc 2
	max_imm_i64 %r1, %r1, 1000
	retf 0


0000000000005e10 <test_u64_max_ge_imm>:
    5e10: 00 00 00 c1 40 80 3e 00 02 81 16 00 00 00 08 04      	! BUNDLE
	alloc 2
	max_imm_u64 %r1, %r1, 1000
	retf 0


0000000000005e20 <test_i64_max_lt_imm_ext>:
    5e20: 01 00 00 c1 40 00 a0 ac 03 01 16 77 00 00 00 00      	! BUNDLE
	alloc 2
	max_imm_i64.l %r1, %r1, 1000000000

    5e30: 00 00 00 80 40 00 00 00 00 00 01 00 00 00 00 04      	! BUNDLE
	retf 0
	nop 0
	nop 0


0000000000005e40 <test_u64_max_lt_imm_ext>:
    5e40: 01 00 00 c1 40 00 a0 ac 03 81 16 77 00 00 00 00      	! BUNDLE
	alloc 2
	max_imm_u64.l %r1, %r1, 1000000000

    5e50: 00 00 00 80 40 00 00 00 00 00 01 00 00 00 00 04      	! BUNDLE
	retf 0
	nop 0
	nop 0


0000000000005e60 <test_i64_max_le_imm_ext>:
    5e60: 01 00 00 c1 40 00 a0 ac 03 01 16 77 00 00 00 00      	! BUNDLE
	alloc 2
	max_imm_i64.l %r1, %r1, 1000000000

    5e70: 00 00 00 80 40 00 00 00 00 00 01 00 00 00 00 04      	! BUNDLE
	retf 0
	nop 0
	nop 0


0000000000005e80 <test_u64_max_le_imm_ext>:
    5e80: 01 00 00 c1 40 00 a0 ac 03 81 16 77 00 00 00 00      	! BUNDLE
	alloc 2
	max_imm_u64.l %r1, %r1, 1000000000

    5e90: 00 00 00 80 40 00 00 00 00 00 01 00 00 00 00 04      	! BUNDLE
	retf 0
	nop 0
	nop 0


0000000000005ea0 <test_i64_max_gt_imm_ext>:
    5ea0: 01 00 00 c1 40 00 a0 ac 03 01 16 77 00 00 00 00      	! BUNDLE
	alloc 2
	max_imm_i64.l %r1, %r1, 1000000000

    5eb0: 00 00 00 80 40 00 00 00 00 00 01 00 00 00 00 04      	! BUNDLE
	retf 0
	nop 0
	nop 0


0000000000005ec0 <test_u64_max_gt_imm_ext>:
    5ec0: 01 00 00 c1 40 00 a0 ac 03 81 16 77 00 00 00 00      	! BUNDLE
	alloc 2
	max_imm_u64.l %r1, %r1, 1000000000

    5ed0: 00 00 00 80 40 00 00 00 00 00 01 00 00 00 00 04      	! BUNDLE
	retf 0
	nop 0
	nop 0


0000000000005ee0 <test_i64_max_ge_imm_ext>:
    5ee0: 01 00 00 c1 40 00 a0 ac 03 01 16 77 00 00 00 00      	! BUNDLE
	alloc 2
	max_imm_i64.l %r1, %r1, 1000000000

    5ef0: 00 00 00 80 40 00 00 00 00 00 01 00 00 00 00 04      	! BUNDLE
	retf 0
	nop 0
	nop 0


0000000000005f00 <test_u64_max_ge_imm_ext>:
    5f00: 01 00 00 c1 40 00 a0 ac 03 81 16 77 00 00 00 00      	! BUNDLE
	alloc 2
	max_imm_u64.l %r1, %r1, 1000000000

    5f10: 00 00 00 80 40 00 00 00 00 00 01 00 00 00 00 04      	! BUNDLE
	retf 0
	nop 0
	nop 0


0000000000005f20 <test_mov2>:
    5f20: 00 00 80 c5 40 e0 21 0c 10 87 80 27 20 50 24 02      	! BUNDLE
	alloc 11
	mov2 %r7, %r8, %r3, %r4
	mov2 %r9, %r10, %r2, %r1

    5f30: 00 00 00 80 01 2d 00 04 0e 05 80 87 30 40 1c 02      	! BUNDLE
	call %r6, 0
	add_i32 %r5, %r7, %r1
	mov2 %r7, %r8, %r3, %r4

		0000000000005f30:  R_POSTRISC_A_JUMP	test_mov2_callback
    5f40: 78 fe 02 45 22 00 00 00 00 06 b4 00 70 28 08 00      	! BUNDLE
	mov2 %r9, %r10, %r2, %gz
	call %r6, 0
	add_i32 %r2, %r5, %r7

		0000000000005f40:  R_POSTRISC_B_JUMP	test_mov2_callback
    5f50: 78 08 03 c4 21 e0 f9 ff 15 89 00 00 00 00 18 d0      	! BUNDLE
	mov2 %r7, %r8, %r3, %r4
	mov2 %r9, %r10, %gz, %gz
	call %r6, 0

		0000000000005f50:  R_POSTRISC_C_JUMP	test_mov2_callback
    5f60: 08 00 07 81 00 e0 f9 0f 10 87 80 e7 ff 57 24 02      	! BUNDLE
	add_i32 %r2, %r2, %r7
	mov2 %r7, %r8, %r3, %gz
	mov2 %r9, %r10, %gz, %gz

    5f70: 00 00 00 80 01 2d 00 1c 04 02 80 e7 ff 47 1c 02      	! BUNDLE
	call %r6, 0
	add_i32 %r2, %r2, %r7
	mov2 %r7, %r8, %gz, %gz

		0000000000005f70:  R_POSTRISC_A_JUMP	test_mov2_callback
    5f80: 78 fe 7f 45 22 00 00 00 00 06 b4 00 70 10 04 00      	! BUNDLE
	mov2 %r9, %r10, %gz, %gz
	call %r6, 0
	add_i32 %r1, %r2, %r7

		0000000000005f80:  R_POSTRISC_B_JUMP	test_mov2_callback
    5f90: 00 00 00 80 40 00 00 00 00 00 01 00 00 00 00 04      	! BUNDLE
	retf 0
	nop 0
	nop 0


0000000000005fa0 <test_after_naked>:
0000000000005fa0 <test_naked>:
    5fa0: 00 00 80 c0 40 00 00 00 00 02 01 00 00 00 00 04      	! BUNDLE
	alloc 1
	retf 0
	nop 0


0000000000005fb0 <test_nullification_i64_le>:
    5fb0: 00 00 80 c2 40 00 01 00 04 84 28 60 90 09 10 02      	! BUNDLE
	alloc 5
	ld_u64 %r4, %r2, 16
	nul_le_i64 %r4, %r1, 3, 4

    5fc0: 20 72 01 81 00 51 00 00 04 04 10 f4 01 00 08 20      	! BUNDLE
	ld_xi64_u64 %r2, %r2, %r1, 3, 8
	mul_imm_i64 %r4, %r2, 5
	ld_imm %r2, 2000

    5fd0: 40 72 81 01 01 31 00 00 08 04 10 60 17 10 fc 11      	! BUNDLE
	ld_xi64_u64 %r4, %r3, %r1, 3, 16
	mul_imm_i64 %r4, %r4, 3
	st_xi64_i64 %gz, %r2, %r1, 3, 0

    5fe0: e0 2e 00 80 00 82 ca 05 06 03 04 08 20 08 04 00      	! BUNDLE
	ld_imm %r2, 3000
	ld_xi64_u64 %r3, %r3, %r1, 3, 40
	add_i64 %r1, %r1, %r2

    5ff0: 20 06 84 40 20 00 00 00 00 02 01 00 00 00 00 04      	! BUNDLE
	add_add_i64 %r1, %r1, %r4, %r3
	retf 0
	nop 0


0000000000006000 <test_nullification_i64_lt>:
    6000: 00 00 80 c2 40 00 01 00 04 84 28 60 10 09 10 02      	! BUNDLE
	alloc 5
	ld_u64 %r4, %r2, 16
	nul_lt_i64 %r4, %r1, 3, 4

    6010: 20 72 01 81 00 51 00 00 04 04 10 f4 01 00 08 20      	! BUNDLE
	ld_xi64_u64 %r2, %r2, %r1, 3, 8
	mul_imm_i64 %r4, %r2, 5
	ld_imm %r2, 2000

    6020: 40 72 81 01 01 31 00 00 08 04 10 60 17 10 fc 11      	! BUNDLE
	ld_xi64_u64 %r4, %r3, %r1, 3, 16
	mul_imm_i64 %r4, %r4, 3
	st_xi64_i64 %gz, %r2, %r1, 3, 0

    6030: e0 2e 00 80 00 82 ca 05 06 03 04 08 20 08 04 00      	! BUNDLE
	ld_imm %r2, 3000
	ld_xi64_u64 %r3, %r3, %r1, 3, 40
	add_i64 %r1, %r1, %r2

    6040: 20 06 84 40 20 00 00 00 00 02 01 00 00 00 00 04      	! BUNDLE
	add_add_i64 %r1, %r1, %r4, %r3
	retf 0
	nop 0


0000000000006050 <test_nulu_le_d>:
    6050: 00 00 00 c2 40 00 10 a3 02 82 00 00 00 00 08 c2      	! BUNDLE
	alloc 4
	nul_le_u64 %r2, %r1, 2, 3
	ld_iprel_u64 %r2, 0

		0000000000006050:  R_POSTRISC_C_PCREL_FWD	left
    6060: 80 00 01 41 00 00 00 00 00 82 30 08 10 10 04 00      	! BUNDLE
	add_i64 %r1, %r2, %r1
	ld_iprel_u64 %r2, 0
	add_i64 %r1, %r2, %r1

		0000000000006060:  R_POSTRISC_B_PCREL_FWD	right
    6070: 40 76 81 c1 1f 01 05 00 06 82 28 08 10 10 04 00      	! BUNDLE
	st_xi64_i64 %gz, %r3, %r1, 3, 16
	ld_u64 %r2, %r3, 80
	add_i64 %r1, %r2, %r1

    6080: 00 00 00 80 40 00 00 00 00 00 01 00 00 00 00 04      	! BUNDLE
	retf 0
	nop 0
	nop 0


0000000000006090 <test_nullify_bool>:
    6090: 00 00 00 c2 40 00 10 a3 01 81 00 00 00 00 08 c2      	! BUNDLE
	alloc 4
	nul_bc_imm %r1, 0, 2, 3
	ld_iprel_u64 %r2, 0

		0000000000006090:  R_POSTRISC_C_PCREL_FWD	left_bool
    60a0: 80 00 01 41 00 00 00 00 00 82 30 08 10 10 04 00      	! BUNDLE
	add_i64 %r1, %r2, %r1
	ld_iprel_u64 %r2, 0
	add_i64 %r1, %r2, %r1

		00000000000060a0:  R_POSTRISC_B_PCREL_FWD	right_bool
    60b0: 40 76 81 c1 1f 01 05 00 06 82 28 08 10 10 04 00      	! BUNDLE
	st_xi64_i64 %gz, %r3, %r1, 3, 16
	ld_u64 %r2, %r3, 80
	add_i64 %r1, %r2, %r1

    60c0: 00 00 00 80 40 00 00 00 00 00 01 00 00 00 00 04      	! BUNDLE
	retf 0
	nop 0
	nop 0


00000000000060d0 <test_nullify_bool_not>:
    60d0: 00 00 00 c2 40 00 10 e3 01 81 00 00 00 00 08 c2      	! BUNDLE
	alloc 4
	nul_bs_imm %r1, 0, 2, 3
	ld_iprel_u64 %r2, 0

		00000000000060d0:  R_POSTRISC_C_PCREL_FWD	left_bool
    60e0: 80 00 01 41 00 00 00 00 00 82 30 08 10 10 04 00      	! BUNDLE
	add_i64 %r1, %r2, %r1
	ld_iprel_u64 %r2, 0
	add_i64 %r1, %r2, %r1

		00000000000060e0:  R_POSTRISC_B_PCREL_FWD	right_bool
    60f0: 40 76 81 c1 1f 01 05 00 06 82 28 08 10 10 04 00      	! BUNDLE
	st_xi64_i64 %gz, %r3, %r1, 3, 16
	ld_u64 %r2, %r3, 80
	add_i64 %r1, %r2, %r1

    6100: 00 00 00 80 40 00 00 00 00 00 01 00 00 00 00 04      	! BUNDLE
	retf 0
	nop 0
	nop 0


0000000000006110 <test_nullify_bool_and>:
    6110: 00 00 00 c2 40 20 00 a0 01 81 81 00 80 06 08 06      	! BUNDLE
	alloc 4
	br_bc_imm %r1, 0, 32
	br_bc_imm %r2, 0, 32

    6120: 00 00 00 80 20 0c 02 04 04 01 80 00 00 00 04 04      	! BUNDLE
	ld_iprel_u64 %r2, 0
	add_i64 %r1, %r2, %r1
	jmp 32

		0000000000006120:  R_POSTRISC_A_PCREL_FWD	left_bool
    6130: 00 00 00 80 20 0c 02 04 04 01 00 64 17 18 fc 11      	! BUNDLE
	ld_iprel_u64 %r2, 0
	add_i64 %r1, %r2, %r1
	st_xi64_i64 %gz, %r3, %r1, 3, 16

		0000000000006130:  R_POSTRISC_A_PCREL_FWD	right_bool
    6140: 40 01 80 81 20 0a 02 04 04 01 00 00 00 00 08 04      	! BUNDLE
	ld_u64 %r2, %r3, 80
	add_i64 %r1, %r2, %r1
	retf 0


0000000000006150 <test_nullify_bool_or>:
    6150: 00 00 00 c2 40 30 00 e0 01 81 c1 00 80 07 08 06      	! BUNDLE
	alloc 4
	br_bs_imm %r1, 0, 48
	br_bs_imm %r2, 0, 48

    6160: 00 00 00 80 20 0c 02 04 04 01 00 64 17 18 fc 11      	! BUNDLE
	ld_iprel_u64 %r2, 0
	add_i64 %r1, %r2, %r1
	st_xi64_i64 %gz, %r3, %r1, 3, 16

		0000000000006160:  R_POSTRISC_A_PCREL_FWD	right_bool
    6170: 08 00 00 40 40 00 00 00 00 00 01 00 00 00 00 04      	! BUNDLE
	jmp 32
	nop 0
	nop 0

    6180: 00 00 00 80 20 0c 02 04 04 01 00 00 00 00 00 04      	! BUNDLE
	ld_iprel_u64 %r2, 0
	add_i64 %r1, %r2, %r1
	nop 0

		0000000000006180:  R_POSTRISC_A_PCREL_FWD	left_bool
    6190: 40 01 80 81 20 0a 02 04 04 01 00 00 00 00 08 04      	! BUNDLE
	ld_u64 %r2, %r3, 80
	add_i64 %r1, %r2, %r1
	retf 0


00000000000061a0 <test_nullify_f128_eq>:
    61a0: 00 00 00 c2 40 30 10 24 04 81 00 00 00 00 08 c8      	! BUNDLE
	alloc 4
	nul_one_f128 %r1, %r2, 2, 4
	ld_iprel_i128 %r2, 0

		00000000000061a0:  R_POSTRISC_C_PCREL_FWD	left_f128
    61b0: 0c 10 01 41 00 00 00 00 00 02 f2 00 11 10 04 00      	! BUNDLE
	add_f128 %r1, %r2, %r1
	ld_iprel_i128 %r2, 0
	add_f128 %r1, %r2, %r1

		00000000000061b0:  R_POSTRISC_B_PCREL_FWD	right_f128
    61c0: a4 10 80 80 00 00 6a 0a 06 7f 04 28 00 18 08 a8      	! BUNDLE
	trunk_f128_i64 %r2, %r1
	st_xi64_i128 %gz, %r3, %r2, 4, 32
	ld_i128 %r2, %r3, 160

    61d0: 0c 10 01 41 00 00 00 00 00 02 01 00 00 00 00 04      	! BUNDLE
	add_f128 %r1, %r2, %r1
	retf 0
	nop 0


00000000000061e0 <test_nullify_f128_ne>:
    61e0: 00 00 00 c2 40 30 10 04 04 81 00 00 00 00 08 c8      	! BUNDLE
	alloc 4
	nul_oeq_f128 %r1, %r2, 2, 4
	ld_iprel_i128 %r2, 0

		00000000000061e0:  R_POSTRISC_C_PCREL_FWD	left_f128
    61f0: 0c 10 01 41 00 00 00 00 00 02 f2 00 11 10 04 00      	! BUNDLE
	add_f128 %r1, %r2, %r1
	ld_iprel_i128 %r2, 0
	add_f128 %r1, %r2, %r1

		00000000000061f0:  R_POSTRISC_B_PCREL_FWD	right_f128
    6200: a4 10 80 80 00 00 6a 0a 06 7f 04 28 00 18 08 a8      	! BUNDLE
	trunk_f128_i64 %r2, %r1
	st_xi64_i128 %gz, %r3, %r2, 4, 32
	ld_i128 %r2, %r3, 160

    6210: 0c 10 01 41 00 00 00 00 00 02 01 00 00 00 00 04      	! BUNDLE
	add_f128 %r1, %r2, %r1
	retf 0
	nop 0


0000000000006220 <test_nullify_f128_lt>:
    6220: 00 00 00 c2 40 30 10 64 02 82 00 00 00 00 08 c8      	! BUNDLE
	alloc 4
	nul_ole_f128 %r2, %r1, 2, 4
	ld_iprel_i128 %r2, 0

		0000000000006220:  R_POSTRISC_C_PCREL_FWD	left_f128
    6230: 0c 10 01 41 00 00 00 00 00 02 f2 00 11 10 04 00      	! BUNDLE
	add_f128 %r1, %r2, %r1
	ld_iprel_i128 %r2, 0
	add_f128 %r1, %r2, %r1

		0000000000006230:  R_POSTRISC_B_PCREL_FWD	right_f128
    6240: a4 10 80 80 00 00 6a 0a 06 7f 04 28 00 18 08 a8      	! BUNDLE
	trunk_f128_i64 %r2, %r1
	st_xi64_i128 %gz, %r3, %r2, 4, 32
	ld_i128 %r2, %r3, 160

    6250: 0c 10 01 41 00 00 00 00 00 02 01 00 00 00 00 04      	! BUNDLE
	add_f128 %r1, %r2, %r1
	retf 0
	nop 0


0000000000006260 <test_nullify_f128_le>:
    6260: 00 00 00 c2 40 30 10 44 02 82 00 00 00 00 08 c8      	! BUNDLE
	alloc 4
	nul_olt_f128 %r2, %r1, 2, 4
	ld_iprel_i128 %r2, 0

		0000000000006260:  R_POSTRISC_C_PCREL_FWD	left_f128
    6270: 0c 10 01 41 00 00 00 00 00 02 f2 00 11 10 04 00      	! BUNDLE
	add_f128 %r1, %r2, %r1
	ld_iprel_i128 %r2, 0
	add_f128 %r1, %r2, %r1

		0000000000006270:  R_POSTRISC_B_PCREL_FWD	right_f128
    6280: a4 10 80 80 00 00 6a 0a 06 7f 04 28 00 18 08 a8      	! BUNDLE
	trunk_f128_i64 %r2, %r1
	st_xi64_i128 %gz, %r3, %r2, 4, 32
	ld_i128 %r2, %r3, 160

    6290: 0c 10 01 41 00 00 00 00 00 02 01 00 00 00 00 04      	! BUNDLE
	add_f128 %r1, %r2, %r1
	retf 0
	nop 0


00000000000062a0 <test_nullify_f128_gt>:
    62a0: 00 00 00 c2 40 30 10 64 04 81 00 00 00 00 08 c8      	! BUNDLE
	alloc 4
	nul_ole_f128 %r1, %r2, 2, 4
	ld_iprel_i128 %r2, 0

		00000000000062a0:  R_POSTRISC_C_PCREL_FWD	left_f128
    62b0: 0c 10 01 41 00 00 00 00 00 02 f2 00 11 10 04 00      	! BUNDLE
	add_f128 %r1, %r2, %r1
	ld_iprel_i128 %r2, 0
	add_f128 %r1, %r2, %r1

		00000000000062b0:  R_POSTRISC_B_PCREL_FWD	right_f128
    62c0: a4 10 80 80 00 00 6a 0a 06 7f 04 28 00 18 08 a8      	! BUNDLE
	trunk_f128_i64 %r2, %r1
	st_xi64_i128 %gz, %r3, %r2, 4, 32
	ld_i128 %r2, %r3, 160

    62d0: 0c 10 01 41 00 00 00 00 00 02 01 00 00 00 00 04      	! BUNDLE
	add_f128 %r1, %r2, %r1
	retf 0
	nop 0


00000000000062e0 <test_nullify_f128_ge>:
    62e0: 00 00 00 c2 40 30 10 44 04 81 00 00 00 00 08 c8      	! BUNDLE
	alloc 4
	nul_olt_f128 %r1, %r2, 2, 4
	ld_iprel_i128 %r2, 0

		00000000000062e0:  R_POSTRISC_C_PCREL_FWD	left_f128
    62f0: 0c 10 01 41 00 00 00 00 00 02 f2 00 11 10 04 00      	! BUNDLE
	add_f128 %r1, %r2, %r1
	ld_iprel_i128 %r2, 0
	add_f128 %r1, %r2, %r1

		00000000000062f0:  R_POSTRISC_B_PCREL_FWD	right_f128
    6300: a4 10 80 80 00 00 6a 0a 06 7f 04 28 00 18 08 a8      	! BUNDLE
	trunk_f128_i64 %r2, %r1
	st_xi64_i128 %gz, %r3, %r2, 4, 32
	ld_i128 %r2, %r3, 160

    6310: 0c 10 01 41 00 00 00 00 00 02 01 00 00 00 00 04      	! BUNDLE
	add_f128 %r1, %r2, %r1
	retf 0
	nop 0


0000000000006320 <test_nullify_f32_eq>:
    6320: 00 00 00 c2 40 10 10 24 04 81 00 00 00 00 08 bc      	! BUNDLE
	alloc 4
	nul_one_f32 %r1, %r2, 2, 4
	ld_iprel_u32 %r2, 0

		0000000000006320:  R_POSTRISC_C_PCREL_FWD	left_f32
    6330: 0c 0c 01 41 00 00 00 00 00 02 ef c0 10 10 04 00      	! BUNDLE
	add_f32 %r1, %r2, %r1
	ld_iprel_u32 %r2, 0
	add_f32 %r1, %r2, %r1

		0000000000006330:  R_POSTRISC_B_PCREL_FWD	right_f32
    6340: a4 0c 80 80 00 80 40 09 06 7f 04 0a 00 18 08 9c      	! BUNDLE
	trunk_f32_i64 %r2, %r1
	st_xi64_i32 %gz, %r3, %r2, 2, 8
	ld_u32 %r2, %r3, 40

    6350: 0c 0c 01 41 00 00 00 00 00 02 01 00 00 00 00 04      	! BUNDLE
	add_f32 %r1, %r2, %r1
	retf 0
	nop 0


0000000000006360 <test_nullify_f32_ne>:
    6360: 00 00 00 c2 40 10 10 04 04 81 00 00 00 00 08 bc      	! BUNDLE
	alloc 4
	nul_oeq_f32 %r1, %r2, 2, 4
	ld_iprel_u32 %r2, 0

		0000000000006360:  R_POSTRISC_C_PCREL_FWD	left_f32
    6370: 0c 0c 01 41 00 00 00 00 00 02 ef c0 10 10 04 00      	! BUNDLE
	add_f32 %r1, %r2, %r1
	ld_iprel_u32 %r2, 0
	add_f32 %r1, %r2, %r1

		0000000000006370:  R_POSTRISC_B_PCREL_FWD	right_f32
    6380: a4 0c 80 80 00 80 40 09 06 7f 04 0a 00 18 08 9c      	! BUNDLE
	trunk_f32_i64 %r2, %r1
	st_xi64_i32 %gz, %r3, %r2, 2, 8
	ld_u32 %r2, %r3, 40

    6390: 0c 0c 01 41 00 00 00 00 00 02 01 00 00 00 00 04      	! BUNDLE
	add_f32 %r1, %r2, %r1
	retf 0
	nop 0


00000000000063a0 <test_nullify_f32_lt>:
    63a0: 00 00 00 c2 40 10 10 64 02 82 00 00 00 00 08 bc      	! BUNDLE
	alloc 4
	nul_ole_f32 %r2, %r1, 2, 4
	ld_iprel_u32 %r2, 0

		00000000000063a0:  R_POSTRISC_C_PCREL_FWD	left_f32
    63b0: 0c 0c 01 41 00 00 00 00 00 02 ef c0 10 10 04 00      	! BUNDLE
	add_f32 %r1, %r2, %r1
	ld_iprel_u32 %r2, 0
	add_f32 %r1, %r2, %r1

		00000000000063b0:  R_POSTRISC_B_PCREL_FWD	right_f32
    63c0: a4 0c 80 80 00 80 40 09 06 7f 04 0a 00 18 08 9c      	! BUNDLE
	trunk_f32_i64 %r2, %r1
	st_xi64_i32 %gz, %r3, %r2, 2, 8
	ld_u32 %r2, %r3, 40

    63d0: 0c 0c 01 41 00 00 00 00 00 02 01 00 00 00 00 04      	! BUNDLE
	add_f32 %r1, %r2, %r1
	retf 0
	nop 0


00000000000063e0 <test_nullify_f32_le>:
    63e0: 00 00 00 c2 40 10 10 44 02 82 00 00 00 00 08 bc      	! BUNDLE
	alloc 4
	nul_olt_f32 %r2, %r1, 2, 4
	ld_iprel_u32 %r2, 0

		00000000000063e0:  R_POSTRISC_C_PCREL_FWD	left_f32
    63f0: 0c 0c 01 41 00 00 00 00 00 02 ef c0 10 10 04 00      	! BUNDLE
	add_f32 %r1, %r2, %r1
	ld_iprel_u32 %r2, 0
	add_f32 %r1, %r2, %r1

		00000000000063f0:  R_POSTRISC_B_PCREL_FWD	right_f32
    6400: a4 0c 80 80 00 80 40 09 06 7f 04 0a 00 18 08 9c      	! BUNDLE
	trunk_f32_i64 %r2, %r1
	st_xi64_i32 %gz, %r3, %r2, 2, 8
	ld_u32 %r2, %r3, 40

    6410: 0c 0c 01 41 00 00 00 00 00 02 01 00 00 00 00 04      	! BUNDLE
	add_f32 %r1, %r2, %r1
	retf 0
	nop 0


0000000000006420 <test_nullify_f32_gt>:
    6420: 00 00 00 c2 40 10 10 64 04 81 00 00 00 00 08 bc      	! BUNDLE
	alloc 4
	nul_ole_f32 %r1, %r2, 2, 4
	ld_iprel_u32 %r2, 0

		0000000000006420:  R_POSTRISC_C_PCREL_FWD	left_f32
    6430: 0c 0c 01 41 00 00 00 00 00 02 ef c0 10 10 04 00      	! BUNDLE
	add_f32 %r1, %r2, %r1
	ld_iprel_u32 %r2, 0
	add_f32 %r1, %r2, %r1

		0000000000006430:  R_POSTRISC_B_PCREL_FWD	right_f32
    6440: a4 0c 80 80 00 80 40 09 06 7f 04 0a 00 18 08 9c      	! BUNDLE
	trunk_f32_i64 %r2, %r1
	st_xi64_i32 %gz, %r3, %r2, 2, 8
	ld_u32 %r2, %r3, 40

    6450: 0c 0c 01 41 00 00 00 00 00 02 01 00 00 00 00 04      	! BUNDLE
	add_f32 %r1, %r2, %r1
	retf 0
	nop 0


0000000000006460 <test_nullify_f32_ge>:
    6460: 00 00 00 c2 40 10 10 44 04 81 00 00 00 00 08 bc      	! BUNDLE
	alloc 4
	nul_olt_f32 %r1, %r2, 2, 4
	ld_iprel_u32 %r2, 0

		0000000000006460:  R_POSTRISC_C_PCREL_FWD	left_f32
    6470: 0c 0c 01 41 00 00 00 00 00 02 ef c0 10 10 04 00      	! BUNDLE
	add_f32 %r1, %r2, %r1
	ld_iprel_u32 %r2, 0
	add_f32 %r1, %r2, %r1

		0000000000006470:  R_POSTRISC_B_PCREL_FWD	right_f32
    6480: a4 0c 80 80 00 80 40 09 06 7f 04 0a 00 18 08 9c      	! BUNDLE
	trunk_f32_i64 %r2, %r1
	st_xi64_i32 %gz, %r3, %r2, 2, 8
	ld_u32 %r2, %r3, 40

    6490: 0c 0c 01 41 00 00 00 00 00 02 01 00 00 00 00 04      	! BUNDLE
	add_f32 %r1, %r2, %r1
	retf 0
	nop 0


00000000000064a0 <test_nullify_f64_eq>:
    64a0: 00 00 00 c2 40 20 10 24 04 81 00 00 00 00 08 c2      	! BUNDLE
	alloc 4
	nul_one_f64 %r1, %r2, 2, 4
	ld_iprel_u64 %r2, 0

		00000000000064a0:  R_POSTRISC_C_PCREL_FWD	left_f64
    64b0: 0c 0e 01 41 00 00 00 00 00 82 f0 e0 10 10 04 00      	! BUNDLE
	add_f64 %r1, %r2, %r1
	ld_iprel_u64 %r2, 0
	add_f64 %r1, %r2, %r1

		00000000000064b0:  R_POSTRISC_B_PCREL_FWD	right_f64
    64c0: a4 0e 80 80 00 00 d9 09 06 7f 04 14 00 18 08 a2      	! BUNDLE
	trunk_f64_i64 %r2, %r1
	st_xi64_i64 %gz, %r3, %r2, 3, 16
	ld_u64 %r2, %r3, 80

    64d0: 0c 0e 01 41 00 00 00 00 00 02 01 00 00 00 00 04      	! BUNDLE
	add_f64 %r1, %r2, %r1
	retf 0
	nop 0


00000000000064e0 <test_nullify_f64_ne>:
    64e0: 00 00 00 c2 40 20 10 04 04 81 00 00 00 00 08 c2      	! BUNDLE
	alloc 4
	nul_oeq_f64 %r1, %r2, 2, 4
	ld_iprel_u64 %r2, 0

		00000000000064e0:  R_POSTRISC_C_PCREL_FWD	left_f64
    64f0: 0c 0e 01 41 00 00 00 00 00 82 f0 e0 10 10 04 00      	! BUNDLE
	add_f64 %r1, %r2, %r1
	ld_iprel_u64 %r2, 0
	add_f64 %r1, %r2, %r1

		00000000000064f0:  R_POSTRISC_B_PCREL_FWD	right_f64
    6500: a4 0e 80 80 00 00 d9 09 06 7f 04 14 00 18 08 a2      	! BUNDLE
	trunk_f64_i64 %r2, %r1
	st_xi64_i64 %gz, %r3, %r2, 3, 16
	ld_u64 %r2, %r3, 80

    6510: 0c 0e 01 41 00 00 00 00 00 02 01 00 00 00 00 04      	! BUNDLE
	add_f64 %r1, %r2, %r1
	retf 0
	nop 0


0000000000006520 <test_nullify_f64_lt>:
    6520: 00 00 00 c2 40 20 10 64 02 82 00 00 00 00 08 c2      	! BUNDLE
	alloc 4
	nul_ole_f64 %r2, %r1, 2, 4
	ld_iprel_u64 %r2, 0

		0000000000006520:  R_POSTRISC_C_PCREL_FWD	left_f64
    6530: 0c 0e 01 41 00 00 00 00 00 82 f0 e0 10 10 04 00      	! BUNDLE
	add_f64 %r1, %r2, %r1
	ld_iprel_u64 %r2, 0
	add_f64 %r1, %r2, %r1

		0000000000006530:  R_POSTRISC_B_PCREL_FWD	right_f64
    6540: a4 0e 80 80 00 00 d9 09 06 7f 04 14 00 18 08 a2      	! BUNDLE
	trunk_f64_i64 %r2, %r1
	st_xi64_i64 %gz, %r3, %r2, 3, 16
	ld_u64 %r2, %r3, 80

    6550: 0c 0e 01 41 00 00 00 00 00 02 01 00 00 00 00 04      	! BUNDLE
	add_f64 %r1, %r2, %r1
	retf 0
	nop 0


0000000000006560 <test_nullify_f64_le>:
    6560: 00 00 00 c2 40 20 10 44 02 82 00 00 00 00 08 c2      	! BUNDLE
	alloc 4
	nul_olt_f64 %r2, %r1, 2, 4
	ld_iprel_u64 %r2, 0

		0000000000006560:  R_POSTRISC_C_PCREL_FWD	left_f64
    6570: 0c 0e 01 41 00 00 00 00 00 82 f0 e0 10 10 04 00      	! BUNDLE
	add_f64 %r1, %r2, %r1
	ld_iprel_u64 %r2, 0
	add_f64 %r1, %r2, %r1

		0000000000006570:  R_POSTRISC_B_PCREL_FWD	right_f64
    6580: a4 0e 80 80 00 00 d9 09 06 7f 04 14 00 18 08 a2      	! BUNDLE
	trunk_f64_i64 %r2, %r1
	st_xi64_i64 %gz, %r3, %r2, 3, 16
	ld_u64 %r2, %r3, 80

    6590: 0c 0e 01 41 00 00 00 00 00 02 01 00 00 00 00 04      	! BUNDLE
	add_f64 %r1, %r2, %r1
	retf 0
	nop 0


00000000000065a0 <test_nullify_f64_gt>:
    65a0: 00 00 00 c2 40 20 10 64 04 81 00 00 00 00 08 c2      	! BUNDLE
	alloc 4
	nul_ole_f64 %r1, %r2, 2, 4
	ld_iprel_u64 %r2, 0

		00000000000065a0:  R_POSTRISC_C_PCREL_FWD	left_f64
    65b0: 0c 0e 01 41 00 00 00 00 00 82 f0 e0 10 10 04 00      	! BUNDLE
	add_f64 %r1, %r2, %r1
	ld_iprel_u64 %r2, 0
	add_f64 %r1, %r2, %r1

		00000000000065b0:  R_POSTRISC_B_PCREL_FWD	right_f64
    65c0: a4 0e 80 80 00 00 d9 09 06 7f 04 14 00 18 08 a2      	! BUNDLE
	trunk_f64_i64 %r2, %r1
	st_xi64_i64 %gz, %r3, %r2, 3, 16
	ld_u64 %r2, %r3, 80

    65d0: 0c 0e 01 41 00 00 00 00 00 02 01 00 00 00 00 04      	! BUNDLE
	add_f64 %r1, %r2, %r1
	retf 0
	nop 0


00000000000065e0 <test_nullify_f64_ge>:
    65e0: 00 00 00 c2 40 20 10 44 04 81 00 00 00 00 08 c2      	! BUNDLE
	alloc 4
	nul_olt_f64 %r1, %r2, 2, 4
	ld_iprel_u64 %r2, 0

		00000000000065e0:  R_POSTRISC_C_PCREL_FWD	left_f64
    65f0: 0c 0e 01 41 00 00 00 00 00 82 f0 e0 10 10 04 00      	! BUNDLE
	add_f64 %r1, %r2, %r1
	ld_iprel_u64 %r2, 0
	add_f64 %r1, %r2, %r1

		00000000000065f0:  R_POSTRISC_B_PCREL_FWD	right_f64
    6600: a4 0e 80 80 00 00 d9 09 06 7f 04 14 00 18 08 a2      	! BUNDLE
	trunk_f64_i64 %r2, %r1
	st_xi64_i64 %gz, %r3, %r2, 3, 16
	ld_u64 %r2, %r3, 80

    6610: 0c 0e 01 41 00 00 00 00 00 02 01 00 00 00 00 04      	! BUNDLE
	add_f64 %r1, %r2, %r1
	retf 0
	nop 0


0000000000006620 <test_post_update>:
    6620: 00 00 80 c3 40 10 00 00 fe 04 00 01 80 00 04 d8      	! BUNDLE
	alloc 7
	mov %r4, %gz
	br_lt_imm_i64 %r1, 1, 64

    6630: 00 00 00 41 21 0a 00 00 06 86 a8 88 50 30 10 02      	! BUNDLE
	ld_u64 %r5, %r2, 0
	ld_u64 %r6, %r3, 0
	mul_add %r4, %r6, %r5, %r4

    6640: fc ff ff 40 00 83 00 00 06 03 0c 02 00 10 08 30      	! BUNDLE
	add_imm_i64 %r1, %r1, -1
	add_imm_i64 %r3, %r3, 8
	add_imm_i64 %r2, %r2, 8

    6650: f8 ff 8f 7f 60 00 00 00 00 00 01 00 00 00 00 04      	! BUNDLE
	br_ne_i64 %r1, %gz, -32
	nop 0
	nop 0

    6660: 04 00 00 42 00 00 00 00 00 02 01 00 00 00 00 04      	! BUNDLE
	mov %r1, %r4
	retf 0
	nop 0


0000000000006670 <shift_right_and_load_i32>:
    6670: 00 00 80 c1 40 50 c9 a5 04 82 00 00 20 08 04 10      	! BUNDLE
	alloc 3
	slsrl_imm_u64 %r2, %r2, 41, 57
	ld_xi64_u8 %r1, %r1, %r2, 0, 0

    6680: 00 00 00 80 40 00 00 00 00 00 01 00 00 00 00 04      	! BUNDLE
	retf 0
	nop 0
	nop 0


0000000000006690 <shift_right_and_load_u32>:
    6690: 00 00 80 c1 40 50 c9 a5 04 82 00 00 20 08 04 10      	! BUNDLE
	alloc 3
	slsrl_imm_u64 %r2, %r2, 41, 57
	ld_xi64_u8 %r1, %r1, %r2, 0, 0

    66a0: 00 00 00 80 40 00 00 00 00 00 01 00 00 00 00 04      	! BUNDLE
	retf 0
	nop 0
	nop 0


00000000000066b0 <shift_right_and_load_i64>:
    66b0: 00 00 80 c1 40 50 c9 a5 04 82 00 00 20 08 04 10      	! BUNDLE
	alloc 3
	slsrl_imm_u64 %r2, %r2, 41, 57
	ld_xi64_u8 %r1, %r1, %r2, 0, 0

    66c0: 00 00 00 80 40 00 00 00 00 00 01 00 00 00 00 04      	! BUNDLE
	retf 0
	nop 0
	nop 0


00000000000066d0 <shift_right_and_load_u64>:
    66d0: 00 00 80 c1 40 50 c9 a5 04 82 00 00 20 08 04 10      	! BUNDLE
	alloc 3
	slsrl_imm_u64 %r2, %r2, 41, 57
	ld_xi64_u8 %r1, %r1, %r2, 0, 0

    66e0: 00 00 00 80 40 00 00 00 00 00 01 00 00 00 00 04      	! BUNDLE
	retf 0
	nop 0
	nop 0


00000000000066f0 <test_sign_extend_32>:
    66f0: 00 00 00 c1 40 40 04 00 02 01 00 00 00 00 08 04      	! BUNDLE
	alloc 2
	sra_imm_i32 %r1, %r1, 0
	retf 0


0000000000006700 <test_sign_extend_16>:
    6700: 00 00 00 c1 40 60 81 c1 02 81 00 00 00 00 08 04      	! BUNDLE
	alloc 2
	slsra_imm_i64 %r1, %r1, 48, 48
	retf 0


0000000000006710 <test_sign_extend_8>:
    6710: 00 00 00 c1 40 60 c1 e1 02 81 00 00 00 00 08 04      	! BUNDLE
	alloc 2
	slsra_imm_i64 %r1, %r1, 56, 56
	retf 0


0000000000006720 <test_zero_extend_32>:
    6720: 00 00 00 c1 40 50 04 00 02 01 00 00 00 00 08 04      	! BUNDLE
	alloc 2
	srl_imm_u32 %r1, %r1, 0
	retf 0


0000000000006730 <test_zero_extend_16>:
    6730: 00 00 00 c1 40 f0 ff 0f 02 01 0a 00 00 00 08 04      	! BUNDLE
	alloc 2
	and_imm %r1, %r1, 65535
	retf 0


0000000000006740 <test_zero_extend_8>:
    6740: 00 00 00 c1 40 f0 0f 00 02 01 0a 00 00 00 08 04      	! BUNDLE
	alloc 2
	and_imm %r1, %r1, 255
	retf 0


0000000000006750 <test_store_based_u32>:
    6750: 00 00 80 c1 40 00 e8 03 02 02 28 00 00 00 08 04      	! BUNDLE
	alloc 3
	st_i32 %r2, %r1, 16000
	retf 0


0000000000006760 <test_store_based_u16>:
    6760: 00 00 80 c1 40 00 f4 01 02 82 26 00 00 00 08 04      	! BUNDLE
	alloc 3
	st_i16 %r2, %r1, 8000
	retf 0


0000000000006770 <test_store_based_u8>:
    6770: 00 00 80 c1 40 00 fa 00 02 02 25 00 00 00 08 04      	! BUNDLE
	alloc 3
	st_i8 %r2, %r1, 4000
	retf 0


0000000000006780 <test_store_based_i32>:
    6780: 00 00 80 c1 40 00 e8 03 02 02 28 00 00 00 08 04      	! BUNDLE
	alloc 3
	st_i32 %r2, %r1, 16000
	retf 0


0000000000006790 <test_store_based_i16>:
    6790: 00 00 80 c1 40 00 f4 01 02 82 26 00 00 00 08 04      	! BUNDLE
	alloc 3
	st_i16 %r2, %r1, 8000
	retf 0


00000000000067a0 <test_store_based_i8>:
    67a0: 00 00 80 c1 40 00 fa 00 02 02 25 00 00 00 08 04      	! BUNDLE
	alloc 3
	st_i8 %r2, %r1, 4000
	retf 0


00000000000067b0 <test_store_indexed_u32_u32>:
    67b0: 00 00 80 c2 40 b0 02 0c 04 02 00 60 27 08 10 14      	! BUNDLE
	alloc 5
	div_u32 %r2, %r2, %r3
	st_xu32_i64 %r4, %r1, %r2, 3, 0

    67c0: 00 00 00 80 40 00 00 00 00 00 01 00 00 00 00 04      	! BUNDLE
	retf 0
	nop 0
	nop 0


00000000000067d0 <test_store_indexed_i32>:
    67d0: 00 00 00 c2 40 00 d8 09 02 83 04 00 00 00 08 04      	! BUNDLE
	alloc 4
	st_xi32_i64 %r3, %r1, %r2, 3, 0
	retf 0


00000000000067e0 <test_store_indexed_i32_offset>:
    67e0: 00 00 00 c2 40 80 da 09 02 83 04 00 00 00 08 04      	! BUNDLE
	alloc 4
	st_xi32_i64 %r3, %r1, %r2, 3, 40
	retf 0


00000000000067f0 <test_store_indexed_u32>:
    67f0: 00 00 00 c2 40 00 d8 09 02 03 05 00 00 00 08 04      	! BUNDLE
	alloc 4
	st_xu32_i64 %r3, %r1, %r2, 3, 0
	retf 0


0000000000006800 <test_store_indexed_u32_offset>:
    6800: 00 00 00 c2 40 40 01 00 04 02 0d 60 27 08 0c 14      	! BUNDLE
	alloc 4
	add_imm_i32 %r2, %r2, 20
	st_xu32_i64 %r3, %r1, %r2, 3, 0

    6810: 00 00 00 80 40 00 00 00 00 00 01 00 00 00 00 04      	! BUNDLE
	retf 0
	nop 0
	nop 0


0000000000006820 <test_store_indexed_i64>:
    6820: 00 00 00 c2 40 80 da 09 02 03 04 00 00 00 08 04      	! BUNDLE
	alloc 4
	st_xi64_i64 %r3, %r1, %r2, 3, 40
	retf 0


0000000000006830 <test_store_indexed_i32_struct>:
    6830: 01 00 00 c2 40 80 5c 0a 02 83 84 00 00 00 00 00      	! BUNDLE
	alloc 4
	st_xi32_i64.l %r3, %r1, %r2, 4, 328

    6840: 00 00 00 80 40 00 00 00 00 00 01 00 00 00 00 04      	! BUNDLE
	retf 0
	nop 0
	nop 0


0000000000006850 <dummy_return>:
    6850: 00 00 00 c6 40 00 00 00 00 01 2c 00 00 00 08 b0      	! BUNDLE
	alloc 12
	ld_iprel_u8 %r1, 0
	ld_iprel_u8 %r2, 0

		0000000000006850:  R_POSTRISC_B_PCREL_FWD	i8_zero
		0000000000006850:  R_POSTRISC_C_PCREL_FWD	u8_zero
    6860: 04 00 80 40 40 03 00 00 00 01 2d 00 00 00 0c b6      	! BUNDLE
	add_imm_i32 %r1, %r1, 1
	st_iprel_i8 %r1, 0
	ld_iprel_u16 %r3, 0

		0000000000006860:  R_POSTRISC_B_PCREL_FWD	i8_zero
		0000000000006860:  R_POSTRISC_C_PCREL_FWD	i16_zero
    6870: 04 00 00 81 40 03 00 00 00 02 2d 00 00 00 10 b6      	! BUNDLE
	add_imm_i32 %r2, %r2, 1
	st_iprel_i8 %r2, 0
	ld_iprel_u16 %r4, 0

		0000000000006870:  R_POSTRISC_B_PCREL_FWD	u8_zero
		0000000000006870:  R_POSTRISC_C_PCREL_FWD	u16_zero
    6880: 04 00 80 c1 40 03 00 00 00 83 2e 00 00 00 14 bc      	! BUNDLE
	add_imm_i32 %r3, %r3, 1
	st_iprel_i16 %r3, 0
	ld_iprel_u32 %r5, 0

		0000000000006880:  R_POSTRISC_B_PCREL_FWD	i16_zero
		0000000000006880:  R_POSTRISC_C_PCREL_FWD	i32_zero
    6890: 04 00 00 02 41 03 00 00 00 84 2e 00 00 00 18 bc      	! BUNDLE
	add_imm_i32 %r4, %r4, 1
	st_iprel_i16 %r4, 0
	ld_iprel_u32 %r6, 0

		0000000000006890:  R_POSTRISC_B_PCREL_FWD	u16_zero
		0000000000006890:  R_POSTRISC_C_PCREL_FWD	u32_zero
    68a0: 04 00 80 42 41 03 00 00 00 05 30 00 00 00 1c c2      	! BUNDLE
	add_imm_i32 %r5, %r5, 1
	st_iprel_i32 %r5, 0
	ld_iprel_u64 %r7, 0

		00000000000068a0:  R_POSTRISC_B_PCREL_FWD	i32_zero
		00000000000068a0:  R_POSTRISC_C_PCREL_FWD	i64_zero
    68b0: 04 00 00 83 41 03 00 00 00 06 30 00 00 00 20 c2      	! BUNDLE
	add_imm_i32 %r6, %r6, 1
	st_iprel_i32 %r6, 0
	ld_iprel_u64 %r8, 0

		00000000000068b0:  R_POSTRISC_B_PCREL_FWD	u32_zero
		00000000000068b0:  R_POSTRISC_C_PCREL_FWD	u64_zero
    68c0: 04 00 80 43 02 03 00 00 00 89 31 00 00 00 24 c8      	! BUNDLE
	add_imm_i64 %r9, %r7, 1
	st_iprel_i64 %r9, 0
	ld_iprel_i128 %r9, 0

		00000000000068c0:  R_POSTRISC_B_PCREL_FWD	i64_zero
		00000000000068c0:  R_POSTRISC_C_PCREL_FWD	i128_zero
    68d0: 04 00 00 84 02 03 00 00 00 0b 32 00 00 00 28 c6      	! BUNDLE
	add_imm_i64 %r10, %r8, 1
	ld_iprel_i128 %r11, 0
	st_iprel_i64 %r10, 0

		00000000000068d0:  R_POSTRISC_B_PCREL_FWD	u128_zero
		00000000000068d0:  R_POSTRISC_C_PCREL_FWD	u64_zero
    68e0: c4 01 80 44 02 00 00 00 00 89 72 1c 00 58 28 00      	! BUNDLE
	bit_flip_imm %r9, %r9, 0
	st_iprel_i128 %r9, 0
	bit_flip_imm %r10, %r11, 0

		00000000000068e0:  R_POSTRISC_B_PCREL_FWD	i128_zero
    68f0: 00 00 00 80 a2 6c c1 e1 02 81 c0 3f 00 10 08 28      	! BUNDLE
	st_iprel_i128 %r10, 0
	slsra_imm_i64 %r1, %r1, 56, 56
	and_imm %r2, %r2, 255

		00000000000068f0:  R_POSTRISC_A_PCREL_FWD	u128_zero
    6900: 08 00 01 41 00 60 81 c1 06 82 80 00 20 08 04 00      	! BUNDLE
	add_i32 %r1, %r2, %r1
	slsra_imm_i64 %r2, %r3, 48, 48
	add_i32 %r1, %r1, %r2

    6910: fc ff 03 82 80 22 00 08 02 01 80 00 50 08 04 00      	! BUNDLE
	and_imm %r2, %r4, 65535
	add_i32 %r1, %r1, %r2
	add_i32 %r1, %r1, %r5

    6920: 08 00 86 40 00 10 70 04 0e 01 45 c0 11 40 04 10      	! BUNDLE
	add_i32 %r1, %r1, %r6
	lda_xu32 %r1, %r7, %r1, 0, 1
	lda_xi64 %r1, %r8, %r1, 0, 1

    6930: 68 00 81 44 00 a0 01 28 02 01 00 00 00 00 08 04      	! BUNDLE
	xor %r1, %r9, %r1
	xor %r1, %r1, %r10
	retf 0


0000000000006940 <test_store_based_i8_zero>:
    6940: 00 00 00 c2 40 00 fa 00 02 7f 25 00 00 00 fc b5      	! BUNDLE
	alloc 4
	st_i8 %gz, %r1, 4000
	st_iprel_i8 %gz, 0

		0000000000006940:  R_POSTRISC_C_PCREL_FWD	i8_zero
    6950: 28 04 82 c0 1f a1 10 0c 02 ff 04 00 00 00 08 04      	! BUNDLE
	st_xi64_i8 %gz, %r1, %r2, 0, 10
	st_xi32_i8 %gz, %r1, %r3, 0, 10
	retf 0


0000000000006960 <test_store_based_u8_zero>:
    6960: 00 00 00 c2 40 00 fa 00 02 7f 25 00 00 00 fc b5      	! BUNDLE
	alloc 4
	st_i8 %gz, %r1, 4000
	st_iprel_i8 %gz, 0

		0000000000006960:  R_POSTRISC_C_PCREL_FWD	u8_zero
    6970: 28 04 82 c0 1f a1 10 0c 02 ff 04 00 00 00 08 04      	! BUNDLE
	st_xi64_i8 %gz, %r1, %r2, 0, 10
	st_xi32_i8 %gz, %r1, %r3, 0, 10
	retf 0


0000000000006980 <test_store_based_i16_zero>:
    6980: 00 00 00 c2 40 00 f4 01 02 ff 26 00 00 00 fc bb      	! BUNDLE
	alloc 4
	st_i16 %gz, %r1, 8000
	st_iprel_i16 %gz, 0

		0000000000006980:  R_POSTRISC_C_PCREL_FWD	i16_zero
    6990: 50 2a 82 c0 1f 41 a9 0c 02 ff 04 00 00 00 08 04      	! BUNDLE
	st_xi64_i16 %gz, %r1, %r2, 1, 20
	st_xi32_i16 %gz, %r1, %r3, 1, 20
	retf 0


00000000000069a0 <test_store_based_u16_zero>:
    69a0: 00 00 00 c2 40 00 f4 01 02 ff 26 00 00 00 fc bb      	! BUNDLE
	alloc 4
	st_i16 %gz, %r1, 8000
	st_iprel_i16 %gz, 0

		00000000000069a0:  R_POSTRISC_C_PCREL_FWD	u16_zero
    69b0: 50 2a 82 c0 1f 41 a9 0c 02 ff 04 00 00 00 08 04      	! BUNDLE
	st_xi64_i16 %gz, %r1, %r2, 1, 20
	st_xi32_i16 %gz, %r1, %r3, 1, 20
	retf 0


00000000000069c0 <test_store_based_i32_zero>:
    69c0: 00 00 00 c2 40 00 e8 03 02 7f 28 00 00 00 fc c1      	! BUNDLE
	alloc 4
	st_i32 %gz, %r1, 16000
	st_iprel_i32 %gz, 0

		00000000000069c0:  R_POSTRISC_C_PCREL_FWD	i32_zero
    69d0: a0 50 82 c0 1f 81 42 0d 02 ff 04 00 00 00 08 04      	! BUNDLE
	st_xi64_i32 %gz, %r1, %r2, 2, 40
	st_xi32_i32 %gz, %r1, %r3, 2, 40
	retf 0


00000000000069e0 <test_store_based_u32_zero>:
    69e0: 00 00 00 c2 40 00 e8 03 02 7f 28 00 00 00 fc c1      	! BUNDLE
	alloc 4
	st_i32 %gz, %r1, 16000
	st_iprel_i32 %gz, 0

		00000000000069e0:  R_POSTRISC_C_PCREL_FWD	u32_zero
    69f0: a0 50 82 c0 1f 81 42 0d 02 ff 04 00 00 00 08 04      	! BUNDLE
	st_xi64_i32 %gz, %r1, %r2, 2, 40
	st_xi32_i32 %gz, %r1, %r3, 2, 40
	retf 0


0000000000006a00 <test_store_based_i64_zero>:
    6a00: 00 00 00 c2 40 00 d0 07 02 ff 29 00 00 00 fc c7      	! BUNDLE
	alloc 4
	st_i64 %gz, %r1, 32000
	st_iprel_i64 %gz, 0

		0000000000006a00:  R_POSTRISC_C_PCREL_FWD	i64_zero
    6a10: a0 76 82 c0 1f 81 da 0d 02 ff 04 00 00 00 08 04      	! BUNDLE
	st_xi64_i64 %gz, %r1, %r2, 3, 40
	st_xi32_i64 %gz, %r1, %r3, 3, 40
	retf 0


0000000000006a20 <test_store_based_u64_zero>:
    6a20: 00 00 00 c2 40 00 d0 07 02 ff 29 00 00 00 fc c7      	! BUNDLE
	alloc 4
	st_i64 %gz, %r1, 32000
	st_iprel_i64 %gz, 0

		0000000000006a20:  R_POSTRISC_C_PCREL_FWD	u64_zero
    6a30: a0 76 82 c0 1f 81 da 0d 02 ff 04 00 00 00 08 04      	! BUNDLE
	st_xi64_i64 %gz, %r1, %r2, 3, 40
	st_xi32_i64 %gz, %r1, %r3, 3, 40
	retf 0


0000000000006a40 <test_store_based_i128_zero>:
    6a40: 00 00 00 c2 40 00 a0 0f 02 ff 2a 00 00 00 fc cb      	! BUNDLE
	alloc 4
	st_i128 %gz, %r1, 64000
	st_iprel_i128 %gz, 0

		0000000000006a40:  R_POSTRISC_C_PCREL_FWD	i128_zero
    6a50: c0 9a 82 c0 1f 01 6b 0e 02 ff 04 00 00 00 08 04      	! BUNDLE
	st_xi64_i128 %gz, %r1, %r2, 4, 48
	st_xi32_i128 %gz, %r1, %r3, 4, 48
	retf 0


0000000000006a60 <test_store_based_u128_zero>:
    6a60: 00 00 00 c2 40 00 a0 0f 02 ff 2a 00 00 00 fc cb      	! BUNDLE
	alloc 4
	st_i128 %gz, %r1, 64000
	st_iprel_i128 %gz, 0

		0000000000006a60:  R_POSTRISC_C_PCREL_FWD	u128_zero
    6a70: c0 9a 82 c0 1f 01 6b 0e 02 ff 04 00 00 00 08 04      	! BUNDLE
	st_xi64_i128 %gz, %r1, %r2, 4, 48
	st_xi32_i128 %gz, %r1, %r3, 4, 48
	retf 0


0000000000006a80 <test_struct_memset>:
    6a80: c0 03 00 02 41 00 04 00 fc ff 2a 14 00 f0 ff ab      	! BUNDLE
	alloc_sp 4, 240
	st_i128 %gz, %sp, 64
	st_i128 %gz, %sp, 80

    6a90: 00 02 00 ff bf 0a 09 00 fc ff 2a 34 00 f0 ff ab      	! BUNDLE
	st_i128 %gz, %sp, 128
	st_i128 %gz, %sp, 144
	st_i128 %gz, %sp, 208

    6aa0: 80 03 00 ff 7f 0a 0c 00 fc ff 2a 2c 00 f0 ff ab      	! BUNDLE
	st_i64 %gz, %sp, 224
	st_i128 %gz, %sp, 192
	st_i128 %gz, %sp, 176

    6ab0: 80 02 00 ff bf 0a 07 00 fc ff 2a 18 00 f0 ff ab      	! BUNDLE
	st_i128 %gz, %sp, 160
	st_i128 %gz, %sp, 112
	st_i128 %gz, %sp, 96

    6ac0: c0 00 00 ff bf 0a 02 00 fc ff 2a 04 00 f0 ff ab      	! BUNDLE
	st_i128 %gz, %sp, 48
	st_i128 %gz, %sp, 32
	st_i128 %gz, %sp, 16

    6ad0: 00 00 00 ff bf 5a 00 00 00 81 34 12 00 f0 07 a6      	! BUNDLE
	st_i128 %gz, %sp, 0
	lda_r %r1, 5
	st_i64 %r1, %sp, 72

    6ae0: bc 03 00 7f 00 83 05 00 fc 81 e9 ff ff ff 07 20      	! BUNDLE
	add_imm_i64 %r1, %sp, 239
	st_i64 %r1, %sp, 88
	ld_imm %r1, -1

    6af0: 30 02 00 7f 00 0a 09 00 fc 01 28 00 00 f0 0f 30      	! BUNDLE
	st_i32 %r1, %sp, 140
	st_i32 %r1, %sp, 144
	add_imm_i64 %r3, %sp, 0

    6b00: 40 03 00 ff 60 0a 00 00 00 02 74 00 00 18 04 00      	! BUNDLE
	st_i64 %r3, %sp, 208
	call %r2, 0
	mov %r1, %r3

		0000000000006b00:  R_POSTRISC_B_JUMP	test_struct_memset_consumer
    6b10: c0 03 00 80 40 00 00 00 00 00 01 00 00 00 00 04      	! BUNDLE
	retf 240
	nop 0
	nop 0


0000000000006b20 <sn_write>:
    6b20: 00 00 80 c3 40 80 09 00 02 82 28 0a 00 08 10 a2      	! BUNDLE
	alloc 7
	ld_u64 %r2, %r1, 152
	ld_u64 %r4, %r1, 40

    6b30: e0 00 80 80 21 8a 00 00 04 85 68 08 60 20 10 00      	! BUNDLE
	ld_u64 %r6, %r1, 56
	ld_u64 %r5, %r2, 8
	sub_i64 %r4, %r4, %r6

    6b40: cc 00 84 82 01 00 00 00 04 84 28 80 00 f8 1b 02      	! BUNDLE
	min_u64 %r6, %r5, %r4
	ld_u64 %r4, %r2, 0
	nul_eq_i64 %r6, %gz, 4, 0

    6b50: 80 00 06 02 01 00 00 00 04 84 69 08 60 28 14 00      	! BUNDLE
	add_i64 %r4, %r4, %r6
	st_i64 %r4, %r2, 0
	sub_i64 %r5, %r5, %r6

    6b60: 20 00 00 41 61 3a 03 0c 0a 06 00 80 00 f8 1b 02      	! BUNDLE
	st_i64 %r5, %r2, 8
	min_u64 %r6, %r5, %r3
	nul_eq_i64 %r6, %gz, 4, 0

    6b70: 80 00 06 02 01 00 00 00 04 84 69 08 60 28 14 00      	! BUNDLE
	add_i64 %r4, %r4, %r6
	st_i64 %r4, %r2, 0
	sub_i64 %r5, %r5, %r6

    6b80: 20 00 00 41 61 0a 00 00 08 7f 25 16 00 08 08 a2      	! BUNDLE
	st_i64 %r5, %r2, 8
	st_i8 %gz, %r4, 0
	ld_u64 %r2, %r1, 88

    6b90: e0 00 80 80 60 8a 02 00 02 82 69 00 00 18 04 00      	! BUNDLE
	st_i64 %r2, %r1, 56
	st_i64 %r2, %r1, 40
	mov %r1, %r3

    6ba0: 00 00 00 80 40 00 00 00 00 00 01 00 00 00 00 04      	! BUNDLE
	retf 0
	nop 0
	nop 0


0000000000006bb0 <test_switch_table_i64>:
    6bb0: 40 00 80 02 41 e0 00 c0 00 81 37 00 00 00 08 cc      	! BUNDLE
	alloc_sp 5, 16
	br_ge_imm_u64 %r1, 6, 224
	lda_iprel %r2, 0

		0000000000006bb0:  R_POSTRISC_C_PCREL_FWD	.LJTI748_0
    6bc0: 44 01 01 01 00 00 00 00 00 00 01 00 00 00 00 04      	! BUNDLE
	jmp_t %r2, %r1
	nop 0
	nop 0

    6bd0: 04 00 00 40 00 02 00 00 00 04 f3 02 00 00 04 04      	! BUNDLE
	ld_imm %r1, 1
	lda_iprel %r4, 0
	jmp 176

		0000000000006bd0:  R_POSTRISC_B_PCREL_FWD	.L.str.38
    6be0: 20 00 00 40 00 82 00 00 fc 81 69 01 00 00 04 20      	! BUNDLE
	ld_imm %r1, 8
	st_i64 %r1, %sp, 8
	ld_imm %r1, 5

    6bf0: 00 00 00 00 c1 9c 00 00 00 01 01 00 00 00 00 04      	! BUNDLE
	lda_iprel %r4, 0
	jmp 144
	nop 0

		0000000000006bf0:  R_POSTRISC_A_PCREL_FWD	.L.str.42
    6c00: 08 00 00 40 00 82 00 00 fc 81 e9 00 00 00 04 20      	! BUNDLE
	ld_imm %r1, 2
	st_i64 %r1, %sp, 8
	ld_imm %r1, 3

    6c10: 00 00 00 00 c1 7c 00 00 00 01 01 00 00 00 00 04      	! BUNDLE
	lda_iprel %r4, 0
	jmp 112
	nop 0

		0000000000006c10:  R_POSTRISC_A_PCREL_FWD	.L.str.40
    6c20: 04 00 00 40 00 82 00 00 fc 81 29 01 00 00 04 20      	! BUNDLE
	ld_imm %r1, 1
	st_i64 %r1, %sp, 8
	ld_imm %r1, 4

    6c30: 00 00 00 00 c1 5c 00 00 00 01 01 00 00 00 00 04      	! BUNDLE
	lda_iprel %r4, 0
	jmp 80
	nop 0

		0000000000006c30:  R_POSTRISC_A_PCREL_FWD	.L.str.41
    6c40: 20 00 00 ff 7f 2a 00 00 00 01 08 00 00 00 10 cc      	! BUNDLE
	st_i64 %gz, %sp, 8
	ld_imm %r1, 2
	lda_iprel %r4, 0

		0000000000006c40:  R_POSTRISC_C_PCREL_FWD	.L.str.39
    6c50: 0c 00 00 40 40 00 00 00 00 00 01 00 00 00 00 04      	! BUNDLE
	jmp 48
	nop 0
	nop 0

    6c60: 6c 00 00 40 00 82 00 00 fc 81 a9 01 00 00 04 20      	! BUNDLE
	ld_imm %r1, 27
	st_i64 %r1, %sp, 8
	ld_imm %r1, 6

    6c70: 00 00 00 00 c1 0c 00 00 00 00 01 00 00 00 00 04      	! BUNDLE
	lda_iprel %r4, 0
	nop 0
	nop 0

		0000000000006c70:  R_POSTRISC_A_PCREL_FWD	.L.str.43
    6c80: 00 00 00 7f 60 0a 00 00 00 03 34 00 00 00 00 04      	! BUNDLE
	st_i64 %r1, %sp, 0
	call %r3, 0
	nop 0

		0000000000006c80:  R_POSTRISC_B_JUMP	printf
    6c90: 04 00 80 7f 00 00 01 00 00 02 01 00 00 00 00 04      	! BUNDLE
	mov %r1, %gz
	retf 16
	nop 0


0000000000006ca0 <test_switch_table_i32>:
    6ca0: 40 00 80 02 41 e0 00 c0 00 81 7a 11 00 08 04 00      	! BUNDLE
	alloc_sp 5, 16
	br_ge_imm_u32 %r1, 6, 224
	srl_imm_u32 %r1, %r1, 0

    6cb0: 00 00 00 80 c0 1c 05 04 04 00 00 00 00 00 00 04      	! BUNDLE
	lda_iprel %r2, 0
	jmp_t %r2, %r1
	nop 0

		0000000000006cb0:  R_POSTRISC_A_PCREL_FWD	.LJTI749_0
    6cc0: 04 00 00 40 00 02 00 00 00 04 f3 02 00 00 04 04      	! BUNDLE
	ld_imm %r1, 1
	lda_iprel %r4, 0
	jmp 176

		0000000000006cc0:  R_POSTRISC_B_PCREL_FWD	.L.str.44
    6cd0: 20 00 00 40 00 42 00 00 fc 01 68 01 00 00 04 20      	! BUNDLE
	ld_imm %r1, 8
	st_i32 %r1, %sp, 4
	ld_imm %r1, 5

    6ce0: 00 00 00 00 c1 9c 00 00 00 01 01 00 00 00 00 04      	! BUNDLE
	lda_iprel %r4, 0
	jmp 144
	nop 0

		0000000000006ce0:  R_POSTRISC_A_PCREL_FWD	.L.str.48
    6cf0: 08 00 00 40 00 42 00 00 fc 01 e8 00 00 00 04 20      	! BUNDLE
	ld_imm %r1, 2
	st_i32 %r1, %sp, 4
	ld_imm %r1, 3

    6d00: 00 00 00 00 c1 7c 00 00 00 01 01 00 00 00 00 04      	! BUNDLE
	lda_iprel %r4, 0
	jmp 112
	nop 0

		0000000000006d00:  R_POSTRISC_A_PCREL_FWD	.L.str.46
    6d10: 04 00 00 40 00 42 00 00 fc 01 28 01 00 00 04 20      	! BUNDLE
	ld_imm %r1, 1
	st_i32 %r1, %sp, 4
	ld_imm %r1, 4

    6d20: 00 00 00 00 c1 5c 00 00 00 01 01 00 00 00 00 04      	! BUNDLE
	lda_iprel %r4, 0
	jmp 80
	nop 0

		0000000000006d20:  R_POSTRISC_A_PCREL_FWD	.L.str.47
    6d30: 10 00 00 ff 1f 2a 00 00 00 01 08 00 00 00 10 cc      	! BUNDLE
	st_i32 %gz, %sp, 4
	ld_imm %r1, 2
	lda_iprel %r4, 0

		0000000000006d30:  R_POSTRISC_C_PCREL_FWD	.L.str.45
    6d40: 0c 00 00 40 40 00 00 00 00 00 01 00 00 00 00 04      	! BUNDLE
	jmp 48
	nop 0
	nop 0

    6d50: 6c 00 00 40 00 42 00 00 fc 01 a8 01 00 00 04 20      	! BUNDLE
	ld_imm %r1, 27
	st_i32 %r1, %sp, 4
	ld_imm %r1, 6

    6d60: 00 00 00 00 c1 0c 00 00 00 00 01 00 00 00 00 04      	! BUNDLE
	lda_iprel %r4, 0
	nop 0
	nop 0

		0000000000006d60:  R_POSTRISC_A_PCREL_FWD	.L.str.49
    6d70: 00 00 00 7f 00 0a 00 00 00 03 34 00 00 00 00 04      	! BUNDLE
	st_i32 %r1, %sp, 0
	call %r3, 0
	nop 0

		0000000000006d70:  R_POSTRISC_B_JUMP	printf
    6d80: 04 00 80 7f 00 00 01 00 00 02 01 00 00 00 00 04      	! BUNDLE
	mov %r1, %gz
	retf 16
	nop 0


0000000000006d90 <test_switch_table_u32>:
    6d90: 40 00 80 02 41 e0 00 c0 00 81 7a 11 00 08 04 00      	! BUNDLE
	alloc_sp 5, 16
	br_ge_imm_u32 %r1, 6, 224
	srl_imm_u32 %r1, %r1, 0

    6da0: 00 00 00 80 c0 1c 05 04 04 00 00 00 00 00 00 04      	! BUNDLE
	lda_iprel %r2, 0
	jmp_t %r2, %r1
	nop 0

		0000000000006da0:  R_POSTRISC_A_PCREL_FWD	.LJTI750_0
    6db0: 04 00 00 40 00 02 00 00 00 04 f3 02 00 00 04 04      	! BUNDLE
	ld_imm %r1, 1
	lda_iprel %r4, 0
	jmp 176

		0000000000006db0:  R_POSTRISC_B_PCREL_FWD	.L.str.50
    6dc0: 20 00 00 40 00 42 00 00 fc 01 68 01 00 00 04 20      	! BUNDLE
	ld_imm %r1, 8
	st_i32 %r1, %sp, 4
	ld_imm %r1, 5

    6dd0: 00 00 00 00 c1 9c 00 00 00 01 01 00 00 00 00 04      	! BUNDLE
	lda_iprel %r4, 0
	jmp 144
	nop 0

		0000000000006dd0:  R_POSTRISC_A_PCREL_FWD	.L.str.54
    6de0: 08 00 00 40 00 42 00 00 fc 01 e8 00 00 00 04 20      	! BUNDLE
	ld_imm %r1, 2
	st_i32 %r1, %sp, 4
	ld_imm %r1, 3

    6df0: 00 00 00 00 c1 7c 00 00 00 01 01 00 00 00 00 04      	! BUNDLE
	lda_iprel %r4, 0
	jmp 112
	nop 0

		0000000000006df0:  R_POSTRISC_A_PCREL_FWD	.L.str.52
    6e00: 04 00 00 40 00 42 00 00 fc 01 28 01 00 00 04 20      	! BUNDLE
	ld_imm %r1, 1
	st_i32 %r1, %sp, 4
	ld_imm %r1, 4

    6e10: 00 00 00 00 c1 5c 00 00 00 01 01 00 00 00 00 04      	! BUNDLE
	lda_iprel %r4, 0
	jmp 80
	nop 0

		0000000000006e10:  R_POSTRISC_A_PCREL_FWD	.L.str.53
    6e20: 10 00 00 ff 1f 2a 00 00 00 01 08 00 00 00 10 cc      	! BUNDLE
	st_i32 %gz, %sp, 4
	ld_imm %r1, 2
	lda_iprel %r4, 0

		0000000000006e20:  R_POSTRISC_C_PCREL_FWD	.L.str.51
    6e30: 0c 00 00 40 40 00 00 00 00 00 01 00 00 00 00 04      	! BUNDLE
	jmp 48
	nop 0
	nop 0

    6e40: 6c 00 00 40 00 42 00 00 fc 01 a8 01 00 00 04 20      	! BUNDLE
	ld_imm %r1, 27
	st_i32 %r1, %sp, 4
	ld_imm %r1, 6

    6e50: 00 00 00 00 c1 0c 00 00 00 00 01 00 00 00 00 04      	! BUNDLE
	lda_iprel %r4, 0
	nop 0
	nop 0

		0000000000006e50:  R_POSTRISC_A_PCREL_FWD	.L.str.55
    6e60: 00 00 00 7f 00 0a 00 00 00 03 34 00 00 00 00 04      	! BUNDLE
	st_i32 %r1, %sp, 0
	call %r3, 0
	nop 0

		0000000000006e60:  R_POSTRISC_B_JUMP	printf
    6e70: 04 00 80 7f 00 00 01 00 00 02 01 00 00 00 00 04      	! BUNDLE
	mov %r1, %gz
	retf 16
	nop 0


0000000000006e80 <test_switch_table_nonzero_i64>:
    6e80: 40 00 80 02 41 60 ff ff 03 01 8c 03 00 03 04 de      	! BUNDLE
	alloc_sp 5, 16
	add_imm_i64 %r1, %r1, -10
	br_ge_imm_u64 %r1, 6, 224

    6e90: 00 00 00 80 c0 1c 05 04 04 00 00 00 00 00 00 04      	! BUNDLE
	lda_iprel %r2, 0
	jmp_t %r2, %r1
	nop 0

		0000000000006e90:  R_POSTRISC_A_PCREL_FWD	.LJTI751_0
    6ea0: 2c 00 00 40 00 02 00 00 00 04 f3 02 00 00 04 04      	! BUNDLE
	ld_imm %r1, 11
	lda_iprel %r4, 0
	jmp 176

		0000000000006ea0:  R_POSTRISC_B_PCREL_FWD	.L.str.56
    6eb0: 70 00 00 40 00 82 00 00 fc 81 e9 03 00 00 04 20      	! BUNDLE
	ld_imm %r1, 28
	st_i64 %r1, %sp, 8
	ld_imm %r1, 15

    6ec0: 00 00 00 00 c1 9c 00 00 00 01 01 00 00 00 00 04      	! BUNDLE
	lda_iprel %r4, 0
	jmp 144
	nop 0

		0000000000006ec0:  R_POSTRISC_A_PCREL_FWD	.L.str.60
    6ed0: 38 00 00 40 00 82 00 00 fc 81 69 03 00 00 04 20      	! BUNDLE
	ld_imm %r1, 14
	st_i64 %r1, %sp, 8
	ld_imm %r1, 13

    6ee0: 00 00 00 00 c1 7c 00 00 00 01 01 00 00 00 00 04      	! BUNDLE
	lda_iprel %r4, 0
	jmp 112
	nop 0

		0000000000006ee0:  R_POSTRISC_A_PCREL_FWD	.L.str.58
    6ef0: 3c 00 00 40 00 82 00 00 fc 81 a9 03 00 00 04 20      	! BUNDLE
	ld_imm %r1, 15
	st_i64 %r1, %sp, 8
	ld_imm %r1, 14

    6f00: 00 00 00 00 c1 5c 00 00 00 01 01 00 00 00 00 04      	! BUNDLE
	lda_iprel %r4, 0
	jmp 80
	nop 0

		0000000000006f00:  R_POSTRISC_A_PCREL_FWD	.L.str.59
    6f10: 28 00 00 40 00 82 00 00 fc 81 29 03 00 00 04 20      	! BUNDLE
	ld_imm %r1, 10
	st_i64 %r1, %sp, 8
	ld_imm %r1, 12

    6f20: 00 00 00 00 c1 3c 00 00 00 01 01 00 00 00 00 04      	! BUNDLE
	lda_iprel %r4, 0
	jmp 48
	nop 0

		0000000000006f20:  R_POSTRISC_A_PCREL_FWD	.L.str.57
    6f30: 94 00 00 40 00 82 00 00 fc 81 29 04 00 00 04 20      	! BUNDLE
	ld_imm %r1, 37
	st_i64 %r1, %sp, 8
	ld_imm %r1, 16

    6f40: 00 00 00 00 c1 0c 00 00 00 00 01 00 00 00 00 04      	! BUNDLE
	lda_iprel %r4, 0
	nop 0
	nop 0

		0000000000006f40:  R_POSTRISC_A_PCREL_FWD	.L.str.61
    6f50: 00 00 00 7f 60 0a 00 00 00 03 34 00 00 00 00 04      	! BUNDLE
	st_i64 %r1, %sp, 0
	call %r3, 0
	nop 0

		0000000000006f50:  R_POSTRISC_B_JUMP	printf
    6f60: 04 00 80 7f 00 00 01 00 00 02 01 00 00 00 00 04      	! BUNDLE
	mov %r1, %gz
	retf 16
	nop 0


0000000000006f70 <test_switch_table_nonzero_i32>:
    6f70: 40 00 80 02 41 60 ff ff 03 02 8d 03 00 03 08 ea      	! BUNDLE
	alloc_sp 5, 16
	add_imm_i32 %r2, %r1, -10
	br_ge_imm_u32 %r2, 6, 224

    6f80: d8 ff ff 40 60 03 00 00 00 02 73 14 10 10 00 00      	! BUNDLE
	add_imm_u32 %r1, %r1, -10
	lda_iprel %r2, 0
	jmp_t %r2, %r1

		0000000000006f80:  R_POSTRISC_B_PCREL_FWD	.LJTI752_0
    6f90: 2c 00 00 40 00 02 00 00 00 04 f3 02 00 00 04 04      	! BUNDLE
	ld_imm %r1, 11
	lda_iprel %r4, 0
	jmp 176

		0000000000006f90:  R_POSTRISC_B_PCREL_FWD	.L.str.62
    6fa0: 70 00 00 40 00 42 00 00 fc 01 e8 03 00 00 04 20      	! BUNDLE
	ld_imm %r1, 28
	st_i32 %r1, %sp, 4
	ld_imm %r1, 15

    6fb0: 00 00 00 00 c1 9c 00 00 00 01 01 00 00 00 00 04      	! BUNDLE
	lda_iprel %r4, 0
	jmp 144
	nop 0

		0000000000006fb0:  R_POSTRISC_A_PCREL_FWD	.L.str.66
    6fc0: 38 00 00 40 00 42 00 00 fc 01 68 03 00 00 04 20      	! BUNDLE
	ld_imm %r1, 14
	st_i32 %r1, %sp, 4
	ld_imm %r1, 13

    6fd0: 00 00 00 00 c1 7c 00 00 00 01 01 00 00 00 00 04      	! BUNDLE
	lda_iprel %r4, 0
	jmp 112
	nop 0

		0000000000006fd0:  R_POSTRISC_A_PCREL_FWD	.L.str.64
    6fe0: 3c 00 00 40 00 42 00 00 fc 01 a8 03 00 00 04 20      	! BUNDLE
	ld_imm %r1, 15
	st_i32 %r1, %sp, 4
	ld_imm %r1, 14

    6ff0: 00 00 00 00 c1 5c 00 00 00 01 01 00 00 00 00 04      	! BUNDLE
	lda_iprel %r4, 0
	jmp 80
	nop 0

		0000000000006ff0:  R_POSTRISC_A_PCREL_FWD	.L.str.65
    7000: 28 00 00 40 00 42 00 00 fc 01 28 03 00 00 04 20      	! BUNDLE
	ld_imm %r1, 10
	st_i32 %r1, %sp, 4
	ld_imm %r1, 12

    7010: 00 00 00 00 c1 3c 00 00 00 01 01 00 00 00 00 04      	! BUNDLE
	lda_iprel %r4, 0
	jmp 48
	nop 0

		0000000000007010:  R_POSTRISC_A_PCREL_FWD	.L.str.63
    7020: 94 00 00 40 00 42 00 00 fc 01 28 04 00 00 04 20      	! BUNDLE
	ld_imm %r1, 37
	st_i32 %r1, %sp, 4
	ld_imm %r1, 16

    7030: 00 00 00 00 c1 0c 00 00 00 00 01 00 00 00 00 04      	! BUNDLE
	lda_iprel %r4, 0
	nop 0
	nop 0

		0000000000007030:  R_POSTRISC_A_PCREL_FWD	.L.str.67
    7040: 00 00 00 7f 00 0a 00 00 00 03 34 00 00 00 00 04      	! BUNDLE
	st_i32 %r1, %sp, 0
	call %r3, 0
	nop 0

		0000000000007040:  R_POSTRISC_B_JUMP	printf
    7050: 04 00 80 7f 00 00 01 00 00 02 01 00 00 00 00 04      	! BUNDLE
	mov %r1, %gz
	retf 16
	nop 0


0000000000007060 <test_switch_table_nonzero_u32>:
    7060: 40 00 80 02 41 60 ff ff 03 02 8d 03 00 03 08 ea      	! BUNDLE
	alloc_sp 5, 16
	add_imm_i32 %r2, %r1, -10
	br_ge_imm_u32 %r2, 6, 224

    7070: d8 ff ff 40 60 03 00 00 00 02 73 14 10 10 00 00      	! BUNDLE
	add_imm_u32 %r1, %r1, -10
	lda_iprel %r2, 0
	jmp_t %r2, %r1

		0000000000007070:  R_POSTRISC_B_PCREL_FWD	.LJTI753_0
    7080: 2c 00 00 40 00 02 00 00 00 04 f3 02 00 00 04 04      	! BUNDLE
	ld_imm %r1, 11
	lda_iprel %r4, 0
	jmp 176

		0000000000007080:  R_POSTRISC_B_PCREL_FWD	.L.str.68
    7090: 70 00 00 40 00 42 00 00 fc 01 e8 03 00 00 04 20      	! BUNDLE
	ld_imm %r1, 28
	st_i32 %r1, %sp, 4
	ld_imm %r1, 15

    70a0: 00 00 00 00 c1 9c 00 00 00 01 01 00 00 00 00 04      	! BUNDLE
	lda_iprel %r4, 0
	jmp 144
	nop 0

		00000000000070a0:  R_POSTRISC_A_PCREL_FWD	.L.str.72
    70b0: 38 00 00 40 00 42 00 00 fc 01 68 03 00 00 04 20      	! BUNDLE
	ld_imm %r1, 14
	st_i32 %r1, %sp, 4
	ld_imm %r1, 13

    70c0: 00 00 00 00 c1 7c 00 00 00 01 01 00 00 00 00 04      	! BUNDLE
	lda_iprel %r4, 0
	jmp 112
	nop 0

		00000000000070c0:  R_POSTRISC_A_PCREL_FWD	.L.str.70
    70d0: 3c 00 00 40 00 42 00 00 fc 01 a8 03 00 00 04 20      	! BUNDLE
	ld_imm %r1, 15
	st_i32 %r1, %sp, 4
	ld_imm %r1, 14

    70e0: 00 00 00 00 c1 5c 00 00 00 01 01 00 00 00 00 04      	! BUNDLE
	lda_iprel %r4, 0
	jmp 80
	nop 0

		00000000000070e0:  R_POSTRISC_A_PCREL_FWD	.L.str.71
    70f0: 28 00 00 40 00 42 00 00 fc 01 28 03 00 00 04 20      	! BUNDLE
	ld_imm %r1, 10
	st_i32 %r1, %sp, 4
	ld_imm %r1, 12

    7100: 00 00 00 00 c1 3c 00 00 00 01 01 00 00 00 00 04      	! BUNDLE
	lda_iprel %r4, 0
	jmp 48
	nop 0

		0000000000007100:  R_POSTRISC_A_PCREL_FWD	.L.str.69
    7110: 94 00 00 40 00 42 00 00 fc 01 28 04 00 00 04 20      	! BUNDLE
	ld_imm %r1, 37
	st_i32 %r1, %sp, 4
	ld_imm %r1, 16

    7120: 00 00 00 00 c1 0c 00 00 00 00 01 00 00 00 00 04      	! BUNDLE
	lda_iprel %r4, 0
	nop 0
	nop 0

		0000000000007120:  R_POSTRISC_A_PCREL_FWD	.L.str.73
    7130: 00 00 00 7f 00 0a 00 00 00 03 34 00 00 00 00 04      	! BUNDLE
	st_i32 %r1, %sp, 0
	call %r3, 0
	nop 0

		0000000000007130:  R_POSTRISC_B_JUMP	printf
    7140: 04 00 80 7f 00 00 01 00 00 02 01 00 00 00 00 04      	! BUNDLE
	mov %r1, %gz
	retf 16
	nop 0


0000000000007150 <test_syscall_2>:
    7150: 00 00 00 c1 40 30 10 00 00 00 00 00 00 00 08 04      	! BUNDLE
	alloc 2
	syscall
	retf 0


0000000000007160 <test_syscall>:
    7160: 00 00 80 c0 40 30 10 00 00 00 80 45 00 00 00 00      	! BUNDLE
	alloc 1
	syscall
	sysret

    7170: 00 00 00 80 40 00 00 00 00 00 01 00 00 00 00 04      	! BUNDLE
	retf 0
	nop 0
	nop 0


0000000000007180 <test_call_global_tailcall>:
    7180: 00 00 80 c2 40 10 00 00 02 03 8d 02 00 08 10 34      	! BUNDLE
	alloc 5
	add_imm_i32 %r3, %r1, 1
	add_imm_i32 %r4, %r1, 10

    7190: 00 00 00 80 00 1d 00 00 06 01 00 00 00 00 08 04      	! BUNDLE
	call %r2, 0
	mov %r1, %r3
	retf 0

		0000000000007190:  R_POSTRISC_A_JUMP	tail_call

00000000000071a0 <test_ptr_tailcall>:
    71a0: 00 00 80 c2 40 10 00 00 04 04 80 15 60 08 0c 00      	! BUNDLE
	alloc 5
	mov %r4, %r2
	call_mi %r3, %r1, 48

    71b0: 04 00 00 42 00 00 00 00 00 02 01 00 00 00 00 04      	! BUNDLE
	mov %r1, %r4
	retf 0
	nop 0


00000000000071c0 <test_call_global_ptr_table_tailcall>:
    71c0: 00 00 00 c2 40 10 00 00 02 03 00 00 00 00 08 ce      	! BUNDLE
	alloc 4
	mov %r3, %r1
	call_plt %r2, 0

		00000000000071c0:  R_POSTRISC_C_PCREL_FWD	global_ftable+0x28
    71d0: 04 00 80 41 00 00 00 00 00 02 01 00 00 00 00 04      	! BUNDLE
	mov %r1, %r3
	retf 0
	nop 0


00000000000071e0 <test_builtin_tlb_purge>:
    71e0: 00 00 00 c2 40 20 11 0c 04 01 00 00 00 00 08 04      	! BUNDLE
	alloc 4
	ptc %r1, %r2, %r3
	retf 0


00000000000071f0 <test_local_tls>:
    71f0: 40 00 80 02 41 00 00 00 00 04 33 00 00 00 0c d0      	! BUNDLE
	alloc_sp 5, 16
	lda_iprel %r4, 0
	call %r3, 0

		00000000000071f0:  R_POSTRISC_B_TLS_LD_GOT_OFFSET	x_tls
		00000000000071f0:  R_POSTRISC_C_JUMP	__tls_get_addr
    7200: 00 00 00 82 20 0a 02 04 04 01 00 04 00 00 08 04      	! BUNDLE
	ld_u64 %r2, %r4, 0
	add_i64 %r1, %r2, %r1
	retf 16

		0000000000007200:  R_POSTRISC_A_TLS_LD_OFFSET	x_tls

0000000000007210 <test_extern_tls>:
    7210: 40 00 80 02 41 00 00 00 00 04 33 00 00 00 0c d0      	! BUNDLE
	alloc_sp 5, 16
	lda_iprel %r4, 0
	call %r3, 0

		0000000000007210:  R_POSTRISC_B_TLS_LD_GOT_OFFSET	x_tls_extern
		0000000000007210:  R_POSTRISC_C_JUMP	__tls_get_addr
    7220: 00 00 00 82 20 0a 02 04 04 01 00 04 00 00 08 04      	! BUNDLE
	ld_u64 %r2, %r4, 0
	add_i64 %r1, %r2, %r1
	retf 16

		0000000000007220:  R_POSTRISC_A_TLS_LD_OFFSET	x_tls_extern

0000000000007230 <test_va_start>:
    7230: 40 02 80 03 41 00 09 00 fc 06 0c 02 00 f0 1b a6      	! BUNDLE
	alloc_sp 7, 144
	add_imm_i64 %r6, %sp, 144
	st_i64 %r6, %sp, 8

    7240: 04 00 80 c0 40 f3 ff ff 03 04 0d 04 00 f0 17 30      	! BUNDLE
	add_imm_i32 %r3, %r1, 1
	add_imm_i32 %r4, %r1, -1
	add_imm_i64 %r5, %sp, 16

    7250: 00 00 00 80 00 1d 00 00 06 01 00 24 00 00 08 04      	! BUNDLE
	call %r2, 0
	mov %r1, %r3
	retf 144

		0000000000007250:  R_POSTRISC_A_JUMP	test_va_list_callback

0000000000007260 <test_va_start_end>:
    7260: 40 02 00 04 41 00 09 00 fc 01 0c 02 00 f0 07 a6      	! BUNDLE
	alloc_sp 8, 144
	add_imm_i64 %r1, %sp, 144
	st_i64 %r1, %sp, 8

    7270: a0 0f 00 00 40 80 00 00 fc 81 e8 47 00 08 04 02      	! BUNDLE
	nop 1000
	ld_u64 %r1, %sp, 8
	alignup_u64 %r1, %r1, 0, 2

    7280: 10 00 80 80 00 83 00 00 fc 82 29 00 00 08 10 9c      	! BUNDLE
	add_imm_i64 %r2, %r1, 4
	st_i64 %r2, %sp, 8
	ld_u32 %r4, %r1, 0

    7290: a4 0f 00 00 40 80 00 00 fc 81 e8 67 00 08 04 02      	! BUNDLE
	nop 1001
	ld_u64 %r1, %sp, 8
	alignup_u64 %r1, %r1, 0, 3

    72a0: 20 00 80 80 00 83 00 00 fc 82 29 00 00 08 14 a2      	! BUNDLE
	add_imm_i64 %r2, %r1, 8
	st_i64 %r2, %sp, 8
	ld_u64 %r5, %r1, 0

    72b0: a8 0f 00 00 40 b0 3e 00 00 00 01 04 00 f0 1b 30      	! BUNDLE
	nop 1002
	nop 1003
	add_imm_i64 %r6, %sp, 16

    72c0: 20 00 00 ff 01 03 00 00 00 03 74 00 00 20 04 00      	! BUNDLE
	add_imm_i64 %r7, %sp, 8
	call %r3, 0
	mov %r1, %r4

		00000000000072c0:  R_POSTRISC_B_JUMP	test_va_callback
    72d0: 40 02 00 80 40 00 00 00 00 00 01 00 00 00 00 04      	! BUNDLE
	retf 144
	nop 0
	nop 0


00000000000072e0 <test_printf_valist>:
    72e0: 40 00 00 03 41 80 00 00 fc 82 29 00 00 f0 0b a6      	! BUNDLE
	alloc_sp 6, 16
	st_i64 %r2, %sp, 8
	st_i64 %r2, %sp, 0

    72f0: 90 01 00 00 01 02 00 00 fc 01 4c 00 00 08 14 00      	! BUNDLE
	ld_imm %r4, 100
	add_imm_i64 %r1, %sp, 0
	mov %r5, %r1

    7300: 00 00 00 c0 00 8d 0c 00 00 04 48 00 00 08 14 00      	! BUNDLE
	call %r3, 0
	ld_imm %r4, 200
	mov %r5, %r1

		0000000000007300:  R_POSTRISC_A_JUMP	test_printf_callback
    7310: 00 00 00 c0 00 1d 00 00 08 01 00 04 00 00 08 04      	! BUNDLE
	call %r3, 0
	mov %r1, %r4
	retf 16

		0000000000007310:  R_POSTRISC_A_JUMP	test_printf_callback

0000000000007320 <test_vprintf_valist>:
    7320: 80 00 00 03 41 80 01 00 fc 82 29 04 00 f0 0b a6      	! BUNDLE
	alloc_sp 6, 32
	st_i64 %r2, %sp, 24
	st_i64 %r2, %sp, 16

    7330: 20 00 00 bf 60 4a 06 00 00 04 08 04 00 f0 17 30      	! BUNDLE
	st_i64 %r2, %sp, 8
	ld_imm %r4, 100
	add_imm_i64 %r5, %sp, 16

    7340: 00 00 00 c0 00 8d 0c 00 00 04 08 02 00 f0 17 30      	! BUNDLE
	call %r3, 0
	ld_imm %r4, 200
	add_imm_i64 %r5, %sp, 8

		0000000000007340:  R_POSTRISC_A_JUMP	test_vprintf_callback
    7350: 00 00 00 c0 00 1d 00 00 08 01 00 08 00 00 08 04      	! BUNDLE
	call %r3, 0
	mov %r1, %r4
	retf 32

		0000000000007350:  R_POSTRISC_A_JUMP	test_vprintf_callback

0000000000007360 <test_vacopy>:
    7360: 40 00 80 02 41 80 00 00 fc 82 29 00 00 f0 0b a6      	! BUNDLE
	alloc_sp 5, 16
	st_i64 %r2, %sp, 8
	st_i64 %r2, %sp, 0

    7370: 00 00 00 7f 00 13 00 00 02 04 00 00 00 00 0c d0      	! BUNDLE
	add_imm_i64 %r1, %sp, 0
	mov %r4, %r1
	call %r3, 0

		0000000000007370:  R_POSTRISC_C_JUMP	test_valist_callback
    7380: 04 00 80 00 01 00 00 00 00 03 74 00 00 20 04 00      	! BUNDLE
	mov %r4, %r1
	call %r3, 0
	mov %r1, %r4

		0000000000007380:  R_POSTRISC_B_JUMP	test_valist_callback
    7390: 40 00 00 80 40 00 00 00 00 00 01 00 00 00 00 04      	! BUNDLE
	retf 16
	nop 0
	nop 0


00000000000073a0 <test_vector_bitcast_v2i64_to_v4i32>:
    73a0: 00 00 00 c1 40 00 00 00 00 02 01 00 00 00 00 04      	! BUNDLE
	alloc 2
	retf 0
	nop 0


00000000000073b0 <test_vector_bitcast_v2i64_to_v8i16>:
    73b0: 00 00 00 c1 40 00 00 00 00 02 01 00 00 00 00 04      	! BUNDLE
	alloc 2
	retf 0
	nop 0


00000000000073c0 <test_vector_bitcast_v2i64_to_v16i8>:
    73c0: 00 00 00 c1 40 00 00 00 00 02 01 00 00 00 00 04      	! BUNDLE
	alloc 2
	retf 0
	nop 0


00000000000073d0 <test_vector_bitcast_v4i32_to_v2i64>:
    73d0: 00 00 00 c1 40 00 00 00 00 02 01 00 00 00 00 04      	! BUNDLE
	alloc 2
	retf 0
	nop 0


00000000000073e0 <test_vector_bitcast_v4i32_to_v8i16>:
    73e0: 00 00 00 c1 40 00 00 00 00 02 01 00 00 00 00 04      	! BUNDLE
	alloc 2
	retf 0
	nop 0


00000000000073f0 <test_vector_bitcast_v4i32_to_v16i8>:
    73f0: 00 00 00 c1 40 00 00 00 00 02 01 00 00 00 00 04      	! BUNDLE
	alloc 2
	retf 0
	nop 0


0000000000007400 <test_vector_bitcast_v8i16_to_v2i64>:
    7400: 00 00 00 c1 40 00 00 00 00 02 01 00 00 00 00 04      	! BUNDLE
	alloc 2
	retf 0
	nop 0


0000000000007410 <test_vector_bitcast_v8i16_to_v4i32>:
    7410: 00 00 00 c1 40 00 00 00 00 02 01 00 00 00 00 04      	! BUNDLE
	alloc 2
	retf 0
	nop 0


0000000000007420 <test_vector_bitcast_v8i16_to_v16i8>:
    7420: 00 00 00 c1 40 00 00 00 00 02 01 00 00 00 00 04      	! BUNDLE
	alloc 2
	retf 0
	nop 0


0000000000007430 <test_vector_bitcast_v16i8_to_v2i64>:
    7430: 00 00 00 c1 40 00 00 00 00 02 01 00 00 00 00 04      	! BUNDLE
	alloc 2
	retf 0
	nop 0


0000000000007440 <test_vector_bitcast_v16i8_to_v4i32>:
    7440: 00 00 00 c1 40 00 00 00 00 02 01 00 00 00 00 04      	! BUNDLE
	alloc 2
	retf 0
	nop 0


0000000000007450 <test_vector_bitcast_v16i8_to_v8i16>:
    7450: 00 00 00 c1 40 00 00 00 00 02 01 00 00 00 00 04      	! BUNDLE
	alloc 2
	retf 0
	nop 0


0000000000007460 <test_vector_bitcast_f128_to_v16i8>:
    7460: 00 00 00 c1 40 00 00 00 00 02 01 00 00 00 00 04      	! BUNDLE
	alloc 2
	retf 0
	nop 0


0000000000007470 <test_vector_bitcast_f128_to_v8i16>:
    7470: 00 00 00 c1 40 00 00 00 00 02 01 00 00 00 00 04      	! BUNDLE
	alloc 2
	retf 0
	nop 0


0000000000007480 <test_vector_bitcast_f128_to_v4i32>:
    7480: 00 00 00 c1 40 00 00 00 00 02 01 00 00 00 00 04      	! BUNDLE
	alloc 2
	retf 0
	nop 0


0000000000007490 <test_vector_bitcast_f128_to_v2i64>:
    7490: 00 00 00 c1 40 00 00 00 00 02 01 00 00 00 00 04      	! BUNDLE
	alloc 2
	retf 0
	nop 0


00000000000074a0 <test_vector_bitcast_v16i8_to_f128>:
    74a0: 00 00 00 c1 40 00 00 00 00 02 01 00 00 00 00 04      	! BUNDLE
	alloc 2
	retf 0
	nop 0


00000000000074b0 <test_vector_bitcast_v8i16_to_f128>:
    74b0: 00 00 00 c1 40 00 00 00 00 02 01 00 00 00 00 04      	! BUNDLE
	alloc 2
	retf 0
	nop 0


00000000000074c0 <test_vector_bitcast_v4i32_to_f128>:
    74c0: 00 00 00 c1 40 00 00 00 00 02 01 00 00 00 00 04      	! BUNDLE
	alloc 2
	retf 0
	nop 0


00000000000074d0 <test_vector_bitcast_v2i64_to_f128>:
    74d0: 00 00 00 c1 40 00 00 00 00 02 01 00 00 00 00 04      	! BUNDLE
	alloc 2
	retf 0
	nop 0


00000000000074e0 <test_vector_bitcast_i128_to_v16i8>:
    74e0: 00 00 00 c1 40 00 00 00 00 02 01 00 00 00 00 04      	! BUNDLE
	alloc 2
	retf 0
	nop 0


00000000000074f0 <test_vector_bitcast_i128_to_v8i16>:
    74f0: 00 00 00 c1 40 00 00 00 00 02 01 00 00 00 00 04      	! BUNDLE
	alloc 2
	retf 0
	nop 0


0000000000007500 <test_vector_bitcast_i128_to_v4i32>:
    7500: 00 00 00 c1 40 00 00 00 00 02 01 00 00 00 00 04      	! BUNDLE
	alloc 2
	retf 0
	nop 0


0000000000007510 <test_vector_bitcast_i128_to_v2i64>:
    7510: 00 00 00 c1 40 00 00 00 00 02 01 00 00 00 00 04      	! BUNDLE
	alloc 2
	retf 0
	nop 0


0000000000007520 <test_vector_bitcast_v16i8_to_i128>:
    7520: 00 00 00 c1 40 00 00 00 00 02 01 00 00 00 00 04      	! BUNDLE
	alloc 2
	retf 0
	nop 0


0000000000007530 <test_vector_bitcast_v8i16_to_i128>:
    7530: 00 00 00 c1 40 00 00 00 00 02 01 00 00 00 00 04      	! BUNDLE
	alloc 2
	retf 0
	nop 0


0000000000007540 <test_vector_bitcast_v4i32_to_i128>:
    7540: 00 00 00 c1 40 00 00 00 00 02 01 00 00 00 00 04      	! BUNDLE
	alloc 2
	retf 0
	nop 0


0000000000007550 <test_vector_bitcast_v2i64_to_i128>:
    7550: 00 00 00 c1 40 00 00 00 00 02 01 00 00 00 00 04      	! BUNDLE
	alloc 2
	retf 0
	nop 0


0000000000007560 <test_stack_array>:
    7560: 40 00 80 06 41 10 00 00 fa 05 00 04 00 f0 f7 31      	! BUNDLE
	alloc_sp 13, 16
	mov %r5, %fp
	add_imm_i64 %fp, %sp, 16

    7570: c0 ff 7f bf 1f 03 00 00 00 0c 33 00 00 f0 07 a6      	! BUNDLE
	add_imm_i64 %sp, %sp, -16
	lda_iprel %r12, 0
	st_i64 %r1, %sp, 0

		0000000000007570:  R_POSTRISC_B_PCREL_FWD	.L.str.74
    7580: 00 00 00 c0 02 0d 01 00 fc 7e cc 87 30 08 10 02      	! BUNDLE
	call %r11, 0
	add_imm_i64 %sp, %sp, 16
	alignup_u64 %r4, %r1, 3, 4

		0000000000007580:  R_POSTRISC_A_JUMP	printf
    7590: 84 00 04 3f 01 10 00 00 08 7e 00 08 10 10 24 00      	! BUNDLE
	sub_i64 %r4, %sp, %r4
	mov %sp, %r4
	add_i64 %r9, %r2, %r1

    75a0: 36 1d 83 04 02 21 00 00 00 00 40 08 20 08 0c 00      	! BUNDLE
	lda_xi64.l %r8, %r9, %r3, 0, 333
	sub_i64 %r3, %r1, %r2

    75b0: b0 00 80 81 02 73 09 04 04 8b c0 25 20 08 30 02      	! BUNDLE
	add_imm_i64 %r10, %r3, 44
	sl_add_i64 %r11, %r2, %r1, 1
	sl_add_i64 %r12, %r1, %r2, 1

    75c0: 04 00 00 c2 01 00 00 00 00 06 34 fe ff ef 1f a6      	! BUNDLE
	mov %r7, %r4
	call %r6, 0
	st_i64 %r7, %fp, -8

		00000000000075c0:  R_POSTRISC_B_JUMP	stack_array_consumer
    75d0: 00 00 00 c2 20 8a ff ff fb 84 28 82 20 18 08 02      	! BUNDLE
	ld_u64 %r3, %r4, 0
	ld_u64 %r4, %fp, -8
	add_add_i64 %r2, %r3, %r2, %r4

    75e0: e0 ff ff be 60 8a ff ff fb 82 28 fc ff f7 fb 31      	! BUNDLE
	st_i64 %r2, %fp, -8
	ld_u64 %r2, %fp, -8
	add_imm_i64 %sp, %sp, -16

    75f0: 00 00 00 00 c3 0c 00 00 fc 82 29 00 00 00 2c d0      	! BUNDLE
	lda_iprel %r12, 0
	st_i64 %r2, %sp, 0
	call %r11, 0

		00000000000075f0:  R_POSTRISC_A_PCREL_FWD	.L.str.75
		00000000000075f0:  R_POSTRISC_C_JUMP	printf
    7600: 40 00 00 bf 1f 83 ff ff fb 82 28 08 10 10 04 00      	! BUNDLE
	add_imm_i64 %sp, %sp, 16
	ld_u64 %r2, %fp, -8
	add_i64 %r1, %r2, %r1

    7610: 04 00 80 be 1f 10 00 00 0a 7d 00 00 00 00 08 04      	! BUNDLE
	mov %sp, %fp
	mov %fp, %r5
	retf 0


Disassembly of section .text.unlikely.:

0000000000000000 <test_int>:
       0: 00 00 00 c1 40 20 10 00 02 00 80 40 c8 f8 03 00      	! BUNDLE
	alloc 2
	int %r1, 0
	int %gz, 100

      10: 08 04 99 3f 00 20 90 7f fe 00 80 40 c6 f8 03 00      	! BUNDLE
	int %gz, 200
	int %gz, 255
	int %gz, 99

      20: 08 24 80 3f 00 20 90 02 fe 00 00 00 00 00 00 04      	! BUNDLE
	int %gz, 1
	int %gz, 5
	nop 0

